ARM GAS  /tmp/cchr27lD.s 			page 1


   1              		.syntax unified
   2              		.cpu cortex-m4
   3              		.eabi_attribute 27, 3
   4              		.eabi_attribute 28, 1
   5              		.fpu fpv4-sp-d16
   6              		.eabi_attribute 20, 1
   7              		.eabi_attribute 21, 1
   8              		.eabi_attribute 23, 3
   9              		.eabi_attribute 24, 1
  10              		.eabi_attribute 25, 1
  11              		.eabi_attribute 26, 1
  12              		.eabi_attribute 30, 2
  13              		.eabi_attribute 34, 1
  14              		.eabi_attribute 18, 4
  15              		.thumb
  16              		.file	"adc.c"
  17              		.text
  18              	.Ltext0:
  19              		.cfi_sections	.debug_frame
  20              		.section	.text.adcInit,"ax",%progbits
  21              		.align	2
  22              		.p2align 4,,15
  23              		.global	adcInit
  24              		.thumb
  25              		.thumb_func
  26              		.type	adcInit, %function
  27              	adcInit:
  28              	.LFB117:
  29              		.file 1 "/opt/ChibiOS/ChibiOS_2.4.4/os/hal/src/adc.c"
  30              		.loc 1 68 0
  31              		.cfi_startproc
  32              		@ args = 0, pretend = 0, frame = 0
  33              		@ frame_needed = 0, uses_anonymous_args = 0
  34              		@ link register save eliminated.
  35              		.loc 1 71 0
  36              		.loc 1 70 0
  37 0000 FFF7FEBF 		b	adc_lld_init
  38              		.cfi_endproc
  39              	.LFE117:
  40              		.size	adcInit, .-adcInit
  41 0004 AFF30080 		.section	.text.adcObjectInit,"ax",%progbits
  41      AFF30080 
  41      AFF30080 
  42              		.align	2
  43              		.p2align 4,,15
  44              		.global	adcObjectInit
  45              		.thumb
  46              		.thumb_func
  47              		.type	adcObjectInit, %function
  48              	adcObjectInit:
  49              	.LFB118:
  50              		.loc 1 80 0
  51              		.cfi_startproc
  52              		@ args = 0, pretend = 0, frame = 0
  53              		@ frame_needed = 0, uses_anonymous_args = 0
  54              		@ link register save eliminated.
  55              	.LVL0:
ARM GAS  /tmp/cchr27lD.s 			page 2


  56              		.loc 1 83 0
  57 0000 0023     		movs	r3, #0
  58              		.loc 1 82 0
  59 0002 0122     		movs	r2, #1
  60 0004 0270     		strb	r2, [r0, #0]
  61              		.loc 1 83 0
  62 0006 4360     		str	r3, [r0, #4]
  63              		.loc 1 84 0
  64 0008 8360     		str	r3, [r0, #8]
  65              		.loc 1 85 0
  66 000a C360     		str	r3, [r0, #12]
  67              		.loc 1 86 0
  68 000c 0361     		str	r3, [r0, #16]
  69              		.loc 1 88 0
  70 000e 4361     		str	r3, [r0, #20]
  71              		.loc 1 92 0
  72 0010 1830     		adds	r0, r0, #24
  73              	.LVL1:
  74              		.loc 1 100 0
  75              		.loc 1 92 0
  76 0012 FFF7FEBF 		b	chMtxInit
  77              	.LVL2:
  78              		.cfi_endproc
  79              	.LFE118:
  80              		.size	adcObjectInit, .-adcObjectInit
  81 0016 00BFAFF3 		.section	.text.adcStart,"ax",%progbits
  81      0080AFF3 
  81      0080
  82              		.align	2
  83              		.p2align 4,,15
  84              		.global	adcStart
  85              		.thumb
  86              		.thumb_func
  87              		.type	adcStart, %function
  88              	adcStart:
  89              	.LFB119:
  90              		.loc 1 111 0
  91              		.cfi_startproc
  92              		@ args = 0, pretend = 0, frame = 0
  93              		@ frame_needed = 0, uses_anonymous_args = 0
  94              	.LVL3:
  95 0000 10B5     		push	{r4, lr}
  96              	.LCFI0:
  97              		.cfi_def_cfa_offset 8
  98              		.cfi_offset 14, -4
  99              		.cfi_offset 4, -8
 100              	.LBB10:
 101              		.loc 1 115 0
 102 0002 2023     		movs	r3, #32
 103              	.LVL4:
 104              	.LBE10:
 105              		.loc 1 111 0
 106 0004 0446     		mov	r4, r0
 107              	.LBB11:
 108              		.loc 1 115 0
 109              	@ 115 "/opt/ChibiOS/ChibiOS_2.4.4/os/hal/src/adc.c" 1
 110 0006 83F31188 		msr     BASEPRI, r3
ARM GAS  /tmp/cchr27lD.s 			page 3


 111              	@ 0 "" 2
 112              	.LVL5:
 113              		.thumb
 114              	.LBE11:
 115              		.loc 1 118 0
 116 000a 4160     		str	r1, [r0, #4]
 117              		.loc 1 119 0
 118 000c FFF7FEFF 		bl	adc_lld_start
 119              	.LVL6:
 120              		.loc 1 120 0
 121 0010 0223     		movs	r3, #2
 122 0012 2370     		strb	r3, [r4, #0]
 123              	.LBB12:
 124              		.loc 1 121 0
 125 0014 0023     		movs	r3, #0
 126              	.LVL7:
 127              	@ 121 "/opt/ChibiOS/ChibiOS_2.4.4/os/hal/src/adc.c" 1
 128 0016 83F31188 		msr     BASEPRI, r3
 129              	@ 0 "" 2
 130              	.LVL8:
 131              		.thumb
 132              	.LBE12:
 133              		.loc 1 122 0
 134 001a 10BD     		pop	{r4, pc}
 135              		.cfi_endproc
 136              	.LFE119:
 137              		.size	adcStart, .-adcStart
 138 001c AFF30080 		.section	.text.adcStop,"ax",%progbits
 139              		.align	2
 140              		.p2align 4,,15
 141              		.global	adcStop
 142              		.thumb
 143              		.thumb_func
 144              		.type	adcStop, %function
 145              	adcStop:
 146              	.LFB120:
 147              		.loc 1 131 0
 148              		.cfi_startproc
 149              		@ args = 0, pretend = 0, frame = 0
 150              		@ frame_needed = 0, uses_anonymous_args = 0
 151              	.LVL9:
 152 0000 10B5     		push	{r4, lr}
 153              	.LCFI1:
 154              		.cfi_def_cfa_offset 8
 155              		.cfi_offset 14, -4
 156              		.cfi_offset 4, -8
 157              	.LBB13:
 158              		.loc 1 135 0
 159 0002 2023     		movs	r3, #32
 160              	.LVL10:
 161              	.LBE13:
 162              		.loc 1 131 0
 163 0004 0446     		mov	r4, r0
 164              	.LBB14:
 165              		.loc 1 135 0
 166              	@ 135 "/opt/ChibiOS/ChibiOS_2.4.4/os/hal/src/adc.c" 1
 167 0006 83F31188 		msr     BASEPRI, r3
ARM GAS  /tmp/cchr27lD.s 			page 4


 168              	@ 0 "" 2
 169              	.LVL11:
 170              		.thumb
 171              	.LBE14:
 172              		.loc 1 138 0
 173 000a FFF7FEFF 		bl	adc_lld_stop
 174              	.LVL12:
 175              		.loc 1 139 0
 176 000e 0123     		movs	r3, #1
 177 0010 2370     		strb	r3, [r4, #0]
 178              	.LBB15:
 179              		.loc 1 140 0
 180 0012 0023     		movs	r3, #0
 181              	.LVL13:
 182              	@ 140 "/opt/ChibiOS/ChibiOS_2.4.4/os/hal/src/adc.c" 1
 183 0014 83F31188 		msr     BASEPRI, r3
 184              	@ 0 "" 2
 185              	.LVL14:
 186              		.thumb
 187              	.LBE15:
 188              		.loc 1 141 0
 189 0018 10BD     		pop	{r4, pc}
 190              		.cfi_endproc
 191              	.LFE120:
 192              		.size	adcStop, .-adcStop
 193 001a 00BFAFF3 		.section	.text.adcStartConversion,"ax",%progbits
 193      0080
 194              		.align	2
 195              		.p2align 4,,15
 196              		.global	adcStartConversion
 197              		.thumb
 198              		.thumb_func
 199              		.type	adcStartConversion, %function
 200              	adcStartConversion:
 201              	.LFB121:
 202              		.loc 1 162 0
 203              		.cfi_startproc
 204              		@ args = 0, pretend = 0, frame = 0
 205              		@ frame_needed = 0, uses_anonymous_args = 0
 206              	.LVL15:
 207 0000 38B5     		push	{r3, r4, r5, lr}
 208              	.LCFI2:
 209              		.cfi_def_cfa_offset 16
 210              		.cfi_offset 14, -4
 211              		.cfi_offset 5, -8
 212              		.cfi_offset 4, -12
 213              		.cfi_offset 3, -16
 214              		.loc 1 162 0
 215 0002 1D46     		mov	r5, r3
 216              	.LBB16:
 217              		.loc 1 164 0
 218 0004 2023     		movs	r3, #32
 219              	.LVL16:
 220              	@ 164 "/opt/ChibiOS/ChibiOS_2.4.4/os/hal/src/adc.c" 1
 221 0006 83F31188 		msr     BASEPRI, r3
 222              	@ 0 "" 2
 223              	.LVL17:
ARM GAS  /tmp/cchr27lD.s 			page 5


 224              		.thumb
 225              	.LBE16:
 226              	.LBB17:
 227              	.LBB18:
 228              		.loc 1 204 0
 229 000a 0323     		movs	r3, #3
 230              	.LVL18:
 231 000c 0370     		strb	r3, [r0, #0]
 232              		.loc 1 201 0
 233 000e 8260     		str	r2, [r0, #8]
 234              		.loc 1 202 0
 235 0010 C560     		str	r5, [r0, #12]
 236              		.loc 1 203 0
 237 0012 0161     		str	r1, [r0, #16]
 238              		.loc 1 205 0
 239 0014 FFF7FEFF 		bl	adc_lld_start_conversion
 240              	.LVL19:
 241              	.LBE18:
 242              	.LBE17:
 243              	.LBB19:
 244              		.loc 1 166 0
 245 0018 0023     		movs	r3, #0
 246              	.LVL20:
 247              	@ 166 "/opt/ChibiOS/ChibiOS_2.4.4/os/hal/src/adc.c" 1
 248 001a 83F31188 		msr     BASEPRI, r3
 249              	@ 0 "" 2
 250              	.LVL21:
 251              		.thumb
 252              	.LBE19:
 253              		.loc 1 167 0
 254 001e 38BD     		pop	{r3, r4, r5, pc}
 255              		.cfi_endproc
 256              	.LFE121:
 257              		.size	adcStartConversion, .-adcStartConversion
 258              		.section	.text.adcStartConversionI,"ax",%progbits
 259              		.align	2
 260              		.p2align 4,,15
 261              		.global	adcStartConversionI
 262              		.thumb
 263              		.thumb_func
 264              		.type	adcStartConversionI, %function
 265              	adcStartConversionI:
 266              	.LFB122:
 267              		.loc 1 190 0
 268              		.cfi_startproc
 269              		@ args = 0, pretend = 0, frame = 0
 270              		@ frame_needed = 0, uses_anonymous_args = 0
 271              		@ link register save eliminated.
 272              	.LVL22:
 273 0000 10B4     		push	{r4}
 274              	.LCFI3:
 275              		.cfi_def_cfa_offset 4
 276              		.cfi_offset 4, -4
 277              		.loc 1 202 0
 278 0002 C360     		str	r3, [r0, #12]
 279              		.loc 1 204 0
 280 0004 0323     		movs	r3, #3
ARM GAS  /tmp/cchr27lD.s 			page 6


 281              	.LVL23:
 282              		.loc 1 201 0
 283 0006 8260     		str	r2, [r0, #8]
 284              		.loc 1 203 0
 285 0008 0161     		str	r1, [r0, #16]
 286              		.loc 1 204 0
 287 000a 0370     		strb	r3, [r0, #0]
 288              		.loc 1 206 0
 289 000c 10BC     		pop	{r4}
 290              		.loc 1 205 0
 291 000e FFF7FEBF 		b	adc_lld_start_conversion
 292              	.LVL24:
 293              	.LVL25:
 294              	.LVL26:
 295              	.LVL27:
 296              		.cfi_endproc
 297              	.LFE122:
 298              		.size	adcStartConversionI, .-adcStartConversionI
 299 0012 00BFAFF3 		.section	.text.adcStopConversion,"ax",%progbits
 299      0080AFF3 
 299      0080AFF3 
 299      0080
 300              		.align	2
 301              		.p2align 4,,15
 302              		.global	adcStopConversion
 303              		.thumb
 304              		.thumb_func
 305              		.type	adcStopConversion, %function
 306              	adcStopConversion:
 307              	.LFB123:
 308              		.loc 1 218 0
 309              		.cfi_startproc
 310              		@ args = 0, pretend = 0, frame = 0
 311              		@ frame_needed = 0, uses_anonymous_args = 0
 312              	.LVL28:
 313 0000 10B5     		push	{r4, lr}
 314              	.LCFI4:
 315              		.cfi_def_cfa_offset 8
 316              		.cfi_offset 14, -4
 317              		.cfi_offset 4, -8
 318              	.LBB20:
 319              		.loc 1 222 0
 320 0002 2023     		movs	r3, #32
 321              	.LVL29:
 322              	.LBE20:
 323              		.loc 1 218 0
 324 0004 0446     		mov	r4, r0
 325              	.LBB21:
 326              		.loc 1 222 0
 327              	@ 222 "/opt/ChibiOS/ChibiOS_2.4.4/os/hal/src/adc.c" 1
 328 0006 83F31188 		msr     BASEPRI, r3
 329              	@ 0 "" 2
 330              	.LVL30:
 331              		.thumb
 332              	.LBE21:
 333              		.loc 1 226 0
 334 000a 0378     		ldrb	r3, [r0, #0]	@ zero_extendqisi2
ARM GAS  /tmp/cchr27lD.s 			page 7


 335              	.LVL31:
 336 000c 022B     		cmp	r3, #2
 337 000e 0CD0     		beq	.L8
 338              		.loc 1 227 0
 339 0010 FFF7FEFF 		bl	adc_lld_stop_conversion
 340              	.LVL32:
 341              		.loc 1 230 0
 342 0014 6069     		ldr	r0, [r4, #20]
 343              		.loc 1 228 0
 344 0016 0023     		movs	r3, #0
 345              		.loc 1 229 0
 346 0018 0222     		movs	r2, #2
 347              		.loc 1 228 0
 348 001a 2361     		str	r3, [r4, #16]
 349              		.loc 1 229 0
 350 001c 2270     		strb	r2, [r4, #0]
 351              		.loc 1 230 0
 352 001e 20B1     		cbz	r0, .L8
 353              	.LVL33:
 354              	.LBB22:
 355              		.loc 1 230 0 is_stmt 0 discriminator 1
 356 0020 6361     		str	r3, [r4, #20]
 357 0022 6FF00101 		mvn	r1, #1
 358 0026 FFF7FEFF 		bl	chSchWakeupS
 359              	.LVL34:
 360              	.L8:
 361              	.LBE22:
 362              	.LBB23:
 363              		.loc 1 232 0 is_stmt 1
 364 002a 0023     		movs	r3, #0
 365              	.LVL35:
 366              	@ 232 "/opt/ChibiOS/ChibiOS_2.4.4/os/hal/src/adc.c" 1
 367 002c 83F31188 		msr     BASEPRI, r3
 368              	@ 0 "" 2
 369              	.LVL36:
 370              		.thumb
 371              	.LBE23:
 372              		.loc 1 233 0
 373 0030 10BD     		pop	{r4, pc}
 374              		.cfi_endproc
 375              	.LFE123:
 376              		.size	adcStopConversion, .-adcStopConversion
 377 0032 00BFAFF3 		.section	.text.adcStopConversionI,"ax",%progbits
 377      0080AFF3 
 377      0080AFF3 
 377      0080
 378              		.align	2
 379              		.p2align 4,,15
 380              		.global	adcStopConversionI
 381              		.thumb
 382              		.thumb_func
 383              		.type	adcStopConversionI, %function
 384              	adcStopConversionI:
 385              	.LFB124:
 386              		.loc 1 245 0
 387              		.cfi_startproc
 388              		@ args = 0, pretend = 0, frame = 0
ARM GAS  /tmp/cchr27lD.s 			page 8


 389              		@ frame_needed = 0, uses_anonymous_args = 0
 390              	.LVL37:
 391              		.loc 1 254 0
 392 0000 0378     		ldrb	r3, [r0, #0]	@ zero_extendqisi2
 393 0002 022B     		cmp	r3, #2
 394              		.loc 1 245 0
 395 0004 10B5     		push	{r4, lr}
 396              	.LCFI5:
 397              		.cfi_def_cfa_offset 8
 398              		.cfi_offset 14, -4
 399              		.cfi_offset 4, -8
 400              		.loc 1 245 0
 401 0006 0446     		mov	r4, r0
 402              		.loc 1 254 0
 403 0008 10D0     		beq	.L10
 404              		.loc 1 255 0
 405 000a FFF7FEFF 		bl	adc_lld_stop_conversion
 406              	.LVL38:
 407              		.loc 1 258 0
 408 000e 6369     		ldr	r3, [r4, #20]
 409              		.loc 1 256 0
 410 0010 0022     		movs	r2, #0
 411              		.loc 1 257 0
 412 0012 0221     		movs	r1, #2
 413              		.loc 1 256 0
 414 0014 2261     		str	r2, [r4, #16]
 415              		.loc 1 257 0
 416 0016 2170     		strb	r1, [r4, #0]
 417              		.loc 1 258 0
 418 0018 43B1     		cbz	r3, .L10
 419              	.LVL39:
 420              	.LBB24:
 421              		.loc 1 258 0 is_stmt 0 discriminator 1
 422 001a 6261     		str	r2, [r4, #20]
 423 001c 1846     		mov	r0, r3
 424 001e 6FF00102 		mvn	r2, #1
 425 0022 5A62     		str	r2, [r3, #36]
 426              	.LBE24:
 427              		.loc 1 260 0 is_stmt 1 discriminator 1
 428 0024 BDE81040 		pop	{r4, lr}
 429              	.LBB25:
 430              		.loc 1 258 0 discriminator 1
 431 0028 FFF7FEBF 		b	chSchReadyI
 432              	.LVL40:
 433              	.L10:
 434 002c 10BD     		pop	{r4, pc}
 435              	.LBE25:
 436              		.cfi_endproc
 437              	.LFE124:
 438              		.size	adcStopConversionI, .-adcStopConversionI
 439 002e 00BF     		.section	.text.adcConvert,"ax",%progbits
 440              		.align	2
 441              		.p2align 4,,15
 442              		.global	adcConvert
 443              		.thumb
 444              		.thumb_func
 445              		.type	adcConvert, %function
ARM GAS  /tmp/cchr27lD.s 			page 9


 446              	adcConvert:
 447              	.LFB125:
 448              		.loc 1 289 0
 449              		.cfi_startproc
 450              		@ args = 0, pretend = 0, frame = 0
 451              		@ frame_needed = 0, uses_anonymous_args = 0
 452              	.LVL41:
 453 0000 70B5     		push	{r4, r5, r6, lr}
 454              	.LCFI6:
 455              		.cfi_def_cfa_offset 16
 456              		.cfi_offset 14, -4
 457              		.cfi_offset 6, -8
 458              		.cfi_offset 5, -12
 459              		.cfi_offset 4, -16
 460              		.loc 1 289 0
 461 0002 1D46     		mov	r5, r3
 462 0004 0446     		mov	r4, r0
 463              	.LBB26:
 464              		.loc 1 292 0
 465 0006 2023     		movs	r3, #32
 466              	.LVL42:
 467              	@ 292 "/opt/ChibiOS/ChibiOS_2.4.4/os/hal/src/adc.c" 1
 468 0008 83F31188 		msr     BASEPRI, r3
 469              	@ 0 "" 2
 470              	.LVL43:
 471              		.thumb
 472              	.LBE26:
 473              		.loc 1 295 0
 474 000c 40F20006 		movw	r6, #:lower16:rlist
 475 0010 C0F20006 		movt	r6, #:upper16:rlist
 476              	.LBB27:
 477              	.LBB28:
 478              		.loc 1 203 0
 479 0014 0161     		str	r1, [r0, #16]
 480              		.loc 1 204 0
 481 0016 0321     		movs	r1, #3
 482              	.LVL44:
 483              		.loc 1 201 0
 484 0018 8260     		str	r2, [r0, #8]
 485              		.loc 1 204 0
 486 001a 0170     		strb	r1, [r0, #0]
 487              		.loc 1 202 0
 488 001c C560     		str	r5, [r0, #12]
 489              		.loc 1 205 0
 490 001e FFF7FEFF 		bl	adc_lld_start_conversion
 491              	.LVL45:
 492              	.LBE28:
 493              	.LBE27:
 494              		.loc 1 295 0
 495 0022 F369     		ldr	r3, [r6, #28]
 496              		.loc 1 296 0
 497 0024 0220     		movs	r0, #2
 498              		.loc 1 295 0
 499 0026 6361     		str	r3, [r4, #20]
 500              		.loc 1 296 0
 501 0028 FFF7FEFF 		bl	chSchGoSleepS
 502              		.loc 1 297 0
ARM GAS  /tmp/cchr27lD.s 			page 10


 503 002c F269     		ldr	r2, [r6, #28]
 504              	.LBB29:
 505              		.loc 1 298 0
 506 002e 0023     		movs	r3, #0
 507              	.LVL46:
 508              	.LBE29:
 509              		.loc 1 297 0
 510 0030 506A     		ldr	r0, [r2, #36]
 511              	.LVL47:
 512              	.LBB30:
 513              		.loc 1 298 0
 514              	@ 298 "/opt/ChibiOS/ChibiOS_2.4.4/os/hal/src/adc.c" 1
 515 0032 83F31188 		msr     BASEPRI, r3
 516              	@ 0 "" 2
 517              	.LVL48:
 518              		.thumb
 519              	.LBE30:
 520              		.loc 1 300 0
 521 0036 70BD     		pop	{r4, r5, r6, pc}
 522              		.cfi_endproc
 523              	.LFE125:
 524              		.size	adcConvert, .-adcConvert
 525 0038 AFF30080 		.section	.text.adcAcquireBus,"ax",%progbits
 525      AFF30080 
 526              		.align	2
 527              		.p2align 4,,15
 528              		.global	adcAcquireBus
 529              		.thumb
 530              		.thumb_func
 531              		.type	adcAcquireBus, %function
 532              	adcAcquireBus:
 533              	.LFB126:
 534              		.loc 1 315 0
 535              		.cfi_startproc
 536              		@ args = 0, pretend = 0, frame = 0
 537              		@ frame_needed = 0, uses_anonymous_args = 0
 538              		@ link register save eliminated.
 539              	.LVL49:
 540              		.loc 1 320 0
 541 0000 1830     		adds	r0, r0, #24
 542              	.LVL50:
 543              		.loc 1 324 0
 544              		.loc 1 320 0
 545 0002 FFF7FEBF 		b	chMtxLock
 546              	.LVL51:
 547              		.cfi_endproc
 548              	.LFE126:
 549              		.size	adcAcquireBus, .-adcAcquireBus
 550 0006 00BFAFF3 		.section	.text.adcReleaseBus,"ax",%progbits
 550      0080AFF3 
 550      0080
 551              		.align	2
 552              		.p2align 4,,15
 553              		.global	adcReleaseBus
 554              		.thumb
 555              		.thumb_func
 556              		.type	adcReleaseBus, %function
ARM GAS  /tmp/cchr27lD.s 			page 11


 557              	adcReleaseBus:
 558              	.LFB127:
 559              		.loc 1 335 0
 560              		.cfi_startproc
 561              		@ args = 0, pretend = 0, frame = 0
 562              		@ frame_needed = 0, uses_anonymous_args = 0
 563              		@ link register save eliminated.
 564              	.LVL52:
 565              		.loc 1 345 0
 566              		.loc 1 341 0
 567 0000 FFF7FEBF 		b	chMtxUnlock
 568              	.LVL53:
 569              		.cfi_endproc
 570              	.LFE127:
 571              		.size	adcReleaseBus, .-adcReleaseBus
 572 0004 AFF30080 		.text
 572      AFF30080 
 572      AFF30080 
 573              	.Letext0:
 574              		.file 2 "/opt/arm/bin/../lib/gcc/arm-none-eabi/4.6.3/include/stddef.h"
 575              		.file 3 "/opt/arm/bin/../lib/gcc/arm-none-eabi/4.6.3/../../../../arm-none-eabi/include/stdint.h"
 576              		.file 4 "/opt/ChibiOS/ChibiOS_2.4.4/os/ports/GCC/ARMCMx/chtypes.h"
 577              		.file 5 "/opt/ChibiOS/ChibiOS_2.4.4/os/kernel/include/chlists.h"
 578              		.file 6 "/opt/ChibiOS/ChibiOS_2.4.4/os/kernel/include/chthreads.h"
 579              		.file 7 "/opt/ChibiOS/ChibiOS_2.4.4/os/ports/GCC/ARMCMx/chcore_v7m.h"
 580              		.file 8 "/opt/ChibiOS/ChibiOS_2.4.4/os/kernel/include/chschd.h"
 581              		.file 9 "/opt/ChibiOS/ChibiOS_2.4.4/os/kernel/include/chmtx.h"
 582              		.file 10 "/opt/ChibiOS/ChibiOS_2.4.4/os/hal/platforms/STM32F4xx/stm32f4xx.h"
 583              		.file 11 "/opt/ChibiOS/ChibiOS_2.4.4/os/hal/platforms/STM32F4xx/stm32_dma.h"
 584              		.file 12 "/opt/ChibiOS/ChibiOS_2.4.4/os/hal/include/adc.h"
 585              		.file 13 "/opt/ChibiOS/ChibiOS_2.4.4/os/hal/platforms/STM32F4xx/adc_lld.h"
 586              		.file 14 "/opt/ChibiOS/ChibiOS_2.4.4/os/ports/common/ARMCMx/CMSIS/include/core_cm4.h"