ARM GAS  /tmp/cchr27lD.s 			page 1


   1              		.syntax unified
   2              		.cpu cortex-m4
   3              		.eabi_attribute 27, 3
   4              		.eabi_attribute 28, 1
   5              		.fpu fpv4-sp-d16
   6              		.eabi_attribute 20, 1
   7              		.eabi_attribute 21, 1
   8              		.eabi_attribute 23, 3
   9              		.eabi_attribute 24, 1
  10              		.eabi_attribute 25, 1
  11              		.eabi_attribute 26, 1
  12              		.eabi_attribute 30, 2
  13              		.eabi_attribute 34, 1
  14              		.eabi_attribute 18, 4
  15              		.thumb
  16              		.file	"adc.c"
  17              		.text
  18              	.Ltext0:
  19              		.cfi_sections	.debug_frame
  20              		.section	.text.adcInit,"ax",%progbits
  21              		.align	2
  22              		.p2align 4,,15
  23              		.global	adcInit
  24              		.thumb
  25              		.thumb_func
  26              		.type	adcInit, %function
  27              	adcInit:
  28              	.LFB117:
  29              		.file 1 "/opt/ChibiOS/ChibiOS_2.4.4/os/hal/src/adc.c"
  30              		.loc 1 68 0
  31              		.cfi_startproc
  32              		@ args = 0, pretend = 0, frame = 0
  33              		@ frame_needed = 0, uses_anonymous_args = 0
  34              		@ link register save eliminated.
  35              		.loc 1 71 0
  36              		.loc 1 70 0
  37 0000 FFF7FEBF 		b	adc_lld_init
  38              		.cfi_endproc
  39              	.LFE117:
  40              		.size	adcInit, .-adcInit
  41 0004 AFF30080 		.section	.text.adcObjectInit,"ax",%progbits
  41      AFF30080 
  41      AFF30080 
  42              		.align	2
  43              		.p2align 4,,15
  44              		.global	adcObjectInit
  45              		.thumb
  46              		.thumb_func
  47              		.type	adcObjectInit, %function
  48              	adcObjectInit:
  49              	.LFB118:
  50              		.loc 1 80 0
  51              		.cfi_startproc
  52              		@ args = 0, pretend = 0, frame = 0
  53              		@ frame_needed = 0, uses_anonymous_args = 0
  54              		@ link register save eliminated.
  55              	.LVL0:
ARM GAS  /tmp/cchr27lD.s 			page 2


  56              		.loc 1 83 0
  57 0000 0023     		movs	r3, #0
  58              		.loc 1 82 0
  59 0002 0122     		movs	r2, #1
  60 0004 0270     		strb	r2, [r0, #0]
  61              		.loc 1 83 0
  62 0006 4360     		str	r3, [r0, #4]
  63              		.loc 1 84 0
  64 0008 8360     		str	r3, [r0, #8]
  65              		.loc 1 85 0
  66 000a C360     		str	r3, [r0, #12]
  67              		.loc 1 86 0
  68 000c 0361     		str	r3, [r0, #16]
  69              		.loc 1 88 0
  70 000e 4361     		str	r3, [r0, #20]
  71              		.loc 1 92 0
  72 0010 1830     		adds	r0, r0, #24
  73              	.LVL1:
  74              		.loc 1 100 0
  75              		.loc 1 92 0
  76 0012 FFF7FEBF 		b	chMtxInit
  77              	.LVL2:
  78              		.cfi_endproc
  79              	.LFE118:
  80              		.size	adcObjectInit, .-adcObjectInit
  81 0016 00BFAFF3 		.section	.text.adcStart,"ax",%progbits
  81      0080AFF3 
  81      0080
  82              		.align	2
  83              		.p2align 4,,15
  84              		.global	adcStart
  85              		.thumb
  86              		.thumb_func
  87              		.type	adcStart, %function
  88              	adcStart:
  89              	.LFB119:
  90              		.loc 1 111 0
  91              		.cfi_startproc
  92              		@ args = 0, pretend = 0, frame = 0
  93              		@ frame_needed = 0, uses_anonymous_args = 0
  94              	.LVL3:
  95 0000 10B5     		push	{r4, lr}
  96              	.LCFI0:
  97              		.cfi_def_cfa_offset 8
  98              		.cfi_offset 14, -4
  99              		.cfi_offset 4, -8
 100              	.LBB10:
 101              		.loc 1 115 0
 102 0002 2023     		movs	r3, #32
 103              	.LVL4:
 104              	.LBE10:
 105              		.loc 1 111 0
 106 0004 0446     		mov	r4, r0
 107              	.LBB11:
 108              		.loc 1 115 0
 109              	@ 115 "/opt/ChibiOS/ChibiOS_2.4.4/os/hal/src/adc.c" 1
 110 0006 83F31188 		msr     BASEPRI, r3
ARM GAS  /tmp/cchr27lD.s 			page 3


 111              	@ 0 "" 2
 112              	.LVL5:
 113              		.thumb
 114              	.LBE11:
 115              		.loc 1 118 0
 116 000a 4160     		str	r1, [r0, #4]
 117              		.loc 1 119 0
 118 000c FFF7FEFF 		bl	adc_lld_start
 119              	.LVL6:
 120              		.loc 1 120 0
 121 0010 0223     		movs	r3, #2
 122 0012 2370     		strb	r3, [r4, #0]
 123              	.LBB12:
 124              		.loc 1 121 0
 125 0014 0023     		movs	r3, #0
 126              	.LVL7:
 127              	@ 121 "/opt/ChibiOS/ChibiOS_2.4.4/os/hal/src/adc.c" 1
 128 0016 83F31188 		msr     BASEPRI, r3
 129              	@ 0 "" 2
 130              	.LVL8:
 131              		.thumb
 132              	.LBE12:
 133              		.loc 1 122 0
 134 001a 10BD     		pop	{r4, pc}
 135              		.cfi_endproc
 136              	.LFE119:
 137              		.size	adcStart, .-adcStart
 138 001c AFF30080 		.section	.text.adcStop,"ax",%progbits
 139              		.align	2
 140              		.p2align 4,,15
 141              		.global	adcStop
 142              		.thumb
 143              		.thumb_func
 144              		.type	adcStop, %function
 145              	adcStop:
 146              	.LFB120:
 147              		.loc 1 131 0
 148              		.cfi_startproc
 149              		@ args = 0, pretend = 0, frame = 0
 150              		@ frame_needed = 0, uses_anonymous_args = 0
 151              	.LVL9:
 152 0000 10B5     		push	{r4, lr}
 153              	.LCFI1:
 154              		.cfi_def_cfa_offset 8
 155              		.cfi_offset 14, -4
 156              		.cfi_offset 4, -8
 157              	.LBB13:
 158              		.loc 1 135 0
 159 0002 2023     		movs	r3, #32
 160              	.LVL10:
 161              	.LBE13:
 162              		.loc 1 131 0
 163 0004 0446     		mov	r4, r0
 164              	.LBB14:
 165              		.loc 1 135 0
 166              	@ 135 "/opt/ChibiOS/ChibiOS_2.4.4/os/hal/src/adc.c" 1
 167 0006 83F31188 		msr     BASEPRI, r3
ARM GAS  /tmp/cchr27lD.s 			page 4


 168              	@ 0 "" 2
 169              	.LVL11:
 170              		.thumb
 171              	.LBE14:
 172              		.loc 1 138 0
 173 000a FFF7FEFF 		bl	adc_lld_stop
 174              	.LVL12:
 175              		.loc 1 139 0
 176 000e 0123     		movs	r3, #1
 177 0010 2370     		strb	r3, [r4, #0]
 178              	.LBB15:
 179              		.loc 1 140 0
 180 0012 0023     		movs	r3, #0
 181              	.LVL13:
 182              	@ 140 "/opt/ChibiOS/ChibiOS_2.4.4/os/hal/src/adc.c" 1
 183 0014 83F31188 		msr     BASEPRI, r3
 184              	@ 0 "" 2
 185              	.LVL14:
 186              		.thumb
 187              	.LBE15:
 188              		.loc 1 141 0
 189 0018 10BD     		pop	{r4, pc}
 190              		.cfi_endproc
 191              	.LFE120:
 192              		.size	adcStop, .-adcStop
 193 001a 00BFAFF3 		.section	.text.adcStartConversion,"ax",%progbits
 193      0080
 194              		.align	2
 195              		.p2align 4,,15
 196              		.global	adcStartConversion
 197              		.thumb
 198              		.thumb_func
 199              		.type	adcStartConversion, %function
 200              	adcStartConversion:
 201              	.LFB121:
 202              		.loc 1 162 0
 203              		.cfi_startproc
 204              		@ args = 0, pretend = 0, frame = 0
 205              		@ frame_needed = 0, uses_anonymous_args = 0
 206              	.LVL15:
 207 0000 38B5     		push	{r3, r4, r5, lr}
 208              	.LCFI2:
 209              		.cfi_def_cfa_offset 16
 210              		.cfi_offset 14, -4
 211              		.cfi_offset 5, -8
 212              		.cfi_offset 4, -12
 213              		.cfi_offset 3, -16
 214              		.loc 1 162 0
 215 0002 1D46     		mov	r5, r3
 216              	.LBB16:
 217              		.loc 1 164 0
 218 0004 2023     		movs	r3, #32
 219              	.LVL16:
 220              	@ 164 "/opt/ChibiOS/ChibiOS_2.4.4/os/hal/src/adc.c" 1
 221 0006 83F31188 		msr     BASEPRI, r3
 222              	@ 0 "" 2
 223              	.LVL17:
ARM GAS  /tmp/cchr27lD.s 			page 5


 224              		.thumb
 225              	.LBE16:
 226              	.LBB17:
 227              	.LBB18:
 228              		.loc 1 204 0
 229 000a 0323     		movs	r3, #3
 230              	.LVL18:
 231 000c 0370     		strb	r3, [r0, #0]
 232              		.loc 1 201 0
 233 000e 8260     		str	r2, [r0, #8]
 234              		.loc 1 202 0
 235 0010 C560     		str	r5, [r0, #12]
 236              		.loc 1 203 0
 237 0012 0161     		str	r1, [r0, #16]
 238              		.loc 1 205 0
 239 0014 FFF7FEFF 		bl	adc_lld_start_conversion
 240              	.LVL19:
 241              	.LBE18:
 242              	.LBE17:
 243              	.LBB19:
 244              		.loc 1 166 0
 245 0018 0023     		movs	r3, #0
 246              	.LVL20:
 247              	@ 166 "/opt/ChibiOS/ChibiOS_2.4.4/os/hal/src/adc.c" 1
 248 001a 83F31188 		msr     BASEPRI, r3
 249              	@ 0 "" 2
 250              	.LVL21:
 251              		.thumb
 252              	.LBE19:
 253              		.loc 1 167 0
 254 001e 38BD     		pop	{r3, r4, r5, pc}
 255              		.cfi_endproc
 256              	.LFE121:
 257              		.size	adcStartConversion, .-adcStartConversion
 258              		.section	.text.adcStartConversionI,"ax",%progbits
 259              		.align	2
 260              		.p2align 4,,15
 261              		.global	adcStartConversionI
 262              		.thumb
 263              		.thumb_func
 264              		.type	adcStartConversionI, %function
 265              	adcStartConversionI:
 266              	.LFB122:
 267              		.loc 1 190 0
 268              		.cfi_startproc
 269              		@ args = 0, pretend = 0, frame = 0
 270              		@ frame_needed = 0, uses_anonymous_args = 0
 271              		@ link register save eliminated.
 272              	.LVL22:
 273 0000 10B4     		push	{r4}
 274              	.LCFI3:
 275              		.cfi_def_cfa_offset 4
 276              		.cfi_offset 4, -4
 277              		.loc 1 202 0
 278 0002 C360     		str	r3, [r0, #12]
 279              		.loc 1 204 0
 280 0004 0323     		movs	r3, #3
ARM GAS  /tmp/cchr27lD.s 			page 6


 281              	.LVL23:
 282              		.loc 1 201 0
 283 0006 8260     		str	r2, [r0, #8]
 284              		.loc 1 203 0
 285 0008 0161     		str	r1, [r0, #16]
 286              		.loc 1 204 0
 287 000a 0370     		strb	r3, [r0, #0]
 288              		.loc 1 206 0
 289 000c 10BC     		pop	{r4}
 290              		.loc 1 205 0
 291 000e FFF7FEBF 		b	adc_lld_start_conversion
 292              	.LVL24:
 293              	.LVL25:
 294              	.LVL26:
 295              	.LVL27:
 296              		.cfi_endproc
 297              	.LFE122:
 298              		.size	adcStartConversionI, .-adcStartConversionI
 299 0012 00BFAFF3 		.section	.text.adcStopConversion,"ax",%progbits
 299      0080AFF3 
 299      0080AFF3 
 299      0080
 300              		.align	2
 301              		.p2align 4,,15
 302              		.global	adcStopConversion
 303              		.thumb
 304              		.thumb_func
 305              		.type	adcStopConversion, %function
 306              	adcStopConversion:
 307              	.LFB123:
 308              		.loc 1 218 0
 309              		.cfi_startproc
 310              		@ args = 0, pretend = 0, frame = 0
 311              		@ frame_needed = 0, uses_anonymous_args = 0
 312              	.LVL28:
 313 0000 10B5     		push	{r4, lr}
 314              	.LCFI4:
 315              		.cfi_def_cfa_offset 8
 316              		.cfi_offset 14, -4
 317              		.cfi_offset 4, -8
 318              	.LBB20:
 319              		.loc 1 222 0
 320 0002 2023     		movs	r3, #32
 321              	.LVL29:
 322              	.LBE20:
 323              		.loc 1 218 0
 324 0004 0446     		mov	r4, r0
 325              	.LBB21:
 326              		.loc 1 222 0
 327              	@ 222 "/opt/ChibiOS/ChibiOS_2.4.4/os/hal/src/adc.c" 1
 328 0006 83F31188 		msr     BASEPRI, r3
 329              	@ 0 "" 2
 330              	.LVL30:
 331              		.thumb
 332              	.LBE21:
 333              		.loc 1 226 0
 334 000a 0378     		ldrb	r3, [r0, #0]	@ zero_extendqisi2
ARM GAS  /tmp/cchr27lD.s 			page 7


 335              	.LVL31:
 336 000c 022B     		cmp	r3, #2
 337 000e 0CD0     		beq	.L8
 338              		.loc 1 227 0
 339 0010 FFF7FEFF 		bl	adc_lld_stop_conversion
 340              	.LVL32:
 341              		.loc 1 230 0
 342 0014 6069     		ldr	r0, [r4, #20]
 343              		.loc 1 228 0
 344 0016 0023     		movs	r3, #0
 345              		.loc 1 229 0
 346 0018 0222     		movs	r2, #2
 347              		.loc 1 228 0
 348 001a 2361     		str	r3, [r4, #16]
 349              		.loc 1 229 0
 350 001c 2270     		strb	r2, [r4, #0]
 351              		.loc 1 230 0
 352 001e 20B1     		cbz	r0, .L8
 353              	.LVL33:
 354              	.LBB22:
 355              		.loc 1 230 0 is_stmt 0 discriminator 1
 356 0020 6361     		str	r3, [r4, #20]
 357 0022 6FF00101 		mvn	r1, #1
 358 0026 FFF7FEFF 		bl	chSchWakeupS
 359              	.LVL34:
 360              	.L8:
 361              	.LBE22:
 362              	.LBB23:
 363              		.loc 1 232 0 is_stmt 1
 364 002a 0023     		movs	r3, #0
 365              	.LVL35:
 366              	@ 232 "/opt/ChibiOS/ChibiOS_2.4.4/os/hal/src/adc.c" 1
 367 002c 83F31188 		msr     BASEPRI, r3
 368              	@ 0 "" 2
 369              	.LVL36:
 370              		.thumb
 371              	.LBE23:
 372              		.loc 1 233 0
 373 0030 10BD     		pop	{r4, pc}
 374              		.cfi_endproc
 375              	.LFE123:
 376              		.size	adcStopConversion, .-adcStopConversion
 377 0032 00BFAFF3 		.section	.text.adcStopConversionI,"ax",%progbits
 377      0080AFF3 
 377      0080AFF3 
 377      0080
 378              		.align	2
 379              		.p2align 4,,15
 380              		.global	adcStopConversionI
 381              		.thumb
 382              		.thumb_func
 383              		.type	adcStopConversionI, %function
 384              	adcStopConversionI:
 385              	.LFB124:
 386              		.loc 1 245 0
 387              		.cfi_startproc
 388              		@ args = 0, pretend = 0, frame = 0
ARM GAS  /tmp/cchr27lD.s 			page 8


 389              		@ frame_needed = 0, uses_anonymous_args = 0
 390              	.LVL37:
 391              		.loc 1 254 0
 392 0000 0378     		ldrb	r3, [r0, #0]	@ zero_extendqisi2
 393 0002 022B     		cmp	r3, #2
 394              		.loc 1 245 0
 395 0004 10B5     		push	{r4, lr}
 396              	.LCFI5:
 397              		.cfi_def_cfa_offset 8
 398              		.cfi_offset 14, -4
 399              		.cfi_offset 4, -8
 400              		.loc 1 245 0
 401 0006 0446     		mov	r4, r0
 402              		.loc 1 254 0
 403 0008 10D0     		beq	.L10
 404              		.loc 1 255 0
 405 000a FFF7FEFF 		bl	adc_lld_stop_conversion
 406              	.LVL38:
 407              		.loc 1 258 0
 408 000e 6369     		ldr	r3, [r4, #20]
 409              		.loc 1 256 0
 410 0010 0022     		movs	r2, #0
 411              		.loc 1 257 0
 412 0012 0221     		movs	r1, #2
 413              		.loc 1 256 0
 414 0014 2261     		str	r2, [r4, #16]
 415              		.loc 1 257 0
 416 0016 2170     		strb	r1, [r4, #0]
 417              		.loc 1 258 0
 418 0018 43B1     		cbz	r3, .L10
 419              	.LVL39:
 420              	.LBB24:
 421              		.loc 1 258 0 is_stmt 0 discriminator 1
 422 001a 6261     		str	r2, [r4, #20]
 423 001c 1846     		mov	r0, r3
 424 001e 6FF00102 		mvn	r2, #1
 425 0022 5A62     		str	r2, [r3, #36]
 426              	.LBE24:
 427              		.loc 1 260 0 is_stmt 1 discriminator 1
 428 0024 BDE81040 		pop	{r4, lr}
 429              	.LBB25:
 430              		.loc 1 258 0 discriminator 1
 431 0028 FFF7FEBF 		b	chSchReadyI
 432              	.LVL40:
 433              	.L10:
 434 002c 10BD     		pop	{r4, pc}
 435              	.LBE25:
 436              		.cfi_endproc
 437              	.LFE124:
 438              		.size	adcStopConversionI, .-adcStopConversionI
 439 002e 00BF     		.section	.text.adcConvert,"ax",%progbits
 440              		.align	2
 441              		.p2align 4,,15
 442              		.global	adcConvert
 443              		.thumb
 444              		.thumb_func
 445              		.type	adcConvert, %function
ARM GAS  /tmp/cchr27lD.s 			page 9


 446              	adcConvert:
 447              	.LFB125:
 448              		.loc 1 289 0
 449              		.cfi_startproc
 450              		@ args = 0, pretend = 0, frame = 0
 451              		@ frame_needed = 0, uses_anonymous_args = 0
 452              	.LVL41:
 453 0000 70B5     		push	{r4, r5, r6, lr}
 454              	.LCFI6:
 455              		.cfi_def_cfa_offset 16
 456              		.cfi_offset 14, -4
 457              		.cfi_offset 6, -8
 458              		.cfi_offset 5, -12
 459              		.cfi_offset 4, -16
 460              		.loc 1 289 0
 461 0002 1D46     		mov	r5, r3
 462 0004 0446     		mov	r4, r0
 463              	.LBB26:
 464              		.loc 1 292 0
 465 0006 2023     		movs	r3, #32
 466              	.LVL42:
 467              	@ 292 "/opt/ChibiOS/ChibiOS_2.4.4/os/hal/src/adc.c" 1
 468 0008 83F31188 		msr     BASEPRI, r3
 469              	@ 0 "" 2
 470              	.LVL43:
 471              		.thumb
 472              	.LBE26:
 473              		.loc 1 295 0
 474 000c 40F20006 		movw	r6, #:lower16:rlist
 475 0010 C0F20006 		movt	r6, #:upper16:rlist
 476              	.LBB27:
 477              	.LBB28:
 478              		.loc 1 203 0
 479 0014 0161     		str	r1, [r0, #16]
 480              		.loc 1 204 0
 481 0016 0321     		movs	r1, #3
 482              	.LVL44:
 483              		.loc 1 201 0
 484 0018 8260     		str	r2, [r0, #8]
 485              		.loc 1 204 0
 486 001a 0170     		strb	r1, [r0, #0]
 487              		.loc 1 202 0
 488 001c C560     		str	r5, [r0, #12]
 489              		.loc 1 205 0
 490 001e FFF7FEFF 		bl	adc_lld_start_conversion
 491              	.LVL45:
 492              	.LBE28:
 493              	.LBE27:
 494              		.loc 1 295 0
 495 0022 F369     		ldr	r3, [r6, #28]
 496              		.loc 1 296 0
 497 0024 0220     		movs	r0, #2
 498              		.loc 1 295 0
 499 0026 6361     		str	r3, [r4, #20]
 500              		.loc 1 296 0
 501 0028 FFF7FEFF 		bl	chSchGoSleepS
 502              		.loc 1 297 0
ARM GAS  /tmp/cchr27lD.s 			page 10


 503 002c F269     		ldr	r2, [r6, #28]
 504              	.LBB29:
 505              		.loc 1 298 0
 506 002e 0023     		movs	r3, #0
 507              	.LVL46:
 508              	.LBE29:
 509              		.loc 1 297 0
 510 0030 506A     		ldr	r0, [r2, #36]
 511              	.LVL47:
 512              	.LBB30:
 513              		.loc 1 298 0
 514              	@ 298 "/opt/ChibiOS/ChibiOS_2.4.4/os/hal/src/adc.c" 1
 515 0032 83F31188 		msr     BASEPRI, r3
 516              	@ 0 "" 2
 517              	.LVL48:
 518              		.thumb
 519              	.LBE30:
 520              		.loc 1 300 0
 521 0036 70BD     		pop	{r4, r5, r6, pc}
 522              		.cfi_endproc
 523              	.LFE125:
 524              		.size	adcConvert, .-adcConvert
 525 0038 AFF30080 		.section	.text.adcAcquireBus,"ax",%progbits
 525      AFF30080 
 526              		.align	2
 527              		.p2align 4,,15
 528              		.global	adcAcquireBus
 529              		.thumb
 530              		.thumb_func
 531              		.type	adcAcquireBus, %function
 532              	adcAcquireBus:
 533              	.LFB126:
 534              		.loc 1 315 0
 535              		.cfi_startproc
 536              		@ args = 0, pretend = 0, frame = 0
 537              		@ frame_needed = 0, uses_anonymous_args = 0
 538              		@ link register save eliminated.
 539              	.LVL49:
 540              		.loc 1 320 0
 541 0000 1830     		adds	r0, r0, #24
 542              	.LVL50:
 543              		.loc 1 324 0
 544              		.loc 1 320 0
 545 0002 FFF7FEBF 		b	chMtxLock
 546              	.LVL51:
 547              		.cfi_endproc
 548              	.LFE126:
 549              		.size	adcAcquireBus, .-adcAcquireBus
 550 0006 00BFAFF3 		.section	.text.adcReleaseBus,"ax",%progbits
 550      0080AFF3 
 550      0080
 551              		.align	2
 552              		.p2align 4,,15
 553              		.global	adcReleaseBus
 554              		.thumb
 555              		.thumb_func
 556              		.type	adcReleaseBus, %function
ARM GAS  /tmp/cchr27lD.s 			page 11


 557              	adcReleaseBus:
 558              	.LFB127:
 559              		.loc 1 335 0
 560              		.cfi_startproc
 561              		@ args = 0, pretend = 0, frame = 0
 562              		@ frame_needed = 0, uses_anonymous_args = 0
 563              		@ link register save eliminated.
 564              	.LVL52:
 565              		.loc 1 345 0
 566              		.loc 1 341 0
 567 0000 FFF7FEBF 		b	chMtxUnlock
 568              	.LVL53:
 569              		.cfi_endproc
 570              	.LFE127:
 571              		.size	adcReleaseBus, .-adcReleaseBus
 572 0004 AFF30080 		.text
 572      AFF30080 
 572      AFF30080 
 573              	.Letext0:
 574              		.file 2 "/opt/arm/bin/../lib/gcc/arm-none-eabi/4.6.3/include/stddef.h"
 575              		.file 3 "/opt/arm/bin/../lib/gcc/arm-none-eabi/4.6.3/../../../../arm-none-eabi/include/stdint.h"
 576              		.file 4 "/opt/ChibiOS/ChibiOS_2.4.4/os/ports/GCC/ARMCMx/chtypes.h"
 577              		.file 5 "/opt/ChibiOS/ChibiOS_2.4.4/os/kernel/include/chlists.h"
 578              		.file 6 "/opt/ChibiOS/ChibiOS_2.4.4/os/kernel/include/chthreads.h"
 579              		.file 7 "/opt/ChibiOS/ChibiOS_2.4.4/os/ports/GCC/ARMCMx/chcore_v7m.h"
 580              		.file 8 "/opt/ChibiOS/ChibiOS_2.4.4/os/kernel/include/chschd.h"
 581              		.file 9 "/opt/ChibiOS/ChibiOS_2.4.4/os/kernel/include/chmtx.h"
 582              		.file 10 "/opt/ChibiOS/ChibiOS_2.4.4/os/hal/platforms/STM32F4xx/stm32f4xx.h"
 583              		.file 11 "/opt/ChibiOS/ChibiOS_2.4.4/os/hal/platforms/STM32F4xx/stm32_dma.h"
 584              		.file 12 "/opt/ChibiOS/ChibiOS_2.4.4/os/hal/include/adc.h"
 585              		.file 13 "/opt/ChibiOS/ChibiOS_2.4.4/os/hal/platforms/STM32F4xx/adc_lld.h"
 586              		.file 14 "/opt/ChibiOS/ChibiOS_2.4.4/os/ports/common/ARMCMx/CMSIS/include/core_cm4.h"
 587              		.section	.debug_info,"",%progbits
 588              	.Ldebug_info0:
 589 0000 200D0000 		.4byte	0xd20
 590 0004 0200     		.2byte	0x2
 591 0006 00000000 		.4byte	.Ldebug_abbrev0
 592 000a 04       		.byte	0x4
 593 000b 01       		.uleb128 0x1
 594 000c C9030000 		.4byte	.LASF136
 595 0010 01       		.byte	0x1
 596 0011 40020000 		.4byte	.LASF137
 597 0015 00000000 		.4byte	0
 598 0019 00000000 		.4byte	0
 599 001d 78000000 		.4byte	.Ldebug_ranges0+0x78
 600 0021 00000000 		.4byte	.Ldebug_line0
 601 0025 02       		.uleb128 0x2
 602 0026 04       		.byte	0x4
 603 0027 05       		.byte	0x5
 604 0028 696E7400 		.ascii	"int\000"
 605 002c 03       		.uleb128 0x3
 606 002d 05000000 		.4byte	.LASF2
 607 0031 02       		.byte	0x2
 608 0032 D4       		.byte	0xd4
 609 0033 37000000 		.4byte	0x37
 610 0037 04       		.uleb128 0x4
 611 0038 04       		.byte	0x4
ARM GAS  /tmp/cchr27lD.s 			page 12


 612 0039 07       		.byte	0x7
 613 003a AE010000 		.4byte	.LASF0
 614 003e 04       		.uleb128 0x4
 615 003f 01       		.byte	0x1
 616 0040 06       		.byte	0x6
 617 0041 83000000 		.4byte	.LASF1
 618 0045 03       		.uleb128 0x3
 619 0046 8C040000 		.4byte	.LASF3
 620 004a 03       		.byte	0x3
 621 004b 2A       		.byte	0x2a
 622 004c 50000000 		.4byte	0x50
 623 0050 04       		.uleb128 0x4
 624 0051 01       		.byte	0x1
 625 0052 08       		.byte	0x8
 626 0053 4B030000 		.4byte	.LASF4
 627 0057 04       		.uleb128 0x4
 628 0058 02       		.byte	0x2
 629 0059 05       		.byte	0x5
 630 005a 63030000 		.4byte	.LASF5
 631 005e 03       		.uleb128 0x3
 632 005f 06010000 		.4byte	.LASF6
 633 0063 03       		.byte	0x3
 634 0064 36       		.byte	0x36
 635 0065 69000000 		.4byte	0x69
 636 0069 04       		.uleb128 0x4
 637 006a 02       		.byte	0x2
 638 006b 07       		.byte	0x7
 639 006c EA010000 		.4byte	.LASF7
 640 0070 03       		.uleb128 0x3
 641 0071 43030000 		.4byte	.LASF8
 642 0075 03       		.byte	0x3
 643 0076 4F       		.byte	0x4f
 644 0077 7B000000 		.4byte	0x7b
 645 007b 04       		.uleb128 0x4
 646 007c 04       		.byte	0x4
 647 007d 05       		.byte	0x5
 648 007e C7000000 		.4byte	.LASF9
 649 0082 03       		.uleb128 0x3
 650 0083 B8030000 		.4byte	.LASF10
 651 0087 03       		.byte	0x3
 652 0088 50       		.byte	0x50
 653 0089 8D000000 		.4byte	0x8d
 654 008d 04       		.uleb128 0x4
 655 008e 04       		.byte	0x4
 656 008f 07       		.byte	0x7
 657 0090 D5030000 		.4byte	.LASF11
 658 0094 04       		.uleb128 0x4
 659 0095 08       		.byte	0x8
 660 0096 05       		.byte	0x5
 661 0097 75000000 		.4byte	.LASF12
 662 009b 04       		.uleb128 0x4
 663 009c 08       		.byte	0x8
 664 009d 07       		.byte	0x7
 665 009e 35000000 		.4byte	.LASF13
 666 00a2 03       		.uleb128 0x3
 667 00a3 97000000 		.4byte	.LASF14
 668 00a7 04       		.byte	0x4
ARM GAS  /tmp/cchr27lD.s 			page 13


 669 00a8 2E       		.byte	0x2e
 670 00a9 70000000 		.4byte	0x70
 671 00ad 03       		.uleb128 0x3
 672 00ae 13020000 		.4byte	.LASF15
 673 00b2 04       		.byte	0x4
 674 00b3 2F       		.byte	0x2f
 675 00b4 45000000 		.4byte	0x45
 676 00b8 03       		.uleb128 0x3
 677 00b9 F6000000 		.4byte	.LASF16
 678 00bd 04       		.byte	0x4
 679 00be 30       		.byte	0x30
 680 00bf 45000000 		.4byte	0x45
 681 00c3 03       		.uleb128 0x3
 682 00c4 13030000 		.4byte	.LASF17
 683 00c8 04       		.byte	0x4
 684 00c9 31       		.byte	0x31
 685 00ca 45000000 		.4byte	0x45
 686 00ce 03       		.uleb128 0x3
 687 00cf 35030000 		.4byte	.LASF18
 688 00d3 04       		.byte	0x4
 689 00d4 32       		.byte	0x32
 690 00d5 82000000 		.4byte	0x82
 691 00d9 03       		.uleb128 0x3
 692 00da 0D020000 		.4byte	.LASF19
 693 00de 04       		.byte	0x4
 694 00df 33       		.byte	0x33
 695 00e0 70000000 		.4byte	0x70
 696 00e4 03       		.uleb128 0x3
 697 00e5 34020000 		.4byte	.LASF20
 698 00e9 04       		.byte	0x4
 699 00ea 35       		.byte	0x35
 700 00eb 82000000 		.4byte	0x82
 701 00ef 03       		.uleb128 0x3
 702 00f0 02040000 		.4byte	.LASF21
 703 00f4 04       		.byte	0x4
 704 00f5 36       		.byte	0x36
 705 00f6 82000000 		.4byte	0x82
 706 00fa 03       		.uleb128 0x3
 707 00fb A8010000 		.4byte	.LASF22
 708 00ff 04       		.byte	0x4
 709 0100 37       		.byte	0x37
 710 0101 70000000 		.4byte	0x70
 711 0105 03       		.uleb128 0x3
 712 0106 A1030000 		.4byte	.LASF23
 713 010a 05       		.byte	0x5
 714 010b 2A       		.byte	0x2a
 715 010c 10010000 		.4byte	0x110
 716 0110 05       		.uleb128 0x5
 717 0111 A1030000 		.4byte	.LASF23
 718 0115 48       		.byte	0x48
 719 0116 06       		.byte	0x6
 720 0117 5E       		.byte	0x5e
 721 0118 27020000 		.4byte	0x227
 722 011c 06       		.uleb128 0x6
 723 011d 8C030000 		.4byte	.LASF24
 724 0121 06       		.byte	0x6
 725 0122 5F       		.byte	0x5f
ARM GAS  /tmp/cchr27lD.s 			page 14


 726 0123 4C020000 		.4byte	0x24c
 727 0127 02       		.byte	0x2
 728 0128 23       		.byte	0x23
 729 0129 00       		.uleb128 0
 730 012a 06       		.uleb128 0x6
 731 012b 1B030000 		.4byte	.LASF25
 732 012f 06       		.byte	0x6
 733 0130 61       		.byte	0x61
 734 0131 4C020000 		.4byte	0x24c
 735 0135 02       		.byte	0x2
 736 0136 23       		.byte	0x23
 737 0137 04       		.uleb128 0x4
 738 0138 06       		.uleb128 0x6
 739 0139 69000000 		.4byte	.LASF26
 740 013d 06       		.byte	0x6
 741 013e 63       		.byte	0x63
 742 013f CE000000 		.4byte	0xce
 743 0143 02       		.byte	0x2
 744 0144 23       		.byte	0x23
 745 0145 08       		.uleb128 0x8
 746 0146 06       		.uleb128 0x6
 747 0147 34050000 		.4byte	.LASF27
 748 014b 06       		.byte	0x6
 749 014c 64       		.byte	0x64
 750 014d 19030000 		.4byte	0x319
 751 0151 02       		.byte	0x2
 752 0152 23       		.byte	0x23
 753 0153 0C       		.uleb128 0xc
 754 0154 06       		.uleb128 0x6
 755 0155 22010000 		.4byte	.LASF28
 756 0159 06       		.byte	0x6
 757 015a 66       		.byte	0x66
 758 015b 4C020000 		.4byte	0x24c
 759 015f 02       		.byte	0x2
 760 0160 23       		.byte	0x23
 761 0161 10       		.uleb128 0x10
 762 0162 06       		.uleb128 0x6
 763 0163 B0020000 		.4byte	.LASF29
 764 0167 06       		.byte	0x6
 765 0168 67       		.byte	0x67
 766 0169 4C020000 		.4byte	0x24c
 767 016d 02       		.byte	0x2
 768 016e 23       		.byte	0x23
 769 016f 14       		.uleb128 0x14
 770 0170 06       		.uleb128 0x6
 771 0171 E2040000 		.4byte	.LASF30
 772 0175 06       		.byte	0x6
 773 0176 6E       		.byte	0x6e
 774 0177 39040000 		.4byte	0x439
 775 017b 02       		.byte	0x2
 776 017c 23       		.byte	0x23
 777 017d 18       		.uleb128 0x18
 778 017e 06       		.uleb128 0x6
 779 017f 6D030000 		.4byte	.LASF31
 780 0183 06       		.byte	0x6
 781 0184 79       		.byte	0x79
 782 0185 B8000000 		.4byte	0xb8
ARM GAS  /tmp/cchr27lD.s 			page 15


 783 0189 02       		.byte	0x2
 784 018a 23       		.byte	0x23
 785 018b 1C       		.uleb128 0x1c
 786 018c 06       		.uleb128 0x6
 787 018d 93030000 		.4byte	.LASF32
 788 0191 06       		.byte	0x6
 789 0192 7D       		.byte	0x7d
 790 0193 AD000000 		.4byte	0xad
 791 0197 02       		.byte	0x2
 792 0198 23       		.byte	0x23
 793 0199 1D       		.uleb128 0x1d
 794 019a 06       		.uleb128 0x6
 795 019b 69040000 		.4byte	.LASF33
 796 019f 06       		.byte	0x6
 797 01a0 82       		.byte	0x82
 798 01a1 C3000000 		.4byte	0xc3
 799 01a5 02       		.byte	0x2
 800 01a6 23       		.byte	0x23
 801 01a7 1E       		.uleb128 0x1e
 802 01a8 06       		.uleb128 0x6
 803 01a9 0F010000 		.4byte	.LASF34
 804 01ad 06       		.byte	0x6
 805 01ae 89       		.byte	0x89
 806 01af 41030000 		.4byte	0x341
 807 01b3 02       		.byte	0x2
 808 01b4 23       		.byte	0x23
 809 01b5 20       		.uleb128 0x20
 810 01b6 07       		.uleb128 0x7
 811 01b7 705F7500 		.ascii	"p_u\000"
 812 01bb 06       		.byte	0x6
 813 01bc AE       		.byte	0xae
 814 01bd 04040000 		.4byte	0x404
 815 01c1 02       		.byte	0x2
 816 01c2 23       		.byte	0x23
 817 01c3 24       		.uleb128 0x24
 818 01c4 06       		.uleb128 0x6
 819 01c5 3A050000 		.4byte	.LASF35
 820 01c9 06       		.byte	0x6
 821 01ca B3       		.byte	0xb3
 822 01cb 74020000 		.4byte	0x274
 823 01cf 02       		.byte	0x2
 824 01d0 23       		.byte	0x23
 825 01d1 28       		.uleb128 0x28
 826 01d2 06       		.uleb128 0x6
 827 01d3 C9010000 		.4byte	.LASF36
 828 01d7 06       		.byte	0x6
 829 01d8 B9       		.byte	0xb9
 830 01d9 52020000 		.4byte	0x252
 831 01dd 02       		.byte	0x2
 832 01de 23       		.byte	0x23
 833 01df 2C       		.uleb128 0x2c
 834 01e0 06       		.uleb128 0x6
 835 01e1 FC040000 		.4byte	.LASF37
 836 01e5 06       		.byte	0x6
 837 01e6 BD       		.byte	0xbd
 838 01e7 D9000000 		.4byte	0xd9
 839 01eb 02       		.byte	0x2
ARM GAS  /tmp/cchr27lD.s 			page 16


 840 01ec 23       		.byte	0x23
 841 01ed 34       		.uleb128 0x34
 842 01ee 06       		.uleb128 0x6
 843 01ef A8030000 		.4byte	.LASF38
 844 01f3 06       		.byte	0x6
 845 01f4 C3       		.byte	0xc3
 846 01f5 E4000000 		.4byte	0xe4
 847 01f9 02       		.byte	0x2
 848 01fa 23       		.byte	0x23
 849 01fb 38       		.uleb128 0x38
 850 01fc 06       		.uleb128 0x6
 851 01fd 59030000 		.4byte	.LASF39
 852 0201 06       		.byte	0x6
 853 0202 CA       		.byte	0xca
 854 0203 4B040000 		.4byte	0x44b
 855 0207 02       		.byte	0x2
 856 0208 23       		.byte	0x23
 857 0209 3C       		.uleb128 0x3c
 858 020a 06       		.uleb128 0x6
 859 020b 0C040000 		.4byte	.LASF40
 860 020f 06       		.byte	0x6
 861 0210 CE       		.byte	0xce
 862 0211 CE000000 		.4byte	0xce
 863 0215 02       		.byte	0x2
 864 0216 23       		.byte	0x23
 865 0217 40       		.uleb128 0x40
 866 0218 06       		.uleb128 0x6
 867 0219 8F000000 		.4byte	.LASF41
 868 021d 06       		.byte	0x6
 869 021e D4       		.byte	0xd4
 870 021f 8A020000 		.4byte	0x28a
 871 0223 02       		.byte	0x2
 872 0224 23       		.byte	0x23
 873 0225 44       		.uleb128 0x44
 874 0226 00       		.byte	0
 875 0227 08       		.uleb128 0x8
 876 0228 08       		.byte	0x8
 877 0229 05       		.byte	0x5
 878 022a 61       		.byte	0x61
 879 022b 4C020000 		.4byte	0x24c
 880 022f 06       		.uleb128 0x6
 881 0230 8C030000 		.4byte	.LASF24
 882 0234 05       		.byte	0x5
 883 0235 62       		.byte	0x62
 884 0236 4C020000 		.4byte	0x24c
 885 023a 02       		.byte	0x2
 886 023b 23       		.byte	0x23
 887 023c 00       		.uleb128 0
 888 023d 06       		.uleb128 0x6
 889 023e 1B030000 		.4byte	.LASF25
 890 0242 05       		.byte	0x5
 891 0243 64       		.byte	0x64
 892 0244 4C020000 		.4byte	0x24c
 893 0248 02       		.byte	0x2
 894 0249 23       		.byte	0x23
 895 024a 04       		.uleb128 0x4
 896 024b 00       		.byte	0
ARM GAS  /tmp/cchr27lD.s 			page 17


 897 024c 09       		.uleb128 0x9
 898 024d 04       		.byte	0x4
 899 024e 05010000 		.4byte	0x105
 900 0252 03       		.uleb128 0x3
 901 0253 BE020000 		.4byte	.LASF42
 902 0257 05       		.byte	0x5
 903 0258 66       		.byte	0x66
 904 0259 27020000 		.4byte	0x227
 905 025d 08       		.uleb128 0x8
 906 025e 04       		.byte	0x4
 907 025f 05       		.byte	0x5
 908 0260 6B       		.byte	0x6b
 909 0261 74020000 		.4byte	0x274
 910 0265 06       		.uleb128 0x6
 911 0266 8C030000 		.4byte	.LASF24
 912 026a 05       		.byte	0x5
 913 026b 6D       		.byte	0x6d
 914 026c 4C020000 		.4byte	0x24c
 915 0270 02       		.byte	0x2
 916 0271 23       		.byte	0x23
 917 0272 00       		.uleb128 0
 918 0273 00       		.byte	0
 919 0274 03       		.uleb128 0x3
 920 0275 28020000 		.4byte	.LASF43
 921 0279 05       		.byte	0x5
 922 027a 70       		.byte	0x70
 923 027b 5D020000 		.4byte	0x25d
 924 027f 03       		.uleb128 0x3
 925 0280 68010000 		.4byte	.LASF44
 926 0284 07       		.byte	0x7
 927 0285 D7       		.byte	0xd7
 928 0286 8A020000 		.4byte	0x28a
 929 028a 0A       		.uleb128 0xa
 930 028b 04       		.byte	0x4
 931 028c 05       		.uleb128 0x5
 932 028d 4A040000 		.4byte	.LASF45
 933 0291 24       		.byte	0x24
 934 0292 07       		.byte	0x7
 935 0293 FE       		.byte	0xfe
 936 0294 19030000 		.4byte	0x319
 937 0298 0B       		.uleb128 0xb
 938 0299 723400   		.ascii	"r4\000"
 939 029c 07       		.byte	0x7
 940 029d 1101     		.2byte	0x111
 941 029f 7F020000 		.4byte	0x27f
 942 02a3 02       		.byte	0x2
 943 02a4 23       		.byte	0x23
 944 02a5 00       		.uleb128 0
 945 02a6 0B       		.uleb128 0xb
 946 02a7 723500   		.ascii	"r5\000"
 947 02aa 07       		.byte	0x7
 948 02ab 1201     		.2byte	0x112
 949 02ad 7F020000 		.4byte	0x27f
 950 02b1 02       		.byte	0x2
 951 02b2 23       		.byte	0x23
 952 02b3 04       		.uleb128 0x4
 953 02b4 0B       		.uleb128 0xb
ARM GAS  /tmp/cchr27lD.s 			page 18


 954 02b5 723600   		.ascii	"r6\000"
 955 02b8 07       		.byte	0x7
 956 02b9 1301     		.2byte	0x113
 957 02bb 7F020000 		.4byte	0x27f
 958 02bf 02       		.byte	0x2
 959 02c0 23       		.byte	0x23
 960 02c1 08       		.uleb128 0x8
 961 02c2 0B       		.uleb128 0xb
 962 02c3 723700   		.ascii	"r7\000"
 963 02c6 07       		.byte	0x7
 964 02c7 1401     		.2byte	0x114
 965 02c9 7F020000 		.4byte	0x27f
 966 02cd 02       		.byte	0x2
 967 02ce 23       		.byte	0x23
 968 02cf 0C       		.uleb128 0xc
 969 02d0 0B       		.uleb128 0xb
 970 02d1 723800   		.ascii	"r8\000"
 971 02d4 07       		.byte	0x7
 972 02d5 1501     		.2byte	0x115
 973 02d7 7F020000 		.4byte	0x27f
 974 02db 02       		.byte	0x2
 975 02dc 23       		.byte	0x23
 976 02dd 10       		.uleb128 0x10
 977 02de 0B       		.uleb128 0xb
 978 02df 723900   		.ascii	"r9\000"
 979 02e2 07       		.byte	0x7
 980 02e3 1601     		.2byte	0x116
 981 02e5 7F020000 		.4byte	0x27f
 982 02e9 02       		.byte	0x2
 983 02ea 23       		.byte	0x23
 984 02eb 14       		.uleb128 0x14
 985 02ec 0B       		.uleb128 0xb
 986 02ed 72313000 		.ascii	"r10\000"
 987 02f1 07       		.byte	0x7
 988 02f2 1701     		.2byte	0x117
 989 02f4 7F020000 		.4byte	0x27f
 990 02f8 02       		.byte	0x2
 991 02f9 23       		.byte	0x23
 992 02fa 18       		.uleb128 0x18
 993 02fb 0B       		.uleb128 0xb
 994 02fc 72313100 		.ascii	"r11\000"
 995 0300 07       		.byte	0x7
 996 0301 1801     		.2byte	0x118
 997 0303 7F020000 		.4byte	0x27f
 998 0307 02       		.byte	0x2
 999 0308 23       		.byte	0x23
 1000 0309 1C       		.uleb128 0x1c
 1001 030a 0B       		.uleb128 0xb
 1002 030b 6C7200   		.ascii	"lr\000"
 1003 030e 07       		.byte	0x7
 1004 030f 1901     		.2byte	0x119
 1005 0311 7F020000 		.4byte	0x27f
 1006 0315 02       		.byte	0x2
 1007 0316 23       		.byte	0x23
 1008 0317 20       		.uleb128 0x20
 1009 0318 00       		.byte	0
 1010 0319 0C       		.uleb128 0xc
ARM GAS  /tmp/cchr27lD.s 			page 19


 1011 031a 2F040000 		.4byte	.LASF46
 1012 031e 04       		.byte	0x4
 1013 031f 07       		.byte	0x7
 1014 0320 2301     		.2byte	0x123
 1015 0322 36030000 		.4byte	0x336
 1016 0326 0B       		.uleb128 0xb
 1017 0327 72313300 		.ascii	"r13\000"
 1018 032b 07       		.byte	0x7
 1019 032c 2401     		.2byte	0x124
 1020 032e 36030000 		.4byte	0x336
 1021 0332 02       		.byte	0x2
 1022 0333 23       		.byte	0x23
 1023 0334 00       		.uleb128 0
 1024 0335 00       		.byte	0
 1025 0336 09       		.uleb128 0x9
 1026 0337 04       		.byte	0x4
 1027 0338 8C020000 		.4byte	0x28c
 1028 033c 0D       		.uleb128 0xd
 1029 033d 82000000 		.4byte	0x82
 1030 0341 0D       		.uleb128 0xd
 1031 0342 EF000000 		.4byte	0xef
 1032 0346 08       		.uleb128 0x8
 1033 0347 20       		.byte	0x20
 1034 0348 08       		.byte	0x8
 1035 0349 5E       		.byte	0x5e
 1036 034a B1030000 		.4byte	0x3b1
 1037 034e 06       		.uleb128 0x6
 1038 034f C1030000 		.4byte	.LASF47
 1039 0353 08       		.byte	0x8
 1040 0354 5F       		.byte	0x5f
 1041 0355 52020000 		.4byte	0x252
 1042 0359 02       		.byte	0x2
 1043 035a 23       		.byte	0x23
 1044 035b 00       		.uleb128 0
 1045 035c 06       		.uleb128 0x6
 1046 035d 7E030000 		.4byte	.LASF48
 1047 0361 08       		.byte	0x8
 1048 0362 60       		.byte	0x60
 1049 0363 CE000000 		.4byte	0xce
 1050 0367 02       		.byte	0x2
 1051 0368 23       		.byte	0x23
 1052 0369 08       		.uleb128 0x8
 1053 036a 06       		.uleb128 0x6
 1054 036b B8020000 		.4byte	.LASF49
 1055 036f 08       		.byte	0x8
 1056 0370 62       		.byte	0x62
 1057 0371 19030000 		.4byte	0x319
 1058 0375 02       		.byte	0x2
 1059 0376 23       		.byte	0x23
 1060 0377 0C       		.uleb128 0xc
 1061 0378 06       		.uleb128 0x6
 1062 0379 56010000 		.4byte	.LASF50
 1063 037d 08       		.byte	0x8
 1064 037e 65       		.byte	0x65
 1065 037f 4C020000 		.4byte	0x24c
 1066 0383 02       		.byte	0x2
 1067 0384 23       		.byte	0x23
ARM GAS  /tmp/cchr27lD.s 			page 20


 1068 0385 10       		.uleb128 0x10
 1069 0386 06       		.uleb128 0x6
 1070 0387 E8020000 		.4byte	.LASF51
 1071 038b 08       		.byte	0x8
 1072 038c 66       		.byte	0x66
 1073 038d 4C020000 		.4byte	0x24c
 1074 0391 02       		.byte	0x2
 1075 0392 23       		.byte	0x23
 1076 0393 14       		.uleb128 0x14
 1077 0394 06       		.uleb128 0x6
 1078 0395 02050000 		.4byte	.LASF52
 1079 0399 08       		.byte	0x8
 1080 039a 6A       		.byte	0x6a
 1081 039b FA000000 		.4byte	0xfa
 1082 039f 02       		.byte	0x2
 1083 03a0 23       		.byte	0x23
 1084 03a1 18       		.uleb128 0x18
 1085 03a2 06       		.uleb128 0x6
 1086 03a3 DE020000 		.4byte	.LASF53
 1087 03a7 08       		.byte	0x8
 1088 03a8 6C       		.byte	0x6c
 1089 03a9 4C020000 		.4byte	0x24c
 1090 03ad 02       		.byte	0x2
 1091 03ae 23       		.byte	0x23
 1092 03af 1C       		.uleb128 0x1c
 1093 03b0 00       		.byte	0
 1094 03b1 03       		.uleb128 0x3
 1095 03b2 70040000 		.4byte	.LASF54
 1096 03b6 08       		.byte	0x8
 1097 03b7 6E       		.byte	0x6e
 1098 03b8 46030000 		.4byte	0x346
 1099 03bc 05       		.uleb128 0x5
 1100 03bd A1020000 		.4byte	.LASF55
 1101 03c1 10       		.byte	0x10
 1102 03c2 09       		.byte	0x9
 1103 03c3 2C       		.byte	0x2c
 1104 03c4 F3030000 		.4byte	0x3f3
 1105 03c8 06       		.uleb128 0x6
 1106 03c9 9E000000 		.4byte	.LASF56
 1107 03cd 09       		.byte	0x9
 1108 03ce 2D       		.byte	0x2d
 1109 03cf 52020000 		.4byte	0x252
 1110 03d3 02       		.byte	0x2
 1111 03d4 23       		.byte	0x23
 1112 03d5 00       		.uleb128 0
 1113 03d6 06       		.uleb128 0x6
 1114 03d7 1E050000 		.4byte	.LASF57
 1115 03db 09       		.byte	0x9
 1116 03dc 2F       		.byte	0x2f
 1117 03dd 4C020000 		.4byte	0x24c
 1118 03e1 02       		.byte	0x2
 1119 03e2 23       		.byte	0x23
 1120 03e3 08       		.uleb128 0x8
 1121 03e4 06       		.uleb128 0x6
 1122 03e5 D7020000 		.4byte	.LASF58
 1123 03e9 09       		.byte	0x9
 1124 03ea 31       		.byte	0x31
ARM GAS  /tmp/cchr27lD.s 			page 21


 1125 03eb F3030000 		.4byte	0x3f3
 1126 03ef 02       		.byte	0x2
 1127 03f0 23       		.byte	0x23
 1128 03f1 0C       		.uleb128 0xc
 1129 03f2 00       		.byte	0
 1130 03f3 09       		.uleb128 0x9
 1131 03f4 04       		.byte	0x4
 1132 03f5 BC030000 		.4byte	0x3bc
 1133 03f9 03       		.uleb128 0x3
 1134 03fa A1020000 		.4byte	.LASF55
 1135 03fe 09       		.byte	0x9
 1136 03ff 33       		.byte	0x33
 1137 0400 BC030000 		.4byte	0x3bc
 1138 0404 0E       		.uleb128 0xe
 1139 0405 04       		.byte	0x4
 1140 0406 06       		.byte	0x6
 1141 0407 90       		.byte	0x90
 1142 0408 39040000 		.4byte	0x439
 1143 040c 0F       		.uleb128 0xf
 1144 040d 0C000000 		.4byte	.LASF59
 1145 0411 06       		.byte	0x6
 1146 0412 97       		.byte	0x97
 1147 0413 D9000000 		.4byte	0xd9
 1148 0417 0F       		.uleb128 0xf
 1149 0418 4C000000 		.4byte	.LASF60
 1150 041c 06       		.byte	0x6
 1151 041d 9E       		.byte	0x9e
 1152 041e D9000000 		.4byte	0xd9
 1153 0422 0F       		.uleb128 0xf
 1154 0423 CE040000 		.4byte	.LASF61
 1155 0427 06       		.byte	0x6
 1156 0428 A5       		.byte	0xa5
 1157 0429 8A020000 		.4byte	0x28a
 1158 042d 0F       		.uleb128 0xf
 1159 042e 85030000 		.4byte	.LASF62
 1160 0432 06       		.byte	0x6
 1161 0433 AC       		.byte	0xac
 1162 0434 E4000000 		.4byte	0xe4
 1163 0438 00       		.byte	0
 1164 0439 09       		.uleb128 0x9
 1165 043a 04       		.byte	0x4
 1166 043b 3F040000 		.4byte	0x43f
 1167 043f 10       		.uleb128 0x10
 1168 0440 44040000 		.4byte	0x444
 1169 0444 04       		.uleb128 0x4
 1170 0445 01       		.byte	0x1
 1171 0446 08       		.byte	0x8
 1172 0447 E7030000 		.4byte	.LASF63
 1173 044b 09       		.uleb128 0x9
 1174 044c 04       		.byte	0x4
 1175 044d F9030000 		.4byte	0x3f9
 1176 0451 0D       		.uleb128 0xd
 1177 0452 70000000 		.4byte	0x70
 1178 0456 11       		.uleb128 0x11
 1179 0457 50       		.byte	0x50
 1180 0458 0A       		.byte	0xa
 1181 0459 2C01     		.2byte	0x12c
ARM GAS  /tmp/cchr27lD.s 			page 22


 1182 045b 8A050000 		.4byte	0x58a
 1183 045f 0B       		.uleb128 0xb
 1184 0460 535200   		.ascii	"SR\000"
 1185 0463 0A       		.byte	0xa
 1186 0464 2E01     		.2byte	0x12e
 1187 0466 3C030000 		.4byte	0x33c
 1188 046a 02       		.byte	0x2
 1189 046b 23       		.byte	0x23
 1190 046c 00       		.uleb128 0
 1191 046d 0B       		.uleb128 0xb
 1192 046e 43523100 		.ascii	"CR1\000"
 1193 0472 0A       		.byte	0xa
 1194 0473 2F01     		.2byte	0x12f
 1195 0475 3C030000 		.4byte	0x33c
 1196 0479 02       		.byte	0x2
 1197 047a 23       		.byte	0x23
 1198 047b 04       		.uleb128 0x4
 1199 047c 0B       		.uleb128 0xb
 1200 047d 43523200 		.ascii	"CR2\000"
 1201 0481 0A       		.byte	0xa
 1202 0482 3001     		.2byte	0x130
 1203 0484 3C030000 		.4byte	0x33c
 1204 0488 02       		.byte	0x2
 1205 0489 23       		.byte	0x23
 1206 048a 08       		.uleb128 0x8
 1207 048b 12       		.uleb128 0x12
 1208 048c CB020000 		.4byte	.LASF64
 1209 0490 0A       		.byte	0xa
 1210 0491 3101     		.2byte	0x131
 1211 0493 3C030000 		.4byte	0x33c
 1212 0497 02       		.byte	0x2
 1213 0498 23       		.byte	0x23
 1214 0499 0C       		.uleb128 0xc
 1215 049a 12       		.uleb128 0x12
 1216 049b D1020000 		.4byte	.LASF65
 1217 049f 0A       		.byte	0xa
 1218 04a0 3201     		.2byte	0x132
 1219 04a2 3C030000 		.4byte	0x33c
 1220 04a6 02       		.byte	0x2
 1221 04a7 23       		.byte	0x23
 1222 04a8 10       		.uleb128 0x10
 1223 04a9 12       		.uleb128 0x12
 1224 04aa 87020000 		.4byte	.LASF66
 1225 04ae 0A       		.byte	0xa
 1226 04af 3301     		.2byte	0x133
 1227 04b1 3C030000 		.4byte	0x33c
 1228 04b5 02       		.byte	0x2
 1229 04b6 23       		.byte	0x23
 1230 04b7 14       		.uleb128 0x14
 1231 04b8 12       		.uleb128 0x12
 1232 04b9 8D020000 		.4byte	.LASF67
 1233 04bd 0A       		.byte	0xa
 1234 04be 3401     		.2byte	0x134
 1235 04c0 3C030000 		.4byte	0x33c
 1236 04c4 02       		.byte	0x2
 1237 04c5 23       		.byte	0x23
 1238 04c6 18       		.uleb128 0x18
ARM GAS  /tmp/cchr27lD.s 			page 23


 1239 04c7 12       		.uleb128 0x12
 1240 04c8 93020000 		.4byte	.LASF68
 1241 04cc 0A       		.byte	0xa
 1242 04cd 3501     		.2byte	0x135
 1243 04cf 3C030000 		.4byte	0x33c
 1244 04d3 02       		.byte	0x2
 1245 04d4 23       		.byte	0x23
 1246 04d5 1C       		.uleb128 0x1c
 1247 04d6 12       		.uleb128 0x12
 1248 04d7 9B030000 		.4byte	.LASF69
 1249 04db 0A       		.byte	0xa
 1250 04dc 3601     		.2byte	0x136
 1251 04de 3C030000 		.4byte	0x33c
 1252 04e2 02       		.byte	0x2
 1253 04e3 23       		.byte	0x23
 1254 04e4 20       		.uleb128 0x20
 1255 04e5 0B       		.uleb128 0xb
 1256 04e6 48545200 		.ascii	"HTR\000"
 1257 04ea 0A       		.byte	0xa
 1258 04eb 3701     		.2byte	0x137
 1259 04ed 3C030000 		.4byte	0x33c
 1260 04f1 02       		.byte	0x2
 1261 04f2 23       		.byte	0x23
 1262 04f3 24       		.uleb128 0x24
 1263 04f4 0B       		.uleb128 0xb
 1264 04f5 4C545200 		.ascii	"LTR\000"
 1265 04f9 0A       		.byte	0xa
 1266 04fa 3801     		.2byte	0x138
 1267 04fc 3C030000 		.4byte	0x33c
 1268 0500 02       		.byte	0x2
 1269 0501 23       		.byte	0x23
 1270 0502 28       		.uleb128 0x28
 1271 0503 12       		.uleb128 0x12
 1272 0504 F0020000 		.4byte	.LASF70
 1273 0508 0A       		.byte	0xa
 1274 0509 3901     		.2byte	0x139
 1275 050b 3C030000 		.4byte	0x33c
 1276 050f 02       		.byte	0x2
 1277 0510 23       		.byte	0x23
 1278 0511 2C       		.uleb128 0x2c
 1279 0512 12       		.uleb128 0x12
 1280 0513 F5020000 		.4byte	.LASF71
 1281 0517 0A       		.byte	0xa
 1282 0518 3A01     		.2byte	0x13a
 1283 051a 3C030000 		.4byte	0x33c
 1284 051e 02       		.byte	0x2
 1285 051f 23       		.byte	0x23
 1286 0520 30       		.uleb128 0x30
 1287 0521 12       		.uleb128 0x12
 1288 0522 FA020000 		.4byte	.LASF72
 1289 0526 0A       		.byte	0xa
 1290 0527 3B01     		.2byte	0x13b
 1291 0529 3C030000 		.4byte	0x33c
 1292 052d 02       		.byte	0x2
 1293 052e 23       		.byte	0x23
 1294 052f 34       		.uleb128 0x34
 1295 0530 12       		.uleb128 0x12
ARM GAS  /tmp/cchr27lD.s 			page 24


 1296 0531 70000000 		.4byte	.LASF73
 1297 0535 0A       		.byte	0xa
 1298 0536 3C01     		.2byte	0x13c
 1299 0538 3C030000 		.4byte	0x33c
 1300 053c 02       		.byte	0x2
 1301 053d 23       		.byte	0x23
 1302 053e 38       		.uleb128 0x38
 1303 053f 12       		.uleb128 0x12
 1304 0540 BA040000 		.4byte	.LASF74
 1305 0544 0A       		.byte	0xa
 1306 0545 3D01     		.2byte	0x13d
 1307 0547 3C030000 		.4byte	0x33c
 1308 054b 02       		.byte	0x2
 1309 054c 23       		.byte	0x23
 1310 054d 3C       		.uleb128 0x3c
 1311 054e 12       		.uleb128 0x12
 1312 054f BF040000 		.4byte	.LASF75
 1313 0553 0A       		.byte	0xa
 1314 0554 3E01     		.2byte	0x13e
 1315 0556 3C030000 		.4byte	0x33c
 1316 055a 02       		.byte	0x2
 1317 055b 23       		.byte	0x23
 1318 055c 40       		.uleb128 0x40
 1319 055d 12       		.uleb128 0x12
 1320 055e C4040000 		.4byte	.LASF76
 1321 0562 0A       		.byte	0xa
 1322 0563 3F01     		.2byte	0x13f
 1323 0565 3C030000 		.4byte	0x33c
 1324 0569 02       		.byte	0x2
 1325 056a 23       		.byte	0x23
 1326 056b 44       		.uleb128 0x44
 1327 056c 12       		.uleb128 0x12
 1328 056d C9040000 		.4byte	.LASF77
 1329 0571 0A       		.byte	0xa
 1330 0572 4001     		.2byte	0x140
 1331 0574 3C030000 		.4byte	0x33c
 1332 0578 02       		.byte	0x2
 1333 0579 23       		.byte	0x23
 1334 057a 48       		.uleb128 0x48
 1335 057b 0B       		.uleb128 0xb
 1336 057c 445200   		.ascii	"DR\000"
 1337 057f 0A       		.byte	0xa
 1338 0580 4101     		.2byte	0x141
 1339 0582 3C030000 		.4byte	0x33c
 1340 0586 02       		.byte	0x2
 1341 0587 23       		.byte	0x23
 1342 0588 4C       		.uleb128 0x4c
 1343 0589 00       		.byte	0
 1344 058a 13       		.uleb128 0x13
 1345 058b 16010000 		.4byte	.LASF78
 1346 058f 0A       		.byte	0xa
 1347 0590 4201     		.2byte	0x142
 1348 0592 56040000 		.4byte	0x456
 1349 0596 11       		.uleb128 0x11
 1350 0597 18       		.byte	0x18
 1351 0598 0A       		.byte	0xa
 1352 0599 D301     		.2byte	0x1d3
ARM GAS  /tmp/cchr27lD.s 			page 25


 1353 059b F9050000 		.4byte	0x5f9
 1354 059f 0B       		.uleb128 0xb
 1355 05a0 435200   		.ascii	"CR\000"
 1356 05a3 0A       		.byte	0xa
 1357 05a4 D501     		.2byte	0x1d5
 1358 05a6 3C030000 		.4byte	0x33c
 1359 05aa 02       		.byte	0x2
 1360 05ab 23       		.byte	0x23
 1361 05ac 00       		.uleb128 0
 1362 05ad 12       		.uleb128 0x12
 1363 05ae 17040000 		.4byte	.LASF79
 1364 05b2 0A       		.byte	0xa
 1365 05b3 D601     		.2byte	0x1d6
 1366 05b5 3C030000 		.4byte	0x33c
 1367 05b9 02       		.byte	0x2
 1368 05ba 23       		.byte	0x23
 1369 05bb 04       		.uleb128 0x4
 1370 05bc 0B       		.uleb128 0xb
 1371 05bd 50415200 		.ascii	"PAR\000"
 1372 05c1 0A       		.byte	0xa
 1373 05c2 D701     		.2byte	0x1d7
 1374 05c4 3C030000 		.4byte	0x33c
 1375 05c8 02       		.byte	0x2
 1376 05c9 23       		.byte	0x23
 1377 05ca 08       		.uleb128 0x8
 1378 05cb 12       		.uleb128 0x12
 1379 05cc 00000000 		.4byte	.LASF80
 1380 05d0 0A       		.byte	0xa
 1381 05d1 D801     		.2byte	0x1d8
 1382 05d3 3C030000 		.4byte	0x33c
 1383 05d7 02       		.byte	0x2
 1384 05d8 23       		.byte	0x23
 1385 05d9 0C       		.uleb128 0xc
 1386 05da 12       		.uleb128 0x12
 1387 05db 51040000 		.4byte	.LASF81
 1388 05df 0A       		.byte	0xa
 1389 05e0 D901     		.2byte	0x1d9
 1390 05e2 3C030000 		.4byte	0x33c
 1391 05e6 02       		.byte	0x2
 1392 05e7 23       		.byte	0x23
 1393 05e8 10       		.uleb128 0x10
 1394 05e9 0B       		.uleb128 0xb
 1395 05ea 46435200 		.ascii	"FCR\000"
 1396 05ee 0A       		.byte	0xa
 1397 05ef DA01     		.2byte	0x1da
 1398 05f1 3C030000 		.4byte	0x33c
 1399 05f5 02       		.byte	0x2
 1400 05f6 23       		.byte	0x23
 1401 05f7 14       		.uleb128 0x14
 1402 05f8 00       		.byte	0
 1403 05f9 13       		.uleb128 0x13
 1404 05fa 1C040000 		.4byte	.LASF82
 1405 05fe 0A       		.byte	0xa
 1406 05ff DB01     		.2byte	0x1db
 1407 0601 96050000 		.4byte	0x596
 1408 0605 08       		.uleb128 0x8
 1409 0606 0C       		.byte	0xc
ARM GAS  /tmp/cchr27lD.s 			page 26


 1410 0607 0B       		.byte	0xb
 1411 0608 E5       		.byte	0xe5
 1412 0609 54060000 		.4byte	0x654
 1413 060d 06       		.uleb128 0x6
 1414 060e 2E000000 		.4byte	.LASF83
 1415 0612 0B       		.byte	0xb
 1416 0613 E6       		.byte	0xe6
 1417 0614 54060000 		.4byte	0x654
 1418 0618 02       		.byte	0x2
 1419 0619 23       		.byte	0x23
 1420 061a 00       		.uleb128 0
 1421 061b 06       		.uleb128 0x6
 1422 061c B3030000 		.4byte	.LASF84
 1423 0620 0B       		.byte	0xb
 1424 0621 E7       		.byte	0xe7
 1425 0622 5A060000 		.4byte	0x65a
 1426 0626 02       		.byte	0x2
 1427 0627 23       		.byte	0x23
 1428 0628 04       		.uleb128 0x4
 1429 0629 06       		.uleb128 0x6
 1430 062a E3010000 		.4byte	.LASF85
 1431 062e 0B       		.byte	0xb
 1432 062f E8       		.byte	0xe8
 1433 0630 45000000 		.4byte	0x45
 1434 0634 02       		.byte	0x2
 1435 0635 23       		.byte	0x23
 1436 0636 08       		.uleb128 0x8
 1437 0637 06       		.uleb128 0x6
 1438 0638 71010000 		.4byte	.LASF86
 1439 063c 0B       		.byte	0xb
 1440 063d EA       		.byte	0xea
 1441 063e 45000000 		.4byte	0x45
 1442 0642 02       		.byte	0x2
 1443 0643 23       		.byte	0x23
 1444 0644 09       		.uleb128 0x9
 1445 0645 06       		.uleb128 0x6
 1446 0646 55000000 		.4byte	.LASF87
 1447 064a 0B       		.byte	0xb
 1448 064b EB       		.byte	0xeb
 1449 064c 45000000 		.4byte	0x45
 1450 0650 02       		.byte	0x2
 1451 0651 23       		.byte	0x23
 1452 0652 0A       		.uleb128 0xa
 1453 0653 00       		.byte	0
 1454 0654 09       		.uleb128 0x9
 1455 0655 04       		.byte	0x4
 1456 0656 F9050000 		.4byte	0x5f9
 1457 065a 09       		.uleb128 0x9
 1458 065b 04       		.byte	0x4
 1459 065c 3C030000 		.4byte	0x33c
 1460 0660 03       		.uleb128 0x3
 1461 0661 22030000 		.4byte	.LASF88
 1462 0665 0B       		.byte	0xb
 1463 0666 EC       		.byte	0xec
 1464 0667 05060000 		.4byte	0x605
 1465 066b 14       		.uleb128 0x14
 1466 066c 01       		.byte	0x1
ARM GAS  /tmp/cchr27lD.s 			page 27


 1467 066d 0C       		.byte	0xc
 1468 066e 55       		.byte	0x55
 1469 066f 98060000 		.4byte	0x698
 1470 0673 15       		.uleb128 0x15
 1471 0674 81010000 		.4byte	.LASF89
 1472 0678 00       		.sleb128 0
 1473 0679 15       		.uleb128 0x15
 1474 067a A7020000 		.4byte	.LASF90
 1475 067e 01       		.sleb128 1
 1476 067f 15       		.uleb128 0x15
 1477 0680 FD010000 		.4byte	.LASF91
 1478 0684 02       		.sleb128 2
 1479 0685 15       		.uleb128 0x15
 1480 0686 9D010000 		.4byte	.LASF92
 1481 068a 03       		.sleb128 3
 1482 068b 15       		.uleb128 0x15
 1483 068c D5040000 		.4byte	.LASF93
 1484 0690 04       		.sleb128 4
 1485 0691 15       		.uleb128 0x15
 1486 0692 56040000 		.4byte	.LASF94
 1487 0696 05       		.sleb128 5
 1488 0697 00       		.byte	0
 1489 0698 03       		.uleb128 0x3
 1490 0699 1B000000 		.4byte	.LASF95
 1491 069d 0C       		.byte	0xc
 1492 069e 5C       		.byte	0x5c
 1493 069f 6B060000 		.4byte	0x66b
 1494 06a3 13       		.uleb128 0x13
 1495 06a4 4A010000 		.4byte	.LASF96
 1496 06a8 0D       		.byte	0xd
 1497 06a9 2E01     		.2byte	0x12e
 1498 06ab 5E000000 		.4byte	0x5e
 1499 06af 13       		.uleb128 0x13
 1500 06b0 E9040000 		.4byte	.LASF97
 1501 06b4 0D       		.byte	0xd
 1502 06b5 3301     		.2byte	0x133
 1503 06b7 5E000000 		.4byte	0x5e
 1504 06bb 16       		.uleb128 0x16
 1505 06bc 01       		.byte	0x1
 1506 06bd 0D       		.byte	0xd
 1507 06be 3A01     		.2byte	0x13a
 1508 06c0 D1060000 		.4byte	0x6d1
 1509 06c4 15       		.uleb128 0x15
 1510 06c5 D0000000 		.4byte	.LASF98
 1511 06c9 00       		.sleb128 0
 1512 06ca 15       		.uleb128 0x15
 1513 06cb 8C010000 		.4byte	.LASF99
 1514 06cf 01       		.sleb128 1
 1515 06d0 00       		.byte	0
 1516 06d1 13       		.uleb128 0x13
 1517 06d2 A6000000 		.4byte	.LASF100
 1518 06d6 0D       		.byte	0xd
 1519 06d7 3D01     		.2byte	0x13d
 1520 06d9 BB060000 		.4byte	0x6bb
 1521 06dd 13       		.uleb128 0x13
 1522 06de D4010000 		.4byte	.LASF101
 1523 06e2 0D       		.byte	0xd
ARM GAS  /tmp/cchr27lD.s 			page 28


 1524 06e3 4201     		.2byte	0x142
 1525 06e5 E9060000 		.4byte	0x6e9
 1526 06e9 0C       		.uleb128 0xc
 1527 06ea D4010000 		.4byte	.LASF101
 1528 06ee 34       		.byte	0x34
 1529 06ef 0D       		.byte	0xd
 1530 06f0 A601     		.2byte	0x1a6
 1531 06f2 8D070000 		.4byte	0x78d
 1532 06f6 12       		.uleb128 0x12
 1533 06f7 B8000000 		.4byte	.LASF102
 1534 06fb 0D       		.byte	0xd
 1535 06fc AA01     		.2byte	0x1aa
 1536 06fe 98060000 		.4byte	0x698
 1537 0702 02       		.byte	0x2
 1538 0703 23       		.byte	0x23
 1539 0704 00       		.uleb128 0
 1540 0705 12       		.uleb128 0x12
 1541 0706 EC030000 		.4byte	.LASF103
 1542 070a 0D       		.byte	0xd
 1543 070b AE01     		.2byte	0x1ae
 1544 070d C4080000 		.4byte	0x8c4
 1545 0711 02       		.byte	0x2
 1546 0712 23       		.byte	0x23
 1547 0713 04       		.uleb128 0x4
 1548 0714 12       		.uleb128 0x12
 1549 0715 99020000 		.4byte	.LASF104
 1550 0719 0D       		.byte	0xd
 1551 071a B201     		.2byte	0x1b2
 1552 071c BB070000 		.4byte	0x7bb
 1553 0720 02       		.byte	0x2
 1554 0721 23       		.byte	0x23
 1555 0722 08       		.uleb128 0x8
 1556 0723 12       		.uleb128 0x12
 1557 0724 07020000 		.4byte	.LASF105
 1558 0728 0D       		.byte	0xd
 1559 0729 B601     		.2byte	0x1b6
 1560 072b 2C000000 		.4byte	0x2c
 1561 072f 02       		.byte	0x2
 1562 0730 23       		.byte	0x23
 1563 0731 0C       		.uleb128 0xc
 1564 0732 12       		.uleb128 0x12
 1565 0733 82020000 		.4byte	.LASF106
 1566 0737 0D       		.byte	0xd
 1567 0738 BA01     		.2byte	0x1ba
 1568 073a CF080000 		.4byte	0x8cf
 1569 073e 02       		.byte	0x2
 1570 073f 23       		.byte	0x23
 1571 0740 10       		.uleb128 0x10
 1572 0741 12       		.uleb128 0x12
 1573 0742 FF000000 		.4byte	.LASF107
 1574 0746 0D       		.byte	0xd
 1575 0747 BF01     		.2byte	0x1bf
 1576 0749 4C020000 		.4byte	0x24c
 1577 074d 02       		.byte	0x2
 1578 074e 23       		.byte	0x23
 1579 074f 14       		.uleb128 0x14
 1580 0750 12       		.uleb128 0x12
ARM GAS  /tmp/cchr27lD.s 			page 29


 1581 0751 3D030000 		.4byte	.LASF108
 1582 0755 0D       		.byte	0xd
 1583 0756 C601     		.2byte	0x1c6
 1584 0758 F9030000 		.4byte	0x3f9
 1585 075c 02       		.byte	0x2
 1586 075d 23       		.byte	0x23
 1587 075e 18       		.uleb128 0x18
 1588 075f 0B       		.uleb128 0xb
 1589 0760 61646300 		.ascii	"adc\000"
 1590 0764 0D       		.byte	0xd
 1591 0765 D201     		.2byte	0x1d2
 1592 0767 DA080000 		.4byte	0x8da
 1593 076b 02       		.byte	0x2
 1594 076c 23       		.byte	0x23
 1595 076d 28       		.uleb128 0x28
 1596 076e 12       		.uleb128 0x12
 1597 076f B1000000 		.4byte	.LASF109
 1598 0773 0D       		.byte	0xd
 1599 0774 D601     		.2byte	0x1d6
 1600 0776 E0080000 		.4byte	0x8e0
 1601 077a 02       		.byte	0x2
 1602 077b 23       		.byte	0x23
 1603 077c 2C       		.uleb128 0x2c
 1604 077d 12       		.uleb128 0x12
 1605 077e 13000000 		.4byte	.LASF110
 1606 0782 0D       		.byte	0xd
 1607 0783 DA01     		.2byte	0x1da
 1608 0785 82000000 		.4byte	0x82
 1609 0789 02       		.byte	0x2
 1610 078a 23       		.byte	0x23
 1611 078b 30       		.uleb128 0x30
 1612 078c 00       		.byte	0
 1613 078d 13       		.uleb128 0x13
 1614 078e 31010000 		.4byte	.LASF111
 1615 0792 0D       		.byte	0xd
 1616 0793 4C01     		.2byte	0x14c
 1617 0795 99070000 		.4byte	0x799
 1618 0799 09       		.uleb128 0x9
 1619 079a 04       		.byte	0x4
 1620 079b 9F070000 		.4byte	0x79f
 1621 079f 17       		.uleb128 0x17
 1622 07a0 01       		.byte	0x1
 1623 07a1 B5070000 		.4byte	0x7b5
 1624 07a5 18       		.uleb128 0x18
 1625 07a6 B5070000 		.4byte	0x7b5
 1626 07aa 18       		.uleb128 0x18
 1627 07ab BB070000 		.4byte	0x7bb
 1628 07af 18       		.uleb128 0x18
 1629 07b0 2C000000 		.4byte	0x2c
 1630 07b4 00       		.byte	0
 1631 07b5 09       		.uleb128 0x9
 1632 07b6 04       		.byte	0x4
 1633 07b7 DD060000 		.4byte	0x6dd
 1634 07bb 09       		.uleb128 0x9
 1635 07bc 04       		.byte	0x4
 1636 07bd A3060000 		.4byte	0x6a3
 1637 07c1 13       		.uleb128 0x13
ARM GAS  /tmp/cchr27lD.s 			page 30


 1638 07c2 E3000000 		.4byte	.LASF112
 1639 07c6 0D       		.byte	0xd
 1640 07c7 5501     		.2byte	0x155
 1641 07c9 CD070000 		.4byte	0x7cd
 1642 07cd 09       		.uleb128 0x9
 1643 07ce 04       		.byte	0x4
 1644 07cf D3070000 		.4byte	0x7d3
 1645 07d3 17       		.uleb128 0x17
 1646 07d4 01       		.byte	0x1
 1647 07d5 E4070000 		.4byte	0x7e4
 1648 07d9 18       		.uleb128 0x18
 1649 07da B5070000 		.4byte	0x7b5
 1650 07de 18       		.uleb128 0x18
 1651 07df D1060000 		.4byte	0x6d1
 1652 07e3 00       		.byte	0
 1653 07e4 11       		.uleb128 0x11
 1654 07e5 2C       		.byte	0x2c
 1655 07e6 0D       		.byte	0xd
 1656 07e7 5F01     		.2byte	0x15f
 1657 07e9 93080000 		.4byte	0x893
 1658 07ed 12       		.uleb128 0x12
 1659 07ee BE000000 		.4byte	.LASF113
 1660 07f2 0D       		.byte	0xd
 1661 07f3 6301     		.2byte	0x163
 1662 07f5 A2000000 		.4byte	0xa2
 1663 07f9 02       		.byte	0x2
 1664 07fa 23       		.byte	0x23
 1665 07fb 00       		.uleb128 0
 1666 07fc 12       		.uleb128 0x12
 1667 07fd 1B020000 		.4byte	.LASF114
 1668 0801 0D       		.byte	0xd
 1669 0802 6701     		.2byte	0x167
 1670 0804 AF060000 		.4byte	0x6af
 1671 0808 02       		.byte	0x2
 1672 0809 23       		.byte	0x23
 1673 080a 04       		.uleb128 0x4
 1674 080b 12       		.uleb128 0x12
 1675 080c 2A010000 		.4byte	.LASF115
 1676 0810 0D       		.byte	0xd
 1677 0811 6B01     		.2byte	0x16b
 1678 0813 8D070000 		.4byte	0x78d
 1679 0817 02       		.byte	0x2
 1680 0818 23       		.byte	0x23
 1681 0819 08       		.uleb128 0x8
 1682 081a 12       		.uleb128 0x12
 1683 081b 75030000 		.4byte	.LASF116
 1684 081f 0D       		.byte	0xd
 1685 0820 6F01     		.2byte	0x16f
 1686 0822 C1070000 		.4byte	0x7c1
 1687 0826 02       		.byte	0x2
 1688 0827 23       		.byte	0x23
 1689 0828 0C       		.uleb128 0xc
 1690 0829 0B       		.uleb128 0xb
 1691 082a 63723100 		.ascii	"cr1\000"
 1692 082e 0D       		.byte	0xd
 1693 082f 7601     		.2byte	0x176
 1694 0831 82000000 		.4byte	0x82
ARM GAS  /tmp/cchr27lD.s 			page 31


 1695 0835 02       		.byte	0x2
 1696 0836 23       		.byte	0x23
 1697 0837 10       		.uleb128 0x10
 1698 0838 0B       		.uleb128 0xb
 1699 0839 63723200 		.ascii	"cr2\000"
 1700 083d 0D       		.byte	0xd
 1701 083e 7D01     		.2byte	0x17d
 1702 0840 82000000 		.4byte	0x82
 1703 0844 02       		.byte	0x2
 1704 0845 23       		.byte	0x23
 1705 0846 14       		.uleb128 0x14
 1706 0847 12       		.uleb128 0x12
 1707 0848 7A040000 		.4byte	.LASF117
 1708 084c 0D       		.byte	0xd
 1709 084d 8301     		.2byte	0x183
 1710 084f 82000000 		.4byte	0x82
 1711 0853 02       		.byte	0x2
 1712 0854 23       		.byte	0x23
 1713 0855 18       		.uleb128 0x18
 1714 0856 12       		.uleb128 0x12
 1715 0857 80040000 		.4byte	.LASF118
 1716 085b 0D       		.byte	0xd
 1717 085c 8901     		.2byte	0x189
 1718 085e 82000000 		.4byte	0x82
 1719 0862 02       		.byte	0x2
 1720 0863 23       		.byte	0x23
 1721 0864 1C       		.uleb128 0x1c
 1722 0865 12       		.uleb128 0x12
 1723 0866 F3030000 		.4byte	.LASF119
 1724 086a 0D       		.byte	0xd
 1725 086b 8E01     		.2byte	0x18e
 1726 086d 82000000 		.4byte	0x82
 1727 0871 02       		.byte	0x2
 1728 0872 23       		.byte	0x23
 1729 0873 20       		.uleb128 0x20
 1730 0874 12       		.uleb128 0x12
 1731 0875 F8030000 		.4byte	.LASF120
 1732 0879 0D       		.byte	0xd
 1733 087a 9301     		.2byte	0x193
 1734 087c 82000000 		.4byte	0x82
 1735 0880 02       		.byte	0x2
 1736 0881 23       		.byte	0x23
 1737 0882 24       		.uleb128 0x24
 1738 0883 12       		.uleb128 0x12
 1739 0884 FD030000 		.4byte	.LASF121
 1740 0888 0D       		.byte	0xd
 1741 0889 9801     		.2byte	0x198
 1742 088b 82000000 		.4byte	0x82
 1743 088f 02       		.byte	0x2
 1744 0890 23       		.byte	0x23
 1745 0891 28       		.uleb128 0x28
 1746 0892 00       		.byte	0
 1747 0893 13       		.uleb128 0x13
 1748 0894 A7040000 		.4byte	.LASF122
 1749 0898 0D       		.byte	0xd
 1750 0899 9901     		.2byte	0x199
 1751 089b E4070000 		.4byte	0x7e4
ARM GAS  /tmp/cchr27lD.s 			page 32


 1752 089f 11       		.uleb128 0x11
 1753 08a0 04       		.byte	0x4
 1754 08a1 0D       		.byte	0xd
 1755 08a2 9F01     		.2byte	0x19f
 1756 08a4 B8080000 		.4byte	0x8b8
 1757 08a8 12       		.uleb128 0x12
 1758 08a9 7B010000 		.4byte	.LASF123
 1759 08ad 0D       		.byte	0xd
 1760 08ae A001     		.2byte	0x1a0
 1761 08b0 82000000 		.4byte	0x82
 1762 08b4 02       		.byte	0x2
 1763 08b5 23       		.byte	0x23
 1764 08b6 00       		.uleb128 0
 1765 08b7 00       		.byte	0
 1766 08b8 13       		.uleb128 0x13
 1767 08b9 5E010000 		.4byte	.LASF124
 1768 08bd 0D       		.byte	0xd
 1769 08be A101     		.2byte	0x1a1
 1770 08c0 9F080000 		.4byte	0x89f
 1771 08c4 09       		.uleb128 0x9
 1772 08c5 04       		.byte	0x4
 1773 08c6 CA080000 		.4byte	0x8ca
 1774 08ca 10       		.uleb128 0x10
 1775 08cb B8080000 		.4byte	0x8b8
 1776 08cf 09       		.uleb128 0x9
 1777 08d0 04       		.byte	0x4
 1778 08d1 D5080000 		.4byte	0x8d5
 1779 08d5 10       		.uleb128 0x10
 1780 08d6 93080000 		.4byte	0x893
 1781 08da 09       		.uleb128 0x9
 1782 08db 04       		.byte	0x4
 1783 08dc 8A050000 		.4byte	0x58a
 1784 08e0 09       		.uleb128 0x9
 1785 08e1 04       		.byte	0x4
 1786 08e2 E6080000 		.4byte	0x8e6
 1787 08e6 10       		.uleb128 0x10
 1788 08e7 60060000 		.4byte	0x660
 1789 08eb 19       		.uleb128 0x19
 1790 08ec 01       		.byte	0x1
 1791 08ed FF020000 		.4byte	.LASF138
 1792 08f1 01       		.byte	0x1
 1793 08f2 BB       		.byte	0xbb
 1794 08f3 01       		.byte	0x1
 1795 08f4 01       		.byte	0x1
 1796 08f5 26090000 		.4byte	0x926
 1797 08f9 1A       		.uleb128 0x1a
 1798 08fa DE010000 		.4byte	.LASF125
 1799 08fe 01       		.byte	0x1
 1800 08ff BB       		.byte	0xbb
 1801 0900 B5070000 		.4byte	0x7b5
 1802 0904 1A       		.uleb128 0x1a
 1803 0905 82020000 		.4byte	.LASF106
 1804 0909 01       		.byte	0x1
 1805 090a BC       		.byte	0xbc
 1806 090b CF080000 		.4byte	0x8cf
 1807 090f 1A       		.uleb128 0x1a
 1808 0910 99020000 		.4byte	.LASF104
ARM GAS  /tmp/cchr27lD.s 			page 33


 1809 0914 01       		.byte	0x1
 1810 0915 BD       		.byte	0xbd
 1811 0916 BB070000 		.4byte	0x7bb
 1812 091a 1A       		.uleb128 0x1a
 1813 091b 07020000 		.4byte	.LASF105
 1814 091f 01       		.byte	0x1
 1815 0920 BE       		.byte	0xbe
 1816 0921 2C000000 		.4byte	0x2c
 1817 0925 00       		.byte	0
 1818 0926 1B       		.uleb128 0x1b
 1819 0927 01       		.byte	0x1
 1820 0928 6C020000 		.4byte	.LASF139
 1821 092c 01       		.byte	0x1
 1822 092d 44       		.byte	0x44
 1823 092e 01       		.byte	0x1
 1824 092f 00000000 		.4byte	.LFB117
 1825 0933 04000000 		.4byte	.LFE117
 1826 0937 02       		.byte	0x2
 1827 0938 7D       		.byte	0x7d
 1828 0939 00       		.sleb128 0
 1829 093a 1C       		.uleb128 0x1c
 1830 093b 01       		.byte	0x1
 1831 093c BB010000 		.4byte	.LASF126
 1832 0940 01       		.byte	0x1
 1833 0941 50       		.byte	0x50
 1834 0942 01       		.byte	0x1
 1835 0943 00000000 		.4byte	.LFB118
 1836 0947 16000000 		.4byte	.LFE118
 1837 094b 02       		.byte	0x2
 1838 094c 7D       		.byte	0x7d
 1839 094d 00       		.sleb128 0
 1840 094e 62090000 		.4byte	0x962
 1841 0952 1D       		.uleb128 0x1d
 1842 0953 DE010000 		.4byte	.LASF125
 1843 0957 01       		.byte	0x1
 1844 0958 50       		.byte	0x50
 1845 0959 B5070000 		.4byte	0x7b5
 1846 095d 00000000 		.4byte	.LLST0
 1847 0961 00       		.byte	0
 1848 0962 1E       		.uleb128 0x1e
 1849 0963 01       		.byte	0x1
 1850 0964 60040000 		.4byte	.LASF127
 1851 0968 01       		.byte	0x1
 1852 0969 6F       		.byte	0x6f
 1853 096a 01       		.byte	0x1
 1854 096b 00000000 		.4byte	.LFB119
 1855 096f 1C000000 		.4byte	.LFE119
 1856 0973 20000000 		.4byte	.LLST1
 1857 0977 CC090000 		.4byte	0x9cc
 1858 097b 1D       		.uleb128 0x1d
 1859 097c DE010000 		.4byte	.LASF125
 1860 0980 01       		.byte	0x1
 1861 0981 6F       		.byte	0x6f
 1862 0982 B5070000 		.4byte	0x7b5
 1863 0986 40000000 		.4byte	.LLST2
 1864 098a 1D       		.uleb128 0x1d
 1865 098b EC030000 		.4byte	.LASF103
ARM GAS  /tmp/cchr27lD.s 			page 34


 1866 098f 01       		.byte	0x1
 1867 0990 6F       		.byte	0x6f
 1868 0991 C4080000 		.4byte	0x8c4
 1869 0995 5E000000 		.4byte	.LLST3
 1870 0999 1F       		.uleb128 0x1f
 1871 099a 00000000 		.4byte	.Ldebug_ranges0+0
 1872 099e B2090000 		.4byte	0x9b2
 1873 09a2 20       		.uleb128 0x20
 1874 09a3 746D7000 		.ascii	"tmp\000"
 1875 09a7 01       		.byte	0x1
 1876 09a8 73       		.byte	0x73
 1877 09a9 82000000 		.4byte	0x82
 1878 09ad 71000000 		.4byte	.LLST4
 1879 09b1 00       		.byte	0
 1880 09b2 21       		.uleb128 0x21
 1881 09b3 14000000 		.4byte	.LBB12
 1882 09b7 1A000000 		.4byte	.LBE12
 1883 09bb 20       		.uleb128 0x20
 1884 09bc 746D7000 		.ascii	"tmp\000"
 1885 09c0 01       		.byte	0x1
 1886 09c1 79       		.byte	0x79
 1887 09c2 82000000 		.4byte	0x82
 1888 09c6 84000000 		.4byte	.LLST5
 1889 09ca 00       		.byte	0
 1890 09cb 00       		.byte	0
 1891 09cc 1E       		.uleb128 0x1e
 1892 09cd 01       		.byte	0x1
 1893 09ce 26000000 		.4byte	.LASF128
 1894 09d2 01       		.byte	0x1
 1895 09d3 83       		.byte	0x83
 1896 09d4 01       		.byte	0x1
 1897 09d5 00000000 		.4byte	.LFB120
 1898 09d9 1A000000 		.4byte	.LFE120
 1899 09dd 97000000 		.4byte	.LLST6
 1900 09e1 270A0000 		.4byte	0xa27
 1901 09e5 1D       		.uleb128 0x1d
 1902 09e6 DE010000 		.4byte	.LASF125
 1903 09ea 01       		.byte	0x1
 1904 09eb 83       		.byte	0x83
 1905 09ec B5070000 		.4byte	0x7b5
 1906 09f0 B7000000 		.4byte	.LLST7
 1907 09f4 1F       		.uleb128 0x1f
 1908 09f5 18000000 		.4byte	.Ldebug_ranges0+0x18
 1909 09f9 0D0A0000 		.4byte	0xa0d
 1910 09fd 20       		.uleb128 0x20
 1911 09fe 746D7000 		.ascii	"tmp\000"
 1912 0a02 01       		.byte	0x1
 1913 0a03 87       		.byte	0x87
 1914 0a04 82000000 		.4byte	0x82
 1915 0a08 D5000000 		.4byte	.LLST8
 1916 0a0c 00       		.byte	0
 1917 0a0d 21       		.uleb128 0x21
 1918 0a0e 12000000 		.4byte	.LBB15
 1919 0a12 18000000 		.4byte	.LBE15
 1920 0a16 20       		.uleb128 0x20
 1921 0a17 746D7000 		.ascii	"tmp\000"
 1922 0a1b 01       		.byte	0x1
ARM GAS  /tmp/cchr27lD.s 			page 35


 1923 0a1c 8C       		.byte	0x8c
 1924 0a1d 82000000 		.4byte	0x82
 1925 0a21 E8000000 		.4byte	.LLST9
 1926 0a25 00       		.byte	0
 1927 0a26 00       		.byte	0
 1928 0a27 1E       		.uleb128 0x1e
 1929 0a28 01       		.byte	0x1
 1930 0a29 37040000 		.4byte	.LASF129
 1931 0a2d 01       		.byte	0x1
 1932 0a2e 9F       		.byte	0x9f
 1933 0a2f 01       		.byte	0x1
 1934 0a30 00000000 		.4byte	.LFB121
 1935 0a34 20000000 		.4byte	.LFE121
 1936 0a38 FB000000 		.4byte	.LLST10
 1937 0a3c E90A0000 		.4byte	0xae9
 1938 0a40 1D       		.uleb128 0x1d
 1939 0a41 DE010000 		.4byte	.LASF125
 1940 0a45 01       		.byte	0x1
 1941 0a46 9F       		.byte	0x9f
 1942 0a47 B5070000 		.4byte	0x7b5
 1943 0a4b 1B010000 		.4byte	.LLST11
 1944 0a4f 1D       		.uleb128 0x1d
 1945 0a50 82020000 		.4byte	.LASF106
 1946 0a54 01       		.byte	0x1
 1947 0a55 A0       		.byte	0xa0
 1948 0a56 CF080000 		.4byte	0x8cf
 1949 0a5a 2E010000 		.4byte	.LLST12
 1950 0a5e 1D       		.uleb128 0x1d
 1951 0a5f 99020000 		.4byte	.LASF104
 1952 0a63 01       		.byte	0x1
 1953 0a64 A1       		.byte	0xa1
 1954 0a65 BB070000 		.4byte	0x7bb
 1955 0a69 41010000 		.4byte	.LLST13
 1956 0a6d 1D       		.uleb128 0x1d
 1957 0a6e 07020000 		.4byte	.LASF105
 1958 0a72 01       		.byte	0x1
 1959 0a73 A2       		.byte	0xa2
 1960 0a74 2C000000 		.4byte	0x2c
 1961 0a78 54010000 		.4byte	.LLST14
 1962 0a7c 22       		.uleb128 0x22
 1963 0a7d 04000000 		.4byte	.LBB16
 1964 0a81 0A000000 		.4byte	.LBE16
 1965 0a85 990A0000 		.4byte	0xa99
 1966 0a89 20       		.uleb128 0x20
 1967 0a8a 746D7000 		.ascii	"tmp\000"
 1968 0a8e 01       		.byte	0x1
 1969 0a8f A4       		.byte	0xa4
 1970 0a90 82000000 		.4byte	0x82
 1971 0a94 72010000 		.4byte	.LLST15
 1972 0a98 00       		.byte	0
 1973 0a99 23       		.uleb128 0x23
 1974 0a9a EB080000 		.4byte	0x8eb
 1975 0a9e 0A000000 		.4byte	.LBB17
 1976 0aa2 18000000 		.4byte	.LBE17
 1977 0aa6 01       		.byte	0x1
 1978 0aa7 A5       		.byte	0xa5
 1979 0aa8 CF0A0000 		.4byte	0xacf
ARM GAS  /tmp/cchr27lD.s 			page 36


 1980 0aac 24       		.uleb128 0x24
 1981 0aad 1A090000 		.4byte	0x91a
 1982 0ab1 01       		.byte	0x1
 1983 0ab2 55       		.byte	0x55
 1984 0ab3 25       		.uleb128 0x25
 1985 0ab4 0F090000 		.4byte	0x90f
 1986 0ab8 85010000 		.4byte	.LLST16
 1987 0abc 25       		.uleb128 0x25
 1988 0abd 04090000 		.4byte	0x904
 1989 0ac1 98010000 		.4byte	.LLST17
 1990 0ac5 25       		.uleb128 0x25
 1991 0ac6 F9080000 		.4byte	0x8f9
 1992 0aca AB010000 		.4byte	.LLST18
 1993 0ace 00       		.byte	0
 1994 0acf 21       		.uleb128 0x21
 1995 0ad0 18000000 		.4byte	.LBB19
 1996 0ad4 1E000000 		.4byte	.LBE19
 1997 0ad8 20       		.uleb128 0x20
 1998 0ad9 746D7000 		.ascii	"tmp\000"
 1999 0add 01       		.byte	0x1
 2000 0ade A6       		.byte	0xa6
 2001 0adf 82000000 		.4byte	0x82
 2002 0ae3 BE010000 		.4byte	.LLST19
 2003 0ae7 00       		.byte	0
 2004 0ae8 00       		.byte	0
 2005 0ae9 26       		.uleb128 0x26
 2006 0aea EB080000 		.4byte	0x8eb
 2007 0aee 00000000 		.4byte	.LFB122
 2008 0af2 12000000 		.4byte	.LFE122
 2009 0af6 D1010000 		.4byte	.LLST20
 2010 0afa 230B0000 		.4byte	0xb23
 2011 0afe 25       		.uleb128 0x25
 2012 0aff F9080000 		.4byte	0x8f9
 2013 0b03 F1010000 		.4byte	.LLST21
 2014 0b07 25       		.uleb128 0x25
 2015 0b08 04090000 		.4byte	0x904
 2016 0b0c 04020000 		.4byte	.LLST22
 2017 0b10 25       		.uleb128 0x25
 2018 0b11 0F090000 		.4byte	0x90f
 2019 0b15 17020000 		.4byte	.LLST23
 2020 0b19 25       		.uleb128 0x25
 2021 0b1a 1A090000 		.4byte	0x91a
 2022 0b1e 2A020000 		.4byte	.LLST24
 2023 0b22 00       		.byte	0
 2024 0b23 1E       		.uleb128 0x1e
 2025 0b24 01       		.byte	0x1
 2026 0b25 0C050000 		.4byte	.LASF130
 2027 0b29 01       		.byte	0x1
 2028 0b2a DA       		.byte	0xda
 2029 0b2b 01       		.byte	0x1
 2030 0b2c 00000000 		.4byte	.LFB123
 2031 0b30 32000000 		.4byte	.LFE123
 2032 0b34 49020000 		.4byte	.LLST25
 2033 0b38 9A0B0000 		.4byte	0xb9a
 2034 0b3c 1D       		.uleb128 0x1d
 2035 0b3d DE010000 		.4byte	.LASF125
 2036 0b41 01       		.byte	0x1
ARM GAS  /tmp/cchr27lD.s 			page 37


 2037 0b42 DA       		.byte	0xda
 2038 0b43 B5070000 		.4byte	0x7b5
 2039 0b47 69020000 		.4byte	.LLST26
 2040 0b4b 1F       		.uleb128 0x1f
 2041 0b4c 30000000 		.4byte	.Ldebug_ranges0+0x30
 2042 0b50 640B0000 		.4byte	0xb64
 2043 0b54 20       		.uleb128 0x20
 2044 0b55 746D7000 		.ascii	"tmp\000"
 2045 0b59 01       		.byte	0x1
 2046 0b5a DE       		.byte	0xde
 2047 0b5b 82000000 		.4byte	0x82
 2048 0b5f 87020000 		.4byte	.LLST27
 2049 0b63 00       		.byte	0
 2050 0b64 22       		.uleb128 0x22
 2051 0b65 20000000 		.4byte	.LBB22
 2052 0b69 2A000000 		.4byte	.LBE22
 2053 0b6d 800B0000 		.4byte	0xb80
 2054 0b71 20       		.uleb128 0x20
 2055 0b72 747000   		.ascii	"tp\000"
 2056 0b75 01       		.byte	0x1
 2057 0b76 E6       		.byte	0xe6
 2058 0b77 4C020000 		.4byte	0x24c
 2059 0b7b 9A020000 		.4byte	.LLST28
 2060 0b7f 00       		.byte	0
 2061 0b80 21       		.uleb128 0x21
 2062 0b81 2A000000 		.4byte	.LBB23
 2063 0b85 30000000 		.4byte	.LBE23
 2064 0b89 20       		.uleb128 0x20
 2065 0b8a 746D7000 		.ascii	"tmp\000"
 2066 0b8e 01       		.byte	0x1
 2067 0b8f E8       		.byte	0xe8
 2068 0b90 82000000 		.4byte	0x82
 2069 0b94 AE020000 		.4byte	.LLST29
 2070 0b98 00       		.byte	0
 2071 0b99 00       		.byte	0
 2072 0b9a 1E       		.uleb128 0x1e
 2073 0b9b 01       		.byte	0x1
 2074 0b9c 94040000 		.4byte	.LASF131
 2075 0ba0 01       		.byte	0x1
 2076 0ba1 F5       		.byte	0xf5
 2077 0ba2 01       		.byte	0x1
 2078 0ba3 00000000 		.4byte	.LFB124
 2079 0ba7 2E000000 		.4byte	.LFE124
 2080 0bab C1020000 		.4byte	.LLST30
 2081 0baf D80B0000 		.4byte	0xbd8
 2082 0bb3 1D       		.uleb128 0x1d
 2083 0bb4 DE010000 		.4byte	.LASF125
 2084 0bb8 01       		.byte	0x1
 2085 0bb9 F5       		.byte	0xf5
 2086 0bba B5070000 		.4byte	0x7b5
 2087 0bbe E1020000 		.4byte	.LLST31
 2088 0bc2 27       		.uleb128 0x27
 2089 0bc3 48000000 		.4byte	.Ldebug_ranges0+0x48
 2090 0bc7 28       		.uleb128 0x28
 2091 0bc8 747000   		.ascii	"tp\000"
 2092 0bcb 01       		.byte	0x1
 2093 0bcc 0201     		.2byte	0x102
ARM GAS  /tmp/cchr27lD.s 			page 38


 2094 0bce 4C020000 		.4byte	0x24c
 2095 0bd2 FF020000 		.4byte	.LLST32
 2096 0bd6 00       		.byte	0
 2097 0bd7 00       		.byte	0
 2098 0bd8 29       		.uleb128 0x29
 2099 0bd9 01       		.byte	0x1
 2100 0bda 3F010000 		.4byte	.LASF140
 2101 0bde 01       		.byte	0x1
 2102 0bdf 1E01     		.2byte	0x11e
 2103 0be1 01       		.byte	0x1
 2104 0be2 D9000000 		.4byte	0xd9
 2105 0be6 00000000 		.4byte	.LFB125
 2106 0bea 38000000 		.4byte	.LFE125
 2107 0bee 13030000 		.4byte	.LLST33
 2108 0bf2 B40C0000 		.4byte	0xcb4
 2109 0bf6 2A       		.uleb128 0x2a
 2110 0bf7 DE010000 		.4byte	.LASF125
 2111 0bfb 01       		.byte	0x1
 2112 0bfc 1E01     		.2byte	0x11e
 2113 0bfe B5070000 		.4byte	0x7b5
 2114 0c02 33030000 		.4byte	.LLST34
 2115 0c06 2A       		.uleb128 0x2a
 2116 0c07 82020000 		.4byte	.LASF106
 2117 0c0b 01       		.byte	0x1
 2118 0c0c 1F01     		.2byte	0x11f
 2119 0c0e CF080000 		.4byte	0x8cf
 2120 0c12 51030000 		.4byte	.LLST35
 2121 0c16 2A       		.uleb128 0x2a
 2122 0c17 99020000 		.4byte	.LASF104
 2123 0c1b 01       		.byte	0x1
 2124 0c1c 2001     		.2byte	0x120
 2125 0c1e BB070000 		.4byte	0x7bb
 2126 0c22 64030000 		.4byte	.LLST36
 2127 0c26 2A       		.uleb128 0x2a
 2128 0c27 07020000 		.4byte	.LASF105
 2129 0c2b 01       		.byte	0x1
 2130 0c2c 2101     		.2byte	0x121
 2131 0c2e 2C000000 		.4byte	0x2c
 2132 0c32 77030000 		.4byte	.LLST37
 2133 0c36 2B       		.uleb128 0x2b
 2134 0c37 6D736700 		.ascii	"msg\000"
 2135 0c3b 01       		.byte	0x1
 2136 0c3c 2201     		.2byte	0x122
 2137 0c3e D9000000 		.4byte	0xd9
 2138 0c42 05       		.byte	0x5
 2139 0c43 76       		.byte	0x76
 2140 0c44 1C       		.sleb128 28
 2141 0c45 06       		.byte	0x6
 2142 0c46 23       		.byte	0x23
 2143 0c47 24       		.uleb128 0x24
 2144 0c48 22       		.uleb128 0x22
 2145 0c49 06000000 		.4byte	.LBB26
 2146 0c4d 0C000000 		.4byte	.LBE26
 2147 0c51 660C0000 		.4byte	0xc66
 2148 0c55 28       		.uleb128 0x28
 2149 0c56 746D7000 		.ascii	"tmp\000"
 2150 0c5a 01       		.byte	0x1
ARM GAS  /tmp/cchr27lD.s 			page 39


 2151 0c5b 2401     		.2byte	0x124
 2152 0c5d 82000000 		.4byte	0x82
 2153 0c61 95030000 		.4byte	.LLST38
 2154 0c65 00       		.byte	0
 2155 0c66 2C       		.uleb128 0x2c
 2156 0c67 EB080000 		.4byte	0x8eb
 2157 0c6b 14000000 		.4byte	.LBB27
 2158 0c6f 22000000 		.4byte	.LBE27
 2159 0c73 01       		.byte	0x1
 2160 0c74 2601     		.2byte	0x126
 2161 0c76 9D0C0000 		.4byte	0xc9d
 2162 0c7a 24       		.uleb128 0x24
 2163 0c7b 1A090000 		.4byte	0x91a
 2164 0c7f 01       		.byte	0x1
 2165 0c80 55       		.byte	0x55
 2166 0c81 25       		.uleb128 0x25
 2167 0c82 0F090000 		.4byte	0x90f
 2168 0c86 A8030000 		.4byte	.LLST39
 2169 0c8a 25       		.uleb128 0x25
 2170 0c8b 04090000 		.4byte	0x904
 2171 0c8f BB030000 		.4byte	.LLST40
 2172 0c93 25       		.uleb128 0x25
 2173 0c94 F9080000 		.4byte	0x8f9
 2174 0c98 DA030000 		.4byte	.LLST41
 2175 0c9c 00       		.byte	0
 2176 0c9d 27       		.uleb128 0x27
 2177 0c9e 60000000 		.4byte	.Ldebug_ranges0+0x60
 2178 0ca2 28       		.uleb128 0x28
 2179 0ca3 746D7000 		.ascii	"tmp\000"
 2180 0ca7 01       		.byte	0x1
 2181 0ca8 2A01     		.2byte	0x12a
 2182 0caa 82000000 		.4byte	0x82
 2183 0cae F8030000 		.4byte	.LLST42
 2184 0cb2 00       		.byte	0
 2185 0cb3 00       		.byte	0
 2186 0cb4 2D       		.uleb128 0x2d
 2187 0cb5 01       		.byte	0x1
 2188 0cb6 26050000 		.4byte	.LASF132
 2189 0cba 01       		.byte	0x1
 2190 0cbb 3B01     		.2byte	0x13b
 2191 0cbd 01       		.byte	0x1
 2192 0cbe 00000000 		.4byte	.LFB126
 2193 0cc2 06000000 		.4byte	.LFE126
 2194 0cc6 02       		.byte	0x2
 2195 0cc7 7D       		.byte	0x7d
 2196 0cc8 00       		.sleb128 0
 2197 0cc9 DE0C0000 		.4byte	0xcde
 2198 0ccd 2A       		.uleb128 0x2a
 2199 0cce DE010000 		.4byte	.LASF125
 2200 0cd2 01       		.byte	0x1
 2201 0cd3 3B01     		.2byte	0x13b
 2202 0cd5 B5070000 		.4byte	0x7b5
 2203 0cd9 0B040000 		.4byte	.LLST43
 2204 0cdd 00       		.byte	0
 2205 0cde 2D       		.uleb128 0x2d
 2206 0cdf 01       		.byte	0x1
 2207 0ce0 74020000 		.4byte	.LASF133
ARM GAS  /tmp/cchr27lD.s 			page 40


 2208 0ce4 01       		.byte	0x1
 2209 0ce5 4F01     		.2byte	0x14f
 2210 0ce7 01       		.byte	0x1
 2211 0ce8 00000000 		.4byte	.LFB127
 2212 0cec 04000000 		.4byte	.LFE127
 2213 0cf0 02       		.byte	0x2
 2214 0cf1 7D       		.byte	0x7d
 2215 0cf2 00       		.sleb128 0
 2216 0cf3 080D0000 		.4byte	0xd08
 2217 0cf7 2A       		.uleb128 0x2a
 2218 0cf8 DE010000 		.4byte	.LASF125
 2219 0cfc 01       		.byte	0x1
 2220 0cfd 4F01     		.2byte	0x14f
 2221 0cff B5070000 		.4byte	0x7b5
 2222 0d03 2B040000 		.4byte	.LLST44
 2223 0d07 00       		.byte	0
 2224 0d08 2E       		.uleb128 0x2e
 2225 0d09 86040000 		.4byte	.LASF134
 2226 0d0d 08       		.byte	0x8
 2227 0d0e 72       		.byte	0x72
 2228 0d0f B1030000 		.4byte	0x3b1
 2229 0d13 01       		.byte	0x1
 2230 0d14 01       		.byte	0x1
 2231 0d15 2F       		.uleb128 0x2f
 2232 0d16 5C000000 		.4byte	.LASF135
 2233 0d1a 0E       		.byte	0xe
 2234 0d1b 1A05     		.2byte	0x51a
 2235 0d1d 51040000 		.4byte	0x451
 2236 0d21 01       		.byte	0x1
 2237 0d22 01       		.byte	0x1
 2238 0d23 00       		.byte	0
 2239              		.section	.debug_abbrev,"",%progbits
 2240              	.Ldebug_abbrev0:
 2241 0000 01       		.uleb128 0x1
 2242 0001 11       		.uleb128 0x11
 2243 0002 01       		.byte	0x1
 2244 0003 25       		.uleb128 0x25
 2245 0004 0E       		.uleb128 0xe
 2246 0005 13       		.uleb128 0x13
 2247 0006 0B       		.uleb128 0xb
 2248 0007 03       		.uleb128 0x3
 2249 0008 0E       		.uleb128 0xe
 2250 0009 11       		.uleb128 0x11
 2251 000a 01       		.uleb128 0x1
 2252 000b 52       		.uleb128 0x52
 2253 000c 01       		.uleb128 0x1
 2254 000d 55       		.uleb128 0x55
 2255 000e 06       		.uleb128 0x6
 2256 000f 10       		.uleb128 0x10
 2257 0010 06       		.uleb128 0x6
 2258 0011 00       		.byte	0
 2259 0012 00       		.byte	0
 2260 0013 02       		.uleb128 0x2
 2261 0014 24       		.uleb128 0x24
 2262 0015 00       		.byte	0
 2263 0016 0B       		.uleb128 0xb
 2264 0017 0B       		.uleb128 0xb
ARM GAS  /tmp/cchr27lD.s 			page 41


 2265 0018 3E       		.uleb128 0x3e
 2266 0019 0B       		.uleb128 0xb
 2267 001a 03       		.uleb128 0x3
 2268 001b 08       		.uleb128 0x8
 2269 001c 00       		.byte	0
 2270 001d 00       		.byte	0
 2271 001e 03       		.uleb128 0x3
 2272 001f 16       		.uleb128 0x16
 2273 0020 00       		.byte	0
 2274 0021 03       		.uleb128 0x3
 2275 0022 0E       		.uleb128 0xe
 2276 0023 3A       		.uleb128 0x3a
 2277 0024 0B       		.uleb128 0xb
 2278 0025 3B       		.uleb128 0x3b
 2279 0026 0B       		.uleb128 0xb
 2280 0027 49       		.uleb128 0x49
 2281 0028 13       		.uleb128 0x13
 2282 0029 00       		.byte	0
 2283 002a 00       		.byte	0
 2284 002b 04       		.uleb128 0x4
 2285 002c 24       		.uleb128 0x24
 2286 002d 00       		.byte	0
 2287 002e 0B       		.uleb128 0xb
 2288 002f 0B       		.uleb128 0xb
 2289 0030 3E       		.uleb128 0x3e
 2290 0031 0B       		.uleb128 0xb
 2291 0032 03       		.uleb128 0x3
 2292 0033 0E       		.uleb128 0xe
 2293 0034 00       		.byte	0
 2294 0035 00       		.byte	0
 2295 0036 05       		.uleb128 0x5
 2296 0037 13       		.uleb128 0x13
 2297 0038 01       		.byte	0x1
 2298 0039 03       		.uleb128 0x3
 2299 003a 0E       		.uleb128 0xe
 2300 003b 0B       		.uleb128 0xb
 2301 003c 0B       		.uleb128 0xb
 2302 003d 3A       		.uleb128 0x3a
 2303 003e 0B       		.uleb128 0xb
 2304 003f 3B       		.uleb128 0x3b
 2305 0040 0B       		.uleb128 0xb
 2306 0041 01       		.uleb128 0x1
 2307 0042 13       		.uleb128 0x13
 2308 0043 00       		.byte	0
 2309 0044 00       		.byte	0
 2310 0045 06       		.uleb128 0x6
 2311 0046 0D       		.uleb128 0xd
 2312 0047 00       		.byte	0
 2313 0048 03       		.uleb128 0x3
 2314 0049 0E       		.uleb128 0xe
 2315 004a 3A       		.uleb128 0x3a
 2316 004b 0B       		.uleb128 0xb
 2317 004c 3B       		.uleb128 0x3b
 2318 004d 0B       		.uleb128 0xb
 2319 004e 49       		.uleb128 0x49
 2320 004f 13       		.uleb128 0x13
 2321 0050 38       		.uleb128 0x38
ARM GAS  /tmp/cchr27lD.s 			page 42


 2322 0051 0A       		.uleb128 0xa
 2323 0052 00       		.byte	0
 2324 0053 00       		.byte	0
 2325 0054 07       		.uleb128 0x7
 2326 0055 0D       		.uleb128 0xd
 2327 0056 00       		.byte	0
 2328 0057 03       		.uleb128 0x3
 2329 0058 08       		.uleb128 0x8
 2330 0059 3A       		.uleb128 0x3a
 2331 005a 0B       		.uleb128 0xb
 2332 005b 3B       		.uleb128 0x3b
 2333 005c 0B       		.uleb128 0xb
 2334 005d 49       		.uleb128 0x49
 2335 005e 13       		.uleb128 0x13
 2336 005f 38       		.uleb128 0x38
 2337 0060 0A       		.uleb128 0xa
 2338 0061 00       		.byte	0
 2339 0062 00       		.byte	0
 2340 0063 08       		.uleb128 0x8
 2341 0064 13       		.uleb128 0x13
 2342 0065 01       		.byte	0x1
 2343 0066 0B       		.uleb128 0xb
 2344 0067 0B       		.uleb128 0xb
 2345 0068 3A       		.uleb128 0x3a
 2346 0069 0B       		.uleb128 0xb
 2347 006a 3B       		.uleb128 0x3b
 2348 006b 0B       		.uleb128 0xb
 2349 006c 01       		.uleb128 0x1
 2350 006d 13       		.uleb128 0x13
 2351 006e 00       		.byte	0
 2352 006f 00       		.byte	0
 2353 0070 09       		.uleb128 0x9
 2354 0071 0F       		.uleb128 0xf
 2355 0072 00       		.byte	0
 2356 0073 0B       		.uleb128 0xb
 2357 0074 0B       		.uleb128 0xb
 2358 0075 49       		.uleb128 0x49
 2359 0076 13       		.uleb128 0x13
 2360 0077 00       		.byte	0
 2361 0078 00       		.byte	0
 2362 0079 0A       		.uleb128 0xa
 2363 007a 0F       		.uleb128 0xf
 2364 007b 00       		.byte	0
 2365 007c 0B       		.uleb128 0xb
 2366 007d 0B       		.uleb128 0xb
 2367 007e 00       		.byte	0
 2368 007f 00       		.byte	0
 2369 0080 0B       		.uleb128 0xb
 2370 0081 0D       		.uleb128 0xd
 2371 0082 00       		.byte	0
 2372 0083 03       		.uleb128 0x3
 2373 0084 08       		.uleb128 0x8
 2374 0085 3A       		.uleb128 0x3a
 2375 0086 0B       		.uleb128 0xb
 2376 0087 3B       		.uleb128 0x3b
 2377 0088 05       		.uleb128 0x5
 2378 0089 49       		.uleb128 0x49
ARM GAS  /tmp/cchr27lD.s 			page 43


 2379 008a 13       		.uleb128 0x13
 2380 008b 38       		.uleb128 0x38
 2381 008c 0A       		.uleb128 0xa
 2382 008d 00       		.byte	0
 2383 008e 00       		.byte	0
 2384 008f 0C       		.uleb128 0xc
 2385 0090 13       		.uleb128 0x13
 2386 0091 01       		.byte	0x1
 2387 0092 03       		.uleb128 0x3
 2388 0093 0E       		.uleb128 0xe
 2389 0094 0B       		.uleb128 0xb
 2390 0095 0B       		.uleb128 0xb
 2391 0096 3A       		.uleb128 0x3a
 2392 0097 0B       		.uleb128 0xb
 2393 0098 3B       		.uleb128 0x3b
 2394 0099 05       		.uleb128 0x5
 2395 009a 01       		.uleb128 0x1
 2396 009b 13       		.uleb128 0x13
 2397 009c 00       		.byte	0
 2398 009d 00       		.byte	0
 2399 009e 0D       		.uleb128 0xd
 2400 009f 35       		.uleb128 0x35
 2401 00a0 00       		.byte	0
 2402 00a1 49       		.uleb128 0x49
 2403 00a2 13       		.uleb128 0x13
 2404 00a3 00       		.byte	0
 2405 00a4 00       		.byte	0
 2406 00a5 0E       		.uleb128 0xe
 2407 00a6 17       		.uleb128 0x17
 2408 00a7 01       		.byte	0x1
 2409 00a8 0B       		.uleb128 0xb
 2410 00a9 0B       		.uleb128 0xb
 2411 00aa 3A       		.uleb128 0x3a
 2412 00ab 0B       		.uleb128 0xb
 2413 00ac 3B       		.uleb128 0x3b
 2414 00ad 0B       		.uleb128 0xb
 2415 00ae 01       		.uleb128 0x1
 2416 00af 13       		.uleb128 0x13
 2417 00b0 00       		.byte	0
 2418 00b1 00       		.byte	0
 2419 00b2 0F       		.uleb128 0xf
 2420 00b3 0D       		.uleb128 0xd
 2421 00b4 00       		.byte	0
 2422 00b5 03       		.uleb128 0x3
 2423 00b6 0E       		.uleb128 0xe
 2424 00b7 3A       		.uleb128 0x3a
 2425 00b8 0B       		.uleb128 0xb
 2426 00b9 3B       		.uleb128 0x3b
 2427 00ba 0B       		.uleb128 0xb
 2428 00bb 49       		.uleb128 0x49
 2429 00bc 13       		.uleb128 0x13
 2430 00bd 00       		.byte	0
 2431 00be 00       		.byte	0
 2432 00bf 10       		.uleb128 0x10
 2433 00c0 26       		.uleb128 0x26
 2434 00c1 00       		.byte	0
 2435 00c2 49       		.uleb128 0x49
ARM GAS  /tmp/cchr27lD.s 			page 44


 2436 00c3 13       		.uleb128 0x13
 2437 00c4 00       		.byte	0
 2438 00c5 00       		.byte	0
 2439 00c6 11       		.uleb128 0x11
 2440 00c7 13       		.uleb128 0x13
 2441 00c8 01       		.byte	0x1
 2442 00c9 0B       		.uleb128 0xb
 2443 00ca 0B       		.uleb128 0xb
 2444 00cb 3A       		.uleb128 0x3a
 2445 00cc 0B       		.uleb128 0xb
 2446 00cd 3B       		.uleb128 0x3b
 2447 00ce 05       		.uleb128 0x5
 2448 00cf 01       		.uleb128 0x1
 2449 00d0 13       		.uleb128 0x13
 2450 00d1 00       		.byte	0
 2451 00d2 00       		.byte	0
 2452 00d3 12       		.uleb128 0x12
 2453 00d4 0D       		.uleb128 0xd
 2454 00d5 00       		.byte	0
 2455 00d6 03       		.uleb128 0x3
 2456 00d7 0E       		.uleb128 0xe
 2457 00d8 3A       		.uleb128 0x3a
 2458 00d9 0B       		.uleb128 0xb
 2459 00da 3B       		.uleb128 0x3b
 2460 00db 05       		.uleb128 0x5
 2461 00dc 49       		.uleb128 0x49
 2462 00dd 13       		.uleb128 0x13
 2463 00de 38       		.uleb128 0x38
 2464 00df 0A       		.uleb128 0xa
 2465 00e0 00       		.byte	0
 2466 00e1 00       		.byte	0
 2467 00e2 13       		.uleb128 0x13
 2468 00e3 16       		.uleb128 0x16
 2469 00e4 00       		.byte	0
 2470 00e5 03       		.uleb128 0x3
 2471 00e6 0E       		.uleb128 0xe
 2472 00e7 3A       		.uleb128 0x3a
 2473 00e8 0B       		.uleb128 0xb
 2474 00e9 3B       		.uleb128 0x3b
 2475 00ea 05       		.uleb128 0x5
 2476 00eb 49       		.uleb128 0x49
 2477 00ec 13       		.uleb128 0x13
 2478 00ed 00       		.byte	0
 2479 00ee 00       		.byte	0
 2480 00ef 14       		.uleb128 0x14
 2481 00f0 04       		.uleb128 0x4
 2482 00f1 01       		.byte	0x1
 2483 00f2 0B       		.uleb128 0xb
 2484 00f3 0B       		.uleb128 0xb
 2485 00f4 3A       		.uleb128 0x3a
 2486 00f5 0B       		.uleb128 0xb
 2487 00f6 3B       		.uleb128 0x3b
 2488 00f7 0B       		.uleb128 0xb
 2489 00f8 01       		.uleb128 0x1
 2490 00f9 13       		.uleb128 0x13
 2491 00fa 00       		.byte	0
 2492 00fb 00       		.byte	0
ARM GAS  /tmp/cchr27lD.s 			page 45


 2493 00fc 15       		.uleb128 0x15
 2494 00fd 28       		.uleb128 0x28
 2495 00fe 00       		.byte	0
 2496 00ff 03       		.uleb128 0x3
 2497 0100 0E       		.uleb128 0xe
 2498 0101 1C       		.uleb128 0x1c
 2499 0102 0D       		.uleb128 0xd
 2500 0103 00       		.byte	0
 2501 0104 00       		.byte	0
 2502 0105 16       		.uleb128 0x16
 2503 0106 04       		.uleb128 0x4
 2504 0107 01       		.byte	0x1
 2505 0108 0B       		.uleb128 0xb
 2506 0109 0B       		.uleb128 0xb
 2507 010a 3A       		.uleb128 0x3a
 2508 010b 0B       		.uleb128 0xb
 2509 010c 3B       		.uleb128 0x3b
 2510 010d 05       		.uleb128 0x5
 2511 010e 01       		.uleb128 0x1
 2512 010f 13       		.uleb128 0x13
 2513 0110 00       		.byte	0
 2514 0111 00       		.byte	0
 2515 0112 17       		.uleb128 0x17
 2516 0113 15       		.uleb128 0x15
 2517 0114 01       		.byte	0x1
 2518 0115 27       		.uleb128 0x27
 2519 0116 0C       		.uleb128 0xc
 2520 0117 01       		.uleb128 0x1
 2521 0118 13       		.uleb128 0x13
 2522 0119 00       		.byte	0
 2523 011a 00       		.byte	0
 2524 011b 18       		.uleb128 0x18
 2525 011c 05       		.uleb128 0x5
 2526 011d 00       		.byte	0
 2527 011e 49       		.uleb128 0x49
 2528 011f 13       		.uleb128 0x13
 2529 0120 00       		.byte	0
 2530 0121 00       		.byte	0
 2531 0122 19       		.uleb128 0x19
 2532 0123 2E       		.uleb128 0x2e
 2533 0124 01       		.byte	0x1
 2534 0125 3F       		.uleb128 0x3f
 2535 0126 0C       		.uleb128 0xc
 2536 0127 03       		.uleb128 0x3
 2537 0128 0E       		.uleb128 0xe
 2538 0129 3A       		.uleb128 0x3a
 2539 012a 0B       		.uleb128 0xb
 2540 012b 3B       		.uleb128 0x3b
 2541 012c 0B       		.uleb128 0xb
 2542 012d 27       		.uleb128 0x27
 2543 012e 0C       		.uleb128 0xc
 2544 012f 20       		.uleb128 0x20
 2545 0130 0B       		.uleb128 0xb
 2546 0131 01       		.uleb128 0x1
 2547 0132 13       		.uleb128 0x13
 2548 0133 00       		.byte	0
 2549 0134 00       		.byte	0
ARM GAS  /tmp/cchr27lD.s 			page 46


 2550 0135 1A       		.uleb128 0x1a
 2551 0136 05       		.uleb128 0x5
 2552 0137 00       		.byte	0
 2553 0138 03       		.uleb128 0x3
 2554 0139 0E       		.uleb128 0xe
 2555 013a 3A       		.uleb128 0x3a
 2556 013b 0B       		.uleb128 0xb
 2557 013c 3B       		.uleb128 0x3b
 2558 013d 0B       		.uleb128 0xb
 2559 013e 49       		.uleb128 0x49
 2560 013f 13       		.uleb128 0x13
 2561 0140 00       		.byte	0
 2562 0141 00       		.byte	0
 2563 0142 1B       		.uleb128 0x1b
 2564 0143 2E       		.uleb128 0x2e
 2565 0144 00       		.byte	0
 2566 0145 3F       		.uleb128 0x3f
 2567 0146 0C       		.uleb128 0xc
 2568 0147 03       		.uleb128 0x3
 2569 0148 0E       		.uleb128 0xe
 2570 0149 3A       		.uleb128 0x3a
 2571 014a 0B       		.uleb128 0xb
 2572 014b 3B       		.uleb128 0x3b
 2573 014c 0B       		.uleb128 0xb
 2574 014d 27       		.uleb128 0x27
 2575 014e 0C       		.uleb128 0xc
 2576 014f 11       		.uleb128 0x11
 2577 0150 01       		.uleb128 0x1
 2578 0151 12       		.uleb128 0x12
 2579 0152 01       		.uleb128 0x1
 2580 0153 40       		.uleb128 0x40
 2581 0154 0A       		.uleb128 0xa
 2582 0155 00       		.byte	0
 2583 0156 00       		.byte	0
 2584 0157 1C       		.uleb128 0x1c
 2585 0158 2E       		.uleb128 0x2e
 2586 0159 01       		.byte	0x1
 2587 015a 3F       		.uleb128 0x3f
 2588 015b 0C       		.uleb128 0xc
 2589 015c 03       		.uleb128 0x3
 2590 015d 0E       		.uleb128 0xe
 2591 015e 3A       		.uleb128 0x3a
 2592 015f 0B       		.uleb128 0xb
 2593 0160 3B       		.uleb128 0x3b
 2594 0161 0B       		.uleb128 0xb
 2595 0162 27       		.uleb128 0x27
 2596 0163 0C       		.uleb128 0xc
 2597 0164 11       		.uleb128 0x11
 2598 0165 01       		.uleb128 0x1
 2599 0166 12       		.uleb128 0x12
 2600 0167 01       		.uleb128 0x1
 2601 0168 40       		.uleb128 0x40
 2602 0169 0A       		.uleb128 0xa
 2603 016a 01       		.uleb128 0x1
 2604 016b 13       		.uleb128 0x13
 2605 016c 00       		.byte	0
 2606 016d 00       		.byte	0
ARM GAS  /tmp/cchr27lD.s 			page 47


 2607 016e 1D       		.uleb128 0x1d
 2608 016f 05       		.uleb128 0x5
 2609 0170 00       		.byte	0
 2610 0171 03       		.uleb128 0x3
 2611 0172 0E       		.uleb128 0xe
 2612 0173 3A       		.uleb128 0x3a
 2613 0174 0B       		.uleb128 0xb
 2614 0175 3B       		.uleb128 0x3b
 2615 0176 0B       		.uleb128 0xb
 2616 0177 49       		.uleb128 0x49
 2617 0178 13       		.uleb128 0x13
 2618 0179 02       		.uleb128 0x2
 2619 017a 06       		.uleb128 0x6
 2620 017b 00       		.byte	0
 2621 017c 00       		.byte	0
 2622 017d 1E       		.uleb128 0x1e
 2623 017e 2E       		.uleb128 0x2e
 2624 017f 01       		.byte	0x1
 2625 0180 3F       		.uleb128 0x3f
 2626 0181 0C       		.uleb128 0xc
 2627 0182 03       		.uleb128 0x3
 2628 0183 0E       		.uleb128 0xe
 2629 0184 3A       		.uleb128 0x3a
 2630 0185 0B       		.uleb128 0xb
 2631 0186 3B       		.uleb128 0x3b
 2632 0187 0B       		.uleb128 0xb
 2633 0188 27       		.uleb128 0x27
 2634 0189 0C       		.uleb128 0xc
 2635 018a 11       		.uleb128 0x11
 2636 018b 01       		.uleb128 0x1
 2637 018c 12       		.uleb128 0x12
 2638 018d 01       		.uleb128 0x1
 2639 018e 40       		.uleb128 0x40
 2640 018f 06       		.uleb128 0x6
 2641 0190 01       		.uleb128 0x1
 2642 0191 13       		.uleb128 0x13
 2643 0192 00       		.byte	0
 2644 0193 00       		.byte	0
 2645 0194 1F       		.uleb128 0x1f
 2646 0195 0B       		.uleb128 0xb
 2647 0196 01       		.byte	0x1
 2648 0197 55       		.uleb128 0x55
 2649 0198 06       		.uleb128 0x6
 2650 0199 01       		.uleb128 0x1
 2651 019a 13       		.uleb128 0x13
 2652 019b 00       		.byte	0
 2653 019c 00       		.byte	0
 2654 019d 20       		.uleb128 0x20
 2655 019e 34       		.uleb128 0x34
 2656 019f 00       		.byte	0
 2657 01a0 03       		.uleb128 0x3
 2658 01a1 08       		.uleb128 0x8
 2659 01a2 3A       		.uleb128 0x3a
 2660 01a3 0B       		.uleb128 0xb
 2661 01a4 3B       		.uleb128 0x3b
 2662 01a5 0B       		.uleb128 0xb
 2663 01a6 49       		.uleb128 0x49
ARM GAS  /tmp/cchr27lD.s 			page 48


 2664 01a7 13       		.uleb128 0x13
 2665 01a8 02       		.uleb128 0x2
 2666 01a9 06       		.uleb128 0x6
 2667 01aa 00       		.byte	0
 2668 01ab 00       		.byte	0
 2669 01ac 21       		.uleb128 0x21
 2670 01ad 0B       		.uleb128 0xb
 2671 01ae 01       		.byte	0x1
 2672 01af 11       		.uleb128 0x11
 2673 01b0 01       		.uleb128 0x1
 2674 01b1 12       		.uleb128 0x12
 2675 01b2 01       		.uleb128 0x1
 2676 01b3 00       		.byte	0
 2677 01b4 00       		.byte	0
 2678 01b5 22       		.uleb128 0x22
 2679 01b6 0B       		.uleb128 0xb
 2680 01b7 01       		.byte	0x1
 2681 01b8 11       		.uleb128 0x11
 2682 01b9 01       		.uleb128 0x1
 2683 01ba 12       		.uleb128 0x12
 2684 01bb 01       		.uleb128 0x1
 2685 01bc 01       		.uleb128 0x1
 2686 01bd 13       		.uleb128 0x13
 2687 01be 00       		.byte	0
 2688 01bf 00       		.byte	0
 2689 01c0 23       		.uleb128 0x23
 2690 01c1 1D       		.uleb128 0x1d
 2691 01c2 01       		.byte	0x1
 2692 01c3 31       		.uleb128 0x31
 2693 01c4 13       		.uleb128 0x13
 2694 01c5 11       		.uleb128 0x11
 2695 01c6 01       		.uleb128 0x1
 2696 01c7 12       		.uleb128 0x12
 2697 01c8 01       		.uleb128 0x1
 2698 01c9 58       		.uleb128 0x58
 2699 01ca 0B       		.uleb128 0xb
 2700 01cb 59       		.uleb128 0x59
 2701 01cc 0B       		.uleb128 0xb
 2702 01cd 01       		.uleb128 0x1
 2703 01ce 13       		.uleb128 0x13
 2704 01cf 00       		.byte	0
 2705 01d0 00       		.byte	0
 2706 01d1 24       		.uleb128 0x24
 2707 01d2 05       		.uleb128 0x5
 2708 01d3 00       		.byte	0
 2709 01d4 31       		.uleb128 0x31
 2710 01d5 13       		.uleb128 0x13
 2711 01d6 02       		.uleb128 0x2
 2712 01d7 0A       		.uleb128 0xa
 2713 01d8 00       		.byte	0
 2714 01d9 00       		.byte	0
 2715 01da 25       		.uleb128 0x25
 2716 01db 05       		.uleb128 0x5
 2717 01dc 00       		.byte	0
 2718 01dd 31       		.uleb128 0x31
 2719 01de 13       		.uleb128 0x13
 2720 01df 02       		.uleb128 0x2
ARM GAS  /tmp/cchr27lD.s 			page 49


 2721 01e0 06       		.uleb128 0x6
 2722 01e1 00       		.byte	0
 2723 01e2 00       		.byte	0
 2724 01e3 26       		.uleb128 0x26
 2725 01e4 2E       		.uleb128 0x2e
 2726 01e5 01       		.byte	0x1
 2727 01e6 31       		.uleb128 0x31
 2728 01e7 13       		.uleb128 0x13
 2729 01e8 11       		.uleb128 0x11
 2730 01e9 01       		.uleb128 0x1
 2731 01ea 12       		.uleb128 0x12
 2732 01eb 01       		.uleb128 0x1
 2733 01ec 40       		.uleb128 0x40
 2734 01ed 06       		.uleb128 0x6
 2735 01ee 01       		.uleb128 0x1
 2736 01ef 13       		.uleb128 0x13
 2737 01f0 00       		.byte	0
 2738 01f1 00       		.byte	0
 2739 01f2 27       		.uleb128 0x27
 2740 01f3 0B       		.uleb128 0xb
 2741 01f4 01       		.byte	0x1
 2742 01f5 55       		.uleb128 0x55
 2743 01f6 06       		.uleb128 0x6
 2744 01f7 00       		.byte	0
 2745 01f8 00       		.byte	0
 2746 01f9 28       		.uleb128 0x28
 2747 01fa 34       		.uleb128 0x34
 2748 01fb 00       		.byte	0
 2749 01fc 03       		.uleb128 0x3
 2750 01fd 08       		.uleb128 0x8
 2751 01fe 3A       		.uleb128 0x3a
 2752 01ff 0B       		.uleb128 0xb
 2753 0200 3B       		.uleb128 0x3b
 2754 0201 05       		.uleb128 0x5
 2755 0202 49       		.uleb128 0x49
 2756 0203 13       		.uleb128 0x13
 2757 0204 02       		.uleb128 0x2
 2758 0205 06       		.uleb128 0x6
 2759 0206 00       		.byte	0
 2760 0207 00       		.byte	0
 2761 0208 29       		.uleb128 0x29
 2762 0209 2E       		.uleb128 0x2e
 2763 020a 01       		.byte	0x1
 2764 020b 3F       		.uleb128 0x3f
 2765 020c 0C       		.uleb128 0xc
 2766 020d 03       		.uleb128 0x3
 2767 020e 0E       		.uleb128 0xe
 2768 020f 3A       		.uleb128 0x3a
 2769 0210 0B       		.uleb128 0xb
 2770 0211 3B       		.uleb128 0x3b
 2771 0212 05       		.uleb128 0x5
 2772 0213 27       		.uleb128 0x27
 2773 0214 0C       		.uleb128 0xc
 2774 0215 49       		.uleb128 0x49
 2775 0216 13       		.uleb128 0x13
 2776 0217 11       		.uleb128 0x11
 2777 0218 01       		.uleb128 0x1
ARM GAS  /tmp/cchr27lD.s 			page 50


 2778 0219 12       		.uleb128 0x12
 2779 021a 01       		.uleb128 0x1
 2780 021b 40       		.uleb128 0x40
 2781 021c 06       		.uleb128 0x6
 2782 021d 01       		.uleb128 0x1
 2783 021e 13       		.uleb128 0x13
 2784 021f 00       		.byte	0
 2785 0220 00       		.byte	0
 2786 0221 2A       		.uleb128 0x2a
 2787 0222 05       		.uleb128 0x5
 2788 0223 00       		.byte	0
 2789 0224 03       		.uleb128 0x3
 2790 0225 0E       		.uleb128 0xe
 2791 0226 3A       		.uleb128 0x3a
 2792 0227 0B       		.uleb128 0xb
 2793 0228 3B       		.uleb128 0x3b
 2794 0229 05       		.uleb128 0x5
 2795 022a 49       		.uleb128 0x49
 2796 022b 13       		.uleb128 0x13
 2797 022c 02       		.uleb128 0x2
 2798 022d 06       		.uleb128 0x6
 2799 022e 00       		.byte	0
 2800 022f 00       		.byte	0
 2801 0230 2B       		.uleb128 0x2b
 2802 0231 34       		.uleb128 0x34
 2803 0232 00       		.byte	0
 2804 0233 03       		.uleb128 0x3
 2805 0234 08       		.uleb128 0x8
 2806 0235 3A       		.uleb128 0x3a
 2807 0236 0B       		.uleb128 0xb
 2808 0237 3B       		.uleb128 0x3b
 2809 0238 05       		.uleb128 0x5
 2810 0239 49       		.uleb128 0x49
 2811 023a 13       		.uleb128 0x13
 2812 023b 02       		.uleb128 0x2
 2813 023c 0A       		.uleb128 0xa
 2814 023d 00       		.byte	0
 2815 023e 00       		.byte	0
 2816 023f 2C       		.uleb128 0x2c
 2817 0240 1D       		.uleb128 0x1d
 2818 0241 01       		.byte	0x1
 2819 0242 31       		.uleb128 0x31
 2820 0243 13       		.uleb128 0x13
 2821 0244 11       		.uleb128 0x11
 2822 0245 01       		.uleb128 0x1
 2823 0246 12       		.uleb128 0x12
 2824 0247 01       		.uleb128 0x1
 2825 0248 58       		.uleb128 0x58
 2826 0249 0B       		.uleb128 0xb
 2827 024a 59       		.uleb128 0x59
 2828 024b 05       		.uleb128 0x5
 2829 024c 01       		.uleb128 0x1
 2830 024d 13       		.uleb128 0x13
 2831 024e 00       		.byte	0
 2832 024f 00       		.byte	0
 2833 0250 2D       		.uleb128 0x2d
 2834 0251 2E       		.uleb128 0x2e
ARM GAS  /tmp/cchr27lD.s 			page 51


 2835 0252 01       		.byte	0x1
 2836 0253 3F       		.uleb128 0x3f
 2837 0254 0C       		.uleb128 0xc
 2838 0255 03       		.uleb128 0x3
 2839 0256 0E       		.uleb128 0xe
 2840 0257 3A       		.uleb128 0x3a
 2841 0258 0B       		.uleb128 0xb
 2842 0259 3B       		.uleb128 0x3b
 2843 025a 05       		.uleb128 0x5
 2844 025b 27       		.uleb128 0x27
 2845 025c 0C       		.uleb128 0xc
 2846 025d 11       		.uleb128 0x11
 2847 025e 01       		.uleb128 0x1
 2848 025f 12       		.uleb128 0x12
 2849 0260 01       		.uleb128 0x1
 2850 0261 40       		.uleb128 0x40
 2851 0262 0A       		.uleb128 0xa
 2852 0263 01       		.uleb128 0x1
 2853 0264 13       		.uleb128 0x13
 2854 0265 00       		.byte	0
 2855 0266 00       		.byte	0
 2856 0267 2E       		.uleb128 0x2e
 2857 0268 34       		.uleb128 0x34
 2858 0269 00       		.byte	0
 2859 026a 03       		.uleb128 0x3
 2860 026b 0E       		.uleb128 0xe
 2861 026c 3A       		.uleb128 0x3a
 2862 026d 0B       		.uleb128 0xb
 2863 026e 3B       		.uleb128 0x3b
 2864 026f 0B       		.uleb128 0xb
 2865 0270 49       		.uleb128 0x49
 2866 0271 13       		.uleb128 0x13
 2867 0272 3F       		.uleb128 0x3f
 2868 0273 0C       		.uleb128 0xc
 2869 0274 3C       		.uleb128 0x3c
 2870 0275 0C       		.uleb128 0xc
 2871 0276 00       		.byte	0
 2872 0277 00       		.byte	0
 2873 0278 2F       		.uleb128 0x2f
 2874 0279 34       		.uleb128 0x34
 2875 027a 00       		.byte	0
 2876 027b 03       		.uleb128 0x3
 2877 027c 0E       		.uleb128 0xe
 2878 027d 3A       		.uleb128 0x3a
 2879 027e 0B       		.uleb128 0xb
 2880 027f 3B       		.uleb128 0x3b
 2881 0280 05       		.uleb128 0x5
 2882 0281 49       		.uleb128 0x49
 2883 0282 13       		.uleb128 0x13
 2884 0283 3F       		.uleb128 0x3f
 2885 0284 0C       		.uleb128 0xc
 2886 0285 3C       		.uleb128 0x3c
 2887 0286 0C       		.uleb128 0xc
 2888 0287 00       		.byte	0
 2889 0288 00       		.byte	0
 2890 0289 00       		.byte	0
 2891              		.section	.debug_loc,"",%progbits
ARM GAS  /tmp/cchr27lD.s 			page 52


 2892              	.Ldebug_loc0:
 2893              	.LLST0:
 2894 0000 00000000 		.4byte	.LVL0
 2895 0004 12000000 		.4byte	.LVL1
 2896 0008 0100     		.2byte	0x1
 2897 000a 50       		.byte	0x50
 2898 000b 12000000 		.4byte	.LVL1
 2899 000f 15000000 		.4byte	.LVL2-1
 2900 0013 0300     		.2byte	0x3
 2901 0015 70       		.byte	0x70
 2902 0016 68       		.sleb128 -24
 2903 0017 9F       		.byte	0x9f
 2904 0018 00000000 		.4byte	0
 2905 001c 00000000 		.4byte	0
 2906              	.LLST1:
 2907 0020 00000000 		.4byte	.LFB119
 2908 0024 02000000 		.4byte	.LCFI0
 2909 0028 0200     		.2byte	0x2
 2910 002a 7D       		.byte	0x7d
 2911 002b 00       		.sleb128 0
 2912 002c 02000000 		.4byte	.LCFI0
 2913 0030 1C000000 		.4byte	.LFE119
 2914 0034 0200     		.2byte	0x2
 2915 0036 7D       		.byte	0x7d
 2916 0037 08       		.sleb128 8
 2917 0038 00000000 		.4byte	0
 2918 003c 00000000 		.4byte	0
 2919              	.LLST2:
 2920 0040 00000000 		.4byte	.LVL3
 2921 0044 0F000000 		.4byte	.LVL6-1
 2922 0048 0100     		.2byte	0x1
 2923 004a 50       		.byte	0x50
 2924 004b 0F000000 		.4byte	.LVL6-1
 2925 004f 1C000000 		.4byte	.LFE119
 2926 0053 0100     		.2byte	0x1
 2927 0055 54       		.byte	0x54
 2928 0056 00000000 		.4byte	0
 2929 005a 00000000 		.4byte	0
 2930              	.LLST3:
 2931 005e 00000000 		.4byte	.LVL3
 2932 0062 0F000000 		.4byte	.LVL6-1
 2933 0066 0100     		.2byte	0x1
 2934 0068 51       		.byte	0x51
 2935 0069 00000000 		.4byte	0
 2936 006d 00000000 		.4byte	0
 2937              	.LLST4:
 2938 0071 0A000000 		.4byte	.LVL5
 2939 0075 0F000000 		.4byte	.LVL6-1
 2940 0079 0100     		.2byte	0x1
 2941 007b 53       		.byte	0x53
 2942 007c 00000000 		.4byte	0
 2943 0080 00000000 		.4byte	0
 2944              	.LLST5:
 2945 0084 1A000000 		.4byte	.LVL8
 2946 0088 1C000000 		.4byte	.LFE119
 2947 008c 0100     		.2byte	0x1
 2948 008e 53       		.byte	0x53
ARM GAS  /tmp/cchr27lD.s 			page 53


 2949 008f 00000000 		.4byte	0
 2950 0093 00000000 		.4byte	0
 2951              	.LLST6:
 2952 0097 00000000 		.4byte	.LFB120
 2953 009b 02000000 		.4byte	.LCFI1
 2954 009f 0200     		.2byte	0x2
 2955 00a1 7D       		.byte	0x7d
 2956 00a2 00       		.sleb128 0
 2957 00a3 02000000 		.4byte	.LCFI1
 2958 00a7 1A000000 		.4byte	.LFE120
 2959 00ab 0200     		.2byte	0x2
 2960 00ad 7D       		.byte	0x7d
 2961 00ae 08       		.sleb128 8
 2962 00af 00000000 		.4byte	0
 2963 00b3 00000000 		.4byte	0
 2964              	.LLST7:
 2965 00b7 00000000 		.4byte	.LVL9
 2966 00bb 0D000000 		.4byte	.LVL12-1
 2967 00bf 0100     		.2byte	0x1
 2968 00c1 50       		.byte	0x50
 2969 00c2 0D000000 		.4byte	.LVL12-1
 2970 00c6 1A000000 		.4byte	.LFE120
 2971 00ca 0100     		.2byte	0x1
 2972 00cc 54       		.byte	0x54
 2973 00cd 00000000 		.4byte	0
 2974 00d1 00000000 		.4byte	0
 2975              	.LLST8:
 2976 00d5 0A000000 		.4byte	.LVL11
 2977 00d9 0D000000 		.4byte	.LVL12-1
 2978 00dd 0100     		.2byte	0x1
 2979 00df 53       		.byte	0x53
 2980 00e0 00000000 		.4byte	0
 2981 00e4 00000000 		.4byte	0
 2982              	.LLST9:
 2983 00e8 18000000 		.4byte	.LVL14
 2984 00ec 1A000000 		.4byte	.LFE120
 2985 00f0 0100     		.2byte	0x1
 2986 00f2 53       		.byte	0x53
 2987 00f3 00000000 		.4byte	0
 2988 00f7 00000000 		.4byte	0
 2989              	.LLST10:
 2990 00fb 00000000 		.4byte	.LFB121
 2991 00ff 02000000 		.4byte	.LCFI2
 2992 0103 0200     		.2byte	0x2
 2993 0105 7D       		.byte	0x7d
 2994 0106 00       		.sleb128 0
 2995 0107 02000000 		.4byte	.LCFI2
 2996 010b 20000000 		.4byte	.LFE121
 2997 010f 0200     		.2byte	0x2
 2998 0111 7D       		.byte	0x7d
 2999 0112 10       		.sleb128 16
 3000 0113 00000000 		.4byte	0
 3001 0117 00000000 		.4byte	0
 3002              	.LLST11:
 3003 011b 00000000 		.4byte	.LVL15
 3004 011f 17000000 		.4byte	.LVL19-1
 3005 0123 0100     		.2byte	0x1
ARM GAS  /tmp/cchr27lD.s 			page 54


 3006 0125 50       		.byte	0x50
 3007 0126 00000000 		.4byte	0
 3008 012a 00000000 		.4byte	0
 3009              	.LLST12:
 3010 012e 00000000 		.4byte	.LVL15
 3011 0132 17000000 		.4byte	.LVL19-1
 3012 0136 0100     		.2byte	0x1
 3013 0138 51       		.byte	0x51
 3014 0139 00000000 		.4byte	0
 3015 013d 00000000 		.4byte	0
 3016              	.LLST13:
 3017 0141 00000000 		.4byte	.LVL15
 3018 0145 17000000 		.4byte	.LVL19-1
 3019 0149 0100     		.2byte	0x1
 3020 014b 52       		.byte	0x52
 3021 014c 00000000 		.4byte	0
 3022 0150 00000000 		.4byte	0
 3023              	.LLST14:
 3024 0154 00000000 		.4byte	.LVL15
 3025 0158 06000000 		.4byte	.LVL16
 3026 015c 0100     		.2byte	0x1
 3027 015e 53       		.byte	0x53
 3028 015f 06000000 		.4byte	.LVL16
 3029 0163 20000000 		.4byte	.LFE121
 3030 0167 0100     		.2byte	0x1
 3031 0169 55       		.byte	0x55
 3032 016a 00000000 		.4byte	0
 3033 016e 00000000 		.4byte	0
 3034              	.LLST15:
 3035 0172 0A000000 		.4byte	.LVL17
 3036 0176 0C000000 		.4byte	.LVL18
 3037 017a 0100     		.2byte	0x1
 3038 017c 53       		.byte	0x53
 3039 017d 00000000 		.4byte	0
 3040 0181 00000000 		.4byte	0
 3041              	.LLST16:
 3042 0185 0A000000 		.4byte	.LVL17
 3043 0189 17000000 		.4byte	.LVL19-1
 3044 018d 0100     		.2byte	0x1
 3045 018f 52       		.byte	0x52
 3046 0190 00000000 		.4byte	0
 3047 0194 00000000 		.4byte	0
 3048              	.LLST17:
 3049 0198 0A000000 		.4byte	.LVL17
 3050 019c 17000000 		.4byte	.LVL19-1
 3051 01a0 0100     		.2byte	0x1
 3052 01a2 51       		.byte	0x51
 3053 01a3 00000000 		.4byte	0
 3054 01a7 00000000 		.4byte	0
 3055              	.LLST18:
 3056 01ab 0A000000 		.4byte	.LVL17
 3057 01af 17000000 		.4byte	.LVL19-1
 3058 01b3 0100     		.2byte	0x1
 3059 01b5 50       		.byte	0x50
 3060 01b6 00000000 		.4byte	0
 3061 01ba 00000000 		.4byte	0
 3062              	.LLST19:
ARM GAS  /tmp/cchr27lD.s 			page 55


 3063 01be 1E000000 		.4byte	.LVL21
 3064 01c2 20000000 		.4byte	.LFE121
 3065 01c6 0100     		.2byte	0x1
 3066 01c8 53       		.byte	0x53
 3067 01c9 00000000 		.4byte	0
 3068 01cd 00000000 		.4byte	0
 3069              	.LLST20:
 3070 01d1 00000000 		.4byte	.LFB122
 3071 01d5 02000000 		.4byte	.LCFI3
 3072 01d9 0200     		.2byte	0x2
 3073 01db 7D       		.byte	0x7d
 3074 01dc 00       		.sleb128 0
 3075 01dd 02000000 		.4byte	.LCFI3
 3076 01e1 12000000 		.4byte	.LFE122
 3077 01e5 0200     		.2byte	0x2
 3078 01e7 7D       		.byte	0x7d
 3079 01e8 04       		.sleb128 4
 3080 01e9 00000000 		.4byte	0
 3081 01ed 00000000 		.4byte	0
 3082              	.LLST21:
 3083 01f1 00000000 		.4byte	.LVL22
 3084 01f5 11000000 		.4byte	.LVL27-1
 3085 01f9 0100     		.2byte	0x1
 3086 01fb 50       		.byte	0x50
 3087 01fc 00000000 		.4byte	0
 3088 0200 00000000 		.4byte	0
 3089              	.LLST22:
 3090 0204 00000000 		.4byte	.LVL22
 3091 0208 11000000 		.4byte	.LVL26-1
 3092 020c 0100     		.2byte	0x1
 3093 020e 51       		.byte	0x51
 3094 020f 00000000 		.4byte	0
 3095 0213 00000000 		.4byte	0
 3096              	.LLST23:
 3097 0217 00000000 		.4byte	.LVL22
 3098 021b 11000000 		.4byte	.LVL25-1
 3099 021f 0100     		.2byte	0x1
 3100 0221 52       		.byte	0x52
 3101 0222 00000000 		.4byte	0
 3102 0226 00000000 		.4byte	0
 3103              	.LLST24:
 3104 022a 00000000 		.4byte	.LVL22
 3105 022e 06000000 		.4byte	.LVL23
 3106 0232 0100     		.2byte	0x1
 3107 0234 53       		.byte	0x53
 3108 0235 06000000 		.4byte	.LVL23
 3109 0239 11000000 		.4byte	.LVL24-1
 3110 023d 0200     		.2byte	0x2
 3111 023f 70       		.byte	0x70
 3112 0240 0C       		.sleb128 12
 3113 0241 00000000 		.4byte	0
 3114 0245 00000000 		.4byte	0
 3115              	.LLST25:
 3116 0249 00000000 		.4byte	.LFB123
 3117 024d 02000000 		.4byte	.LCFI4
 3118 0251 0200     		.2byte	0x2
 3119 0253 7D       		.byte	0x7d
ARM GAS  /tmp/cchr27lD.s 			page 56


 3120 0254 00       		.sleb128 0
 3121 0255 02000000 		.4byte	.LCFI4
 3122 0259 32000000 		.4byte	.LFE123
 3123 025d 0200     		.2byte	0x2
 3124 025f 7D       		.byte	0x7d
 3125 0260 08       		.sleb128 8
 3126 0261 00000000 		.4byte	0
 3127 0265 00000000 		.4byte	0
 3128              	.LLST26:
 3129 0269 00000000 		.4byte	.LVL28
 3130 026d 13000000 		.4byte	.LVL32-1
 3131 0271 0100     		.2byte	0x1
 3132 0273 50       		.byte	0x50
 3133 0274 13000000 		.4byte	.LVL32-1
 3134 0278 32000000 		.4byte	.LFE123
 3135 027c 0100     		.2byte	0x1
 3136 027e 54       		.byte	0x54
 3137 027f 00000000 		.4byte	0
 3138 0283 00000000 		.4byte	0
 3139              	.LLST27:
 3140 0287 0A000000 		.4byte	.LVL30
 3141 028b 0C000000 		.4byte	.LVL31
 3142 028f 0100     		.2byte	0x1
 3143 0291 53       		.byte	0x53
 3144 0292 00000000 		.4byte	0
 3145 0296 00000000 		.4byte	0
 3146              	.LLST28:
 3147 029a 20000000 		.4byte	.LVL33
 3148 029e 29000000 		.4byte	.LVL34-1
 3149 02a2 0200     		.2byte	0x2
 3150 02a4 74       		.byte	0x74
 3151 02a5 14       		.sleb128 20
 3152 02a6 00000000 		.4byte	0
 3153 02aa 00000000 		.4byte	0
 3154              	.LLST29:
 3155 02ae 30000000 		.4byte	.LVL36
 3156 02b2 32000000 		.4byte	.LFE123
 3157 02b6 0100     		.2byte	0x1
 3158 02b8 53       		.byte	0x53
 3159 02b9 00000000 		.4byte	0
 3160 02bd 00000000 		.4byte	0
 3161              	.LLST30:
 3162 02c1 00000000 		.4byte	.LFB124
 3163 02c5 06000000 		.4byte	.LCFI5
 3164 02c9 0200     		.2byte	0x2
 3165 02cb 7D       		.byte	0x7d
 3166 02cc 00       		.sleb128 0
 3167 02cd 06000000 		.4byte	.LCFI5
 3168 02d1 2E000000 		.4byte	.LFE124
 3169 02d5 0200     		.2byte	0x2
 3170 02d7 7D       		.byte	0x7d
 3171 02d8 08       		.sleb128 8
 3172 02d9 00000000 		.4byte	0
 3173 02dd 00000000 		.4byte	0
 3174              	.LLST31:
 3175 02e1 00000000 		.4byte	.LVL37
 3176 02e5 0D000000 		.4byte	.LVL38-1
ARM GAS  /tmp/cchr27lD.s 			page 57


 3177 02e9 0100     		.2byte	0x1
 3178 02eb 50       		.byte	0x50
 3179 02ec 0D000000 		.4byte	.LVL38-1
 3180 02f0 2E000000 		.4byte	.LFE124
 3181 02f4 0100     		.2byte	0x1
 3182 02f6 54       		.byte	0x54
 3183 02f7 00000000 		.4byte	0
 3184 02fb 00000000 		.4byte	0
 3185              	.LLST32:
 3186 02ff 1A000000 		.4byte	.LVL39
 3187 0303 2B000000 		.4byte	.LVL40-1
 3188 0307 0200     		.2byte	0x2
 3189 0309 74       		.byte	0x74
 3190 030a 14       		.sleb128 20
 3191 030b 00000000 		.4byte	0
 3192 030f 00000000 		.4byte	0
 3193              	.LLST33:
 3194 0313 00000000 		.4byte	.LFB125
 3195 0317 02000000 		.4byte	.LCFI6
 3196 031b 0200     		.2byte	0x2
 3197 031d 7D       		.byte	0x7d
 3198 031e 00       		.sleb128 0
 3199 031f 02000000 		.4byte	.LCFI6
 3200 0323 38000000 		.4byte	.LFE125
 3201 0327 0200     		.2byte	0x2
 3202 0329 7D       		.byte	0x7d
 3203 032a 10       		.sleb128 16
 3204 032b 00000000 		.4byte	0
 3205 032f 00000000 		.4byte	0
 3206              	.LLST34:
 3207 0333 00000000 		.4byte	.LVL41
 3208 0337 21000000 		.4byte	.LVL45-1
 3209 033b 0100     		.2byte	0x1
 3210 033d 50       		.byte	0x50
 3211 033e 21000000 		.4byte	.LVL45-1
 3212 0342 38000000 		.4byte	.LFE125
 3213 0346 0100     		.2byte	0x1
 3214 0348 54       		.byte	0x54
 3215 0349 00000000 		.4byte	0
 3216 034d 00000000 		.4byte	0
 3217              	.LLST35:
 3218 0351 00000000 		.4byte	.LVL41
 3219 0355 18000000 		.4byte	.LVL44
 3220 0359 0100     		.2byte	0x1
 3221 035b 51       		.byte	0x51
 3222 035c 00000000 		.4byte	0
 3223 0360 00000000 		.4byte	0
 3224              	.LLST36:
 3225 0364 00000000 		.4byte	.LVL41
 3226 0368 21000000 		.4byte	.LVL45-1
 3227 036c 0100     		.2byte	0x1
 3228 036e 52       		.byte	0x52
 3229 036f 00000000 		.4byte	0
 3230 0373 00000000 		.4byte	0
 3231              	.LLST37:
 3232 0377 00000000 		.4byte	.LVL41
 3233 037b 08000000 		.4byte	.LVL42
ARM GAS  /tmp/cchr27lD.s 			page 58


 3234 037f 0100     		.2byte	0x1
 3235 0381 53       		.byte	0x53
 3236 0382 08000000 		.4byte	.LVL42
 3237 0386 38000000 		.4byte	.LFE125
 3238 038a 0100     		.2byte	0x1
 3239 038c 55       		.byte	0x55
 3240 038d 00000000 		.4byte	0
 3241 0391 00000000 		.4byte	0
 3242              	.LLST38:
 3243 0395 0C000000 		.4byte	.LVL43
 3244 0399 21000000 		.4byte	.LVL45-1
 3245 039d 0100     		.2byte	0x1
 3246 039f 53       		.byte	0x53
 3247 03a0 00000000 		.4byte	0
 3248 03a4 00000000 		.4byte	0
 3249              	.LLST39:
 3250 03a8 0C000000 		.4byte	.LVL43
 3251 03ac 21000000 		.4byte	.LVL45-1
 3252 03b0 0100     		.2byte	0x1
 3253 03b2 52       		.byte	0x52
 3254 03b3 00000000 		.4byte	0
 3255 03b7 00000000 		.4byte	0
 3256              	.LLST40:
 3257 03bb 0C000000 		.4byte	.LVL43
 3258 03bf 18000000 		.4byte	.LVL44
 3259 03c3 0100     		.2byte	0x1
 3260 03c5 51       		.byte	0x51
 3261 03c6 18000000 		.4byte	.LVL44
 3262 03ca 21000000 		.4byte	.LVL45-1
 3263 03ce 0200     		.2byte	0x2
 3264 03d0 70       		.byte	0x70
 3265 03d1 10       		.sleb128 16
 3266 03d2 00000000 		.4byte	0
 3267 03d6 00000000 		.4byte	0
 3268              	.LLST41:
 3269 03da 0C000000 		.4byte	.LVL43
 3270 03de 21000000 		.4byte	.LVL45-1
 3271 03e2 0100     		.2byte	0x1
 3272 03e4 50       		.byte	0x50
 3273 03e5 21000000 		.4byte	.LVL45-1
 3274 03e9 38000000 		.4byte	.LFE125
 3275 03ed 0100     		.2byte	0x1
 3276 03ef 54       		.byte	0x54
 3277 03f0 00000000 		.4byte	0
 3278 03f4 00000000 		.4byte	0
 3279              	.LLST42:
 3280 03f8 36000000 		.4byte	.LVL48
 3281 03fc 38000000 		.4byte	.LFE125
 3282 0400 0100     		.2byte	0x1
 3283 0402 53       		.byte	0x53
 3284 0403 00000000 		.4byte	0
 3285 0407 00000000 		.4byte	0
 3286              	.LLST43:
 3287 040b 00000000 		.4byte	.LVL49
 3288 040f 02000000 		.4byte	.LVL50
 3289 0413 0100     		.2byte	0x1
 3290 0415 50       		.byte	0x50
ARM GAS  /tmp/cchr27lD.s 			page 59


 3291 0416 02000000 		.4byte	.LVL50
 3292 041a 05000000 		.4byte	.LVL51-1
 3293 041e 0300     		.2byte	0x3
 3294 0420 70       		.byte	0x70
 3295 0421 68       		.sleb128 -24
 3296 0422 9F       		.byte	0x9f
 3297 0423 00000000 		.4byte	0
 3298 0427 00000000 		.4byte	0
 3299              	.LLST44:
 3300 042b 00000000 		.4byte	.LVL52
 3301 042f 03000000 		.4byte	.LVL53-1
 3302 0433 0100     		.2byte	0x1
 3303 0435 50       		.byte	0x50
 3304 0436 00000000 		.4byte	0
 3305 043a 00000000 		.4byte	0
 3306              		.section	.debug_aranges,"",%progbits
 3307 0000 6C000000 		.4byte	0x6c
 3308 0004 0200     		.2byte	0x2
 3309 0006 00000000 		.4byte	.Ldebug_info0
 3310 000a 04       		.byte	0x4
 3311 000b 00       		.byte	0
 3312 000c 0000     		.2byte	0
 3313 000e 0000     		.2byte	0
 3314 0010 00000000 		.4byte	.LFB117
 3315 0014 04000000 		.4byte	.LFE117-.LFB117
 3316 0018 00000000 		.4byte	.LFB118
 3317 001c 16000000 		.4byte	.LFE118-.LFB118
 3318 0020 00000000 		.4byte	.LFB119
 3319 0024 1C000000 		.4byte	.LFE119-.LFB119
 3320 0028 00000000 		.4byte	.LFB120
 3321 002c 1A000000 		.4byte	.LFE120-.LFB120
 3322 0030 00000000 		.4byte	.LFB121
 3323 0034 20000000 		.4byte	.LFE121-.LFB121
 3324 0038 00000000 		.4byte	.LFB122
 3325 003c 12000000 		.4byte	.LFE122-.LFB122
 3326 0040 00000000 		.4byte	.LFB123
 3327 0044 32000000 		.4byte	.LFE123-.LFB123
 3328 0048 00000000 		.4byte	.LFB124
 3329 004c 2E000000 		.4byte	.LFE124-.LFB124
 3330 0050 00000000 		.4byte	.LFB125
 3331 0054 38000000 		.4byte	.LFE125-.LFB125
 3332 0058 00000000 		.4byte	.LFB126
 3333 005c 06000000 		.4byte	.LFE126-.LFB126
 3334 0060 00000000 		.4byte	.LFB127
 3335 0064 04000000 		.4byte	.LFE127-.LFB127
 3336 0068 00000000 		.4byte	0
 3337 006c 00000000 		.4byte	0
 3338              		.section	.debug_ranges,"",%progbits
 3339              	.Ldebug_ranges0:
 3340 0000 02000000 		.4byte	.LBB10
 3341 0004 04000000 		.4byte	.LBE10
 3342 0008 06000000 		.4byte	.LBB11
 3343 000c 0A000000 		.4byte	.LBE11
 3344 0010 00000000 		.4byte	0
 3345 0014 00000000 		.4byte	0
 3346 0018 02000000 		.4byte	.LBB13
 3347 001c 04000000 		.4byte	.LBE13
ARM GAS  /tmp/cchr27lD.s 			page 60


 3348 0020 06000000 		.4byte	.LBB14
 3349 0024 0A000000 		.4byte	.LBE14
 3350 0028 00000000 		.4byte	0
 3351 002c 00000000 		.4byte	0
 3352 0030 02000000 		.4byte	.LBB20
 3353 0034 04000000 		.4byte	.LBE20
 3354 0038 06000000 		.4byte	.LBB21
 3355 003c 0A000000 		.4byte	.LBE21
 3356 0040 00000000 		.4byte	0
 3357 0044 00000000 		.4byte	0
 3358 0048 1A000000 		.4byte	.LBB24
 3359 004c 24000000 		.4byte	.LBE24
 3360 0050 28000000 		.4byte	.LBB25
 3361 0054 2E000000 		.4byte	.LBE25
 3362 0058 00000000 		.4byte	0
 3363 005c 00000000 		.4byte	0
 3364 0060 2E000000 		.4byte	.LBB29
 3365 0064 30000000 		.4byte	.LBE29
 3366 0068 32000000 		.4byte	.LBB30
 3367 006c 36000000 		.4byte	.LBE30
 3368 0070 00000000 		.4byte	0
 3369 0074 00000000 		.4byte	0
 3370 0078 00000000 		.4byte	.LFB117
 3371 007c 04000000 		.4byte	.LFE117
 3372 0080 00000000 		.4byte	.LFB118
 3373 0084 16000000 		.4byte	.LFE118
 3374 0088 00000000 		.4byte	.LFB119
 3375 008c 1C000000 		.4byte	.LFE119
 3376 0090 00000000 		.4byte	.LFB120
 3377 0094 1A000000 		.4byte	.LFE120
 3378 0098 00000000 		.4byte	.LFB121
 3379 009c 20000000 		.4byte	.LFE121
 3380 00a0 00000000 		.4byte	.LFB122
 3381 00a4 12000000 		.4byte	.LFE122
 3382 00a8 00000000 		.4byte	.LFB123
 3383 00ac 32000000 		.4byte	.LFE123
 3384 00b0 00000000 		.4byte	.LFB124
 3385 00b4 2E000000 		.4byte	.LFE124
 3386 00b8 00000000 		.4byte	.LFB125
 3387 00bc 38000000 		.4byte	.LFE125
 3388 00c0 00000000 		.4byte	.LFB126
 3389 00c4 06000000 		.4byte	.LFE126
 3390 00c8 00000000 		.4byte	.LFB127
 3391 00cc 04000000 		.4byte	.LFE127
 3392 00d0 00000000 		.4byte	0
 3393 00d4 00000000 		.4byte	0
 3394              		.section	.debug_line,"",%progbits
 3395              	.Ldebug_line0:
 3396 0000 A8030000 		.section	.debug_str,"MS",%progbits,1
 3396      02006A02 
 3396      00000201 
 3396      FB0E0D00 
 3396      01010101 
 3397              	.LASF80:
 3398 0000 4D304152 		.ascii	"M0AR\000"
 3398      00
 3399              	.LASF2:
ARM GAS  /tmp/cchr27lD.s 			page 61


 3400 0005 73697A65 		.ascii	"size_t\000"
 3400      5F7400
 3401              	.LASF59:
 3402 000c 7264796D 		.ascii	"rdymsg\000"
 3402      736700
 3403              	.LASF110:
 3404 0013 646D616D 		.ascii	"dmamode\000"
 3404      6F646500 
 3405              	.LASF95:
 3406 001b 61646373 		.ascii	"adcstate_t\000"
 3406      74617465 
 3406      5F7400
 3407              	.LASF128:
 3408 0026 61646353 		.ascii	"adcStop\000"
 3408      746F7000 
 3409              	.LASF83:
 3410 002e 73747265 		.ascii	"stream\000"
 3410      616D00
 3411              	.LASF13:
 3412 0035 6C6F6E67 		.ascii	"long long unsigned int\000"
 3412      206C6F6E 
 3412      6720756E 
 3412      7369676E 
 3412      65642069 
 3413              	.LASF60:
 3414 004c 65786974 		.ascii	"exitcode\000"
 3414      636F6465 
 3414      00
 3415              	.LASF87:
 3416 0055 76656374 		.ascii	"vector\000"
 3416      6F7200
 3417              	.LASF135:
 3418 005c 49544D5F 		.ascii	"ITM_RxBuffer\000"
 3418      52784275 
 3418      66666572 
 3418      00
 3419              	.LASF26:
 3420 0069 705F7072 		.ascii	"p_prio\000"
 3420      696F00
 3421              	.LASF73:
 3422 0070 4A535152 		.ascii	"JSQR\000"
 3422      00
 3423              	.LASF12:
 3424 0075 6C6F6E67 		.ascii	"long long int\000"
 3424      206C6F6E 
 3424      6720696E 
 3424      7400
 3425              	.LASF1:
 3426 0083 7369676E 		.ascii	"signed char\000"
 3426      65642063 
 3426      68617200 
 3427              	.LASF41:
 3428 008f 705F6D70 		.ascii	"p_mpool\000"
 3428      6F6F6C00 
 3429              	.LASF14:
 3430 0097 626F6F6C 		.ascii	"bool_t\000"
 3430      5F7400
ARM GAS  /tmp/cchr27lD.s 			page 62


 3431              	.LASF56:
 3432 009e 6D5F7175 		.ascii	"m_queue\000"
 3432      65756500 
 3433              	.LASF100:
 3434 00a6 61646365 		.ascii	"adcerror_t\000"
 3434      72726F72 
 3434      5F7400
 3435              	.LASF109:
 3436 00b1 646D6173 		.ascii	"dmastp\000"
 3436      747000
 3437              	.LASF102:
 3438 00b8 73746174 		.ascii	"state\000"
 3438      6500
 3439              	.LASF113:
 3440 00be 63697263 		.ascii	"circular\000"
 3440      756C6172 
 3440      00
 3441              	.LASF9:
 3442 00c7 6C6F6E67 		.ascii	"long int\000"
 3442      20696E74 
 3442      00
 3443              	.LASF98:
 3444 00d0 4144435F 		.ascii	"ADC_ERR_DMAFAILURE\000"
 3444      4552525F 
 3444      444D4146 
 3444      41494C55 
 3444      524500
 3445              	.LASF112:
 3446 00e3 61646365 		.ascii	"adcerrorcallback_t\000"
 3446      72726F72 
 3446      63616C6C 
 3446      6261636B 
 3446      5F7400
 3447              	.LASF16:
 3448 00f6 74737461 		.ascii	"tstate_t\000"
 3448      74655F74 
 3448      00
 3449              	.LASF107:
 3450 00ff 74687265 		.ascii	"thread\000"
 3450      616400
 3451              	.LASF6:
 3452 0106 75696E74 		.ascii	"uint16_t\000"
 3452      31365F74 
 3452      00
 3453              	.LASF34:
 3454 010f 705F7469 		.ascii	"p_time\000"
 3454      6D6500
 3455              	.LASF78:
 3456 0116 4144435F 		.ascii	"ADC_TypeDef\000"
 3456      54797065 
 3456      44656600 
 3457              	.LASF28:
 3458 0122 705F6E65 		.ascii	"p_newer\000"
 3458      77657200 
 3459              	.LASF115:
 3460 012a 656E645F 		.ascii	"end_cb\000"
 3460      636200
ARM GAS  /tmp/cchr27lD.s 			page 63


 3461              	.LASF111:
 3462 0131 61646363 		.ascii	"adccallback_t\000"
 3462      616C6C62 
 3462      61636B5F 
 3462      7400
 3463              	.LASF140:
 3464 013f 61646343 		.ascii	"adcConvert\000"
 3464      6F6E7665 
 3464      727400
 3465              	.LASF96:
 3466 014a 61646373 		.ascii	"adcsample_t\000"
 3466      616D706C 
 3466      655F7400 
 3467              	.LASF50:
 3468 0156 725F6E65 		.ascii	"r_newer\000"
 3468      77657200 
 3469              	.LASF124:
 3470 015e 41444343 		.ascii	"ADCConfig\000"
 3470      6F6E6669 
 3470      6700
 3471              	.LASF44:
 3472 0168 72656761 		.ascii	"regarm_t\000"
 3472      726D5F74 
 3472      00
 3473              	.LASF86:
 3474 0171 73656C66 		.ascii	"selfindex\000"
 3474      696E6465 
 3474      7800
 3475              	.LASF123:
 3476 017b 64756D6D 		.ascii	"dummy\000"
 3476      7900
 3477              	.LASF89:
 3478 0181 4144435F 		.ascii	"ADC_UNINIT\000"
 3478      554E494E 
 3478      495400
 3479              	.LASF99:
 3480 018c 4144435F 		.ascii	"ADC_ERR_OVERFLOW\000"
 3480      4552525F 
 3480      4F564552 
 3480      464C4F57 
 3480      00
 3481              	.LASF92:
 3482 019d 4144435F 		.ascii	"ADC_ACTIVE\000"
 3482      41435449 
 3482      564500
 3483              	.LASF22:
 3484 01a8 636E745F 		.ascii	"cnt_t\000"
 3484      7400
 3485              	.LASF0:
 3486 01ae 756E7369 		.ascii	"unsigned int\000"
 3486      676E6564 
 3486      20696E74 
 3486      00
 3487              	.LASF126:
 3488 01bb 6164634F 		.ascii	"adcObjectInit\000"
 3488      626A6563 
 3488      74496E69 
ARM GAS  /tmp/cchr27lD.s 			page 64


 3488      7400
 3489              	.LASF36:
 3490 01c9 705F6D73 		.ascii	"p_msgqueue\000"
 3490      67717565 
 3490      756500
 3491              	.LASF101:
 3492 01d4 41444344 		.ascii	"ADCDriver\000"
 3492      72697665 
 3492      7200
 3493              	.LASF125:
 3494 01de 61646370 		.ascii	"adcp\000"
 3494      00
 3495              	.LASF85:
 3496 01e3 69736869 		.ascii	"ishift\000"
 3496      667400
 3497              	.LASF7:
 3498 01ea 73686F72 		.ascii	"short unsigned int\000"
 3498      7420756E 
 3498      7369676E 
 3498      65642069 
 3498      6E7400
 3499              	.LASF91:
 3500 01fd 4144435F 		.ascii	"ADC_READY\000"
 3500      52454144 
 3500      5900
 3501              	.LASF105:
 3502 0207 64657074 		.ascii	"depth\000"
 3502      6800
 3503              	.LASF19:
 3504 020d 6D73675F 		.ascii	"msg_t\000"
 3504      7400
 3505              	.LASF15:
 3506 0213 746D6F64 		.ascii	"tmode_t\000"
 3506      655F7400 
 3507              	.LASF114:
 3508 021b 6E756D5F 		.ascii	"num_channels\000"
 3508      6368616E 
 3508      6E656C73 
 3508      00
 3509              	.LASF43:
 3510 0228 54687265 		.ascii	"ThreadsList\000"
 3510      6164734C 
 3510      69737400 
 3511              	.LASF20:
 3512 0234 6576656E 		.ascii	"eventmask_t\000"
 3512      746D6173 
 3512      6B5F7400 
 3513              	.LASF137:
 3514 0240 2F6F7074 		.ascii	"/opt/ChibiOS/ChibiOS_2.4.4/os/hal/src/adc.c\000"
 3514      2F436869 
 3514      62694F53 
 3514      2F436869 
 3514      62694F53 
 3515              	.LASF139:
 3516 026c 61646349 		.ascii	"adcInit\000"
 3516      6E697400 
 3517              	.LASF133:
ARM GAS  /tmp/cchr27lD.s 			page 65


 3518 0274 61646352 		.ascii	"adcReleaseBus\000"
 3518      656C6561 
 3518      73654275 
 3518      7300
 3519              	.LASF106:
 3520 0282 67727070 		.ascii	"grpp\000"
 3520      00
 3521              	.LASF66:
 3522 0287 4A4F4652 		.ascii	"JOFR1\000"
 3522      3100
 3523              	.LASF67:
 3524 028d 4A4F4652 		.ascii	"JOFR2\000"
 3524      3200
 3525              	.LASF68:
 3526 0293 4A4F4652 		.ascii	"JOFR3\000"
 3526      3300
 3527              	.LASF104:
 3528 0299 73616D70 		.ascii	"samples\000"
 3528      6C657300 
 3529              	.LASF55:
 3530 02a1 4D757465 		.ascii	"Mutex\000"
 3530      7800
 3531              	.LASF90:
 3532 02a7 4144435F 		.ascii	"ADC_STOP\000"
 3532      53544F50 
 3532      00
 3533              	.LASF29:
 3534 02b0 705F6F6C 		.ascii	"p_older\000"
 3534      64657200 
 3535              	.LASF49:
 3536 02b8 725F6374 		.ascii	"r_ctx\000"
 3536      7800
 3537              	.LASF42:
 3538 02be 54687265 		.ascii	"ThreadsQueue\000"
 3538      61647351 
 3538      75657565 
 3538      00
 3539              	.LASF64:
 3540 02cb 534D5052 		.ascii	"SMPR1\000"
 3540      3100
 3541              	.LASF65:
 3542 02d1 534D5052 		.ascii	"SMPR2\000"
 3542      3200
 3543              	.LASF58:
 3544 02d7 6D5F6E65 		.ascii	"m_next\000"
 3544      787400
 3545              	.LASF53:
 3546 02de 725F6375 		.ascii	"r_current\000"
 3546      7272656E 
 3546      7400
 3547              	.LASF51:
 3548 02e8 725F6F6C 		.ascii	"r_older\000"
 3548      64657200 
 3549              	.LASF70:
 3550 02f0 53515231 		.ascii	"SQR1\000"
 3550      00
 3551              	.LASF71:
ARM GAS  /tmp/cchr27lD.s 			page 66


 3552 02f5 53515232 		.ascii	"SQR2\000"
 3552      00
 3553              	.LASF72:
 3554 02fa 53515233 		.ascii	"SQR3\000"
 3554      00
 3555              	.LASF138:
 3556 02ff 61646353 		.ascii	"adcStartConversionI\000"
 3556      74617274 
 3556      436F6E76 
 3556      65727369 
 3556      6F6E4900 
 3557              	.LASF17:
 3558 0313 74726566 		.ascii	"trefs_t\000"
 3558      735F7400 
 3559              	.LASF25:
 3560 031b 705F7072 		.ascii	"p_prev\000"
 3560      657600
 3561              	.LASF88:
 3562 0322 73746D33 		.ascii	"stm32_dma_stream_t\000"
 3562      325F646D 
 3562      615F7374 
 3562      7265616D 
 3562      5F7400
 3563              	.LASF18:
 3564 0335 74707269 		.ascii	"tprio_t\000"
 3564      6F5F7400 
 3565              	.LASF108:
 3566 033d 6D757465 		.ascii	"mutex\000"
 3566      7800
 3567              	.LASF8:
 3568 0343 696E7433 		.ascii	"int32_t\000"
 3568      325F7400 
 3569              	.LASF4:
 3570 034b 756E7369 		.ascii	"unsigned char\000"
 3570      676E6564 
 3570      20636861 
 3570      7200
 3571              	.LASF39:
 3572 0359 705F6D74 		.ascii	"p_mtxlist\000"
 3572      786C6973 
 3572      7400
 3573              	.LASF5:
 3574 0363 73686F72 		.ascii	"short int\000"
 3574      7420696E 
 3574      7400
 3575              	.LASF31:
 3576 036d 705F7374 		.ascii	"p_state\000"
 3576      61746500 
 3577              	.LASF116:
 3578 0375 6572726F 		.ascii	"error_cb\000"
 3578      725F6362 
 3578      00
 3579              	.LASF48:
 3580 037e 725F7072 		.ascii	"r_prio\000"
 3580      696F00
 3581              	.LASF62:
 3582 0385 65776D61 		.ascii	"ewmask\000"
ARM GAS  /tmp/cchr27lD.s 			page 67


 3582      736B00
 3583              	.LASF24:
 3584 038c 705F6E65 		.ascii	"p_next\000"
 3584      787400
 3585              	.LASF32:
 3586 0393 705F666C 		.ascii	"p_flags\000"
 3586      61677300 
 3587              	.LASF69:
 3588 039b 4A4F4652 		.ascii	"JOFR4\000"
 3588      3400
 3589              	.LASF23:
 3590 03a1 54687265 		.ascii	"Thread\000"
 3590      616400
 3591              	.LASF38:
 3592 03a8 705F6570 		.ascii	"p_epending\000"
 3592      656E6469 
 3592      6E6700
 3593              	.LASF84:
 3594 03b3 69666372 		.ascii	"ifcr\000"
 3594      00
 3595              	.LASF10:
 3596 03b8 75696E74 		.ascii	"uint32_t\000"
 3596      33325F74 
 3596      00
 3597              	.LASF47:
 3598 03c1 725F7175 		.ascii	"r_queue\000"
 3598      65756500 
 3599              	.LASF136:
 3600 03c9 474E5520 		.ascii	"GNU C 4.6.3\000"
 3600      4320342E 
 3600      362E3300 
 3601              	.LASF11:
 3602 03d5 6C6F6E67 		.ascii	"long unsigned int\000"
 3602      20756E73 
 3602      69676E65 
 3602      6420696E 
 3602      7400
 3603              	.LASF63:
 3604 03e7 63686172 		.ascii	"char\000"
 3604      00
 3605              	.LASF103:
 3606 03ec 636F6E66 		.ascii	"config\000"
 3606      696700
 3607              	.LASF119:
 3608 03f3 73717231 		.ascii	"sqr1\000"
 3608      00
 3609              	.LASF120:
 3610 03f8 73717232 		.ascii	"sqr2\000"
 3610      00
 3611              	.LASF121:
 3612 03fd 73717233 		.ascii	"sqr3\000"
 3612      00
 3613              	.LASF21:
 3614 0402 73797374 		.ascii	"systime_t\000"
 3614      696D655F 
 3614      7400
 3615              	.LASF40:
ARM GAS  /tmp/cchr27lD.s 			page 68


 3616 040c 705F7265 		.ascii	"p_realprio\000"
 3616      616C7072 
 3616      696F00
 3617              	.LASF79:
 3618 0417 4E445452 		.ascii	"NDTR\000"
 3618      00
 3619              	.LASF82:
 3620 041c 444D415F 		.ascii	"DMA_Stream_TypeDef\000"
 3620      53747265 
 3620      616D5F54 
 3620      79706544 
 3620      656600
 3621              	.LASF46:
 3622 042f 636F6E74 		.ascii	"context\000"
 3622      65787400 
 3623              	.LASF129:
 3624 0437 61646353 		.ascii	"adcStartConversion\000"
 3624      74617274 
 3624      436F6E76 
 3624      65727369 
 3624      6F6E00
 3625              	.LASF45:
 3626 044a 696E7463 		.ascii	"intctx\000"
 3626      747800
 3627              	.LASF81:
 3628 0451 4D314152 		.ascii	"M1AR\000"
 3628      00
 3629              	.LASF94:
 3630 0456 4144435F 		.ascii	"ADC_ERROR\000"
 3630      4552524F 
 3630      5200
 3631              	.LASF127:
 3632 0460 61646353 		.ascii	"adcStart\000"
 3632      74617274 
 3632      00
 3633              	.LASF33:
 3634 0469 705F7265 		.ascii	"p_refs\000"
 3634      667300
 3635              	.LASF54:
 3636 0470 52656164 		.ascii	"ReadyList\000"
 3636      794C6973 
 3636      7400
 3637              	.LASF117:
 3638 047a 736D7072 		.ascii	"smpr1\000"
 3638      3100
 3639              	.LASF118:
 3640 0480 736D7072 		.ascii	"smpr2\000"
 3640      3200
 3641              	.LASF134:
 3642 0486 726C6973 		.ascii	"rlist\000"
 3642      7400
 3643              	.LASF3:
 3644 048c 75696E74 		.ascii	"uint8_t\000"
 3644      385F7400 
 3645              	.LASF131:
 3646 0494 61646353 		.ascii	"adcStopConversionI\000"
 3646      746F7043 
ARM GAS  /tmp/cchr27lD.s 			page 69


 3646      6F6E7665 
 3646      7273696F 
 3646      6E4900
 3647              	.LASF122:
 3648 04a7 41444343 		.ascii	"ADCConversionGroup\000"
 3648      6F6E7665 
 3648      7273696F 
 3648      6E47726F 
 3648      757000
 3649              	.LASF74:
 3650 04ba 4A445231 		.ascii	"JDR1\000"
 3650      00
 3651              	.LASF75:
 3652 04bf 4A445232 		.ascii	"JDR2\000"
 3652      00
 3653              	.LASF76:
 3654 04c4 4A445233 		.ascii	"JDR3\000"
 3654      00
 3655              	.LASF77:
 3656 04c9 4A445234 		.ascii	"JDR4\000"
 3656      00
 3657              	.LASF61:
 3658 04ce 77746F62 		.ascii	"wtobjp\000"
 3658      6A7000
 3659              	.LASF93:
 3660 04d5 4144435F 		.ascii	"ADC_COMPLETE\000"
 3660      434F4D50 
 3660      4C455445 
 3660      00
 3661              	.LASF30:
 3662 04e2 705F6E61 		.ascii	"p_name\000"
 3662      6D6500
 3663              	.LASF97:
 3664 04e9 6164635F 		.ascii	"adc_channels_num_t\000"
 3664      6368616E 
 3664      6E656C73 
 3664      5F6E756D 
 3664      5F7400
 3665              	.LASF37:
 3666 04fc 705F6D73 		.ascii	"p_msg\000"
 3666      6700
 3667              	.LASF52:
 3668 0502 725F7072 		.ascii	"r_preempt\000"
 3668      65656D70 
 3668      7400
 3669              	.LASF130:
 3670 050c 61646353 		.ascii	"adcStopConversion\000"
 3670      746F7043 
 3670      6F6E7665 
 3670      7273696F 
 3670      6E00
 3671              	.LASF57:
 3672 051e 6D5F6F77 		.ascii	"m_owner\000"
 3672      6E657200 
 3673              	.LASF132:
 3674 0526 61646341 		.ascii	"adcAcquireBus\000"
 3674      63717569 
ARM GAS  /tmp/cchr27lD.s 			page 70


 3674      72654275 
 3674      7300
 3675              	.LASF27:
 3676 0534 705F6374 		.ascii	"p_ctx\000"
 3676      7800
 3677              	.LASF35:
 3678 053a 705F7761 		.ascii	"p_waiting\000"
 3678      6974696E 
 3678      6700
 3679              		.ident	"GCC: (Sourcery CodeBench Lite 2012.03-56) 4.6.3"
ARM GAS  /tmp/cchr27lD.s 			page 71


DEFINED SYMBOLS
                            *ABS*:00000000 adc.c
     /tmp/cchr27lD.s:21     .text.adcInit:00000000 $t
     /tmp/cchr27lD.s:27     .text.adcInit:00000000 adcInit
     /tmp/cchr27lD.s:42     .text.adcObjectInit:00000000 $t
     /tmp/cchr27lD.s:48     .text.adcObjectInit:00000000 adcObjectInit
     /tmp/cchr27lD.s:82     .text.adcStart:00000000 $t
     /tmp/cchr27lD.s:88     .text.adcStart:00000000 adcStart
     /tmp/cchr27lD.s:139    .text.adcStop:00000000 $t
     /tmp/cchr27lD.s:145    .text.adcStop:00000000 adcStop
     /tmp/cchr27lD.s:194    .text.adcStartConversion:00000000 $t
     /tmp/cchr27lD.s:200    .text.adcStartConversion:00000000 adcStartConversion
     /tmp/cchr27lD.s:259    .text.adcStartConversionI:00000000 $t
     /tmp/cchr27lD.s:265    .text.adcStartConversionI:00000000 adcStartConversionI
     /tmp/cchr27lD.s:300    .text.adcStopConversion:00000000 $t
     /tmp/cchr27lD.s:306    .text.adcStopConversion:00000000 adcStopConversion
     /tmp/cchr27lD.s:378    .text.adcStopConversionI:00000000 $t
     /tmp/cchr27lD.s:384    .text.adcStopConversionI:00000000 adcStopConversionI
     /tmp/cchr27lD.s:440    .text.adcConvert:00000000 $t
     /tmp/cchr27lD.s:446    .text.adcConvert:00000000 adcConvert
     /tmp/cchr27lD.s:526    .text.adcAcquireBus:00000000 $t
     /tmp/cchr27lD.s:532    .text.adcAcquireBus:00000000 adcAcquireBus
     /tmp/cchr27lD.s:551    .text.adcReleaseBus:00000000 $t
     /tmp/cchr27lD.s:557    .text.adcReleaseBus:00000000 adcReleaseBus
                     .debug_frame:00000010 $d

UNDEFINED SYMBOLS
adc_lld_init
chMtxInit
adc_lld_start
adc_lld_stop
adc_lld_start_conversion
adc_lld_stop_conversion
chSchWakeupS
chSchReadyI
rlist
chSchGoSleepS
chMtxLock
chMtxUnlock
