ARM GAS  /tmp/ccYEievQ.s 			page 1


   1              		.syntax unified
   2              		.cpu cortex-m4
   3              		.eabi_attribute 27, 3
   4              		.eabi_attribute 28, 1
   5              		.fpu fpv4-sp-d16
   6              		.eabi_attribute 20, 1
   7              		.eabi_attribute 21, 1
   8              		.eabi_attribute 23, 3
   9              		.eabi_attribute 24, 1
  10              		.eabi_attribute 25, 1
  11              		.eabi_attribute 26, 1
  12              		.eabi_attribute 30, 2
  13              		.eabi_attribute 34, 1
  14              		.eabi_attribute 18, 4
  15              		.thumb
  16              		.file	"adc_lld.c"
  17              		.text
  18              	.Ltext0:
  19              		.cfi_sections	.debug_frame
  20              		.section	.text.adc_lld_init,"ax",%progbits
  21              		.align	2
  22              		.p2align 4,,15
  23              		.global	adc_lld_init
  24              		.thumb
  25              		.thumb_func
  26              		.type	adc_lld_init, %function
  27              	adc_lld_init:
  28              	.LFB119:
  29              		.file 1 "/opt/ChibiOS/ChibiOS_2.4.4/os/hal/platforms/STM32F4xx/adc_lld.c"
  30              		.loc 1 182 0
  31              		.cfi_startproc
  32              		@ args = 0, pretend = 0, frame = 0
  33              		@ frame_needed = 0, uses_anonymous_args = 0
  34 0000 10B5     		push	{r4, lr}
  35              	.LCFI0:
  36              		.cfi_def_cfa_offset 8
  37              		.cfi_offset 14, -4
  38              		.cfi_offset 4, -8
  39              		.loc 1 186 0
  40 0002 40F20004 		movw	r4, #:lower16:.LANCHOR0
  41 0006 C0F20004 		movt	r4, #:upper16:.LANCHOR0
  42 000a 2046     		mov	r0, r4
  43 000c FFF7FEFF 		bl	adcObjectInit
  44              		.loc 1 187 0
  45 0010 4FF40052 		mov	r2, #8192
  46 0014 C4F20102 		movt	r2, 16385
  47 0018 A262     		str	r2, [r4, #40]
  48              		.loc 1 189 0
  49 001a 42F61643 		movw	r3, #11286
  50              		.loc 1 188 0
  51 001e 054A     		ldr	r2, .L2
  52              		.loc 1 189 0
  53 0020 C0F20203 		movt	r3, 2
  54              		.loc 1 225 0
  55 0024 1220     		movs	r0, #18
  56 0026 5021     		movs	r1, #80
  57              		.loc 1 188 0
ARM GAS  /tmp/ccYEievQ.s 			page 2


  58 0028 E262     		str	r2, [r4, #44]
  59              		.loc 1 189 0
  60 002a 2363     		str	r3, [r4, #48]
  61              		.loc 1 226 0
  62 002c BDE81040 		pop	{r4, lr}
  63              		.loc 1 225 0
  64 0030 FFF7FEBF 		b	nvicEnableVector
  65              	.L3:
  66              		.align	2
  67              	.L2:
  68 0034 90000000 		.word	_stm32_dma_streams+144
  69              		.cfi_endproc
  70              	.LFE119:
  71              		.size	adc_lld_init, .-adc_lld_init
  72 0038 AFF30080 		.section	.text.adc_lld_start,"ax",%progbits
  72      AFF30080 
  73              		.align	2
  74              		.p2align 4,,15
  75              		.global	adc_lld_start
  76              		.thumb
  77              		.thumb_func
  78              		.type	adc_lld_start, %function
  79              	adc_lld_start:
  80              	.LFB120:
  81              		.loc 1 235 0
  82              		.cfi_startproc
  83              		@ args = 0, pretend = 0, frame = 0
  84              		@ frame_needed = 0, uses_anonymous_args = 0
  85              	.LVL0:
  86              		.loc 1 238 0
  87 0000 0378     		ldrb	r3, [r0, #0]	@ zero_extendqisi2
  88 0002 012B     		cmp	r3, #1
  89              		.loc 1 235 0
  90 0004 10B5     		push	{r4, lr}
  91              	.LCFI1:
  92              		.cfi_def_cfa_offset 8
  93              		.cfi_offset 14, -4
  94              		.cfi_offset 4, -8
  95              		.loc 1 235 0
  96 0006 0446     		mov	r4, r0
  97              		.loc 1 238 0
  98 0008 00D0     		beq	.L8
  99 000a 10BD     		pop	{r4, pc}
 100              	.L8:
 101              		.loc 1 240 0
 102 000c 40F20001 		movw	r1, #:lower16:.LANCHOR0
 103 0010 C0F20001 		movt	r1, #:upper16:.LANCHOR0
 104 0014 8842     		cmp	r0, r1
 105 0016 12D0     		beq	.L9
 106              	.LVL1:
 107              	.L6:
 108              		.loc 1 280 0
 109 0018 4FF40C5C 		mov	ip, #8960
 110 001c C4F2010C 		movt	ip, 16385
 111              		.loc 1 285 0
 112 0020 A36A     		ldr	r3, [r4, #40]
 113              		.loc 1 280 0
ARM GAS  /tmp/ccYEievQ.s 			page 3


 114 0022 DCF80410 		ldr	r1, [ip, #4]
 115 0026 01F44002 		and	r2, r1, #12582912
 116 002a 42F48030 		orr	r0, r2, #65536
 117              		.loc 1 285 0
 118 002e 0021     		movs	r1, #0
 119              		.loc 1 280 0
 120 0030 CCF80400 		str	r0, [ip, #4]
 121              		.loc 1 285 0
 122 0034 5960     		str	r1, [r3, #4]
 123              		.loc 1 286 0
 124 0036 9960     		str	r1, [r3, #8]
 125              		.loc 1 287 0
 126 0038 0121     		movs	r1, #1
 127 003a 9960     		str	r1, [r3, #8]
 128 003c 10BD     		pop	{r4, pc}
 129              	.L9:
 130              	.LBB2:
 131              		.loc 1 242 0
 132 003e 40F20002 		movw	r2, #:lower16:adc_lld_serve_rx_interrupt
 133 0042 0521     		movs	r1, #5
 134 0044 C0F20002 		movt	r2, #:upper16:adc_lld_serve_rx_interrupt
 135 0048 2346     		mov	r3, r4
 136 004a C06A     		ldr	r0, [r0, #44]
 137 004c FFF7FEFF 		bl	dmaStreamAllocate
 138              		.loc 1 247 0
 139 0050 E06A     		ldr	r0, [r4, #44]
 140 0052 42F24C02 		movw	r2, #8268
 141 0056 0168     		ldr	r1, [r0, #0]
 142              		.loc 1 248 0
 143 0058 4FF46050 		mov	r0, #14336
 144 005c C4F20200 		movt	r0, 16386
 145              		.loc 1 247 0
 146 0060 C4F20102 		movt	r2, 16385
 147 0064 8A60     		str	r2, [r1, #8]
 148              		.loc 1 248 0
 149 0066 436C     		ldr	r3, [r0, #68]
 150 0068 43F48072 		orr	r2, r3, #256
 151 006c 4264     		str	r2, [r0, #68]
 152 006e D3E7     		b	.L6
 153              	.LBE2:
 154              		.cfi_endproc
 155              	.LFE120:
 156              		.size	adc_lld_start, .-adc_lld_start
 157              		.section	.text.adc_lld_stop,"ax",%progbits
 158              		.align	2
 159              		.p2align 4,,15
 160              		.global	adc_lld_stop
 161              		.thumb
 162              		.thumb_func
 163              		.type	adc_lld_stop, %function
 164              	adc_lld_stop:
 165              	.LFB121:
 166              		.loc 1 298 0
 167              		.cfi_startproc
 168              		@ args = 0, pretend = 0, frame = 0
 169              		@ frame_needed = 0, uses_anonymous_args = 0
 170              	.LVL2:
ARM GAS  /tmp/ccYEievQ.s 			page 4


 171              		.loc 1 301 0
 172 0000 0378     		ldrb	r3, [r0, #0]	@ zero_extendqisi2
 173 0002 022B     		cmp	r3, #2
 174              		.loc 1 298 0
 175 0004 10B5     		push	{r4, lr}
 176              	.LCFI2:
 177              		.cfi_def_cfa_offset 8
 178              		.cfi_offset 14, -4
 179              		.cfi_offset 4, -8
 180              		.loc 1 298 0
 181 0006 0446     		mov	r4, r0
 182              		.loc 1 301 0
 183 0008 00D0     		beq	.L12
 184 000a 10BD     		pop	{r4, pc}
 185              	.L12:
 186              		.loc 1 302 0
 187 000c C06A     		ldr	r0, [r0, #44]
 188              	.LVL3:
 189 000e FFF7FEFF 		bl	dmaStreamRelease
 190              		.loc 1 307 0
 191 0012 40F20000 		movw	r0, #:lower16:.LANCHOR0
 192 0016 C0F20000 		movt	r0, #:upper16:.LANCHOR0
 193              		.loc 1 303 0
 194 001a 0021     		movs	r1, #0
 195              		.loc 1 307 0
 196 001c 8442     		cmp	r4, r0
 197              		.loc 1 303 0
 198 001e A26A     		ldr	r2, [r4, #40]
 199              		.loc 1 308 0
 200 0020 04BF     		itt	eq
 201 0022 4FF46050 		moveq	r0, #14336
 202 0026 C4F20200 		movteq	r0, 16386
 203              		.loc 1 303 0
 204 002a 5160     		str	r1, [r2, #4]
 205              		.loc 1 304 0
 206 002c 9160     		str	r1, [r2, #8]
 207              		.loc 1 308 0
 208 002e 02BF     		ittt	eq
 209 0030 426C     		ldreq	r2, [r0, #68]
 210 0032 22F48072 		biceq	r2, r2, #256
 211 0036 4264     		streq	r2, [r0, #68]
 212 0038 10BD     		pop	{r4, pc}
 213              		.cfi_endproc
 214              	.LFE121:
 215              		.size	adc_lld_stop, .-adc_lld_stop
 216 003a 00BFAFF3 		.section	.text.adc_lld_start_conversion,"ax",%progbits
 216      0080
 217              		.align	2
 218              		.p2align 4,,15
 219              		.global	adc_lld_start_conversion
 220              		.thumb
 221              		.thumb_func
 222              		.type	adc_lld_start_conversion, %function
 223              	adc_lld_start_conversion:
 224              	.LFB122:
 225              		.loc 1 330 0
 226              		.cfi_startproc
ARM GAS  /tmp/ccYEievQ.s 			page 5


 227              		@ args = 0, pretend = 0, frame = 0
 228              		@ frame_needed = 0, uses_anonymous_args = 0
 229              		@ link register save eliminated.
 230              	.LVL4:
 231              		.loc 1 332 0
 232 0000 0369     		ldr	r3, [r0, #16]
 233              	.LVL5:
 234              		.loc 1 335 0
 235 0002 026B     		ldr	r2, [r0, #48]
 236              	.LVL6:
 237              		.loc 1 336 0
 238 0004 1968     		ldr	r1, [r3, #0]
 239              		.loc 1 330 0
 240 0006 2DE9F003 		push	{r4, r5, r6, r7, r8, r9}
 241              	.LCFI3:
 242              		.cfi_def_cfa_offset 24
 243              		.cfi_offset 9, -4
 244              		.cfi_offset 8, -8
 245              		.cfi_offset 7, -12
 246              		.cfi_offset 6, -16
 247              		.cfi_offset 5, -20
 248              		.cfi_offset 4, -24
 249              		.loc 1 336 0
 250 000a 09B1     		cbz	r1, .L14
 251              	.LVL7:
 252              		.loc 1 337 0
 253 000c 42F48072 		orr	r2, r2, #256
 254              	.LVL8:
 255              	.L14:
 256              		.loc 1 339 0
 257 0010 C768     		ldr	r7, [r0, #12]
 258              		.loc 1 344 0
 259 0012 C16A     		ldr	r1, [r0, #44]
 260              		.loc 1 345 0
 261 0014 9D88     		ldrh	r5, [r3, #4]
 262              		.loc 1 344 0
 263 0016 0968     		ldr	r1, [r1, #0]
 264 0018 8668     		ldr	r6, [r0, #8]
 265              		.loc 1 360 0
 266 001a D3F810C0 		ldr	ip, [r3, #16]
 267              		.loc 1 344 0
 268 001e CE60     		str	r6, [r1, #12]
 269              		.loc 1 339 0
 270 0020 012F     		cmp	r7, #1
 271              		.loc 1 342 0
 272 0022 88BF     		it	hi
 273 0024 42F00802 		orrhi	r2, r2, #8
 274              	.LVL9:
 275              		.loc 1 345 0
 276 0028 07FB05F4 		mul	r4, r7, r5
 277 002c 4C60     		str	r4, [r1, #4]
 278              		.loc 1 347 0
 279 002e 0A60     		str	r2, [r1, #0]
 280              		.loc 1 348 0
 281 0030 D1F80090 		ldr	r9, [r1, #0]
 282              		.loc 1 352 0
 283 0034 D3F81880 		ldr	r8, [r3, #24]
ARM GAS  /tmp/ccYEievQ.s 			page 6


 284              		.loc 1 353 0
 285 0038 DF69     		ldr	r7, [r3, #28]
 286              		.loc 1 354 0
 287 003a 1E6A     		ldr	r6, [r3, #32]
 288              		.loc 1 355 0
 289 003c 5D6A     		ldr	r5, [r3, #36]
 290              		.loc 1 356 0
 291 003e 9C6A     		ldr	r4, [r3, #40]
 292              		.loc 1 361 0
 293 0040 5B69     		ldr	r3, [r3, #20]
 294              		.loc 1 351 0
 295 0042 826A     		ldr	r2, [r0, #40]
 296              	.LVL10:
 297              		.loc 1 348 0
 298 0044 49F00109 		orr	r9, r9, #1
 299 0048 C1F80090 		str	r9, [r1, #0]
 300              		.loc 1 360 0
 301 004c 4CF0806C 		orr	ip, ip, #67108864
 302              		.loc 1 351 0
 303 0050 0021     		movs	r1, #0
 304              		.loc 1 361 0
 305 0052 13F0804F 		tst	r3, #1073741824
 306              		.loc 1 363 0
 307 0056 43F44073 		orr	r3, r3, #768
 308              		.loc 1 360 0
 309 005a 4CF48070 		orr	r0, ip, #256
 310              	.LVL11:
 311              		.loc 1 363 0
 312 005e 14BF     		ite	ne
 313 0060 43F00303 		orrne	r3, r3, #3
 314              		.loc 1 366 0
 315 0064 43F00103 		orreq	r3, r3, #1
 316              		.loc 1 351 0
 317 0068 1160     		str	r1, [r2, #0]
 318              		.loc 1 352 0
 319 006a C2F80C80 		str	r8, [r2, #12]
 320              		.loc 1 353 0
 321 006e 1761     		str	r7, [r2, #16]
 322              		.loc 1 354 0
 323 0070 D662     		str	r6, [r2, #44]
 324              		.loc 1 355 0
 325 0072 1563     		str	r5, [r2, #48]
 326              		.loc 1 356 0
 327 0074 5463     		str	r4, [r2, #52]
 328              		.loc 1 360 0
 329 0076 5060     		str	r0, [r2, #4]
 330              		.loc 1 365 0
 331 0078 9360     		str	r3, [r2, #8]
 332              		.loc 1 367 0
 333 007a BDE8F003 		pop	{r4, r5, r6, r7, r8, r9}
 334 007e 7047     		bx	lr
 335              		.cfi_endproc
 336              	.LFE122:
 337              		.size	adc_lld_start_conversion, .-adc_lld_start_conversion
 338              		.section	.text.adc_lld_stop_conversion,"ax",%progbits
 339              		.align	2
 340              		.p2align 4,,15
ARM GAS  /tmp/ccYEievQ.s 			page 7


 341              		.global	adc_lld_stop_conversion
 342              		.thumb
 343              		.thumb_func
 344              		.type	adc_lld_stop_conversion, %function
 345              	adc_lld_stop_conversion:
 346              	.LFB123:
 347              		.loc 1 376 0
 348              		.cfi_startproc
 349              		@ args = 0, pretend = 0, frame = 0
 350              		@ frame_needed = 0, uses_anonymous_args = 0
 351              		@ link register save eliminated.
 352              	.LVL12:
 353              		.loc 1 378 0
 354 0000 C16A     		ldr	r1, [r0, #44]
 355 0002 0A68     		ldr	r2, [r1, #0]
 356              		.loc 1 376 0
 357 0004 10B4     		push	{r4}
 358              	.LCFI4:
 359              		.cfi_def_cfa_offset 4
 360              		.cfi_offset 4, -4
 361              		.loc 1 378 0
 362 0006 1468     		ldr	r4, [r2, #0]
 363 0008 24F01F03 		bic	r3, r4, #31
 364 000c 1360     		str	r3, [r2, #0]
 365              	.L19:
 366              		.loc 1 378 0 is_stmt 0 discriminator 1
 367 000e 1368     		ldr	r3, [r2, #0]
 368 0010 13F00103 		ands	r3, r3, #1
 369 0014 FBD1     		bne	.L19
 370              		.loc 1 378 0 discriminator 2
 371 0016 0C7A     		ldrb	r4, [r1, #8]	@ zero_extendqisi2
 372              		.loc 1 379 0 is_stmt 1 discriminator 2
 373 0018 826A     		ldr	r2, [r0, #40]
 374              		.loc 1 378 0 discriminator 2
 375 001a 4968     		ldr	r1, [r1, #4]
 376 001c 3D20     		movs	r0, #61
 377              	.LVL13:
 378 001e 00FA04F0 		lsl	r0, r0, r4
 379 0022 0860     		str	r0, [r1, #0]
 380              		.loc 1 381 0 discriminator 2
 381 0024 0120     		movs	r0, #1
 382              		.loc 1 379 0 discriminator 2
 383 0026 5360     		str	r3, [r2, #4]
 384              		.loc 1 380 0 discriminator 2
 385 0028 9360     		str	r3, [r2, #8]
 386              		.loc 1 381 0 discriminator 2
 387 002a 9060     		str	r0, [r2, #8]
 388              		.loc 1 382 0 discriminator 2
 389 002c 10BC     		pop	{r4}
 390 002e 7047     		bx	lr
 391              		.cfi_endproc
 392              	.LFE123:
 393              		.size	adc_lld_stop_conversion, .-adc_lld_stop_conversion
 394              		.section	.text.adc_lld_serve_rx_interrupt,"ax",%progbits
 395              		.align	2
 396              		.p2align 4,,15
 397              		.thumb
ARM GAS  /tmp/ccYEievQ.s 			page 8


 398              		.thumb_func
 399              		.type	adc_lld_serve_rx_interrupt, %function
 400              	adc_lld_serve_rx_interrupt:
 401              	.LFB117:
 402              		.loc 1 87 0
 403              		.cfi_startproc
 404              		@ args = 0, pretend = 0, frame = 0
 405              		@ frame_needed = 0, uses_anonymous_args = 0
 406              	.LVL14:
 407              		.loc 1 90 0
 408 0000 11F00C0F 		tst	r1, #12
 409              		.loc 1 87 0
 410 0004 38B5     		push	{r3, r4, r5, lr}
 411              	.LCFI5:
 412              		.cfi_def_cfa_offset 16
 413              		.cfi_offset 14, -4
 414              		.cfi_offset 5, -8
 415              		.cfi_offset 4, -12
 416              		.cfi_offset 3, -16
 417              		.loc 1 87 0
 418 0006 0D46     		mov	r5, r1
 419 0008 0446     		mov	r4, r0
 420              		.loc 1 90 0
 421 000a 47D1     		bne	.L34
 422              		.loc 1 98 0
 423 000c 0369     		ldr	r3, [r0, #16]
 424 000e 002B     		cmp	r3, #0
 425 0010 43D0     		beq	.L21
 426              		.loc 1 99 0
 427 0012 CA06     		lsls	r2, r1, #27
 428 0014 05D5     		bpl	.L26
 429              		.loc 1 101 0
 430 0016 9B68     		ldr	r3, [r3, #8]
 431 0018 1BB1     		cbz	r3, .L26
 432              		.loc 1 101 0 is_stmt 0 discriminator 1
 433 001a C268     		ldr	r2, [r0, #12]
 434 001c 8168     		ldr	r1, [r0, #8]
 435              	.LVL15:
 436 001e 5208     		lsrs	r2, r2, #1
 437 0020 9847     		blx	r3
 438              	.LVL16:
 439              	.L26:
 440              		.loc 1 103 0 is_stmt 1
 441 0022 AB06     		lsls	r3, r5, #26
 442 0024 39D5     		bpl	.L21
 443              		.loc 1 105 0
 444 0026 2169     		ldr	r1, [r4, #16]
 445 0028 0B68     		ldr	r3, [r1, #0]
 446 002a 7BB1     		cbz	r3, .L27
 447              		.loc 1 105 0 is_stmt 0 discriminator 1
 448 002c 8B68     		ldr	r3, [r1, #8]
 449 002e 002B     		cmp	r3, #0
 450 0030 33D0     		beq	.L21
 451              		.loc 1 105 0 discriminator 3
 452 0032 E268     		ldr	r2, [r4, #12]
 453 0034 012A     		cmp	r2, #1
 454 0036 50D9     		bls	.L28
ARM GAS  /tmp/ccYEievQ.s 			page 9


 455              	.LBB3:
 456              		.loc 1 105 0 discriminator 4
 457 0038 8D88     		ldrh	r5, [r1, #4]
 458              	.LVL17:
 459 003a A168     		ldr	r1, [r4, #8]
 460 003c 5208     		lsrs	r2, r2, #1
 461              	.LVL18:
 462 003e 05FB02F5 		mul	r5, r5, r2
 463 0042 2046     		mov	r0, r4
 464 0044 01EB4501 		add	r1, r1, r5, lsl #1
 465 0048 9847     		blx	r3
 466              	.LVL19:
 467 004a 38BD     		pop	{r3, r4, r5, pc}
 468              	.LVL20:
 469              	.L27:
 470              	.LBE3:
 471              		.loc 1 105 0 discriminator 2
 472 004c 2046     		mov	r0, r4
 473 004e FFF7FEFF 		bl	adc_lld_stop_conversion
 474 0052 2169     		ldr	r1, [r4, #16]
 475 0054 8B68     		ldr	r3, [r1, #8]
 476 0056 002B     		cmp	r3, #0
 477 0058 4FD0     		beq	.L29
 478              		.loc 1 105 0 discriminator 6
 479 005a E268     		ldr	r2, [r4, #12]
 480 005c 0420     		movs	r0, #4
 481 005e 012A     		cmp	r2, #1
 482 0060 2070     		strb	r0, [r4, #0]
 483 0062 46D9     		bls	.L30
 484              	.LBB4:
 485              		.loc 1 105 0 discriminator 8
 486 0064 B1F804C0 		ldrh	ip, [r1, #4]
 487 0068 A168     		ldr	r1, [r4, #8]
 488 006a 5208     		lsrs	r2, r2, #1
 489              	.LVL21:
 490 006c 0CFB02F5 		mul	r5, ip, r2
 491              	.LVL22:
 492 0070 2046     		mov	r0, r4
 493 0072 01EB4501 		add	r1, r1, r5, lsl #1
 494 0076 9847     		blx	r3
 495              	.LVL23:
 496              	.L31:
 497              	.LBE4:
 498              		.loc 1 105 0 discriminator 10
 499 0078 2278     		ldrb	r2, [r4, #0]	@ zero_extendqisi2
 500 007a 042A     		cmp	r2, #4
 501 007c 34D0     		beq	.L35
 502              	.L32:
 503              	.LBB5:
 504              		.loc 1 105 0 discriminator 12
 505 007e 2023     		movs	r3, #32
 506              	.LVL24:
 507              	@ 105 "/opt/ChibiOS/ChibiOS_2.4.4/os/hal/platforms/STM32F4xx/adc_lld.c" 1
 508 0080 83F31188 		msr     BASEPRI, r3
 509              	@ 0 "" 2
 510              	.LVL25:
 511              		.thumb
ARM GAS  /tmp/ccYEievQ.s 			page 10


 512              	.LBE5:
 513 0084 6369     		ldr	r3, [r4, #20]
 514              	.LVL26:
 515 0086 2BB1     		cbz	r3, .L33
 516              	.LVL27:
 517              	.LBB6:
 518              		.loc 1 105 0 discriminator 13
 519 0088 0022     		movs	r2, #0
 520 008a 6261     		str	r2, [r4, #20]
 521 008c 1846     		mov	r0, r3
 522 008e 5A62     		str	r2, [r3, #36]
 523 0090 FFF7FEFF 		bl	chSchReadyI
 524              	.LVL28:
 525              	.L33:
 526              	.LBE6:
 527              	.LBB7:
 528              		.loc 1 105 0 discriminator 14
 529 0094 0023     		movs	r3, #0
 530              	.LVL29:
 531              	@ 105 "/opt/ChibiOS/ChibiOS_2.4.4/os/hal/platforms/STM32F4xx/adc_lld.c" 1
 532 0096 83F31188 		msr     BASEPRI, r3
 533              	@ 0 "" 2
 534              	.LVL30:
 535              		.thumb
 536              	.L21:
 537 009a 38BD     		pop	{r3, r4, r5, pc}
 538              	.LVL31:
 539              	.L34:
 540              	.LBE7:
 541              		.loc 1 93 0 is_stmt 1
 542 009c FFF7FEFF 		bl	adc_lld_stop_conversion
 543              	.LVL32:
 544 00a0 2369     		ldr	r3, [r4, #16]
 545 00a2 DB68     		ldr	r3, [r3, #12]
 546 00a4 3BB1     		cbz	r3, .L23
 547              		.loc 1 93 0 is_stmt 0 discriminator 1
 548 00a6 0522     		movs	r2, #5
 549 00a8 2046     		mov	r0, r4
 550 00aa 0021     		movs	r1, #0
 551 00ac 2270     		strb	r2, [r4, #0]
 552 00ae 9847     		blx	r3
 553 00b0 2078     		ldrb	r0, [r4, #0]	@ zero_extendqisi2
 554 00b2 0528     		cmp	r0, #5
 555 00b4 15D0     		beq	.L36
 556              	.L23:
 557              		.loc 1 93 0 discriminator 2
 558 00b6 0022     		movs	r2, #0
 559 00b8 2261     		str	r2, [r4, #16]
 560              	.LBB8:
 561 00ba 2023     		movs	r3, #32
 562              	.LVL33:
 563              	@ 93 "/opt/ChibiOS/ChibiOS_2.4.4/os/hal/platforms/STM32F4xx/adc_lld.c" 1
 564 00bc 83F31188 		msr     BASEPRI, r3
 565              	@ 0 "" 2
 566              	.LVL34:
 567              		.thumb
 568              	.LBE8:
ARM GAS  /tmp/ccYEievQ.s 			page 11


 569 00c0 6369     		ldr	r3, [r4, #20]
 570              	.LVL35:
 571 00c2 33B1     		cbz	r3, .L24
 572              	.LVL36:
 573              	.LBB9:
 574              		.loc 1 93 0 discriminator 4
 575 00c4 6261     		str	r2, [r4, #20]
 576 00c6 4FF0FF32 		mov	r2, #-1
 577 00ca 1846     		mov	r0, r3
 578 00cc 5A62     		str	r2, [r3, #36]
 579 00ce FFF7FEFF 		bl	chSchReadyI
 580              	.LVL37:
 581              	.L24:
 582              	.LBE9:
 583              	.LBB10:
 584              		.loc 1 93 0 discriminator 5
 585 00d2 0023     		movs	r3, #0
 586              	.LVL38:
 587              	@ 93 "/opt/ChibiOS/ChibiOS_2.4.4/os/hal/platforms/STM32F4xx/adc_lld.c" 1
 588 00d4 83F31188 		msr     BASEPRI, r3
 589              	@ 0 "" 2
 590              	.LVL39:
 591              		.thumb
 592 00d8 38BD     		pop	{r3, r4, r5, pc}
 593              	.LVL40:
 594              	.L28:
 595              	.LBE10:
 596              		.loc 1 105 0 is_stmt 1 discriminator 5
 597 00da 2046     		mov	r0, r4
 598 00dc A168     		ldr	r1, [r4, #8]
 599 00de 9847     		blx	r3
 600 00e0 38BD     		pop	{r3, r4, r5, pc}
 601              	.L36:
 602              		.loc 1 93 0 discriminator 3
 603 00e2 0221     		movs	r1, #2
 604 00e4 2170     		strb	r1, [r4, #0]
 605 00e6 E6E7     		b	.L23
 606              	.LVL41:
 607              	.L35:
 608              		.loc 1 105 0 discriminator 11
 609 00e8 0220     		movs	r0, #2
 610 00ea 0023     		movs	r3, #0
 611 00ec 2070     		strb	r0, [r4, #0]
 612 00ee 2361     		str	r3, [r4, #16]
 613 00f0 C5E7     		b	.L32
 614              	.LVL42:
 615              	.L30:
 616              		.loc 1 105 0 is_stmt 0 discriminator 9
 617 00f2 2046     		mov	r0, r4
 618 00f4 A168     		ldr	r1, [r4, #8]
 619 00f6 9847     		blx	r3
 620 00f8 BEE7     		b	.L31
 621              	.L29:
 622              		.loc 1 105 0 discriminator 7
 623 00fa 0221     		movs	r1, #2
 624 00fc 2170     		strb	r1, [r4, #0]
 625 00fe 2361     		str	r3, [r4, #16]
ARM GAS  /tmp/ccYEievQ.s 			page 12


 626 0100 BDE7     		b	.L32
 627              		.cfi_endproc
 628              	.LFE117:
 629              		.size	adc_lld_serve_rx_interrupt, .-adc_lld_serve_rx_interrupt
 630 0102 00BFAFF3 		.section	.text.Vector88,"ax",%progbits
 630      0080AFF3 
 630      0080AFF3 
 630      0080
 631              		.align	2
 632              		.p2align 4,,15
 633              		.global	Vector88
 634              		.thumb
 635              		.thumb_func
 636              		.type	Vector88, %function
 637              	Vector88:
 638              	.LFB118:
 639              		.loc 1 122 0 is_stmt 1
 640              		.cfi_startproc
 641              		@ args = 0, pretend = 0, frame = 0
 642              		@ frame_needed = 0, uses_anonymous_args = 0
 643              		.loc 1 128 0
 644 0000 4FF40053 		mov	r3, #8192
 645 0004 C4F20103 		movt	r3, 16385
 646              		.loc 1 129 0
 647 0008 0021     		movs	r1, #0
 648              		.loc 1 128 0
 649 000a 1A68     		ldr	r2, [r3, #0]
 650              	.LVL43:
 651              		.loc 1 122 0
 652 000c 10B5     		push	{r4, lr}
 653              	.LCFI6:
 654              		.cfi_def_cfa_offset 8
 655              		.cfi_offset 14, -4
 656              		.cfi_offset 4, -8
 657              		.loc 1 129 0
 658 000e 1960     		str	r1, [r3, #0]
 659              		.loc 1 132 0
 660 0010 9106     		lsls	r1, r2, #26
 661 0012 2BD5     		bpl	.L38
 662              		.loc 1 132 0 is_stmt 0 discriminator 1
 663 0014 40F20004 		movw	r4, #:lower16:.LANCHOR0
 664 0018 C0F20004 		movt	r4, #:upper16:.LANCHOR0
 665 001c E16A     		ldr	r1, [r4, #44]
 666 001e 0A68     		ldr	r2, [r1, #0]
 667              	.LVL44:
 668 0020 5068     		ldr	r0, [r2, #4]
 669 0022 18B3     		cbz	r0, .L38
 670              		.loc 1 135 0 is_stmt 1
 671 0024 2369     		ldr	r3, [r4, #16]
 672 0026 0BB3     		cbz	r3, .L38
 673              		.loc 1 136 0
 674 0028 2046     		mov	r0, r4
 675 002a FFF7FEFF 		bl	adc_lld_stop_conversion
 676 002e 2069     		ldr	r0, [r4, #16]
 677 0030 C368     		ldr	r3, [r0, #12]
 678 0032 3BB1     		cbz	r3, .L39
 679              		.loc 1 136 0 is_stmt 0 discriminator 1
ARM GAS  /tmp/ccYEievQ.s 			page 13


 680 0034 0521     		movs	r1, #5
 681 0036 2170     		strb	r1, [r4, #0]
 682 0038 2046     		mov	r0, r4
 683 003a 0121     		movs	r1, #1
 684 003c 9847     		blx	r3
 685 003e 2278     		ldrb	r2, [r4, #0]	@ zero_extendqisi2
 686 0040 052A     		cmp	r2, #5
 687 0042 17D0     		beq	.L41
 688              	.L39:
 689              		.loc 1 136 0 discriminator 2
 690 0044 0021     		movs	r1, #0
 691 0046 40F20002 		movw	r2, #:lower16:.LANCHOR0
 692 004a C0F20002 		movt	r2, #:upper16:.LANCHOR0
 693 004e 2161     		str	r1, [r4, #16]
 694              	.LBB11:
 695 0050 2023     		movs	r3, #32
 696              	.LVL45:
 697              	@ 136 "/opt/ChibiOS/ChibiOS_2.4.4/os/hal/platforms/STM32F4xx/adc_lld.c" 1
 698 0052 83F31188 		msr     BASEPRI, r3
 699              	@ 0 "" 2
 700              	.LVL46:
 701              		.thumb
 702              	.LBE11:
 703 0056 6069     		ldr	r0, [r4, #20]
 704 0058 28B1     		cbz	r0, .L40
 705              	.LVL47:
 706              	.LBB12:
 707              		.loc 1 136 0 discriminator 4
 708 005a 4FF0FF33 		mov	r3, #-1
 709              	.LVL48:
 710 005e 4362     		str	r3, [r0, #36]
 711 0060 5161     		str	r1, [r2, #20]
 712 0062 FFF7FEFF 		bl	chSchReadyI
 713              	.LVL49:
 714              	.L40:
 715              	.LBE12:
 716              	.LBB13:
 717              		.loc 1 136 0 discriminator 5
 718 0066 0023     		movs	r3, #0
 719              	.LVL50:
 720              	@ 136 "/opt/ChibiOS/ChibiOS_2.4.4/os/hal/platforms/STM32F4xx/adc_lld.c" 1
 721 0068 83F31188 		msr     BASEPRI, r3
 722              	@ 0 "" 2
 723              	.LVL51:
 724              		.thumb
 725              	.L38:
 726              	.LBE13:
 727              		.loc 1 170 0 is_stmt 1
 728 006c BDE81040 		pop	{r4, lr}
 729              		.loc 1 169 0
 730 0070 FFF7FEBF 		b	_port_irq_epilogue
 731              	.LVL52:
 732              	.L41:
 733              		.loc 1 136 0 discriminator 3
 734 0074 0223     		movs	r3, #2
 735 0076 2370     		strb	r3, [r4, #0]
 736 0078 E4E7     		b	.L39
ARM GAS  /tmp/ccYEievQ.s 			page 14


 737              		.cfi_endproc
 738              	.LFE118:
 739              		.size	Vector88, .-Vector88
 740 007a 00BFAFF3 		.section	.text.adcSTM32EnableTSVREFE,"ax",%progbits
 740      0080
 741              		.align	2
 742              		.p2align 4,,15
 743              		.global	adcSTM32EnableTSVREFE
 744              		.thumb
 745              		.thumb_func
 746              		.type	adcSTM32EnableTSVREFE, %function
 747              	adcSTM32EnableTSVREFE:
 748              	.LFB124:
 749              		.loc 1 390 0
 750              		.cfi_startproc
 751              		@ args = 0, pretend = 0, frame = 0
 752              		@ frame_needed = 0, uses_anonymous_args = 0
 753              		@ link register save eliminated.
 754              		.loc 1 392 0
 755 0000 4FF40C53 		mov	r3, #8960
 756 0004 C4F20103 		movt	r3, 16385
 757 0008 5868     		ldr	r0, [r3, #4]
 758 000a 40F40002 		orr	r2, r0, #8388608
 759 000e 5A60     		str	r2, [r3, #4]
 760              		.loc 1 393 0
 761 0010 7047     		bx	lr
 762              		.cfi_endproc
 763              	.LFE124:
 764              		.size	adcSTM32EnableTSVREFE, .-adcSTM32EnableTSVREFE
 765 0012 00BFAFF3 		.section	.text.adcSTM32DisableTSVREFE,"ax",%progbits
 765      0080AFF3 
 765      0080AFF3 
 765      0080
 766              		.align	2
 767              		.p2align 4,,15
 768              		.global	adcSTM32DisableTSVREFE
 769              		.thumb
 770              		.thumb_func
 771              		.type	adcSTM32DisableTSVREFE, %function
 772              	adcSTM32DisableTSVREFE:
 773              	.LFB125:
 774              		.loc 1 401 0
 775              		.cfi_startproc
 776              		@ args = 0, pretend = 0, frame = 0
 777              		@ frame_needed = 0, uses_anonymous_args = 0
 778              		@ link register save eliminated.
 779              		.loc 1 403 0
 780 0000 4FF40C53 		mov	r3, #8960
 781 0004 C4F20103 		movt	r3, 16385
 782 0008 5868     		ldr	r0, [r3, #4]
 783 000a 20F40002 		bic	r2, r0, #8388608
 784 000e 5A60     		str	r2, [r3, #4]
 785              		.loc 1 404 0
 786 0010 7047     		bx	lr
 787              		.cfi_endproc
 788              	.LFE125:
 789              		.size	adcSTM32DisableTSVREFE, .-adcSTM32DisableTSVREFE
ARM GAS  /tmp/ccYEievQ.s 			page 15


 790 0012 00BFAFF3 		.section	.text.adcSTM32EnableVBATE,"ax",%progbits
 790      0080AFF3 
 790      0080AFF3 
 790      0080
 791              		.align	2
 792              		.p2align 4,,15
 793              		.global	adcSTM32EnableVBATE
 794              		.thumb
 795              		.thumb_func
 796              		.type	adcSTM32EnableVBATE, %function
 797              	adcSTM32EnableVBATE:
 798              	.LFB126:
 799              		.loc 1 412 0
 800              		.cfi_startproc
 801              		@ args = 0, pretend = 0, frame = 0
 802              		@ frame_needed = 0, uses_anonymous_args = 0
 803              		@ link register save eliminated.
 804              		.loc 1 414 0
 805 0000 4FF40C53 		mov	r3, #8960
 806 0004 C4F20103 		movt	r3, 16385
 807 0008 5868     		ldr	r0, [r3, #4]
 808 000a 40F48002 		orr	r2, r0, #4194304
 809 000e 5A60     		str	r2, [r3, #4]
 810              		.loc 1 415 0
 811 0010 7047     		bx	lr
 812              		.cfi_endproc
 813              	.LFE126:
 814              		.size	adcSTM32EnableVBATE, .-adcSTM32EnableVBATE
 815 0012 00BFAFF3 		.section	.text.adcSTM32DisableVBATE,"ax",%progbits
 815      0080AFF3 
 815      0080AFF3 
 815      0080
 816              		.align	2
 817              		.p2align 4,,15
 818              		.global	adcSTM32DisableVBATE
 819              		.thumb
 820              		.thumb_func
 821              		.type	adcSTM32DisableVBATE, %function
 822              	adcSTM32DisableVBATE:
 823              	.LFB127:
 824              		.loc 1 423 0
 825              		.cfi_startproc
 826              		@ args = 0, pretend = 0, frame = 0
 827              		@ frame_needed = 0, uses_anonymous_args = 0
 828              		@ link register save eliminated.
 829              		.loc 1 425 0
 830 0000 4FF40C53 		mov	r3, #8960
 831 0004 C4F20103 		movt	r3, 16385
 832 0008 5868     		ldr	r0, [r3, #4]
 833 000a 20F48002 		bic	r2, r0, #4194304
 834 000e 5A60     		str	r2, [r3, #4]
 835              		.loc 1 426 0
 836 0010 7047     		bx	lr
 837              		.cfi_endproc
 838              	.LFE127:
 839              		.size	adcSTM32DisableVBATE, .-adcSTM32DisableVBATE
 840              		.global	ADCD1
ARM GAS  /tmp/ccYEievQ.s 			page 16


 841 0012 00BFAFF3 		.section	.bss.ADCD1,"aw",%nobits
 841      0080AFF3 
 841      0080AFF3 
 841      0080
 842              		.align	2
 843              		.set	.LANCHOR0,. + 0
 844              		.type	ADCD1, %object
 845              		.size	ADCD1, 52
 846              	ADCD1:
 847 0000 00000000 		.space	52
 847      00000000 
 847      00000000 
 847      00000000 
 847      00000000 
 848              		.text
 849              	.Letext0:
 850              		.file 2 "/opt/arm/bin/../lib/gcc/arm-none-eabi/4.6.3/include/stddef.h"
 851              		.file 3 "/opt/arm/bin/../lib/gcc/arm-none-eabi/4.6.3/../../../../arm-none-eabi/include/stdint.h"
 852              		.file 4 "/opt/ChibiOS/ChibiOS_2.4.4/os/ports/GCC/ARMCMx/chtypes.h"
 853              		.file 5 "/opt/ChibiOS/ChibiOS_2.4.4/os/kernel/include/chlists.h"
 854              		.file 6 "/opt/ChibiOS/ChibiOS_2.4.4/os/kernel/include/chthreads.h"
 855              		.file 7 "/opt/ChibiOS/ChibiOS_2.4.4/os/ports/GCC/ARMCMx/chcore_v7m.h"
 856              		.file 8 "/opt/ChibiOS/ChibiOS_2.4.4/os/kernel/include/chmtx.h"
 857              		.file 9 "/opt/ChibiOS/ChibiOS_2.4.4/os/hal/platforms/STM32F4xx/stm32f4xx.h"
 858              		.file 10 "/opt/ChibiOS/ChibiOS_2.4.4/os/hal/platforms/STM32F4xx/stm32_dma.h"
 859              		.file 11 "/opt/ChibiOS/ChibiOS_2.4.4/os/hal/include/adc.h"
 860              		.file 12 "/opt/ChibiOS/ChibiOS_2.4.4/os/hal/platforms/STM32F4xx/adc_lld.h"
 861              		.file 13 "/opt/ChibiOS/ChibiOS_2.4.4/os/ports/common/ARMCMx/CMSIS/include/core_cm4.h"
 862              		.section	.debug_info,"",%progbits
 863              	.Ldebug_info0:
 864 0000 2A100000 		.4byte	0x102a
 865 0004 0200     		.2byte	0x2
 866 0006 00000000 		.4byte	.Ldebug_abbrev0
 867 000a 04       		.byte	0x4
 868 000b 01       		.uleb128 0x1
 869 000c 490A0000 		.4byte	.LASF254
 870 0010 01       		.byte	0x1
 871 0011 7F070000 		.4byte	.LASF255
 872 0015 00000000 		.4byte	0
 873 0019 00000000 		.4byte	0
 874 001d 00000000 		.4byte	.Ldebug_ranges0+0
 875 0021 00000000 		.4byte	.Ldebug_line0
 876 0025 02       		.uleb128 0x2
 877 0026 04       		.byte	0x4
 878 0027 05       		.byte	0x5
 879 0028 696E7400 		.ascii	"int\000"
 880 002c 03       		.uleb128 0x3
 881 002d 05000000 		.4byte	.LASF2
 882 0031 02       		.byte	0x2
 883 0032 D4       		.byte	0xd4
 884 0033 37000000 		.4byte	0x37
 885 0037 04       		.uleb128 0x4
 886 0038 04       		.byte	0x4
 887 0039 07       		.byte	0x7
 888 003a 7E060000 		.4byte	.LASF0
 889 003e 04       		.uleb128 0x4
 890 003f 01       		.byte	0x1
ARM GAS  /tmp/ccYEievQ.s 			page 17


 891 0040 06       		.byte	0x6
 892 0041 47020000 		.4byte	.LASF1
 893 0045 03       		.uleb128 0x3
 894 0046 5A020000 		.4byte	.LASF3
 895 004a 03       		.byte	0x3
 896 004b 2A       		.byte	0x2a
 897 004c 50000000 		.4byte	0x50
 898 0050 04       		.uleb128 0x4
 899 0051 01       		.byte	0x1
 900 0052 08       		.byte	0x8
 901 0053 9C020000 		.4byte	.LASF4
 902 0057 04       		.uleb128 0x4
 903 0058 02       		.byte	0x2
 904 0059 05       		.byte	0x5
 905 005a 9B090000 		.4byte	.LASF5
 906 005e 03       		.uleb128 0x3
 907 005f 48080000 		.4byte	.LASF6
 908 0063 03       		.byte	0x3
 909 0064 36       		.byte	0x36
 910 0065 69000000 		.4byte	0x69
 911 0069 04       		.uleb128 0x4
 912 006a 02       		.byte	0x2
 913 006b 07       		.byte	0x7
 914 006c B80A0000 		.4byte	.LASF7
 915 0070 03       		.uleb128 0x3
 916 0071 87000000 		.4byte	.LASF8
 917 0075 03       		.byte	0x3
 918 0076 4F       		.byte	0x4f
 919 0077 7B000000 		.4byte	0x7b
 920 007b 04       		.uleb128 0x4
 921 007c 04       		.byte	0x4
 922 007d 05       		.byte	0x5
 923 007e 8B010000 		.4byte	.LASF9
 924 0082 03       		.uleb128 0x3
 925 0083 5A0A0000 		.4byte	.LASF10
 926 0087 03       		.byte	0x3
 927 0088 50       		.byte	0x50
 928 0089 8D000000 		.4byte	0x8d
 929 008d 04       		.uleb128 0x4
 930 008e 04       		.byte	0x4
 931 008f 07       		.byte	0x7
 932 0090 8B040000 		.4byte	.LASF11
 933 0094 04       		.uleb128 0x4
 934 0095 08       		.byte	0x8
 935 0096 05       		.byte	0x5
 936 0097 BA050000 		.4byte	.LASF12
 937 009b 04       		.uleb128 0x4
 938 009c 08       		.byte	0x8
 939 009d 07       		.byte	0x7
 940 009e 29080000 		.4byte	.LASF13
 941 00a2 03       		.uleb128 0x3
 942 00a3 DD090000 		.4byte	.LASF14
 943 00a7 04       		.byte	0x4
 944 00a8 2E       		.byte	0x2e
 945 00a9 70000000 		.4byte	0x70
 946 00ad 03       		.uleb128 0x3
 947 00ae 0A090000 		.4byte	.LASF15
ARM GAS  /tmp/ccYEievQ.s 			page 18


 948 00b2 04       		.byte	0x4
 949 00b3 2F       		.byte	0x2f
 950 00b4 45000000 		.4byte	0x45
 951 00b8 03       		.uleb128 0x3
 952 00b9 BC010000 		.4byte	.LASF16
 953 00bd 04       		.byte	0x4
 954 00be 30       		.byte	0x30
 955 00bf 45000000 		.4byte	0x45
 956 00c3 03       		.uleb128 0x3
 957 00c4 1F0A0000 		.4byte	.LASF17
 958 00c8 04       		.byte	0x4
 959 00c9 31       		.byte	0x31
 960 00ca 45000000 		.4byte	0x45
 961 00ce 03       		.uleb128 0x3
 962 00cf 57000000 		.4byte	.LASF18
 963 00d3 04       		.byte	0x4
 964 00d4 32       		.byte	0x32
 965 00d5 82000000 		.4byte	0x82
 966 00d9 03       		.uleb128 0x3
 967 00da 51080000 		.4byte	.LASF19
 968 00de 04       		.byte	0x4
 969 00df 33       		.byte	0x33
 970 00e0 70000000 		.4byte	0x70
 971 00e4 03       		.uleb128 0x3
 972 00e5 62020000 		.4byte	.LASF20
 973 00e9 04       		.byte	0x4
 974 00ea 35       		.byte	0x35
 975 00eb 82000000 		.4byte	0x82
 976 00ef 03       		.uleb128 0x3
 977 00f0 3C000000 		.4byte	.LASF21
 978 00f4 04       		.byte	0x4
 979 00f5 36       		.byte	0x36
 980 00f6 82000000 		.4byte	0x82
 981 00fa 03       		.uleb128 0x3
 982 00fb F3090000 		.4byte	.LASF22
 983 00ff 05       		.byte	0x5
 984 0100 2A       		.byte	0x2a
 985 0101 05010000 		.4byte	0x105
 986 0105 05       		.uleb128 0x5
 987 0106 F3090000 		.4byte	.LASF22
 988 010a 48       		.byte	0x48
 989 010b 06       		.byte	0x6
 990 010c 5E       		.byte	0x5e
 991 010d 1C020000 		.4byte	0x21c
 992 0111 06       		.uleb128 0x6
 993 0112 94010000 		.4byte	.LASF23
 994 0116 06       		.byte	0x6
 995 0117 5F       		.byte	0x5f
 996 0118 41020000 		.4byte	0x241
 997 011c 02       		.byte	0x2
 998 011d 23       		.byte	0x23
 999 011e 00       		.uleb128 0
 1000 011f 06       		.uleb128 0x6
 1001 0120 9B010000 		.4byte	.LASF24
 1002 0124 06       		.byte	0x6
 1003 0125 61       		.byte	0x61
 1004 0126 41020000 		.4byte	0x241
ARM GAS  /tmp/ccYEievQ.s 			page 19


 1005 012a 02       		.byte	0x2
 1006 012b 23       		.byte	0x23
 1007 012c 04       		.uleb128 0x4
 1008 012d 06       		.uleb128 0x6
 1009 012e 5B030000 		.4byte	.LASF25
 1010 0132 06       		.byte	0x6
 1011 0133 63       		.byte	0x63
 1012 0134 CE000000 		.4byte	0xce
 1013 0138 02       		.byte	0x2
 1014 0139 23       		.byte	0x23
 1015 013a 08       		.uleb128 0x8
 1016 013b 06       		.uleb128 0x6
 1017 013c 51000000 		.4byte	.LASF26
 1018 0140 06       		.byte	0x6
 1019 0141 64       		.byte	0x64
 1020 0142 0E030000 		.4byte	0x30e
 1021 0146 02       		.byte	0x2
 1022 0147 23       		.byte	0x23
 1023 0148 0C       		.uleb128 0xc
 1024 0149 06       		.uleb128 0x6
 1025 014a 83010000 		.4byte	.LASF27
 1026 014e 06       		.byte	0x6
 1027 014f 66       		.byte	0x66
 1028 0150 41020000 		.4byte	0x241
 1029 0154 02       		.byte	0x2
 1030 0155 23       		.byte	0x23
 1031 0156 10       		.uleb128 0x10
 1032 0157 06       		.uleb128 0x6
 1033 0158 40080000 		.4byte	.LASF28
 1034 015c 06       		.byte	0x6
 1035 015d 67       		.byte	0x67
 1036 015e 41020000 		.4byte	0x241
 1037 0162 02       		.byte	0x2
 1038 0163 23       		.byte	0x23
 1039 0164 14       		.uleb128 0x14
 1040 0165 06       		.uleb128 0x6
 1041 0166 3F0B0000 		.4byte	.LASF29
 1042 016a 06       		.byte	0x6
 1043 016b 6E       		.byte	0x6e
 1044 016c B8030000 		.4byte	0x3b8
 1045 0170 02       		.byte	0x2
 1046 0171 23       		.byte	0x23
 1047 0172 18       		.uleb128 0x18
 1048 0173 06       		.uleb128 0x6
 1049 0174 8E0B0000 		.4byte	.LASF30
 1050 0178 06       		.byte	0x6
 1051 0179 79       		.byte	0x79
 1052 017a B8000000 		.4byte	0xb8
 1053 017e 02       		.byte	0x2
 1054 017f 23       		.byte	0x23
 1055 0180 1C       		.uleb128 0x1c
 1056 0181 06       		.uleb128 0x6
 1057 0182 6C060000 		.4byte	.LASF31
 1058 0186 06       		.byte	0x6
 1059 0187 7D       		.byte	0x7d
 1060 0188 AD000000 		.4byte	0xad
 1061 018c 02       		.byte	0x2
ARM GAS  /tmp/ccYEievQ.s 			page 20


 1062 018d 23       		.byte	0x23
 1063 018e 1D       		.uleb128 0x1d
 1064 018f 06       		.uleb128 0x6
 1065 0190 C1060000 		.4byte	.LASF32
 1066 0194 06       		.byte	0x6
 1067 0195 82       		.byte	0x82
 1068 0196 C3000000 		.4byte	0xc3
 1069 019a 02       		.byte	0x2
 1070 019b 23       		.byte	0x23
 1071 019c 1E       		.uleb128 0x1e
 1072 019d 06       		.uleb128 0x6
 1073 019e 4D070000 		.4byte	.LASF33
 1074 01a2 06       		.byte	0x6
 1075 01a3 89       		.byte	0x89
 1076 01a4 36030000 		.4byte	0x336
 1077 01a8 02       		.byte	0x2
 1078 01a9 23       		.byte	0x23
 1079 01aa 20       		.uleb128 0x20
 1080 01ab 07       		.uleb128 0x7
 1081 01ac 705F7500 		.ascii	"p_u\000"
 1082 01b0 06       		.byte	0x6
 1083 01b1 AE       		.byte	0xae
 1084 01b2 83030000 		.4byte	0x383
 1085 01b6 02       		.byte	0x2
 1086 01b7 23       		.byte	0x23
 1087 01b8 24       		.uleb128 0x24
 1088 01b9 06       		.uleb128 0x6
 1089 01ba 51060000 		.4byte	.LASF34
 1090 01be 06       		.byte	0x6
 1091 01bf B3       		.byte	0xb3
 1092 01c0 69020000 		.4byte	0x269
 1093 01c4 02       		.byte	0x2
 1094 01c5 23       		.byte	0x23
 1095 01c6 28       		.uleb128 0x28
 1096 01c7 06       		.uleb128 0x6
 1097 01c8 7C000000 		.4byte	.LASF35
 1098 01cc 06       		.byte	0x6
 1099 01cd B9       		.byte	0xb9
 1100 01ce 47020000 		.4byte	0x247
 1101 01d2 02       		.byte	0x2
 1102 01d3 23       		.byte	0x23
 1103 01d4 2C       		.uleb128 0x2c
 1104 01d5 06       		.uleb128 0x6
 1105 01d6 7E0B0000 		.4byte	.LASF36
 1106 01da 06       		.byte	0x6
 1107 01db BD       		.byte	0xbd
 1108 01dc D9000000 		.4byte	0xd9
 1109 01e0 02       		.byte	0x2
 1110 01e1 23       		.byte	0x23
 1111 01e2 34       		.uleb128 0x34
 1112 01e3 06       		.uleb128 0x6
 1113 01e4 E2030000 		.4byte	.LASF37
 1114 01e8 06       		.byte	0x6
 1115 01e9 C3       		.byte	0xc3
 1116 01ea E4000000 		.4byte	0xe4
 1117 01ee 02       		.byte	0x2
 1118 01ef 23       		.byte	0x23
ARM GAS  /tmp/ccYEievQ.s 			page 21


 1119 01f0 38       		.uleb128 0x38
 1120 01f1 06       		.uleb128 0x6
 1121 01f2 CE010000 		.4byte	.LASF38
 1122 01f6 06       		.byte	0x6
 1123 01f7 CA       		.byte	0xca
 1124 01f8 CA030000 		.4byte	0x3ca
 1125 01fc 02       		.byte	0x2
 1126 01fd 23       		.byte	0x23
 1127 01fe 3C       		.uleb128 0x3c
 1128 01ff 06       		.uleb128 0x6
 1129 0200 74070000 		.4byte	.LASF39
 1130 0204 06       		.byte	0x6
 1131 0205 CE       		.byte	0xce
 1132 0206 CE000000 		.4byte	0xce
 1133 020a 02       		.byte	0x2
 1134 020b 23       		.byte	0x23
 1135 020c 40       		.uleb128 0x40
 1136 020d 06       		.uleb128 0x6
 1137 020e AC060000 		.4byte	.LASF40
 1138 0212 06       		.byte	0x6
 1139 0213 D4       		.byte	0xd4
 1140 0214 7F020000 		.4byte	0x27f
 1141 0218 02       		.byte	0x2
 1142 0219 23       		.byte	0x23
 1143 021a 44       		.uleb128 0x44
 1144 021b 00       		.byte	0
 1145 021c 08       		.uleb128 0x8
 1146 021d 08       		.byte	0x8
 1147 021e 05       		.byte	0x5
 1148 021f 61       		.byte	0x61
 1149 0220 41020000 		.4byte	0x241
 1150 0224 06       		.uleb128 0x6
 1151 0225 94010000 		.4byte	.LASF23
 1152 0229 05       		.byte	0x5
 1153 022a 62       		.byte	0x62
 1154 022b 41020000 		.4byte	0x241
 1155 022f 02       		.byte	0x2
 1156 0230 23       		.byte	0x23
 1157 0231 00       		.uleb128 0
 1158 0232 06       		.uleb128 0x6
 1159 0233 9B010000 		.4byte	.LASF24
 1160 0237 05       		.byte	0x5
 1161 0238 64       		.byte	0x64
 1162 0239 41020000 		.4byte	0x241
 1163 023d 02       		.byte	0x2
 1164 023e 23       		.byte	0x23
 1165 023f 04       		.uleb128 0x4
 1166 0240 00       		.byte	0
 1167 0241 09       		.uleb128 0x9
 1168 0242 04       		.byte	0x4
 1169 0243 FA000000 		.4byte	0xfa
 1170 0247 03       		.uleb128 0x3
 1171 0248 710A0000 		.4byte	.LASF41
 1172 024c 05       		.byte	0x5
 1173 024d 66       		.byte	0x66
 1174 024e 1C020000 		.4byte	0x21c
 1175 0252 08       		.uleb128 0x8
ARM GAS  /tmp/ccYEievQ.s 			page 22


 1176 0253 04       		.byte	0x4
 1177 0254 05       		.byte	0x5
 1178 0255 6B       		.byte	0x6b
 1179 0256 69020000 		.4byte	0x269
 1180 025a 06       		.uleb128 0x6
 1181 025b 94010000 		.4byte	.LASF23
 1182 025f 05       		.byte	0x5
 1183 0260 6D       		.byte	0x6d
 1184 0261 41020000 		.4byte	0x241
 1185 0265 02       		.byte	0x2
 1186 0266 23       		.byte	0x23
 1187 0267 00       		.uleb128 0
 1188 0268 00       		.byte	0
 1189 0269 03       		.uleb128 0x3
 1190 026a D5060000 		.4byte	.LASF42
 1191 026e 05       		.byte	0x5
 1192 026f 70       		.byte	0x70
 1193 0270 52020000 		.4byte	0x252
 1194 0274 03       		.uleb128 0x3
 1195 0275 F0010000 		.4byte	.LASF43
 1196 0279 07       		.byte	0x7
 1197 027a D7       		.byte	0xd7
 1198 027b 7F020000 		.4byte	0x27f
 1199 027f 0A       		.uleb128 0xa
 1200 0280 04       		.byte	0x4
 1201 0281 05       		.uleb128 0x5
 1202 0282 DB030000 		.4byte	.LASF44
 1203 0286 24       		.byte	0x24
 1204 0287 07       		.byte	0x7
 1205 0288 FE       		.byte	0xfe
 1206 0289 0E030000 		.4byte	0x30e
 1207 028d 0B       		.uleb128 0xb
 1208 028e 723400   		.ascii	"r4\000"
 1209 0291 07       		.byte	0x7
 1210 0292 1101     		.2byte	0x111
 1211 0294 74020000 		.4byte	0x274
 1212 0298 02       		.byte	0x2
 1213 0299 23       		.byte	0x23
 1214 029a 00       		.uleb128 0
 1215 029b 0B       		.uleb128 0xb
 1216 029c 723500   		.ascii	"r5\000"
 1217 029f 07       		.byte	0x7
 1218 02a0 1201     		.2byte	0x112
 1219 02a2 74020000 		.4byte	0x274
 1220 02a6 02       		.byte	0x2
 1221 02a7 23       		.byte	0x23
 1222 02a8 04       		.uleb128 0x4
 1223 02a9 0B       		.uleb128 0xb
 1224 02aa 723600   		.ascii	"r6\000"
 1225 02ad 07       		.byte	0x7
 1226 02ae 1301     		.2byte	0x113
 1227 02b0 74020000 		.4byte	0x274
 1228 02b4 02       		.byte	0x2
 1229 02b5 23       		.byte	0x23
 1230 02b6 08       		.uleb128 0x8
 1231 02b7 0B       		.uleb128 0xb
 1232 02b8 723700   		.ascii	"r7\000"
ARM GAS  /tmp/ccYEievQ.s 			page 23


 1233 02bb 07       		.byte	0x7
 1234 02bc 1401     		.2byte	0x114
 1235 02be 74020000 		.4byte	0x274
 1236 02c2 02       		.byte	0x2
 1237 02c3 23       		.byte	0x23
 1238 02c4 0C       		.uleb128 0xc
 1239 02c5 0B       		.uleb128 0xb
 1240 02c6 723800   		.ascii	"r8\000"
 1241 02c9 07       		.byte	0x7
 1242 02ca 1501     		.2byte	0x115
 1243 02cc 74020000 		.4byte	0x274
 1244 02d0 02       		.byte	0x2
 1245 02d1 23       		.byte	0x23
 1246 02d2 10       		.uleb128 0x10
 1247 02d3 0B       		.uleb128 0xb
 1248 02d4 723900   		.ascii	"r9\000"
 1249 02d7 07       		.byte	0x7
 1250 02d8 1601     		.2byte	0x116
 1251 02da 74020000 		.4byte	0x274
 1252 02de 02       		.byte	0x2
 1253 02df 23       		.byte	0x23
 1254 02e0 14       		.uleb128 0x14
 1255 02e1 0B       		.uleb128 0xb
 1256 02e2 72313000 		.ascii	"r10\000"
 1257 02e6 07       		.byte	0x7
 1258 02e7 1701     		.2byte	0x117
 1259 02e9 74020000 		.4byte	0x274
 1260 02ed 02       		.byte	0x2
 1261 02ee 23       		.byte	0x23
 1262 02ef 18       		.uleb128 0x18
 1263 02f0 0B       		.uleb128 0xb
 1264 02f1 72313100 		.ascii	"r11\000"
 1265 02f5 07       		.byte	0x7
 1266 02f6 1801     		.2byte	0x118
 1267 02f8 74020000 		.4byte	0x274
 1268 02fc 02       		.byte	0x2
 1269 02fd 23       		.byte	0x23
 1270 02fe 1C       		.uleb128 0x1c
 1271 02ff 0B       		.uleb128 0xb
 1272 0300 6C7200   		.ascii	"lr\000"
 1273 0303 07       		.byte	0x7
 1274 0304 1901     		.2byte	0x119
 1275 0306 74020000 		.4byte	0x274
 1276 030a 02       		.byte	0x2
 1277 030b 23       		.byte	0x23
 1278 030c 20       		.uleb128 0x20
 1279 030d 00       		.byte	0
 1280 030e 0C       		.uleb128 0xc
 1281 030f 6E020000 		.4byte	.LASF45
 1282 0313 04       		.byte	0x4
 1283 0314 07       		.byte	0x7
 1284 0315 2301     		.2byte	0x123
 1285 0317 2B030000 		.4byte	0x32b
 1286 031b 0B       		.uleb128 0xb
 1287 031c 72313300 		.ascii	"r13\000"
 1288 0320 07       		.byte	0x7
 1289 0321 2401     		.2byte	0x124
ARM GAS  /tmp/ccYEievQ.s 			page 24


 1290 0323 2B030000 		.4byte	0x32b
 1291 0327 02       		.byte	0x2
 1292 0328 23       		.byte	0x23
 1293 0329 00       		.uleb128 0
 1294 032a 00       		.byte	0
 1295 032b 09       		.uleb128 0x9
 1296 032c 04       		.byte	0x4
 1297 032d 81020000 		.4byte	0x281
 1298 0331 0D       		.uleb128 0xd
 1299 0332 82000000 		.4byte	0x82
 1300 0336 0D       		.uleb128 0xd
 1301 0337 EF000000 		.4byte	0xef
 1302 033b 05       		.uleb128 0x5
 1303 033c AA050000 		.4byte	.LASF46
 1304 0340 10       		.byte	0x10
 1305 0341 08       		.byte	0x8
 1306 0342 2C       		.byte	0x2c
 1307 0343 72030000 		.4byte	0x372
 1308 0347 06       		.uleb128 0x6
 1309 0348 E2050000 		.4byte	.LASF47
 1310 034c 08       		.byte	0x8
 1311 034d 2D       		.byte	0x2d
 1312 034e 47020000 		.4byte	0x247
 1313 0352 02       		.byte	0x2
 1314 0353 23       		.byte	0x23
 1315 0354 00       		.uleb128 0
 1316 0355 06       		.uleb128 0x6
 1317 0356 2D010000 		.4byte	.LASF48
 1318 035a 08       		.byte	0x8
 1319 035b 2F       		.byte	0x2f
 1320 035c 41020000 		.4byte	0x241
 1321 0360 02       		.byte	0x2
 1322 0361 23       		.byte	0x23
 1323 0362 08       		.uleb128 0x8
 1324 0363 06       		.uleb128 0x6
 1325 0364 460B0000 		.4byte	.LASF49
 1326 0368 08       		.byte	0x8
 1327 0369 31       		.byte	0x31
 1328 036a 72030000 		.4byte	0x372
 1329 036e 02       		.byte	0x2
 1330 036f 23       		.byte	0x23
 1331 0370 0C       		.uleb128 0xc
 1332 0371 00       		.byte	0
 1333 0372 09       		.uleb128 0x9
 1334 0373 04       		.byte	0x4
 1335 0374 3B030000 		.4byte	0x33b
 1336 0378 03       		.uleb128 0x3
 1337 0379 AA050000 		.4byte	.LASF46
 1338 037d 08       		.byte	0x8
 1339 037e 33       		.byte	0x33
 1340 037f 3B030000 		.4byte	0x33b
 1341 0383 0E       		.uleb128 0xe
 1342 0384 04       		.byte	0x4
 1343 0385 06       		.byte	0x6
 1344 0386 90       		.byte	0x90
 1345 0387 B8030000 		.4byte	0x3b8
 1346 038b 0F       		.uleb128 0xf
ARM GAS  /tmp/ccYEievQ.s 			page 25


 1347 038c A60A0000 		.4byte	.LASF50
 1348 0390 06       		.byte	0x6
 1349 0391 97       		.byte	0x97
 1350 0392 D9000000 		.4byte	0xd9
 1351 0396 0F       		.uleb128 0xf
 1352 0397 41010000 		.4byte	.LASF51
 1353 039b 06       		.byte	0x6
 1354 039c 9E       		.byte	0x9e
 1355 039d D9000000 		.4byte	0xd9
 1356 03a1 0F       		.uleb128 0xf
 1357 03a2 6A030000 		.4byte	.LASF52
 1358 03a6 06       		.byte	0x6
 1359 03a7 A5       		.byte	0xa5
 1360 03a8 7F020000 		.4byte	0x27f
 1361 03ac 0F       		.uleb128 0xf
 1362 03ad 53020000 		.4byte	.LASF53
 1363 03b1 06       		.byte	0x6
 1364 03b2 AC       		.byte	0xac
 1365 03b3 E4000000 		.4byte	0xe4
 1366 03b7 00       		.byte	0
 1367 03b8 09       		.uleb128 0x9
 1368 03b9 04       		.byte	0x4
 1369 03ba BE030000 		.4byte	0x3be
 1370 03be 10       		.uleb128 0x10
 1371 03bf C3030000 		.4byte	0x3c3
 1372 03c3 04       		.uleb128 0x4
 1373 03c4 01       		.byte	0x1
 1374 03c5 08       		.byte	0x8
 1375 03c6 4F030000 		.4byte	.LASF54
 1376 03ca 09       		.uleb128 0x9
 1377 03cb 04       		.byte	0x4
 1378 03cc 78030000 		.4byte	0x378
 1379 03d0 11       		.uleb128 0x11
 1380 03d1 54070000 		.4byte	.LASF256
 1381 03d5 01       		.byte	0x1
 1382 03d6 09       		.byte	0x9
 1383 03d7 8C       		.byte	0x8c
 1384 03d8 0B060000 		.4byte	0x60b
 1385 03dc 12       		.uleb128 0x12
 1386 03dd 6D040000 		.4byte	.LASF55
 1387 03e1 72       		.sleb128 -14
 1388 03e2 12       		.uleb128 0x12
 1389 03e3 AC040000 		.4byte	.LASF56
 1390 03e7 74       		.sleb128 -12
 1391 03e8 12       		.uleb128 0x12
 1392 03e9 76050000 		.4byte	.LASF57
 1393 03ed 75       		.sleb128 -11
 1394 03ee 12       		.uleb128 0x12
 1395 03ef 3F030000 		.4byte	.LASF58
 1396 03f3 76       		.sleb128 -10
 1397 03f4 12       		.uleb128 0x12
 1398 03f5 12060000 		.4byte	.LASF59
 1399 03f9 7B       		.sleb128 -5
 1400 03fa 12       		.uleb128 0x12
 1401 03fb 4D090000 		.4byte	.LASF60
 1402 03ff 7C       		.sleb128 -4
 1403 0400 12       		.uleb128 0x12
ARM GAS  /tmp/ccYEievQ.s 			page 26


 1404 0401 ED0A0000 		.4byte	.LASF61
 1405 0405 7E       		.sleb128 -2
 1406 0406 12       		.uleb128 0x12
 1407 0407 18020000 		.4byte	.LASF62
 1408 040b 7F       		.sleb128 -1
 1409 040c 12       		.uleb128 0x12
 1410 040d 81040000 		.4byte	.LASF63
 1411 0411 00       		.sleb128 0
 1412 0412 12       		.uleb128 0x12
 1413 0413 EC080000 		.4byte	.LASF64
 1414 0417 01       		.sleb128 1
 1415 0418 12       		.uleb128 0x12
 1416 0419 C2040000 		.4byte	.LASF65
 1417 041d 02       		.sleb128 2
 1418 041e 12       		.uleb128 0x12
 1419 041f 3B0A0000 		.4byte	.LASF66
 1420 0423 03       		.sleb128 3
 1421 0424 12       		.uleb128 0x12
 1422 0425 C9000000 		.4byte	.LASF67
 1423 0429 04       		.sleb128 4
 1424 042a 12       		.uleb128 0x12
 1425 042b A5090000 		.4byte	.LASF68
 1426 042f 05       		.sleb128 5
 1427 0430 12       		.uleb128 0x12
 1428 0431 FF080000 		.4byte	.LASF69
 1429 0435 06       		.sleb128 6
 1430 0436 12       		.uleb128 0x12
 1431 0437 0D040000 		.4byte	.LASF70
 1432 043b 07       		.sleb128 7
 1433 043c 12       		.uleb128 0x12
 1434 043d 78080000 		.4byte	.LASF71
 1435 0441 08       		.sleb128 8
 1436 0442 12       		.uleb128 0x12
 1437 0443 E20A0000 		.4byte	.LASF72
 1438 0447 09       		.sleb128 9
 1439 0448 12       		.uleb128 0x12
 1440 0449 AD0A0000 		.4byte	.LASF73
 1441 044d 0A       		.sleb128 10
 1442 044e 12       		.uleb128 0x12
 1443 044f CA070000 		.4byte	.LASF74
 1444 0453 0B       		.sleb128 11
 1445 0454 12       		.uleb128 0x12
 1446 0455 F1060000 		.4byte	.LASF75
 1447 0459 0C       		.sleb128 12
 1448 045a 12       		.uleb128 0x12
 1449 045b 76020000 		.4byte	.LASF76
 1450 045f 0D       		.sleb128 13
 1451 0460 12       		.uleb128 0x12
 1452 0461 CB090000 		.4byte	.LASF77
 1453 0465 0E       		.sleb128 14
 1454 0466 12       		.uleb128 0x12
 1455 0467 12090000 		.4byte	.LASF78
 1456 046b 0F       		.sleb128 15
 1457 046c 12       		.uleb128 0x12
 1458 046d 25040000 		.4byte	.LASF79
 1459 0471 10       		.sleb128 16
 1460 0472 12       		.uleb128 0x12
ARM GAS  /tmp/ccYEievQ.s 			page 27


 1461 0473 59070000 		.4byte	.LASF80
 1462 0477 11       		.sleb128 17
 1463 0478 12       		.uleb128 0x12
 1464 0479 AF080000 		.4byte	.LASF81
 1465 047d 12       		.sleb128 18
 1466 047e 12       		.uleb128 0x12
 1467 047f 18040000 		.4byte	.LASF82
 1468 0483 13       		.sleb128 19
 1469 0484 12       		.uleb128 0x12
 1470 0485 71030000 		.4byte	.LASF83
 1471 0489 14       		.sleb128 20
 1472 048a 12       		.uleb128 0x12
 1473 048b 630A0000 		.4byte	.LASF84
 1474 048f 15       		.sleb128 21
 1475 0490 12       		.uleb128 0x12
 1476 0491 D2040000 		.4byte	.LASF85
 1477 0495 16       		.sleb128 22
 1478 0496 12       		.uleb128 0x12
 1479 0497 7E0A0000 		.4byte	.LASF86
 1480 049b 17       		.sleb128 23
 1481 049c 12       		.uleb128 0x12
 1482 049d 97050000 		.4byte	.LASF87
 1483 04a1 18       		.sleb128 24
 1484 04a2 12       		.uleb128 0x12
 1485 04a3 FF090000 		.4byte	.LASF88
 1486 04a7 19       		.sleb128 25
 1487 04a8 12       		.uleb128 0x12
 1488 04a9 D8010000 		.4byte	.LASF89
 1489 04ad 1A       		.sleb128 26
 1490 04ae 12       		.uleb128 0x12
 1491 04af F2030000 		.4byte	.LASF90
 1492 04b3 1B       		.sleb128 27
 1493 04b4 12       		.uleb128 0x12
 1494 04b5 EB000000 		.4byte	.LASF91
 1495 04b9 1C       		.sleb128 28
 1496 04ba 12       		.uleb128 0x12
 1497 04bb 57080000 		.4byte	.LASF92
 1498 04bf 1D       		.sleb128 29
 1499 04c0 12       		.uleb128 0x12
 1500 04c1 98030000 		.4byte	.LASF93
 1501 04c5 1E       		.sleb128 30
 1502 04c6 12       		.uleb128 0x12
 1503 04c7 C2030000 		.4byte	.LASF94
 1504 04cb 1F       		.sleb128 31
 1505 04cc 12       		.uleb128 0x12
 1506 04cd E5020000 		.4byte	.LASF95
 1507 04d1 20       		.sleb128 32
 1508 04d2 12       		.uleb128 0x12
 1509 04d3 B4060000 		.4byte	.LASF96
 1510 04d7 21       		.sleb128 33
 1511 04d8 12       		.uleb128 0x12
 1512 04d9 24050000 		.4byte	.LASF97
 1513 04dd 22       		.sleb128 34
 1514 04de 12       		.uleb128 0x12
 1515 04df F0050000 		.4byte	.LASF98
 1516 04e3 23       		.sleb128 35
 1517 04e4 12       		.uleb128 0x12
ARM GAS  /tmp/ccYEievQ.s 			page 28


 1518 04e5 5B010000 		.4byte	.LASF99
 1519 04e9 24       		.sleb128 36
 1520 04ea 12       		.uleb128 0x12
 1521 04eb 61080000 		.4byte	.LASF100
 1522 04ef 25       		.sleb128 37
 1523 04f0 12       		.uleb128 0x12
 1524 04f1 A2030000 		.4byte	.LASF101
 1525 04f5 26       		.sleb128 38
 1526 04f6 12       		.uleb128 0x12
 1527 04f7 25020000 		.4byte	.LASF102
 1528 04fb 27       		.sleb128 39
 1529 04fc 12       		.uleb128 0x12
 1530 04fd 1A080000 		.4byte	.LASF103
 1531 0501 28       		.sleb128 40
 1532 0502 12       		.uleb128 0x12
 1533 0503 F4070000 		.4byte	.LASF104
 1534 0507 29       		.sleb128 41
 1535 0508 12       		.uleb128 0x12
 1536 0509 5B060000 		.4byte	.LASF105
 1537 050d 2A       		.sleb128 42
 1538 050e 12       		.uleb128 0x12
 1539 050f 65010000 		.4byte	.LASF106
 1540 0513 2B       		.sleb128 43
 1541 0514 12       		.uleb128 0x12
 1542 0515 0C000000 		.4byte	.LASF107
 1543 0519 2C       		.sleb128 44
 1544 051a 12       		.uleb128 0x12
 1545 051b 37040000 		.4byte	.LASF108
 1546 051f 2D       		.sleb128 45
 1547 0520 12       		.uleb128 0x12
 1548 0521 CB0A0000 		.4byte	.LASF109
 1549 0525 2E       		.sleb128 46
 1550 0526 12       		.uleb128 0x12
 1551 0527 0C0B0000 		.4byte	.LASF110
 1552 052b 2F       		.sleb128 47
 1553 052c 12       		.uleb128 0x12
 1554 052d F5080000 		.4byte	.LASF111
 1555 0531 30       		.sleb128 48
 1556 0532 12       		.uleb128 0x12
 1557 0533 D80A0000 		.4byte	.LASF112
 1558 0537 31       		.sleb128 49
 1559 0538 12       		.uleb128 0x12
 1560 0539 29030000 		.4byte	.LASF113
 1561 053d 32       		.sleb128 50
 1562 053e 12       		.uleb128 0x12
 1563 053f BF000000 		.4byte	.LASF114
 1564 0543 33       		.sleb128 51
 1565 0544 12       		.uleb128 0x12
 1566 0545 3C060000 		.4byte	.LASF115
 1567 0549 34       		.sleb128 52
 1568 054a 12       		.uleb128 0x12
 1569 054b 8C050000 		.4byte	.LASF116
 1570 054f 35       		.sleb128 53
 1571 0550 12       		.uleb128 0x12
 1572 0551 8B060000 		.4byte	.LASF117
 1573 0555 36       		.sleb128 54
 1574 0556 12       		.uleb128 0x12
ARM GAS  /tmp/ccYEievQ.s 			page 29


 1575 0557 B0050000 		.4byte	.LASF118
 1576 055b 37       		.sleb128 55
 1577 055c 12       		.uleb128 0x12
 1578 055d F3040000 		.4byte	.LASF119
 1579 0561 38       		.sleb128 56
 1580 0562 12       		.uleb128 0x12
 1581 0563 AD000000 		.4byte	.LASF120
 1582 0567 39       		.sleb128 57
 1583 0568 12       		.uleb128 0x12
 1584 0569 6C0B0000 		.4byte	.LASF121
 1585 056d 3A       		.sleb128 58
 1586 056e 12       		.uleb128 0x12
 1587 056f 03070000 		.4byte	.LASF122
 1588 0573 3B       		.sleb128 59
 1589 0574 12       		.uleb128 0x12
 1590 0575 AA020000 		.4byte	.LASF123
 1591 0579 3C       		.sleb128 60
 1592 057a 12       		.uleb128 0x12
 1593 057b 86090000 		.4byte	.LASF124
 1594 057f 3D       		.sleb128 61
 1595 0580 12       		.uleb128 0x12
 1596 0581 C8050000 		.4byte	.LASF125
 1597 0585 3E       		.sleb128 62
 1598 0586 12       		.uleb128 0x12
 1599 0587 15070000 		.4byte	.LASF126
 1600 058b 3F       		.sleb128 63
 1601 058c 12       		.uleb128 0x12
 1602 058d 13010000 		.4byte	.LASF127
 1603 0591 C000     		.sleb128 64
 1604 0593 12       		.uleb128 0x12
 1605 0594 9A080000 		.4byte	.LASF128
 1606 0598 C100     		.sleb128 65
 1607 059a 12       		.uleb128 0x12
 1608 059b FD020000 		.4byte	.LASF129
 1609 059f C200     		.sleb128 66
 1610 05a1 12       		.uleb128 0x12
 1611 05a2 61040000 		.4byte	.LASF130
 1612 05a6 C300     		.sleb128 67
 1613 05a8 12       		.uleb128 0x12
 1614 05a9 AA010000 		.4byte	.LASF131
 1615 05ad C400     		.sleb128 68
 1616 05af 12       		.uleb128 0x12
 1617 05b0 33090000 		.4byte	.LASF132
 1618 05b4 C500     		.sleb128 69
 1619 05b6 12       		.uleb128 0x12
 1620 05b7 4F040000 		.4byte	.LASF133
 1621 05bb C600     		.sleb128 70
 1622 05bd 12       		.uleb128 0x12
 1623 05be 21010000 		.4byte	.LASF134
 1624 05c2 C700     		.sleb128 71
 1625 05c4 12       		.uleb128 0x12
 1626 05c5 5F090000 		.4byte	.LASF135
 1627 05c9 C800     		.sleb128 72
 1628 05cb 12       		.uleb128 0x12
 1629 05cc 03080000 		.4byte	.LASF136
 1630 05d0 C900     		.sleb128 73
 1631 05d2 12       		.uleb128 0x12
ARM GAS  /tmp/ccYEievQ.s 			page 30


 1632 05d3 270A0000 		.4byte	.LASF137
 1633 05d7 CA00     		.sleb128 74
 1634 05d9 12       		.uleb128 0x12
 1635 05da F90A0000 		.4byte	.LASF138
 1636 05de CB00     		.sleb128 75
 1637 05e0 12       		.uleb128 0x12
 1638 05e1 4A010000 		.4byte	.LASF139
 1639 05e5 CC00     		.sleb128 76
 1640 05e7 12       		.uleb128 0x12
 1641 05e8 D6050000 		.4byte	.LASF140
 1642 05ec CD00     		.sleb128 77
 1643 05ee 12       		.uleb128 0x12
 1644 05ef D4000000 		.4byte	.LASF141
 1645 05f3 CE00     		.sleb128 78
 1646 05f5 12       		.uleb128 0x12
 1647 05f6 10080000 		.4byte	.LASF142
 1648 05fa CF00     		.sleb128 79
 1649 05fc 12       		.uleb128 0x12
 1650 05fd FF030000 		.4byte	.LASF143
 1651 0601 D000     		.sleb128 80
 1652 0603 12       		.uleb128 0x12
 1653 0604 33060000 		.4byte	.LASF144
 1654 0608 D100     		.sleb128 81
 1655 060a 00       		.byte	0
 1656 060b 13       		.uleb128 0x13
 1657 060c 82000000 		.4byte	0x82
 1658 0610 1B060000 		.4byte	0x61b
 1659 0614 14       		.uleb128 0x14
 1660 0615 37000000 		.4byte	0x37
 1661 0619 01       		.byte	0x1
 1662 061a 00       		.byte	0
 1663 061b 0D       		.uleb128 0xd
 1664 061c 70000000 		.4byte	0x70
 1665 0620 15       		.uleb128 0x15
 1666 0621 50       		.byte	0x50
 1667 0622 09       		.byte	0x9
 1668 0623 2C01     		.2byte	0x12c
 1669 0625 54070000 		.4byte	0x754
 1670 0629 0B       		.uleb128 0xb
 1671 062a 535200   		.ascii	"SR\000"
 1672 062d 09       		.byte	0x9
 1673 062e 2E01     		.2byte	0x12e
 1674 0630 31030000 		.4byte	0x331
 1675 0634 02       		.byte	0x2
 1676 0635 23       		.byte	0x23
 1677 0636 00       		.uleb128 0
 1678 0637 0B       		.uleb128 0xb
 1679 0638 43523100 		.ascii	"CR1\000"
 1680 063c 09       		.byte	0x9
 1681 063d 2F01     		.2byte	0x12f
 1682 063f 31030000 		.4byte	0x331
 1683 0643 02       		.byte	0x2
 1684 0644 23       		.byte	0x23
 1685 0645 04       		.uleb128 0x4
 1686 0646 0B       		.uleb128 0xb
 1687 0647 43523200 		.ascii	"CR2\000"
 1688 064b 09       		.byte	0x9
ARM GAS  /tmp/ccYEievQ.s 			page 31


 1689 064c 3001     		.2byte	0x130
 1690 064e 31030000 		.4byte	0x331
 1691 0652 02       		.byte	0x2
 1692 0653 23       		.byte	0x23
 1693 0654 08       		.uleb128 0x8
 1694 0655 16       		.uleb128 0x16
 1695 0656 05050000 		.4byte	.LASF145
 1696 065a 09       		.byte	0x9
 1697 065b 3101     		.2byte	0x131
 1698 065d 31030000 		.4byte	0x331
 1699 0661 02       		.byte	0x2
 1700 0662 23       		.byte	0x23
 1701 0663 0C       		.uleb128 0xc
 1702 0664 16       		.uleb128 0x16
 1703 0665 0B050000 		.4byte	.LASF146
 1704 0669 09       		.byte	0x9
 1705 066a 3201     		.2byte	0x132
 1706 066c 31030000 		.4byte	0x331
 1707 0670 02       		.byte	0x2
 1708 0671 23       		.byte	0x23
 1709 0672 10       		.uleb128 0x10
 1710 0673 16       		.uleb128 0x16
 1711 0674 B3090000 		.4byte	.LASF147
 1712 0678 09       		.byte	0x9
 1713 0679 3301     		.2byte	0x133
 1714 067b 31030000 		.4byte	0x331
 1715 067f 02       		.byte	0x2
 1716 0680 23       		.byte	0x23
 1717 0681 14       		.uleb128 0x14
 1718 0682 16       		.uleb128 0x16
 1719 0683 B9090000 		.4byte	.LASF148
 1720 0687 09       		.byte	0x9
 1721 0688 3401     		.2byte	0x134
 1722 068a 31030000 		.4byte	0x331
 1723 068e 02       		.byte	0x2
 1724 068f 23       		.byte	0x23
 1725 0690 18       		.uleb128 0x18
 1726 0691 16       		.uleb128 0x16
 1727 0692 BF090000 		.4byte	.LASF149
 1728 0696 09       		.byte	0x9
 1729 0697 3501     		.2byte	0x135
 1730 0699 31030000 		.4byte	0x331
 1731 069d 02       		.byte	0x2
 1732 069e 23       		.byte	0x23
 1733 069f 1C       		.uleb128 0x1c
 1734 06a0 16       		.uleb128 0x16
 1735 06a1 C5090000 		.4byte	.LASF150
 1736 06a5 09       		.byte	0x9
 1737 06a6 3601     		.2byte	0x136
 1738 06a8 31030000 		.4byte	0x331
 1739 06ac 02       		.byte	0x2
 1740 06ad 23       		.byte	0x23
 1741 06ae 20       		.uleb128 0x20
 1742 06af 0B       		.uleb128 0xb
 1743 06b0 48545200 		.ascii	"HTR\000"
 1744 06b4 09       		.byte	0x9
 1745 06b5 3701     		.2byte	0x137
ARM GAS  /tmp/ccYEievQ.s 			page 32


 1746 06b7 31030000 		.4byte	0x331
 1747 06bb 02       		.byte	0x2
 1748 06bc 23       		.byte	0x23
 1749 06bd 24       		.uleb128 0x24
 1750 06be 0B       		.uleb128 0xb
 1751 06bf 4C545200 		.ascii	"LTR\000"
 1752 06c3 09       		.byte	0x9
 1753 06c4 3801     		.2byte	0x138
 1754 06c6 31030000 		.4byte	0x331
 1755 06ca 02       		.byte	0x2
 1756 06cb 23       		.byte	0x23
 1757 06cc 28       		.uleb128 0x28
 1758 06cd 16       		.uleb128 0x16
 1759 06ce 6D000000 		.4byte	.LASF151
 1760 06d2 09       		.byte	0x9
 1761 06d3 3901     		.2byte	0x139
 1762 06d5 31030000 		.4byte	0x331
 1763 06d9 02       		.byte	0x2
 1764 06da 23       		.byte	0x23
 1765 06db 2C       		.uleb128 0x2c
 1766 06dc 16       		.uleb128 0x16
 1767 06dd 72000000 		.4byte	.LASF152
 1768 06e1 09       		.byte	0x9
 1769 06e2 3A01     		.2byte	0x13a
 1770 06e4 31030000 		.4byte	0x331
 1771 06e8 02       		.byte	0x2
 1772 06e9 23       		.byte	0x23
 1773 06ea 30       		.uleb128 0x30
 1774 06eb 16       		.uleb128 0x16
 1775 06ec 77000000 		.4byte	.LASF153
 1776 06f0 09       		.byte	0x9
 1777 06f1 3B01     		.2byte	0x13b
 1778 06f3 31030000 		.4byte	0x331
 1779 06f7 02       		.byte	0x2
 1780 06f8 23       		.byte	0x23
 1781 06f9 34       		.uleb128 0x34
 1782 06fa 16       		.uleb128 0x16
 1783 06fb FA090000 		.4byte	.LASF154
 1784 06ff 09       		.byte	0x9
 1785 0700 3C01     		.2byte	0x13c
 1786 0702 31030000 		.4byte	0x331
 1787 0706 02       		.byte	0x2
 1788 0707 23       		.byte	0x23
 1789 0708 38       		.uleb128 0x38
 1790 0709 16       		.uleb128 0x16
 1791 070a E4090000 		.4byte	.LASF155
 1792 070e 09       		.byte	0x9
 1793 070f 3D01     		.2byte	0x13d
 1794 0711 31030000 		.4byte	0x331
 1795 0715 02       		.byte	0x2
 1796 0716 23       		.byte	0x23
 1797 0717 3C       		.uleb128 0x3c
 1798 0718 16       		.uleb128 0x16
 1799 0719 E9090000 		.4byte	.LASF156
 1800 071d 09       		.byte	0x9
 1801 071e 3E01     		.2byte	0x13e
 1802 0720 31030000 		.4byte	0x331
ARM GAS  /tmp/ccYEievQ.s 			page 33


 1803 0724 02       		.byte	0x2
 1804 0725 23       		.byte	0x23
 1805 0726 40       		.uleb128 0x40
 1806 0727 16       		.uleb128 0x16
 1807 0728 EE090000 		.4byte	.LASF157
 1808 072c 09       		.byte	0x9
 1809 072d 3F01     		.2byte	0x13f
 1810 072f 31030000 		.4byte	0x331
 1811 0733 02       		.byte	0x2
 1812 0734 23       		.byte	0x23
 1813 0735 44       		.uleb128 0x44
 1814 0736 16       		.uleb128 0x16
 1815 0737 35010000 		.4byte	.LASF158
 1816 073b 09       		.byte	0x9
 1817 073c 4001     		.2byte	0x140
 1818 073e 31030000 		.4byte	0x331
 1819 0742 02       		.byte	0x2
 1820 0743 23       		.byte	0x23
 1821 0744 48       		.uleb128 0x48
 1822 0745 0B       		.uleb128 0xb
 1823 0746 445200   		.ascii	"DR\000"
 1824 0749 09       		.byte	0x9
 1825 074a 4101     		.2byte	0x141
 1826 074c 31030000 		.4byte	0x331
 1827 0750 02       		.byte	0x2
 1828 0751 23       		.byte	0x23
 1829 0752 4C       		.uleb128 0x4c
 1830 0753 00       		.byte	0
 1831 0754 17       		.uleb128 0x17
 1832 0755 CF030000 		.4byte	.LASF159
 1833 0759 09       		.byte	0x9
 1834 075a 4201     		.2byte	0x142
 1835 075c 20060000 		.4byte	0x620
 1836 0760 15       		.uleb128 0x15
 1837 0761 0C       		.byte	0xc
 1838 0762 09       		.byte	0x9
 1839 0763 4401     		.2byte	0x144
 1840 0765 97070000 		.4byte	0x797
 1841 0769 0B       		.uleb128 0xb
 1842 076a 43535200 		.ascii	"CSR\000"
 1843 076e 09       		.byte	0x9
 1844 076f 4601     		.2byte	0x146
 1845 0771 31030000 		.4byte	0x331
 1846 0775 02       		.byte	0x2
 1847 0776 23       		.byte	0x23
 1848 0777 00       		.uleb128 0
 1849 0778 0B       		.uleb128 0xb
 1850 0779 43435200 		.ascii	"CCR\000"
 1851 077d 09       		.byte	0x9
 1852 077e 4701     		.2byte	0x147
 1853 0780 31030000 		.4byte	0x331
 1854 0784 02       		.byte	0x2
 1855 0785 23       		.byte	0x23
 1856 0786 04       		.uleb128 0x4
 1857 0787 0B       		.uleb128 0xb
 1858 0788 43445200 		.ascii	"CDR\000"
 1859 078c 09       		.byte	0x9
ARM GAS  /tmp/ccYEievQ.s 			page 34


 1860 078d 4801     		.2byte	0x148
 1861 078f 31030000 		.4byte	0x331
 1862 0793 02       		.byte	0x2
 1863 0794 23       		.byte	0x23
 1864 0795 08       		.uleb128 0x8
 1865 0796 00       		.byte	0
 1866 0797 17       		.uleb128 0x17
 1867 0798 270B0000 		.4byte	.LASF160
 1868 079c 09       		.byte	0x9
 1869 079d 4A01     		.2byte	0x14a
 1870 079f 60070000 		.4byte	0x760
 1871 07a3 15       		.uleb128 0x15
 1872 07a4 18       		.byte	0x18
 1873 07a5 09       		.byte	0x9
 1874 07a6 D301     		.2byte	0x1d3
 1875 07a8 06080000 		.4byte	0x806
 1876 07ac 0B       		.uleb128 0xb
 1877 07ad 435200   		.ascii	"CR\000"
 1878 07b0 09       		.byte	0x9
 1879 07b1 D501     		.2byte	0x1d5
 1880 07b3 31030000 		.4byte	0x331
 1881 07b7 02       		.byte	0x2
 1882 07b8 23       		.byte	0x23
 1883 07b9 00       		.uleb128 0
 1884 07ba 16       		.uleb128 0x16
 1885 07bb 550A0000 		.4byte	.LASF161
 1886 07bf 09       		.byte	0x9
 1887 07c0 D601     		.2byte	0x1d6
 1888 07c2 31030000 		.4byte	0x331
 1889 07c6 02       		.byte	0x2
 1890 07c7 23       		.byte	0x23
 1891 07c8 04       		.uleb128 0x4
 1892 07c9 0B       		.uleb128 0xb
 1893 07ca 50415200 		.ascii	"PAR\000"
 1894 07ce 09       		.byte	0x9
 1895 07cf D701     		.2byte	0x1d7
 1896 07d1 31030000 		.4byte	0x331
 1897 07d5 02       		.byte	0x2
 1898 07d6 23       		.byte	0x23
 1899 07d7 08       		.uleb128 0x8
 1900 07d8 16       		.uleb128 0x16
 1901 07d9 81090000 		.4byte	.LASF162
 1902 07dd 09       		.byte	0x9
 1903 07de D801     		.2byte	0x1d8
 1904 07e0 31030000 		.4byte	0x331
 1905 07e4 02       		.byte	0x2
 1906 07e5 23       		.byte	0x23
 1907 07e6 0C       		.uleb128 0xc
 1908 07e7 16       		.uleb128 0x16
 1909 07e8 00000000 		.4byte	.LASF163
 1910 07ec 09       		.byte	0x9
 1911 07ed D901     		.2byte	0x1d9
 1912 07ef 31030000 		.4byte	0x331
 1913 07f3 02       		.byte	0x2
 1914 07f4 23       		.byte	0x23
 1915 07f5 10       		.uleb128 0x10
 1916 07f6 0B       		.uleb128 0xb
ARM GAS  /tmp/ccYEievQ.s 			page 35


 1917 07f7 46435200 		.ascii	"FCR\000"
 1918 07fb 09       		.byte	0x9
 1919 07fc DA01     		.2byte	0x1da
 1920 07fe 31030000 		.4byte	0x331
 1921 0802 02       		.byte	0x2
 1922 0803 23       		.byte	0x23
 1923 0804 14       		.uleb128 0x14
 1924 0805 00       		.byte	0
 1925 0806 17       		.uleb128 0x17
 1926 0807 3A070000 		.4byte	.LASF164
 1927 080b 09       		.byte	0x9
 1928 080c DB01     		.2byte	0x1db
 1929 080e A3070000 		.4byte	0x7a3
 1930 0812 15       		.uleb128 0x15
 1931 0813 88       		.byte	0x88
 1932 0814 09       		.byte	0x9
 1933 0815 DB02     		.2byte	0x2db
 1934 0817 DF090000 		.4byte	0x9df
 1935 081b 0B       		.uleb128 0xb
 1936 081c 435200   		.ascii	"CR\000"
 1937 081f 09       		.byte	0x9
 1938 0820 DD02     		.2byte	0x2dd
 1939 0822 31030000 		.4byte	0x331
 1940 0826 02       		.byte	0x2
 1941 0827 23       		.byte	0x23
 1942 0828 00       		.uleb128 0
 1943 0829 16       		.uleb128 0x16
 1944 082a 84050000 		.4byte	.LASF165
 1945 082e 09       		.byte	0x9
 1946 082f DE02     		.2byte	0x2de
 1947 0831 31030000 		.4byte	0x331
 1948 0835 02       		.byte	0x2
 1949 0836 23       		.byte	0x23
 1950 0837 04       		.uleb128 0x4
 1951 0838 16       		.uleb128 0x16
 1952 0839 ED030000 		.4byte	.LASF166
 1953 083d 09       		.byte	0x9
 1954 083e DF02     		.2byte	0x2df
 1955 0840 31030000 		.4byte	0x331
 1956 0844 02       		.byte	0x2
 1957 0845 23       		.byte	0x23
 1958 0846 08       		.uleb128 0x8
 1959 0847 0B       		.uleb128 0xb
 1960 0848 43495200 		.ascii	"CIR\000"
 1961 084c 09       		.byte	0x9
 1962 084d E002     		.2byte	0x2e0
 1963 084f 31030000 		.4byte	0x331
 1964 0853 02       		.byte	0x2
 1965 0854 23       		.byte	0x23
 1966 0855 0C       		.uleb128 0xc
 1967 0856 16       		.uleb128 0x16
 1968 0857 1E0B0000 		.4byte	.LASF167
 1969 085b 09       		.byte	0x9
 1970 085c E102     		.2byte	0x2e1
 1971 085e 31030000 		.4byte	0x331
 1972 0862 02       		.byte	0x2
 1973 0863 23       		.byte	0x23
ARM GAS  /tmp/ccYEievQ.s 			page 36


 1974 0864 10       		.uleb128 0x10
 1975 0865 16       		.uleb128 0x16
 1976 0866 71090000 		.4byte	.LASF168
 1977 086a 09       		.byte	0x9
 1978 086b E202     		.2byte	0x2e2
 1979 086d 31030000 		.4byte	0x331
 1980 0871 02       		.byte	0x2
 1981 0872 23       		.byte	0x23
 1982 0873 14       		.uleb128 0x14
 1983 0874 16       		.uleb128 0x16
 1984 0875 6B070000 		.4byte	.LASF169
 1985 0879 09       		.byte	0x9
 1986 087a E302     		.2byte	0x2e3
 1987 087c 31030000 		.4byte	0x331
 1988 0880 02       		.byte	0x2
 1989 0881 23       		.byte	0x23
 1990 0882 18       		.uleb128 0x18
 1991 0883 16       		.uleb128 0x16
 1992 0884 88020000 		.4byte	.LASF170
 1993 0888 09       		.byte	0x9
 1994 0889 E402     		.2byte	0x2e4
 1995 088b 82000000 		.4byte	0x82
 1996 088f 02       		.byte	0x2
 1997 0890 23       		.byte	0x23
 1998 0891 1C       		.uleb128 0x1c
 1999 0892 16       		.uleb128 0x16
 2000 0893 DC070000 		.4byte	.LASF171
 2001 0897 09       		.byte	0x9
 2002 0898 E502     		.2byte	0x2e5
 2003 089a 31030000 		.4byte	0x331
 2004 089e 02       		.byte	0x2
 2005 089f 23       		.byte	0x23
 2006 08a0 20       		.uleb128 0x20
 2007 08a1 16       		.uleb128 0x16
 2008 08a2 1E060000 		.4byte	.LASF172
 2009 08a6 09       		.byte	0x9
 2010 08a7 E602     		.2byte	0x2e6
 2011 08a9 31030000 		.4byte	0x331
 2012 08ad 02       		.byte	0x2
 2013 08ae 23       		.byte	0x23
 2014 08af 24       		.uleb128 0x24
 2015 08b0 16       		.uleb128 0x16
 2016 08b1 92020000 		.4byte	.LASF173
 2017 08b5 09       		.byte	0x9
 2018 08b6 E702     		.2byte	0x2e7
 2019 08b8 0B060000 		.4byte	0x60b
 2020 08bc 02       		.byte	0x2
 2021 08bd 23       		.byte	0x23
 2022 08be 28       		.uleb128 0x28
 2023 08bf 16       		.uleb128 0x16
 2024 08c0 45090000 		.4byte	.LASF174
 2025 08c4 09       		.byte	0x9
 2026 08c5 E802     		.2byte	0x2e8
 2027 08c7 31030000 		.4byte	0x331
 2028 08cb 02       		.byte	0x2
 2029 08cc 23       		.byte	0x23
 2030 08cd 30       		.uleb128 0x30
ARM GAS  /tmp/ccYEievQ.s 			page 37


 2031 08ce 16       		.uleb128 0x16
 2032 08cf 62030000 		.4byte	.LASF175
 2033 08d3 09       		.byte	0x9
 2034 08d4 E902     		.2byte	0x2e9
 2035 08d6 31030000 		.4byte	0x331
 2036 08da 02       		.byte	0x2
 2037 08db 23       		.byte	0x23
 2038 08dc 34       		.uleb128 0x34
 2039 08dd 16       		.uleb128 0x16
 2040 08de 640B0000 		.4byte	.LASF176
 2041 08e2 09       		.byte	0x9
 2042 08e3 EA02     		.2byte	0x2ea
 2043 08e5 31030000 		.4byte	0x331
 2044 08e9 02       		.byte	0x2
 2045 08ea 23       		.byte	0x23
 2046 08eb 38       		.uleb128 0x38
 2047 08ec 16       		.uleb128 0x16
 2048 08ed 15030000 		.4byte	.LASF177
 2049 08f1 09       		.byte	0x9
 2050 08f2 EB02     		.2byte	0x2eb
 2051 08f4 82000000 		.4byte	0x82
 2052 08f8 02       		.byte	0x2
 2053 08f9 23       		.byte	0x23
 2054 08fa 3C       		.uleb128 0x3c
 2055 08fb 16       		.uleb128 0x16
 2056 08fc 9D040000 		.4byte	.LASF178
 2057 0900 09       		.byte	0x9
 2058 0901 EC02     		.2byte	0x2ec
 2059 0903 31030000 		.4byte	0x331
 2060 0907 02       		.byte	0x2
 2061 0908 23       		.byte	0x23
 2062 0909 40       		.uleb128 0x40
 2063 090a 16       		.uleb128 0x16
 2064 090b 06020000 		.4byte	.LASF179
 2065 090f 09       		.byte	0x9
 2066 0910 ED02     		.2byte	0x2ed
 2067 0912 31030000 		.4byte	0x331
 2068 0916 02       		.byte	0x2
 2069 0917 23       		.byte	0x23
 2070 0918 44       		.uleb128 0x44
 2071 0919 16       		.uleb128 0x16
 2072 091a 1F030000 		.4byte	.LASF180
 2073 091e 09       		.byte	0x9
 2074 091f EE02     		.2byte	0x2ee
 2075 0921 0B060000 		.4byte	0x60b
 2076 0925 02       		.byte	0x2
 2077 0926 23       		.byte	0x23
 2078 0927 48       		.uleb128 0x48
 2079 0928 16       		.uleb128 0x16
 2080 0929 0E020000 		.4byte	.LASF181
 2081 092d 09       		.byte	0x9
 2082 092e EF02     		.2byte	0x2ef
 2083 0930 31030000 		.4byte	0x331
 2084 0934 02       		.byte	0x2
 2085 0935 23       		.byte	0x23
 2086 0936 50       		.uleb128 0x50
 2087 0937 16       		.uleb128 0x16
ARM GAS  /tmp/ccYEievQ.s 			page 38


 2088 0938 79010000 		.4byte	.LASF182
 2089 093c 09       		.byte	0x9
 2090 093d F002     		.2byte	0x2f0
 2091 093f 31030000 		.4byte	0x331
 2092 0943 02       		.byte	0x2
 2093 0944 23       		.byte	0x23
 2094 0945 54       		.uleb128 0x54
 2095 0946 16       		.uleb128 0x16
 2096 0947 CE080000 		.4byte	.LASF183
 2097 094b 09       		.byte	0x9
 2098 094c F102     		.2byte	0x2f1
 2099 094e 31030000 		.4byte	0x331
 2100 0952 02       		.byte	0x2
 2101 0953 23       		.byte	0x23
 2102 0954 58       		.uleb128 0x58
 2103 0955 16       		.uleb128 0x16
 2104 0956 BC020000 		.4byte	.LASF184
 2105 095a 09       		.byte	0x9
 2106 095b F202     		.2byte	0x2f2
 2107 095d 82000000 		.4byte	0x82
 2108 0961 02       		.byte	0x2
 2109 0962 23       		.byte	0x23
 2110 0963 5C       		.uleb128 0x5c
 2111 0964 16       		.uleb128 0x16
 2112 0965 E7060000 		.4byte	.LASF185
 2113 0969 09       		.byte	0x9
 2114 096a F302     		.2byte	0x2f3
 2115 096c 31030000 		.4byte	0x331
 2116 0970 02       		.byte	0x2
 2117 0971 23       		.byte	0x23
 2118 0972 60       		.uleb128 0x60
 2119 0973 16       		.uleb128 0x16
 2120 0974 47060000 		.4byte	.LASF186
 2121 0978 09       		.byte	0x9
 2122 0979 F402     		.2byte	0x2f4
 2123 097b 31030000 		.4byte	0x331
 2124 097f 02       		.byte	0x2
 2125 0980 23       		.byte	0x23
 2126 0981 64       		.uleb128 0x64
 2127 0982 16       		.uleb128 0x16
 2128 0983 C6020000 		.4byte	.LASF187
 2129 0987 09       		.byte	0x9
 2130 0988 F502     		.2byte	0x2f5
 2131 098a 0B060000 		.4byte	0x60b
 2132 098e 02       		.byte	0x2
 2133 098f 23       		.byte	0x23
 2134 0990 68       		.uleb128 0x68
 2135 0991 16       		.uleb128 0x16
 2136 0992 B5030000 		.4byte	.LASF188
 2137 0996 09       		.byte	0x9
 2138 0997 F602     		.2byte	0x2f6
 2139 0999 31030000 		.4byte	0x331
 2140 099d 02       		.byte	0x2
 2141 099e 23       		.byte	0x23
 2142 099f 70       		.uleb128 0x70
 2143 09a0 0B       		.uleb128 0xb
 2144 09a1 43535200 		.ascii	"CSR\000"
ARM GAS  /tmp/ccYEievQ.s 			page 39


 2145 09a5 09       		.byte	0x9
 2146 09a6 F702     		.2byte	0x2f7
 2147 09a8 31030000 		.4byte	0x331
 2148 09ac 02       		.byte	0x2
 2149 09ad 23       		.byte	0x23
 2150 09ae 74       		.uleb128 0x74
 2151 09af 16       		.uleb128 0x16
 2152 09b0 D0020000 		.4byte	.LASF189
 2153 09b4 09       		.byte	0x9
 2154 09b5 F802     		.2byte	0x2f8
 2155 09b7 0B060000 		.4byte	0x60b
 2156 09bb 02       		.byte	0x2
 2157 09bc 23       		.byte	0x23
 2158 09bd 78       		.uleb128 0x78
 2159 09be 16       		.uleb128 0x16
 2160 09bf EA050000 		.4byte	.LASF190
 2161 09c3 09       		.byte	0x9
 2162 09c4 F902     		.2byte	0x2f9
 2163 09c6 31030000 		.4byte	0x331
 2164 09ca 03       		.byte	0x3
 2165 09cb 23       		.byte	0x23
 2166 09cc 8001     		.uleb128 0x80
 2167 09ce 16       		.uleb128 0x16
 2168 09cf 46000000 		.4byte	.LASF191
 2169 09d3 09       		.byte	0x9
 2170 09d4 FA02     		.2byte	0x2fa
 2171 09d6 31030000 		.4byte	0x331
 2172 09da 03       		.byte	0x3
 2173 09db 23       		.byte	0x23
 2174 09dc 8401     		.uleb128 0x84
 2175 09de 00       		.byte	0
 2176 09df 17       		.uleb128 0x17
 2177 09e0 8F090000 		.4byte	.LASF192
 2178 09e4 09       		.byte	0x9
 2179 09e5 FB02     		.2byte	0x2fb
 2180 09e7 12080000 		.4byte	0x812
 2181 09eb 08       		.uleb128 0x8
 2182 09ec 0C       		.byte	0xc
 2183 09ed 0A       		.byte	0xa
 2184 09ee E5       		.byte	0xe5
 2185 09ef 3A0A0000 		.4byte	0xa3a
 2186 09f3 06       		.uleb128 0x6
 2187 09f4 AE030000 		.4byte	.LASF193
 2188 09f8 0A       		.byte	0xa
 2189 09f9 E6       		.byte	0xe6
 2190 09fa 3A0A0000 		.4byte	0xa3a
 2191 09fe 02       		.byte	0x2
 2192 09ff 23       		.byte	0x23
 2193 0a00 00       		.uleb128 0
 2194 0a01 06       		.uleb128 0x6
 2195 0a02 3A0B0000 		.4byte	.LASF194
 2196 0a06 0A       		.byte	0xa
 2197 0a07 E7       		.byte	0xe7
 2198 0a08 400A0000 		.4byte	0xa40
 2199 0a0c 02       		.byte	0x2
 2200 0a0d 23       		.byte	0x23
 2201 0a0e 04       		.uleb128 0x4
ARM GAS  /tmp/ccYEievQ.s 			page 40


 2202 0a0f 06       		.uleb128 0x6
 2203 0a10 54030000 		.4byte	.LASF195
 2204 0a14 0A       		.byte	0xa
 2205 0a15 E8       		.byte	0xe8
 2206 0a16 45000000 		.4byte	0x45
 2207 0a1a 02       		.byte	0x2
 2208 0a1b 23       		.byte	0x23
 2209 0a1c 08       		.uleb128 0x8
 2210 0a1d 06       		.uleb128 0x6
 2211 0a1e 74060000 		.4byte	.LASF196
 2212 0a22 0A       		.byte	0xa
 2213 0a23 EA       		.byte	0xea
 2214 0a24 45000000 		.4byte	0x45
 2215 0a28 02       		.byte	0x2
 2216 0a29 23       		.byte	0x23
 2217 0a2a 09       		.uleb128 0x9
 2218 0a2b 06       		.uleb128 0x6
 2219 0a2c A8080000 		.4byte	.LASF197
 2220 0a30 0A       		.byte	0xa
 2221 0a31 EB       		.byte	0xeb
 2222 0a32 45000000 		.4byte	0x45
 2223 0a36 02       		.byte	0x2
 2224 0a37 23       		.byte	0x23
 2225 0a38 0A       		.uleb128 0xa
 2226 0a39 00       		.byte	0
 2227 0a3a 09       		.uleb128 0x9
 2228 0a3b 04       		.byte	0x4
 2229 0a3c 06080000 		.4byte	0x806
 2230 0a40 09       		.uleb128 0x9
 2231 0a41 04       		.byte	0x4
 2232 0a42 31030000 		.4byte	0x331
 2233 0a46 03       		.uleb128 0x3
 2234 0a47 11050000 		.4byte	.LASF198
 2235 0a4b 0A       		.byte	0xa
 2236 0a4c EC       		.byte	0xec
 2237 0a4d EB090000 		.4byte	0x9eb
 2238 0a51 03       		.uleb128 0x3
 2239 0a52 E5070000 		.4byte	.LASF199
 2240 0a56 0A       		.byte	0xa
 2241 0a57 F5       		.byte	0xf5
 2242 0a58 5C0A0000 		.4byte	0xa5c
 2243 0a5c 09       		.uleb128 0x9
 2244 0a5d 04       		.byte	0x4
 2245 0a5e 620A0000 		.4byte	0xa62
 2246 0a62 18       		.uleb128 0x18
 2247 0a63 01       		.byte	0x1
 2248 0a64 730A0000 		.4byte	0xa73
 2249 0a68 19       		.uleb128 0x19
 2250 0a69 7F020000 		.4byte	0x27f
 2251 0a6d 19       		.uleb128 0x19
 2252 0a6e 82000000 		.4byte	0x82
 2253 0a72 00       		.byte	0
 2254 0a73 1A       		.uleb128 0x1a
 2255 0a74 01       		.byte	0x1
 2256 0a75 0B       		.byte	0xb
 2257 0a76 55       		.byte	0x55
 2258 0a77 A00A0000 		.4byte	0xaa0
ARM GAS  /tmp/ccYEievQ.s 			page 41


 2259 0a7b 12       		.uleb128 0x12
 2260 0a7c F2020000 		.4byte	.LASF200
 2261 0a80 00       		.sleb128 0
 2262 0a81 12       		.uleb128 0x12
 2263 0a82 2A090000 		.4byte	.LASF201
 2264 0a86 01       		.sleb128 1
 2265 0a87 12       		.uleb128 0x12
 2266 0a88 0B030000 		.4byte	.LASF202
 2267 0a8c 02       		.sleb128 2
 2268 0a8d 12       		.uleb128 0x12
 2269 0a8e BF070000 		.4byte	.LASF203
 2270 0a92 03       		.sleb128 3
 2271 0a93 12       		.uleb128 0x12
 2272 0a94 44050000 		.4byte	.LASF204
 2273 0a98 04       		.sleb128 4
 2274 0a99 12       		.uleb128 0x12
 2275 0a9a 7F030000 		.4byte	.LASF205
 2276 0a9e 05       		.sleb128 5
 2277 0a9f 00       		.byte	0
 2278 0aa0 03       		.uleb128 0x3
 2279 0aa1 8F000000 		.4byte	.LASF206
 2280 0aa5 0B       		.byte	0xb
 2281 0aa6 5C       		.byte	0x5c
 2282 0aa7 730A0000 		.4byte	0xa73
 2283 0aab 17       		.uleb128 0x17
 2284 0aac 33030000 		.4byte	.LASF207
 2285 0ab0 0C       		.byte	0xc
 2286 0ab1 2E01     		.2byte	0x12e
 2287 0ab3 5E000000 		.4byte	0x5e
 2288 0ab7 17       		.uleb128 0x17
 2289 0ab8 99060000 		.4byte	.LASF208
 2290 0abc 0C       		.byte	0xc
 2291 0abd 3301     		.2byte	0x133
 2292 0abf 5E000000 		.4byte	0x5e
 2293 0ac3 1B       		.uleb128 0x1b
 2294 0ac4 01       		.byte	0x1
 2295 0ac5 0C       		.byte	0xc
 2296 0ac6 3A01     		.2byte	0x13a
 2297 0ac8 D90A0000 		.4byte	0xad9
 2298 0acc 12       		.uleb128 0x12
 2299 0acd 9A000000 		.4byte	.LASF209
 2300 0ad1 00       		.sleb128 0
 2301 0ad2 12       		.uleb128 0x12
 2302 0ad3 B8080000 		.4byte	.LASF210
 2303 0ad7 01       		.sleb128 1
 2304 0ad8 00       		.byte	0
 2305 0ad9 17       		.uleb128 0x17
 2306 0ada DA020000 		.4byte	.LASF211
 2307 0ade 0C       		.byte	0xc
 2308 0adf 3D01     		.2byte	0x13d
 2309 0ae1 C30A0000 		.4byte	0xac3
 2310 0ae5 17       		.uleb128 0x17
 2311 0ae6 83080000 		.4byte	.LASF212
 2312 0aea 0C       		.byte	0xc
 2313 0aeb 4201     		.2byte	0x142
 2314 0aed F10A0000 		.4byte	0xaf1
 2315 0af1 0C       		.uleb128 0xc
ARM GAS  /tmp/ccYEievQ.s 			page 42


 2316 0af2 83080000 		.4byte	.LASF212
 2317 0af6 34       		.byte	0x34
 2318 0af7 0C       		.byte	0xc
 2319 0af8 A601     		.2byte	0x1a6
 2320 0afa 950B0000 		.4byte	0xb95
 2321 0afe 16       		.uleb128 0x16
 2322 0aff E5000000 		.4byte	.LASF213
 2323 0b03 0C       		.byte	0xc
 2324 0b04 AA01     		.2byte	0x1aa
 2325 0b06 A00A0000 		.4byte	0xaa0
 2326 0b0a 02       		.byte	0x2
 2327 0b0b 23       		.byte	0x23
 2328 0b0c 00       		.uleb128 0
 2329 0b0d 16       		.uleb128 0x16
 2330 0b0e DE000000 		.4byte	.LASF214
 2331 0b12 0C       		.byte	0xc
 2332 0b13 AE01     		.2byte	0x1ae
 2333 0b15 CC0C0000 		.4byte	0xccc
 2334 0b19 02       		.byte	0x2
 2335 0b1a 23       		.byte	0x23
 2336 0b1b 04       		.uleb128 0x4
 2337 0b1c 16       		.uleb128 0x16
 2338 0b1d BA030000 		.4byte	.LASF215
 2339 0b21 0C       		.byte	0xc
 2340 0b22 B201     		.2byte	0x1b2
 2341 0b24 C30B0000 		.4byte	0xbc3
 2342 0b28 02       		.byte	0x2
 2343 0b29 23       		.byte	0x23
 2344 0b2a 08       		.uleb128 0x8
 2345 0b2b 16       		.uleb128 0x16
 2346 0b2c 27060000 		.4byte	.LASF216
 2347 0b30 0C       		.byte	0xc
 2348 0b31 B601     		.2byte	0x1b6
 2349 0b33 2C000000 		.4byte	0x2c
 2350 0b37 02       		.byte	0x2
 2351 0b38 23       		.byte	0x23
 2352 0b39 0C       		.uleb128 0xc
 2353 0b3a 16       		.uleb128 0x16
 2354 0b3b 6C090000 		.4byte	.LASF217
 2355 0b3f 0C       		.byte	0xc
 2356 0b40 BA01     		.2byte	0x1ba
 2357 0b42 D70C0000 		.4byte	0xcd7
 2358 0b46 02       		.byte	0x2
 2359 0b47 23       		.byte	0x23
 2360 0b48 10       		.uleb128 0x10
 2361 0b49 16       		.uleb128 0x16
 2362 0b4a 7A090000 		.4byte	.LASF218
 2363 0b4e 0C       		.byte	0xc
 2364 0b4f BF01     		.2byte	0x1bf
 2365 0b51 41020000 		.4byte	0x241
 2366 0b55 02       		.byte	0x2
 2367 0b56 23       		.byte	0x23
 2368 0b57 14       		.uleb128 0x14
 2369 0b58 16       		.uleb128 0x16
 2370 0b59 2D060000 		.4byte	.LASF219
 2371 0b5d 0C       		.byte	0xc
 2372 0b5e C601     		.2byte	0x1c6
ARM GAS  /tmp/ccYEievQ.s 			page 43


 2373 0b60 78030000 		.4byte	0x378
 2374 0b64 02       		.byte	0x2
 2375 0b65 23       		.byte	0x23
 2376 0b66 18       		.uleb128 0x18
 2377 0b67 0B       		.uleb128 0xb
 2378 0b68 61646300 		.ascii	"adc\000"
 2379 0b6c 0C       		.byte	0xc
 2380 0b6d D201     		.2byte	0x1d2
 2381 0b6f E20C0000 		.4byte	0xce2
 2382 0b73 02       		.byte	0x2
 2383 0b74 23       		.byte	0x23
 2384 0b75 28       		.uleb128 0x28
 2385 0b76 16       		.uleb128 0x16
 2386 0b77 A5040000 		.4byte	.LASF220
 2387 0b7b 0C       		.byte	0xc
 2388 0b7c D601     		.2byte	0x1d6
 2389 0b7e E80C0000 		.4byte	0xce8
 2390 0b82 02       		.byte	0x2
 2391 0b83 23       		.byte	0x23
 2392 0b84 2C       		.uleb128 0x2c
 2393 0b85 16       		.uleb128 0x16
 2394 0b86 A2010000 		.4byte	.LASF221
 2395 0b8a 0C       		.byte	0xc
 2396 0b8b DA01     		.2byte	0x1da
 2397 0b8d 82000000 		.4byte	0x82
 2398 0b91 02       		.byte	0x2
 2399 0b92 23       		.byte	0x23
 2400 0b93 30       		.uleb128 0x30
 2401 0b94 00       		.byte	0
 2402 0b95 17       		.uleb128 0x17
 2403 0b96 5F000000 		.4byte	.LASF222
 2404 0b9a 0C       		.byte	0xc
 2405 0b9b 4C01     		.2byte	0x14c
 2406 0b9d A10B0000 		.4byte	0xba1
 2407 0ba1 09       		.uleb128 0x9
 2408 0ba2 04       		.byte	0x4
 2409 0ba3 A70B0000 		.4byte	0xba7
 2410 0ba7 18       		.uleb128 0x18
 2411 0ba8 01       		.byte	0x1
 2412 0ba9 BD0B0000 		.4byte	0xbbd
 2413 0bad 19       		.uleb128 0x19
 2414 0bae BD0B0000 		.4byte	0xbbd
 2415 0bb2 19       		.uleb128 0x19
 2416 0bb3 C30B0000 		.4byte	0xbc3
 2417 0bb7 19       		.uleb128 0x19
 2418 0bb8 2C000000 		.4byte	0x2c
 2419 0bbc 00       		.byte	0
 2420 0bbd 09       		.uleb128 0x9
 2421 0bbe 04       		.byte	0x4
 2422 0bbf E50A0000 		.4byte	0xae5
 2423 0bc3 09       		.uleb128 0x9
 2424 0bc4 04       		.byte	0x4
 2425 0bc5 AB0A0000 		.4byte	0xaab
 2426 0bc9 17       		.uleb128 0x17
 2427 0bca FF050000 		.4byte	.LASF223
 2428 0bce 0C       		.byte	0xc
 2429 0bcf 5501     		.2byte	0x155
ARM GAS  /tmp/ccYEievQ.s 			page 44


 2430 0bd1 D50B0000 		.4byte	0xbd5
 2431 0bd5 09       		.uleb128 0x9
 2432 0bd6 04       		.byte	0x4
 2433 0bd7 DB0B0000 		.4byte	0xbdb
 2434 0bdb 18       		.uleb128 0x18
 2435 0bdc 01       		.byte	0x1
 2436 0bdd EC0B0000 		.4byte	0xbec
 2437 0be1 19       		.uleb128 0x19
 2438 0be2 BD0B0000 		.4byte	0xbbd
 2439 0be6 19       		.uleb128 0x19
 2440 0be7 D90A0000 		.4byte	0xad9
 2441 0beb 00       		.byte	0
 2442 0bec 15       		.uleb128 0x15
 2443 0bed 2C       		.byte	0x2c
 2444 0bee 0C       		.byte	0xc
 2445 0bef 5F01     		.2byte	0x15f
 2446 0bf1 9B0C0000 		.4byte	0xc9b
 2447 0bf5 16       		.uleb128 0x16
 2448 0bf6 8F030000 		.4byte	.LASF224
 2449 0bfa 0C       		.byte	0xc
 2450 0bfb 6301     		.2byte	0x163
 2451 0bfd A2000000 		.4byte	0xa2
 2452 0c01 02       		.byte	0x2
 2453 0c02 23       		.byte	0x23
 2454 0c03 00       		.uleb128 0
 2455 0c04 16       		.uleb128 0x16
 2456 0c05 C8060000 		.4byte	.LASF225
 2457 0c09 0C       		.byte	0xc
 2458 0c0a 6701     		.2byte	0x167
 2459 0c0c B70A0000 		.4byte	0xab7
 2460 0c10 02       		.byte	0x2
 2461 0c11 23       		.byte	0x23
 2462 0c12 04       		.uleb128 0x4
 2463 0c13 16       		.uleb128 0x16
 2464 0c14 3A010000 		.4byte	.LASF226
 2465 0c18 0C       		.byte	0xc
 2466 0c19 6B01     		.2byte	0x16b
 2467 0c1b 950B0000 		.4byte	0xb95
 2468 0c1f 02       		.byte	0x2
 2469 0c20 23       		.byte	0x23
 2470 0c21 08       		.uleb128 0x8
 2471 0c22 16       		.uleb128 0x16
 2472 0c23 0A010000 		.4byte	.LASF227
 2473 0c27 0C       		.byte	0xc
 2474 0c28 6F01     		.2byte	0x16f
 2475 0c2a C90B0000 		.4byte	0xbc9
 2476 0c2e 02       		.byte	0x2
 2477 0c2f 23       		.byte	0x23
 2478 0c30 0C       		.uleb128 0xc
 2479 0c31 0B       		.uleb128 0xb
 2480 0c32 63723100 		.ascii	"cr1\000"
 2481 0c36 0C       		.byte	0xc
 2482 0c37 7601     		.2byte	0x176
 2483 0c39 82000000 		.4byte	0x82
 2484 0c3d 02       		.byte	0x2
 2485 0c3e 23       		.byte	0x23
 2486 0c3f 10       		.uleb128 0x10
ARM GAS  /tmp/ccYEievQ.s 			page 45


 2487 0c40 0B       		.uleb128 0xb
 2488 0c41 63723200 		.ascii	"cr2\000"
 2489 0c45 0C       		.byte	0xc
 2490 0c46 7D01     		.2byte	0x17d
 2491 0c48 82000000 		.4byte	0x82
 2492 0c4c 02       		.byte	0x2
 2493 0c4d 23       		.byte	0x23
 2494 0c4e 14       		.uleb128 0x14
 2495 0c4f 16       		.uleb128 0x16
 2496 0c50 51050000 		.4byte	.LASF228
 2497 0c54 0C       		.byte	0xc
 2498 0c55 8301     		.2byte	0x183
 2499 0c57 82000000 		.4byte	0x82
 2500 0c5b 02       		.byte	0x2
 2501 0c5c 23       		.byte	0x23
 2502 0c5d 18       		.uleb128 0x18
 2503 0c5e 16       		.uleb128 0x16
 2504 0c5f 57050000 		.4byte	.LASF229
 2505 0c63 0C       		.byte	0xc
 2506 0c64 8901     		.2byte	0x189
 2507 0c66 82000000 		.4byte	0x82
 2508 0c6a 02       		.byte	0x2
 2509 0c6b 23       		.byte	0x23
 2510 0c6c 1C       		.uleb128 0x1c
 2511 0c6d 16       		.uleb128 0x16
 2512 0c6e 1F000000 		.4byte	.LASF230
 2513 0c72 0C       		.byte	0xc
 2514 0c73 8E01     		.2byte	0x18e
 2515 0c75 82000000 		.4byte	0x82
 2516 0c79 02       		.byte	0x2
 2517 0c7a 23       		.byte	0x23
 2518 0c7b 20       		.uleb128 0x20
 2519 0c7c 16       		.uleb128 0x16
 2520 0c7d 24000000 		.4byte	.LASF231
 2521 0c81 0C       		.byte	0xc
 2522 0c82 9301     		.2byte	0x193
 2523 0c84 82000000 		.4byte	0x82
 2524 0c88 02       		.byte	0x2
 2525 0c89 23       		.byte	0x23
 2526 0c8a 24       		.uleb128 0x24
 2527 0c8b 16       		.uleb128 0x16
 2528 0c8c 29000000 		.4byte	.LASF232
 2529 0c90 0C       		.byte	0xc
 2530 0c91 9801     		.2byte	0x198
 2531 0c93 82000000 		.4byte	0x82
 2532 0c97 02       		.byte	0x2
 2533 0c98 23       		.byte	0x23
 2534 0c99 28       		.uleb128 0x28
 2535 0c9a 00       		.byte	0
 2536 0c9b 17       		.uleb128 0x17
 2537 0c9c 31050000 		.4byte	.LASF233
 2538 0ca0 0C       		.byte	0xc
 2539 0ca1 9901     		.2byte	0x199
 2540 0ca3 EC0B0000 		.4byte	0xbec
 2541 0ca7 15       		.uleb128 0x15
 2542 0ca8 04       		.byte	0x4
 2543 0ca9 0C       		.byte	0xc
ARM GAS  /tmp/ccYEievQ.s 			page 46


 2544 0caa 9F01     		.2byte	0x19f
 2545 0cac C00C0000 		.4byte	0xcc0
 2546 0cb0 16       		.uleb128 0x16
 2547 0cb1 24090000 		.4byte	.LASF234
 2548 0cb5 0C       		.byte	0xc
 2549 0cb6 A001     		.2byte	0x1a0
 2550 0cb8 82000000 		.4byte	0x82
 2551 0cbc 02       		.byte	0x2
 2552 0cbd 23       		.byte	0x23
 2553 0cbe 00       		.uleb128 0
 2554 0cbf 00       		.byte	0
 2555 0cc0 17       		.uleb128 0x17
 2556 0cc1 840B0000 		.4byte	.LASF235
 2557 0cc5 0C       		.byte	0xc
 2558 0cc6 A101     		.2byte	0x1a1
 2559 0cc8 A70C0000 		.4byte	0xca7
 2560 0ccc 09       		.uleb128 0x9
 2561 0ccd 04       		.byte	0x4
 2562 0cce D20C0000 		.4byte	0xcd2
 2563 0cd2 10       		.uleb128 0x10
 2564 0cd3 C00C0000 		.4byte	0xcc0
 2565 0cd7 09       		.uleb128 0x9
 2566 0cd8 04       		.byte	0x4
 2567 0cd9 DD0C0000 		.4byte	0xcdd
 2568 0cdd 10       		.uleb128 0x10
 2569 0cde 9B0C0000 		.4byte	0xc9b
 2570 0ce2 09       		.uleb128 0x9
 2571 0ce3 04       		.byte	0x4
 2572 0ce4 54070000 		.4byte	0x754
 2573 0ce8 09       		.uleb128 0x9
 2574 0ce9 04       		.byte	0x4
 2575 0cea EE0C0000 		.4byte	0xcee
 2576 0cee 10       		.uleb128 0x10
 2577 0cef 460A0000 		.4byte	0xa46
 2578 0cf3 1C       		.uleb128 0x1c
 2579 0cf4 01       		.byte	0x1
 2580 0cf5 8D080000 		.4byte	.LASF246
 2581 0cf9 01       		.byte	0x1
 2582 0cfa B6       		.byte	0xb6
 2583 0cfb 01       		.byte	0x1
 2584 0cfc 00000000 		.4byte	.LFB119
 2585 0d00 38000000 		.4byte	.LFE119
 2586 0d04 00000000 		.4byte	.LLST0
 2587 0d08 1D       		.uleb128 0x1d
 2588 0d09 01       		.byte	0x1
 2589 0d0a 2E000000 		.4byte	.LASF236
 2590 0d0e 01       		.byte	0x1
 2591 0d0f EB       		.byte	0xeb
 2592 0d10 01       		.byte	0x1
 2593 0d11 00000000 		.4byte	.LFB120
 2594 0d15 70000000 		.4byte	.LFE120
 2595 0d19 20000000 		.4byte	.LLST1
 2596 0d1d 440D0000 		.4byte	0xd44
 2597 0d21 1E       		.uleb128 0x1e
 2598 0d22 FA050000 		.4byte	.LASF238
 2599 0d26 01       		.byte	0x1
 2600 0d27 EB       		.byte	0xeb
ARM GAS  /tmp/ccYEievQ.s 			page 47


 2601 0d28 BD0B0000 		.4byte	0xbbd
 2602 0d2c 40000000 		.4byte	.LLST2
 2603 0d30 1F       		.uleb128 0x1f
 2604 0d31 3E000000 		.4byte	.LBB2
 2605 0d35 70000000 		.4byte	.LBE2
 2606 0d39 20       		.uleb128 0x20
 2607 0d3a 6200     		.ascii	"b\000"
 2608 0d3c 01       		.byte	0x1
 2609 0d3d F1       		.byte	0xf1
 2610 0d3e A2000000 		.4byte	0xa2
 2611 0d42 00       		.byte	0
 2612 0d43 00       		.byte	0
 2613 0d44 21       		.uleb128 0x21
 2614 0d45 01       		.byte	0x1
 2615 0d46 F9010000 		.4byte	.LASF237
 2616 0d4a 01       		.byte	0x1
 2617 0d4b 2A01     		.2byte	0x12a
 2618 0d4d 01       		.byte	0x1
 2619 0d4e 00000000 		.4byte	.LFB121
 2620 0d52 3A000000 		.4byte	.LFE121
 2621 0d56 5E000000 		.4byte	.LLST3
 2622 0d5a 6F0D0000 		.4byte	0xd6f
 2623 0d5e 22       		.uleb128 0x22
 2624 0d5f FA050000 		.4byte	.LASF238
 2625 0d63 01       		.byte	0x1
 2626 0d64 2A01     		.2byte	0x12a
 2627 0d66 BD0B0000 		.4byte	0xbbd
 2628 0d6a 7E000000 		.4byte	.LLST4
 2629 0d6e 00       		.byte	0
 2630 0d6f 21       		.uleb128 0x21
 2631 0d70 01       		.byte	0x1
 2632 0d71 5D050000 		.4byte	.LASF239
 2633 0d75 01       		.byte	0x1
 2634 0d76 4A01     		.2byte	0x14a
 2635 0d78 01       		.byte	0x1
 2636 0d79 00000000 		.4byte	.LFB122
 2637 0d7d 80000000 		.4byte	.LFE122
 2638 0d81 9C000000 		.4byte	.LLST5
 2639 0d85 BA0D0000 		.4byte	0xdba
 2640 0d89 22       		.uleb128 0x22
 2641 0d8a FA050000 		.4byte	.LASF238
 2642 0d8e 01       		.byte	0x1
 2643 0d8f 4A01     		.2byte	0x14a
 2644 0d91 BD0B0000 		.4byte	0xbbd
 2645 0d95 BC000000 		.4byte	.LLST6
 2646 0d99 23       		.uleb128 0x23
 2647 0d9a AE090000 		.4byte	.LASF240
 2648 0d9e 01       		.byte	0x1
 2649 0d9f 4B01     		.2byte	0x14b
 2650 0da1 82000000 		.4byte	0x82
 2651 0da5 DA000000 		.4byte	.LLST7
 2652 0da9 23       		.uleb128 0x23
 2653 0daa 6C090000 		.4byte	.LASF217
 2654 0dae 01       		.byte	0x1
 2655 0daf 4C01     		.2byte	0x14c
 2656 0db1 D70C0000 		.4byte	0xcd7
 2657 0db5 07010000 		.4byte	.LLST8
ARM GAS  /tmp/ccYEievQ.s 			page 48


 2658 0db9 00       		.byte	0
 2659 0dba 21       		.uleb128 0x21
 2660 0dbb 01       		.byte	0x1
 2661 0dbc 22070000 		.4byte	.LASF241
 2662 0dc0 01       		.byte	0x1
 2663 0dc1 7801     		.2byte	0x178
 2664 0dc3 01       		.byte	0x1
 2665 0dc4 00000000 		.4byte	.LFB123
 2666 0dc8 30000000 		.4byte	.LFE123
 2667 0dcc 1B010000 		.4byte	.LLST9
 2668 0dd0 E50D0000 		.4byte	0xde5
 2669 0dd4 22       		.uleb128 0x22
 2670 0dd5 FA050000 		.4byte	.LASF238
 2671 0dd9 01       		.byte	0x1
 2672 0dda 7801     		.2byte	0x178
 2673 0ddc BD0B0000 		.4byte	0xbbd
 2674 0de0 3B010000 		.4byte	.LLST10
 2675 0de4 00       		.byte	0
 2676 0de5 24       		.uleb128 0x24
 2677 0de6 8B0A0000 		.4byte	.LASF257
 2678 0dea 01       		.byte	0x1
 2679 0deb 57       		.byte	0x57
 2680 0dec 01       		.byte	0x1
 2681 0ded 00000000 		.4byte	.LFB117
 2682 0df1 02010000 		.4byte	.LFE117
 2683 0df5 4E010000 		.4byte	.LLST11
 2684 0df9 1C0F0000 		.4byte	0xf1c
 2685 0dfd 1E       		.uleb128 0x1e
 2686 0dfe FA050000 		.4byte	.LASF238
 2687 0e02 01       		.byte	0x1
 2688 0e03 57       		.byte	0x57
 2689 0e04 BD0B0000 		.4byte	0xbbd
 2690 0e08 6E010000 		.4byte	.LLST12
 2691 0e0c 1E       		.uleb128 0x1e
 2692 0e0d 89030000 		.4byte	.LASF242
 2693 0e11 01       		.byte	0x1
 2694 0e12 57       		.byte	0x57
 2695 0e13 82000000 		.4byte	0x82
 2696 0e17 8C010000 		.4byte	.LLST13
 2697 0e1b 25       		.uleb128 0x25
 2698 0e1c 38000000 		.4byte	.LBB3
 2699 0e20 4C000000 		.4byte	.LBE3
 2700 0e24 470E0000 		.4byte	0xe47
 2701 0e28 26       		.uleb128 0x26
 2702 0e29 C9080000 		.4byte	.LASF243
 2703 0e2d 01       		.byte	0x1
 2704 0e2e 69       		.byte	0x69
 2705 0e2f 2C000000 		.4byte	0x2c
 2706 0e33 D6010000 		.4byte	.LLST14
 2707 0e37 26       		.uleb128 0x26
 2708 0e38 6D080000 		.4byte	.LASF244
 2709 0e3c 01       		.byte	0x1
 2710 0e3d 69       		.byte	0x69
 2711 0e3e 2C000000 		.4byte	0x2c
 2712 0e42 E9010000 		.4byte	.LLST15
 2713 0e46 00       		.byte	0
 2714 0e47 25       		.uleb128 0x25
ARM GAS  /tmp/ccYEievQ.s 			page 49


 2715 0e48 64000000 		.4byte	.LBB4
 2716 0e4c 78000000 		.4byte	.LBE4
 2717 0e50 730E0000 		.4byte	0xe73
 2718 0e54 26       		.uleb128 0x26
 2719 0e55 C9080000 		.4byte	.LASF243
 2720 0e59 01       		.byte	0x1
 2721 0e5a 69       		.byte	0x69
 2722 0e5b 2C000000 		.4byte	0x2c
 2723 0e5f 0A020000 		.4byte	.LLST16
 2724 0e63 26       		.uleb128 0x26
 2725 0e64 6D080000 		.4byte	.LASF244
 2726 0e68 01       		.byte	0x1
 2727 0e69 69       		.byte	0x69
 2728 0e6a 2C000000 		.4byte	0x2c
 2729 0e6e 1D020000 		.4byte	.LLST17
 2730 0e72 00       		.byte	0
 2731 0e73 25       		.uleb128 0x25
 2732 0e74 7E000000 		.4byte	.LBB5
 2733 0e78 84000000 		.4byte	.LBE5
 2734 0e7c 900E0000 		.4byte	0xe90
 2735 0e80 27       		.uleb128 0x27
 2736 0e81 746D7000 		.ascii	"tmp\000"
 2737 0e85 01       		.byte	0x1
 2738 0e86 69       		.byte	0x69
 2739 0e87 82000000 		.4byte	0x82
 2740 0e8b 3E020000 		.4byte	.LLST18
 2741 0e8f 00       		.byte	0
 2742 0e90 25       		.uleb128 0x25
 2743 0e91 88000000 		.4byte	.LBB6
 2744 0e95 94000000 		.4byte	.LBE6
 2745 0e99 AC0E0000 		.4byte	0xeac
 2746 0e9d 27       		.uleb128 0x27
 2747 0e9e 747000   		.ascii	"tp\000"
 2748 0ea1 01       		.byte	0x1
 2749 0ea2 69       		.byte	0x69
 2750 0ea3 41020000 		.4byte	0x241
 2751 0ea7 51020000 		.4byte	.LLST19
 2752 0eab 00       		.byte	0
 2753 0eac 25       		.uleb128 0x25
 2754 0ead 94000000 		.4byte	.LBB7
 2755 0eb1 9C000000 		.4byte	.LBE7
 2756 0eb5 C90E0000 		.4byte	0xec9
 2757 0eb9 27       		.uleb128 0x27
 2758 0eba 746D7000 		.ascii	"tmp\000"
 2759 0ebe 01       		.byte	0x1
 2760 0ebf 69       		.byte	0x69
 2761 0ec0 82000000 		.4byte	0x82
 2762 0ec4 65020000 		.4byte	.LLST20
 2763 0ec8 00       		.byte	0
 2764 0ec9 25       		.uleb128 0x25
 2765 0eca BA000000 		.4byte	.LBB8
 2766 0ece C0000000 		.4byte	.LBE8
 2767 0ed2 E60E0000 		.4byte	0xee6
 2768 0ed6 27       		.uleb128 0x27
 2769 0ed7 746D7000 		.ascii	"tmp\000"
 2770 0edb 01       		.byte	0x1
 2771 0edc 5D       		.byte	0x5d
ARM GAS  /tmp/ccYEievQ.s 			page 50


 2772 0edd 82000000 		.4byte	0x82
 2773 0ee1 78020000 		.4byte	.LLST21
 2774 0ee5 00       		.byte	0
 2775 0ee6 25       		.uleb128 0x25
 2776 0ee7 C4000000 		.4byte	.LBB9
 2777 0eeb D2000000 		.4byte	.LBE9
 2778 0eef 020F0000 		.4byte	0xf02
 2779 0ef3 27       		.uleb128 0x27
 2780 0ef4 747000   		.ascii	"tp\000"
 2781 0ef7 01       		.byte	0x1
 2782 0ef8 5D       		.byte	0x5d
 2783 0ef9 41020000 		.4byte	0x241
 2784 0efd 8B020000 		.4byte	.LLST22
 2785 0f01 00       		.byte	0
 2786 0f02 1F       		.uleb128 0x1f
 2787 0f03 D2000000 		.4byte	.LBB10
 2788 0f07 DA000000 		.4byte	.LBE10
 2789 0f0b 27       		.uleb128 0x27
 2790 0f0c 746D7000 		.ascii	"tmp\000"
 2791 0f10 01       		.byte	0x1
 2792 0f11 5D       		.byte	0x5d
 2793 0f12 82000000 		.4byte	0x82
 2794 0f16 9F020000 		.4byte	.LLST23
 2795 0f1a 00       		.byte	0
 2796 0f1b 00       		.byte	0
 2797 0f1c 1D       		.uleb128 0x1d
 2798 0f1d 01       		.byte	0x1
 2799 0f1e C5010000 		.4byte	.LASF245
 2800 0f22 01       		.byte	0x1
 2801 0f23 7A       		.byte	0x7a
 2802 0f24 01       		.byte	0x1
 2803 0f25 00000000 		.4byte	.LFB118
 2804 0f29 7A000000 		.4byte	.LFE118
 2805 0f2d B2020000 		.4byte	.LLST24
 2806 0f31 960F0000 		.4byte	0xf96
 2807 0f35 27       		.uleb128 0x27
 2808 0f36 737200   		.ascii	"sr\000"
 2809 0f39 01       		.byte	0x1
 2810 0f3a 7B       		.byte	0x7b
 2811 0f3b 82000000 		.4byte	0x82
 2812 0f3f D2020000 		.4byte	.LLST25
 2813 0f43 25       		.uleb128 0x25
 2814 0f44 50000000 		.4byte	.LBB11
 2815 0f48 56000000 		.4byte	.LBE11
 2816 0f4c 600F0000 		.4byte	0xf60
 2817 0f50 27       		.uleb128 0x27
 2818 0f51 746D7000 		.ascii	"tmp\000"
 2819 0f55 01       		.byte	0x1
 2820 0f56 88       		.byte	0x88
 2821 0f57 82000000 		.4byte	0x82
 2822 0f5b E5020000 		.4byte	.LLST26
 2823 0f5f 00       		.byte	0
 2824 0f60 25       		.uleb128 0x25
 2825 0f61 5A000000 		.4byte	.LBB12
 2826 0f65 66000000 		.4byte	.LBE12
 2827 0f69 7C0F0000 		.4byte	0xf7c
 2828 0f6d 27       		.uleb128 0x27
ARM GAS  /tmp/ccYEievQ.s 			page 51


 2829 0f6e 747000   		.ascii	"tp\000"
 2830 0f71 01       		.byte	0x1
 2831 0f72 88       		.byte	0x88
 2832 0f73 41020000 		.4byte	0x241
 2833 0f77 03030000 		.4byte	.LLST27
 2834 0f7b 00       		.byte	0
 2835 0f7c 1F       		.uleb128 0x1f
 2836 0f7d 66000000 		.4byte	.LBB13
 2837 0f81 6C000000 		.4byte	.LBE13
 2838 0f85 27       		.uleb128 0x27
 2839 0f86 746D7000 		.ascii	"tmp\000"
 2840 0f8a 01       		.byte	0x1
 2841 0f8b 88       		.byte	0x88
 2842 0f8c 82000000 		.4byte	0x82
 2843 0f90 1A030000 		.4byte	.LLST28
 2844 0f94 00       		.byte	0
 2845 0f95 00       		.byte	0
 2846 0f96 28       		.uleb128 0x28
 2847 0f97 01       		.byte	0x1
 2848 0f98 31020000 		.4byte	.LASF247
 2849 0f9c 01       		.byte	0x1
 2850 0f9d 8601     		.2byte	0x186
 2851 0f9f 01       		.byte	0x1
 2852 0fa0 00000000 		.4byte	.LFB124
 2853 0fa4 12000000 		.4byte	.LFE124
 2854 0fa8 02       		.byte	0x2
 2855 0fa9 7D       		.byte	0x7d
 2856 0faa 00       		.sleb128 0
 2857 0fab 28       		.uleb128 0x28
 2858 0fac 01       		.byte	0x1
 2859 0fad 4D0B0000 		.4byte	.LASF248
 2860 0fb1 01       		.byte	0x1
 2861 0fb2 9101     		.2byte	0x191
 2862 0fb4 01       		.byte	0x1
 2863 0fb5 00000000 		.4byte	.LFB125
 2864 0fb9 12000000 		.4byte	.LFE125
 2865 0fbd 02       		.byte	0x2
 2866 0fbe 7D       		.byte	0x7d
 2867 0fbf 00       		.sleb128 0
 2868 0fc0 28       		.uleb128 0x28
 2869 0fc1 01       		.byte	0x1
 2870 0fc2 D8080000 		.4byte	.LASF249
 2871 0fc6 01       		.byte	0x1
 2872 0fc7 9C01     		.2byte	0x19c
 2873 0fc9 01       		.byte	0x1
 2874 0fca 00000000 		.4byte	.LFB126
 2875 0fce 12000000 		.4byte	.LFE126
 2876 0fd2 02       		.byte	0x2
 2877 0fd3 7D       		.byte	0x7d
 2878 0fd4 00       		.sleb128 0
 2879 0fd5 28       		.uleb128 0x28
 2880 0fd6 01       		.byte	0x1
 2881 0fd7 F5000000 		.4byte	.LASF250
 2882 0fdb 01       		.byte	0x1
 2883 0fdc A701     		.2byte	0x1a7
 2884 0fde 01       		.byte	0x1
 2885 0fdf 00000000 		.4byte	.LFB127
ARM GAS  /tmp/ccYEievQ.s 			page 52


 2886 0fe3 12000000 		.4byte	.LFE127
 2887 0fe7 02       		.byte	0x2
 2888 0fe8 7D       		.byte	0x7d
 2889 0fe9 00       		.sleb128 0
 2890 0fea 29       		.uleb128 0x29
 2891 0feb 120A0000 		.4byte	.LASF251
 2892 0fef 0D       		.byte	0xd
 2893 0ff0 1A05     		.2byte	0x51a
 2894 0ff2 1B060000 		.4byte	0x61b
 2895 0ff6 01       		.byte	0x1
 2896 0ff7 01       		.byte	0x1
 2897 0ff8 13       		.uleb128 0x13
 2898 0ff9 460A0000 		.4byte	0xa46
 2899 0ffd 08100000 		.4byte	0x1008
 2900 1001 14       		.uleb128 0x14
 2901 1002 37000000 		.4byte	0x37
 2902 1006 0F       		.byte	0xf
 2903 1007 00       		.byte	0
 2904 1008 29       		.uleb128 0x29
 2905 1009 E0040000 		.4byte	.LASF252
 2906 100d 0A       		.byte	0xa
 2907 100e C601     		.2byte	0x1c6
 2908 1010 16100000 		.4byte	0x1016
 2909 1014 01       		.byte	0x1
 2910 1015 01       		.byte	0x1
 2911 1016 10       		.uleb128 0x10
 2912 1017 F80F0000 		.4byte	0xff8
 2913 101b 2A       		.uleb128 0x2a
 2914 101c E1060000 		.4byte	.LASF253
 2915 1020 01       		.byte	0x1
 2916 1021 3C       		.byte	0x3c
 2917 1022 E50A0000 		.4byte	0xae5
 2918 1026 01       		.byte	0x1
 2919 1027 05       		.byte	0x5
 2920 1028 03       		.byte	0x3
 2921 1029 00000000 		.4byte	ADCD1
 2922 102d 00       		.byte	0
 2923              		.section	.debug_abbrev,"",%progbits
 2924              	.Ldebug_abbrev0:
 2925 0000 01       		.uleb128 0x1
 2926 0001 11       		.uleb128 0x11
 2927 0002 01       		.byte	0x1
 2928 0003 25       		.uleb128 0x25
 2929 0004 0E       		.uleb128 0xe
 2930 0005 13       		.uleb128 0x13
 2931 0006 0B       		.uleb128 0xb
 2932 0007 03       		.uleb128 0x3
 2933 0008 0E       		.uleb128 0xe
 2934 0009 11       		.uleb128 0x11
 2935 000a 01       		.uleb128 0x1
 2936 000b 52       		.uleb128 0x52
 2937 000c 01       		.uleb128 0x1
 2938 000d 55       		.uleb128 0x55
 2939 000e 06       		.uleb128 0x6
 2940 000f 10       		.uleb128 0x10
 2941 0010 06       		.uleb128 0x6
 2942 0011 00       		.byte	0
ARM GAS  /tmp/ccYEievQ.s 			page 53


 2943 0012 00       		.byte	0
 2944 0013 02       		.uleb128 0x2
 2945 0014 24       		.uleb128 0x24
 2946 0015 00       		.byte	0
 2947 0016 0B       		.uleb128 0xb
 2948 0017 0B       		.uleb128 0xb
 2949 0018 3E       		.uleb128 0x3e
 2950 0019 0B       		.uleb128 0xb
 2951 001a 03       		.uleb128 0x3
 2952 001b 08       		.uleb128 0x8
 2953 001c 00       		.byte	0
 2954 001d 00       		.byte	0
 2955 001e 03       		.uleb128 0x3
 2956 001f 16       		.uleb128 0x16
 2957 0020 00       		.byte	0
 2958 0021 03       		.uleb128 0x3
 2959 0022 0E       		.uleb128 0xe
 2960 0023 3A       		.uleb128 0x3a
 2961 0024 0B       		.uleb128 0xb
 2962 0025 3B       		.uleb128 0x3b
 2963 0026 0B       		.uleb128 0xb
 2964 0027 49       		.uleb128 0x49
 2965 0028 13       		.uleb128 0x13
 2966 0029 00       		.byte	0
 2967 002a 00       		.byte	0
 2968 002b 04       		.uleb128 0x4
 2969 002c 24       		.uleb128 0x24
 2970 002d 00       		.byte	0
 2971 002e 0B       		.uleb128 0xb
 2972 002f 0B       		.uleb128 0xb
 2973 0030 3E       		.uleb128 0x3e
 2974 0031 0B       		.uleb128 0xb
 2975 0032 03       		.uleb128 0x3
 2976 0033 0E       		.uleb128 0xe
 2977 0034 00       		.byte	0
 2978 0035 00       		.byte	0
 2979 0036 05       		.uleb128 0x5
 2980 0037 13       		.uleb128 0x13
 2981 0038 01       		.byte	0x1
 2982 0039 03       		.uleb128 0x3
 2983 003a 0E       		.uleb128 0xe
 2984 003b 0B       		.uleb128 0xb
 2985 003c 0B       		.uleb128 0xb
 2986 003d 3A       		.uleb128 0x3a
 2987 003e 0B       		.uleb128 0xb
 2988 003f 3B       		.uleb128 0x3b
 2989 0040 0B       		.uleb128 0xb
 2990 0041 01       		.uleb128 0x1
 2991 0042 13       		.uleb128 0x13
 2992 0043 00       		.byte	0
 2993 0044 00       		.byte	0
 2994 0045 06       		.uleb128 0x6
 2995 0046 0D       		.uleb128 0xd
 2996 0047 00       		.byte	0
 2997 0048 03       		.uleb128 0x3
 2998 0049 0E       		.uleb128 0xe
 2999 004a 3A       		.uleb128 0x3a
ARM GAS  /tmp/ccYEievQ.s 			page 54


 3000 004b 0B       		.uleb128 0xb
 3001 004c 3B       		.uleb128 0x3b
 3002 004d 0B       		.uleb128 0xb
 3003 004e 49       		.uleb128 0x49
 3004 004f 13       		.uleb128 0x13
 3005 0050 38       		.uleb128 0x38
 3006 0051 0A       		.uleb128 0xa
 3007 0052 00       		.byte	0
 3008 0053 00       		.byte	0
 3009 0054 07       		.uleb128 0x7
 3010 0055 0D       		.uleb128 0xd
 3011 0056 00       		.byte	0
 3012 0057 03       		.uleb128 0x3
 3013 0058 08       		.uleb128 0x8
 3014 0059 3A       		.uleb128 0x3a
 3015 005a 0B       		.uleb128 0xb
 3016 005b 3B       		.uleb128 0x3b
 3017 005c 0B       		.uleb128 0xb
 3018 005d 49       		.uleb128 0x49
 3019 005e 13       		.uleb128 0x13
 3020 005f 38       		.uleb128 0x38
 3021 0060 0A       		.uleb128 0xa
 3022 0061 00       		.byte	0
 3023 0062 00       		.byte	0
 3024 0063 08       		.uleb128 0x8
 3025 0064 13       		.uleb128 0x13
 3026 0065 01       		.byte	0x1
 3027 0066 0B       		.uleb128 0xb
 3028 0067 0B       		.uleb128 0xb
 3029 0068 3A       		.uleb128 0x3a
 3030 0069 0B       		.uleb128 0xb
 3031 006a 3B       		.uleb128 0x3b
 3032 006b 0B       		.uleb128 0xb
 3033 006c 01       		.uleb128 0x1
 3034 006d 13       		.uleb128 0x13
 3035 006e 00       		.byte	0
 3036 006f 00       		.byte	0
 3037 0070 09       		.uleb128 0x9
 3038 0071 0F       		.uleb128 0xf
 3039 0072 00       		.byte	0
 3040 0073 0B       		.uleb128 0xb
 3041 0074 0B       		.uleb128 0xb
 3042 0075 49       		.uleb128 0x49
 3043 0076 13       		.uleb128 0x13
 3044 0077 00       		.byte	0
 3045 0078 00       		.byte	0
 3046 0079 0A       		.uleb128 0xa
 3047 007a 0F       		.uleb128 0xf
 3048 007b 00       		.byte	0
 3049 007c 0B       		.uleb128 0xb
 3050 007d 0B       		.uleb128 0xb
 3051 007e 00       		.byte	0
 3052 007f 00       		.byte	0
 3053 0080 0B       		.uleb128 0xb
 3054 0081 0D       		.uleb128 0xd
 3055 0082 00       		.byte	0
 3056 0083 03       		.uleb128 0x3
ARM GAS  /tmp/ccYEievQ.s 			page 55


 3057 0084 08       		.uleb128 0x8
 3058 0085 3A       		.uleb128 0x3a
 3059 0086 0B       		.uleb128 0xb
 3060 0087 3B       		.uleb128 0x3b
 3061 0088 05       		.uleb128 0x5
 3062 0089 49       		.uleb128 0x49
 3063 008a 13       		.uleb128 0x13
 3064 008b 38       		.uleb128 0x38
 3065 008c 0A       		.uleb128 0xa
 3066 008d 00       		.byte	0
 3067 008e 00       		.byte	0
 3068 008f 0C       		.uleb128 0xc
 3069 0090 13       		.uleb128 0x13
 3070 0091 01       		.byte	0x1
 3071 0092 03       		.uleb128 0x3
 3072 0093 0E       		.uleb128 0xe
 3073 0094 0B       		.uleb128 0xb
 3074 0095 0B       		.uleb128 0xb
 3075 0096 3A       		.uleb128 0x3a
 3076 0097 0B       		.uleb128 0xb
 3077 0098 3B       		.uleb128 0x3b
 3078 0099 05       		.uleb128 0x5
 3079 009a 01       		.uleb128 0x1
 3080 009b 13       		.uleb128 0x13
 3081 009c 00       		.byte	0
 3082 009d 00       		.byte	0
 3083 009e 0D       		.uleb128 0xd
 3084 009f 35       		.uleb128 0x35
 3085 00a0 00       		.byte	0
 3086 00a1 49       		.uleb128 0x49
 3087 00a2 13       		.uleb128 0x13
 3088 00a3 00       		.byte	0
 3089 00a4 00       		.byte	0
 3090 00a5 0E       		.uleb128 0xe
 3091 00a6 17       		.uleb128 0x17
 3092 00a7 01       		.byte	0x1
 3093 00a8 0B       		.uleb128 0xb
 3094 00a9 0B       		.uleb128 0xb
 3095 00aa 3A       		.uleb128 0x3a
 3096 00ab 0B       		.uleb128 0xb
 3097 00ac 3B       		.uleb128 0x3b
 3098 00ad 0B       		.uleb128 0xb
 3099 00ae 01       		.uleb128 0x1
 3100 00af 13       		.uleb128 0x13
 3101 00b0 00       		.byte	0
 3102 00b1 00       		.byte	0
 3103 00b2 0F       		.uleb128 0xf
 3104 00b3 0D       		.uleb128 0xd
 3105 00b4 00       		.byte	0
 3106 00b5 03       		.uleb128 0x3
 3107 00b6 0E       		.uleb128 0xe
 3108 00b7 3A       		.uleb128 0x3a
 3109 00b8 0B       		.uleb128 0xb
 3110 00b9 3B       		.uleb128 0x3b
 3111 00ba 0B       		.uleb128 0xb
 3112 00bb 49       		.uleb128 0x49
 3113 00bc 13       		.uleb128 0x13
ARM GAS  /tmp/ccYEievQ.s 			page 56


 3114 00bd 00       		.byte	0
 3115 00be 00       		.byte	0
 3116 00bf 10       		.uleb128 0x10
 3117 00c0 26       		.uleb128 0x26
 3118 00c1 00       		.byte	0
 3119 00c2 49       		.uleb128 0x49
 3120 00c3 13       		.uleb128 0x13
 3121 00c4 00       		.byte	0
 3122 00c5 00       		.byte	0
 3123 00c6 11       		.uleb128 0x11
 3124 00c7 04       		.uleb128 0x4
 3125 00c8 01       		.byte	0x1
 3126 00c9 03       		.uleb128 0x3
 3127 00ca 0E       		.uleb128 0xe
 3128 00cb 0B       		.uleb128 0xb
 3129 00cc 0B       		.uleb128 0xb
 3130 00cd 3A       		.uleb128 0x3a
 3131 00ce 0B       		.uleb128 0xb
 3132 00cf 3B       		.uleb128 0x3b
 3133 00d0 0B       		.uleb128 0xb
 3134 00d1 01       		.uleb128 0x1
 3135 00d2 13       		.uleb128 0x13
 3136 00d3 00       		.byte	0
 3137 00d4 00       		.byte	0
 3138 00d5 12       		.uleb128 0x12
 3139 00d6 28       		.uleb128 0x28
 3140 00d7 00       		.byte	0
 3141 00d8 03       		.uleb128 0x3
 3142 00d9 0E       		.uleb128 0xe
 3143 00da 1C       		.uleb128 0x1c
 3144 00db 0D       		.uleb128 0xd
 3145 00dc 00       		.byte	0
 3146 00dd 00       		.byte	0
 3147 00de 13       		.uleb128 0x13
 3148 00df 01       		.uleb128 0x1
 3149 00e0 01       		.byte	0x1
 3150 00e1 49       		.uleb128 0x49
 3151 00e2 13       		.uleb128 0x13
 3152 00e3 01       		.uleb128 0x1
 3153 00e4 13       		.uleb128 0x13
 3154 00e5 00       		.byte	0
 3155 00e6 00       		.byte	0
 3156 00e7 14       		.uleb128 0x14
 3157 00e8 21       		.uleb128 0x21
 3158 00e9 00       		.byte	0
 3159 00ea 49       		.uleb128 0x49
 3160 00eb 13       		.uleb128 0x13
 3161 00ec 2F       		.uleb128 0x2f
 3162 00ed 0B       		.uleb128 0xb
 3163 00ee 00       		.byte	0
 3164 00ef 00       		.byte	0
 3165 00f0 15       		.uleb128 0x15
 3166 00f1 13       		.uleb128 0x13
 3167 00f2 01       		.byte	0x1
 3168 00f3 0B       		.uleb128 0xb
 3169 00f4 0B       		.uleb128 0xb
 3170 00f5 3A       		.uleb128 0x3a
ARM GAS  /tmp/ccYEievQ.s 			page 57


 3171 00f6 0B       		.uleb128 0xb
 3172 00f7 3B       		.uleb128 0x3b
 3173 00f8 05       		.uleb128 0x5
 3174 00f9 01       		.uleb128 0x1
 3175 00fa 13       		.uleb128 0x13
 3176 00fb 00       		.byte	0
 3177 00fc 00       		.byte	0
 3178 00fd 16       		.uleb128 0x16
 3179 00fe 0D       		.uleb128 0xd
 3180 00ff 00       		.byte	0
 3181 0100 03       		.uleb128 0x3
 3182 0101 0E       		.uleb128 0xe
 3183 0102 3A       		.uleb128 0x3a
 3184 0103 0B       		.uleb128 0xb
 3185 0104 3B       		.uleb128 0x3b
 3186 0105 05       		.uleb128 0x5
 3187 0106 49       		.uleb128 0x49
 3188 0107 13       		.uleb128 0x13
 3189 0108 38       		.uleb128 0x38
 3190 0109 0A       		.uleb128 0xa
 3191 010a 00       		.byte	0
 3192 010b 00       		.byte	0
 3193 010c 17       		.uleb128 0x17
 3194 010d 16       		.uleb128 0x16
 3195 010e 00       		.byte	0
 3196 010f 03       		.uleb128 0x3
 3197 0110 0E       		.uleb128 0xe
 3198 0111 3A       		.uleb128 0x3a
 3199 0112 0B       		.uleb128 0xb
 3200 0113 3B       		.uleb128 0x3b
 3201 0114 05       		.uleb128 0x5
 3202 0115 49       		.uleb128 0x49
 3203 0116 13       		.uleb128 0x13
 3204 0117 00       		.byte	0
 3205 0118 00       		.byte	0
 3206 0119 18       		.uleb128 0x18
 3207 011a 15       		.uleb128 0x15
 3208 011b 01       		.byte	0x1
 3209 011c 27       		.uleb128 0x27
 3210 011d 0C       		.uleb128 0xc
 3211 011e 01       		.uleb128 0x1
 3212 011f 13       		.uleb128 0x13
 3213 0120 00       		.byte	0
 3214 0121 00       		.byte	0
 3215 0122 19       		.uleb128 0x19
 3216 0123 05       		.uleb128 0x5
 3217 0124 00       		.byte	0
 3218 0125 49       		.uleb128 0x49
 3219 0126 13       		.uleb128 0x13
 3220 0127 00       		.byte	0
 3221 0128 00       		.byte	0
 3222 0129 1A       		.uleb128 0x1a
 3223 012a 04       		.uleb128 0x4
 3224 012b 01       		.byte	0x1
 3225 012c 0B       		.uleb128 0xb
 3226 012d 0B       		.uleb128 0xb
 3227 012e 3A       		.uleb128 0x3a
ARM GAS  /tmp/ccYEievQ.s 			page 58


 3228 012f 0B       		.uleb128 0xb
 3229 0130 3B       		.uleb128 0x3b
 3230 0131 0B       		.uleb128 0xb
 3231 0132 01       		.uleb128 0x1
 3232 0133 13       		.uleb128 0x13
 3233 0134 00       		.byte	0
 3234 0135 00       		.byte	0
 3235 0136 1B       		.uleb128 0x1b
 3236 0137 04       		.uleb128 0x4
 3237 0138 01       		.byte	0x1
 3238 0139 0B       		.uleb128 0xb
 3239 013a 0B       		.uleb128 0xb
 3240 013b 3A       		.uleb128 0x3a
 3241 013c 0B       		.uleb128 0xb
 3242 013d 3B       		.uleb128 0x3b
 3243 013e 05       		.uleb128 0x5
 3244 013f 01       		.uleb128 0x1
 3245 0140 13       		.uleb128 0x13
 3246 0141 00       		.byte	0
 3247 0142 00       		.byte	0
 3248 0143 1C       		.uleb128 0x1c
 3249 0144 2E       		.uleb128 0x2e
 3250 0145 00       		.byte	0
 3251 0146 3F       		.uleb128 0x3f
 3252 0147 0C       		.uleb128 0xc
 3253 0148 03       		.uleb128 0x3
 3254 0149 0E       		.uleb128 0xe
 3255 014a 3A       		.uleb128 0x3a
 3256 014b 0B       		.uleb128 0xb
 3257 014c 3B       		.uleb128 0x3b
 3258 014d 0B       		.uleb128 0xb
 3259 014e 27       		.uleb128 0x27
 3260 014f 0C       		.uleb128 0xc
 3261 0150 11       		.uleb128 0x11
 3262 0151 01       		.uleb128 0x1
 3263 0152 12       		.uleb128 0x12
 3264 0153 01       		.uleb128 0x1
 3265 0154 40       		.uleb128 0x40
 3266 0155 06       		.uleb128 0x6
 3267 0156 00       		.byte	0
 3268 0157 00       		.byte	0
 3269 0158 1D       		.uleb128 0x1d
 3270 0159 2E       		.uleb128 0x2e
 3271 015a 01       		.byte	0x1
 3272 015b 3F       		.uleb128 0x3f
 3273 015c 0C       		.uleb128 0xc
 3274 015d 03       		.uleb128 0x3
 3275 015e 0E       		.uleb128 0xe
 3276 015f 3A       		.uleb128 0x3a
 3277 0160 0B       		.uleb128 0xb
 3278 0161 3B       		.uleb128 0x3b
 3279 0162 0B       		.uleb128 0xb
 3280 0163 27       		.uleb128 0x27
 3281 0164 0C       		.uleb128 0xc
 3282 0165 11       		.uleb128 0x11
 3283 0166 01       		.uleb128 0x1
 3284 0167 12       		.uleb128 0x12
ARM GAS  /tmp/ccYEievQ.s 			page 59


 3285 0168 01       		.uleb128 0x1
 3286 0169 40       		.uleb128 0x40
 3287 016a 06       		.uleb128 0x6
 3288 016b 01       		.uleb128 0x1
 3289 016c 13       		.uleb128 0x13
 3290 016d 00       		.byte	0
 3291 016e 00       		.byte	0
 3292 016f 1E       		.uleb128 0x1e
 3293 0170 05       		.uleb128 0x5
 3294 0171 00       		.byte	0
 3295 0172 03       		.uleb128 0x3
 3296 0173 0E       		.uleb128 0xe
 3297 0174 3A       		.uleb128 0x3a
 3298 0175 0B       		.uleb128 0xb
 3299 0176 3B       		.uleb128 0x3b
 3300 0177 0B       		.uleb128 0xb
 3301 0178 49       		.uleb128 0x49
 3302 0179 13       		.uleb128 0x13
 3303 017a 02       		.uleb128 0x2
 3304 017b 06       		.uleb128 0x6
 3305 017c 00       		.byte	0
 3306 017d 00       		.byte	0
 3307 017e 1F       		.uleb128 0x1f
 3308 017f 0B       		.uleb128 0xb
 3309 0180 01       		.byte	0x1
 3310 0181 11       		.uleb128 0x11
 3311 0182 01       		.uleb128 0x1
 3312 0183 12       		.uleb128 0x12
 3313 0184 01       		.uleb128 0x1
 3314 0185 00       		.byte	0
 3315 0186 00       		.byte	0
 3316 0187 20       		.uleb128 0x20
 3317 0188 34       		.uleb128 0x34
 3318 0189 00       		.byte	0
 3319 018a 03       		.uleb128 0x3
 3320 018b 08       		.uleb128 0x8
 3321 018c 3A       		.uleb128 0x3a
 3322 018d 0B       		.uleb128 0xb
 3323 018e 3B       		.uleb128 0x3b
 3324 018f 0B       		.uleb128 0xb
 3325 0190 49       		.uleb128 0x49
 3326 0191 13       		.uleb128 0x13
 3327 0192 00       		.byte	0
 3328 0193 00       		.byte	0
 3329 0194 21       		.uleb128 0x21
 3330 0195 2E       		.uleb128 0x2e
 3331 0196 01       		.byte	0x1
 3332 0197 3F       		.uleb128 0x3f
 3333 0198 0C       		.uleb128 0xc
 3334 0199 03       		.uleb128 0x3
 3335 019a 0E       		.uleb128 0xe
 3336 019b 3A       		.uleb128 0x3a
 3337 019c 0B       		.uleb128 0xb
 3338 019d 3B       		.uleb128 0x3b
 3339 019e 05       		.uleb128 0x5
 3340 019f 27       		.uleb128 0x27
 3341 01a0 0C       		.uleb128 0xc
ARM GAS  /tmp/ccYEievQ.s 			page 60


 3342 01a1 11       		.uleb128 0x11
 3343 01a2 01       		.uleb128 0x1
 3344 01a3 12       		.uleb128 0x12
 3345 01a4 01       		.uleb128 0x1
 3346 01a5 40       		.uleb128 0x40
 3347 01a6 06       		.uleb128 0x6
 3348 01a7 01       		.uleb128 0x1
 3349 01a8 13       		.uleb128 0x13
 3350 01a9 00       		.byte	0
 3351 01aa 00       		.byte	0
 3352 01ab 22       		.uleb128 0x22
 3353 01ac 05       		.uleb128 0x5
 3354 01ad 00       		.byte	0
 3355 01ae 03       		.uleb128 0x3
 3356 01af 0E       		.uleb128 0xe
 3357 01b0 3A       		.uleb128 0x3a
 3358 01b1 0B       		.uleb128 0xb
 3359 01b2 3B       		.uleb128 0x3b
 3360 01b3 05       		.uleb128 0x5
 3361 01b4 49       		.uleb128 0x49
 3362 01b5 13       		.uleb128 0x13
 3363 01b6 02       		.uleb128 0x2
 3364 01b7 06       		.uleb128 0x6
 3365 01b8 00       		.byte	0
 3366 01b9 00       		.byte	0
 3367 01ba 23       		.uleb128 0x23
 3368 01bb 34       		.uleb128 0x34
 3369 01bc 00       		.byte	0
 3370 01bd 03       		.uleb128 0x3
 3371 01be 0E       		.uleb128 0xe
 3372 01bf 3A       		.uleb128 0x3a
 3373 01c0 0B       		.uleb128 0xb
 3374 01c1 3B       		.uleb128 0x3b
 3375 01c2 05       		.uleb128 0x5
 3376 01c3 49       		.uleb128 0x49
 3377 01c4 13       		.uleb128 0x13
 3378 01c5 02       		.uleb128 0x2
 3379 01c6 06       		.uleb128 0x6
 3380 01c7 00       		.byte	0
 3381 01c8 00       		.byte	0
 3382 01c9 24       		.uleb128 0x24
 3383 01ca 2E       		.uleb128 0x2e
 3384 01cb 01       		.byte	0x1
 3385 01cc 03       		.uleb128 0x3
 3386 01cd 0E       		.uleb128 0xe
 3387 01ce 3A       		.uleb128 0x3a
 3388 01cf 0B       		.uleb128 0xb
 3389 01d0 3B       		.uleb128 0x3b
 3390 01d1 0B       		.uleb128 0xb
 3391 01d2 27       		.uleb128 0x27
 3392 01d3 0C       		.uleb128 0xc
 3393 01d4 11       		.uleb128 0x11
 3394 01d5 01       		.uleb128 0x1
 3395 01d6 12       		.uleb128 0x12
 3396 01d7 01       		.uleb128 0x1
 3397 01d8 40       		.uleb128 0x40
 3398 01d9 06       		.uleb128 0x6
ARM GAS  /tmp/ccYEievQ.s 			page 61


 3399 01da 01       		.uleb128 0x1
 3400 01db 13       		.uleb128 0x13
 3401 01dc 00       		.byte	0
 3402 01dd 00       		.byte	0
 3403 01de 25       		.uleb128 0x25
 3404 01df 0B       		.uleb128 0xb
 3405 01e0 01       		.byte	0x1
 3406 01e1 11       		.uleb128 0x11
 3407 01e2 01       		.uleb128 0x1
 3408 01e3 12       		.uleb128 0x12
 3409 01e4 01       		.uleb128 0x1
 3410 01e5 01       		.uleb128 0x1
 3411 01e6 13       		.uleb128 0x13
 3412 01e7 00       		.byte	0
 3413 01e8 00       		.byte	0
 3414 01e9 26       		.uleb128 0x26
 3415 01ea 34       		.uleb128 0x34
 3416 01eb 00       		.byte	0
 3417 01ec 03       		.uleb128 0x3
 3418 01ed 0E       		.uleb128 0xe
 3419 01ee 3A       		.uleb128 0x3a
 3420 01ef 0B       		.uleb128 0xb
 3421 01f0 3B       		.uleb128 0x3b
 3422 01f1 0B       		.uleb128 0xb
 3423 01f2 49       		.uleb128 0x49
 3424 01f3 13       		.uleb128 0x13
 3425 01f4 02       		.uleb128 0x2
 3426 01f5 06       		.uleb128 0x6
 3427 01f6 00       		.byte	0
 3428 01f7 00       		.byte	0
 3429 01f8 27       		.uleb128 0x27
 3430 01f9 34       		.uleb128 0x34
 3431 01fa 00       		.byte	0
 3432 01fb 03       		.uleb128 0x3
 3433 01fc 08       		.uleb128 0x8
 3434 01fd 3A       		.uleb128 0x3a
 3435 01fe 0B       		.uleb128 0xb
 3436 01ff 3B       		.uleb128 0x3b
 3437 0200 0B       		.uleb128 0xb
 3438 0201 49       		.uleb128 0x49
 3439 0202 13       		.uleb128 0x13
 3440 0203 02       		.uleb128 0x2
 3441 0204 06       		.uleb128 0x6
 3442 0205 00       		.byte	0
 3443 0206 00       		.byte	0
 3444 0207 28       		.uleb128 0x28
 3445 0208 2E       		.uleb128 0x2e
 3446 0209 00       		.byte	0
 3447 020a 3F       		.uleb128 0x3f
 3448 020b 0C       		.uleb128 0xc
 3449 020c 03       		.uleb128 0x3
 3450 020d 0E       		.uleb128 0xe
 3451 020e 3A       		.uleb128 0x3a
 3452 020f 0B       		.uleb128 0xb
 3453 0210 3B       		.uleb128 0x3b
 3454 0211 05       		.uleb128 0x5
 3455 0212 27       		.uleb128 0x27
ARM GAS  /tmp/ccYEievQ.s 			page 62


 3456 0213 0C       		.uleb128 0xc
 3457 0214 11       		.uleb128 0x11
 3458 0215 01       		.uleb128 0x1
 3459 0216 12       		.uleb128 0x12
 3460 0217 01       		.uleb128 0x1
 3461 0218 40       		.uleb128 0x40
 3462 0219 0A       		.uleb128 0xa
 3463 021a 00       		.byte	0
 3464 021b 00       		.byte	0
 3465 021c 29       		.uleb128 0x29
 3466 021d 34       		.uleb128 0x34
 3467 021e 00       		.byte	0
 3468 021f 03       		.uleb128 0x3
 3469 0220 0E       		.uleb128 0xe
 3470 0221 3A       		.uleb128 0x3a
 3471 0222 0B       		.uleb128 0xb
 3472 0223 3B       		.uleb128 0x3b
 3473 0224 05       		.uleb128 0x5
 3474 0225 49       		.uleb128 0x49
 3475 0226 13       		.uleb128 0x13
 3476 0227 3F       		.uleb128 0x3f
 3477 0228 0C       		.uleb128 0xc
 3478 0229 3C       		.uleb128 0x3c
 3479 022a 0C       		.uleb128 0xc
 3480 022b 00       		.byte	0
 3481 022c 00       		.byte	0
 3482 022d 2A       		.uleb128 0x2a
 3483 022e 34       		.uleb128 0x34
 3484 022f 00       		.byte	0
 3485 0230 03       		.uleb128 0x3
 3486 0231 0E       		.uleb128 0xe
 3487 0232 3A       		.uleb128 0x3a
 3488 0233 0B       		.uleb128 0xb
 3489 0234 3B       		.uleb128 0x3b
 3490 0235 0B       		.uleb128 0xb
 3491 0236 49       		.uleb128 0x49
 3492 0237 13       		.uleb128 0x13
 3493 0238 3F       		.uleb128 0x3f
 3494 0239 0C       		.uleb128 0xc
 3495 023a 02       		.uleb128 0x2
 3496 023b 0A       		.uleb128 0xa
 3497 023c 00       		.byte	0
 3498 023d 00       		.byte	0
 3499 023e 00       		.byte	0
 3500              		.section	.debug_loc,"",%progbits
 3501              	.Ldebug_loc0:
 3502              	.LLST0:
 3503 0000 00000000 		.4byte	.LFB119
 3504 0004 02000000 		.4byte	.LCFI0
 3505 0008 0200     		.2byte	0x2
 3506 000a 7D       		.byte	0x7d
 3507 000b 00       		.sleb128 0
 3508 000c 02000000 		.4byte	.LCFI0
 3509 0010 38000000 		.4byte	.LFE119
 3510 0014 0200     		.2byte	0x2
 3511 0016 7D       		.byte	0x7d
 3512 0017 08       		.sleb128 8
ARM GAS  /tmp/ccYEievQ.s 			page 63


 3513 0018 00000000 		.4byte	0
 3514 001c 00000000 		.4byte	0
 3515              	.LLST1:
 3516 0020 00000000 		.4byte	.LFB120
 3517 0024 06000000 		.4byte	.LCFI1
 3518 0028 0200     		.2byte	0x2
 3519 002a 7D       		.byte	0x7d
 3520 002b 00       		.sleb128 0
 3521 002c 06000000 		.4byte	.LCFI1
 3522 0030 70000000 		.4byte	.LFE120
 3523 0034 0200     		.2byte	0x2
 3524 0036 7D       		.byte	0x7d
 3525 0037 08       		.sleb128 8
 3526 0038 00000000 		.4byte	0
 3527 003c 00000000 		.4byte	0
 3528              	.LLST2:
 3529 0040 00000000 		.4byte	.LVL0
 3530 0044 18000000 		.4byte	.LVL1
 3531 0048 0100     		.2byte	0x1
 3532 004a 50       		.byte	0x50
 3533 004b 18000000 		.4byte	.LVL1
 3534 004f 70000000 		.4byte	.LFE120
 3535 0053 0100     		.2byte	0x1
 3536 0055 54       		.byte	0x54
 3537 0056 00000000 		.4byte	0
 3538 005a 00000000 		.4byte	0
 3539              	.LLST3:
 3540 005e 00000000 		.4byte	.LFB121
 3541 0062 06000000 		.4byte	.LCFI2
 3542 0066 0200     		.2byte	0x2
 3543 0068 7D       		.byte	0x7d
 3544 0069 00       		.sleb128 0
 3545 006a 06000000 		.4byte	.LCFI2
 3546 006e 3A000000 		.4byte	.LFE121
 3547 0072 0200     		.2byte	0x2
 3548 0074 7D       		.byte	0x7d
 3549 0075 08       		.sleb128 8
 3550 0076 00000000 		.4byte	0
 3551 007a 00000000 		.4byte	0
 3552              	.LLST4:
 3553 007e 00000000 		.4byte	.LVL2
 3554 0082 0E000000 		.4byte	.LVL3
 3555 0086 0100     		.2byte	0x1
 3556 0088 50       		.byte	0x50
 3557 0089 0E000000 		.4byte	.LVL3
 3558 008d 3A000000 		.4byte	.LFE121
 3559 0091 0100     		.2byte	0x1
 3560 0093 54       		.byte	0x54
 3561 0094 00000000 		.4byte	0
 3562 0098 00000000 		.4byte	0
 3563              	.LLST5:
 3564 009c 00000000 		.4byte	.LFB122
 3565 00a0 0A000000 		.4byte	.LCFI3
 3566 00a4 0200     		.2byte	0x2
 3567 00a6 7D       		.byte	0x7d
 3568 00a7 00       		.sleb128 0
 3569 00a8 0A000000 		.4byte	.LCFI3
ARM GAS  /tmp/ccYEievQ.s 			page 64


 3570 00ac 80000000 		.4byte	.LFE122
 3571 00b0 0200     		.2byte	0x2
 3572 00b2 7D       		.byte	0x7d
 3573 00b3 18       		.sleb128 24
 3574 00b4 00000000 		.4byte	0
 3575 00b8 00000000 		.4byte	0
 3576              	.LLST6:
 3577 00bc 00000000 		.4byte	.LVL4
 3578 00c0 0C000000 		.4byte	.LVL7
 3579 00c4 0100     		.2byte	0x1
 3580 00c6 50       		.byte	0x50
 3581 00c7 10000000 		.4byte	.LVL8
 3582 00cb 5E000000 		.4byte	.LVL11
 3583 00cf 0100     		.2byte	0x1
 3584 00d1 50       		.byte	0x50
 3585 00d2 00000000 		.4byte	0
 3586 00d6 00000000 		.4byte	0
 3587              	.LLST7:
 3588 00da 04000000 		.4byte	.LVL6
 3589 00de 10000000 		.4byte	.LVL8
 3590 00e2 0200     		.2byte	0x2
 3591 00e4 70       		.byte	0x70
 3592 00e5 30       		.sleb128 48
 3593 00e6 10000000 		.4byte	.LVL8
 3594 00ea 44000000 		.4byte	.LVL10
 3595 00ee 0100     		.2byte	0x1
 3596 00f0 52       		.byte	0x52
 3597 00f1 44000000 		.4byte	.LVL10
 3598 00f5 5E000000 		.4byte	.LVL11
 3599 00f9 0400     		.2byte	0x4
 3600 00fb 70       		.byte	0x70
 3601 00fc 2C       		.sleb128 44
 3602 00fd 06       		.byte	0x6
 3603 00fe 06       		.byte	0x6
 3604 00ff 00000000 		.4byte	0
 3605 0103 00000000 		.4byte	0
 3606              	.LLST8:
 3607 0107 02000000 		.4byte	.LVL5
 3608 010b 5E000000 		.4byte	.LVL11
 3609 010f 0200     		.2byte	0x2
 3610 0111 70       		.byte	0x70
 3611 0112 10       		.sleb128 16
 3612 0113 00000000 		.4byte	0
 3613 0117 00000000 		.4byte	0
 3614              	.LLST9:
 3615 011b 00000000 		.4byte	.LFB123
 3616 011f 06000000 		.4byte	.LCFI4
 3617 0123 0200     		.2byte	0x2
 3618 0125 7D       		.byte	0x7d
 3619 0126 00       		.sleb128 0
 3620 0127 06000000 		.4byte	.LCFI4
 3621 012b 30000000 		.4byte	.LFE123
 3622 012f 0200     		.2byte	0x2
 3623 0131 7D       		.byte	0x7d
 3624 0132 04       		.sleb128 4
 3625 0133 00000000 		.4byte	0
 3626 0137 00000000 		.4byte	0
ARM GAS  /tmp/ccYEievQ.s 			page 65


 3627              	.LLST10:
 3628 013b 00000000 		.4byte	.LVL12
 3629 013f 1E000000 		.4byte	.LVL13
 3630 0143 0100     		.2byte	0x1
 3631 0145 50       		.byte	0x50
 3632 0146 00000000 		.4byte	0
 3633 014a 00000000 		.4byte	0
 3634              	.LLST11:
 3635 014e 00000000 		.4byte	.LFB117
 3636 0152 06000000 		.4byte	.LCFI5
 3637 0156 0200     		.2byte	0x2
 3638 0158 7D       		.byte	0x7d
 3639 0159 00       		.sleb128 0
 3640 015a 06000000 		.4byte	.LCFI5
 3641 015e 02010000 		.4byte	.LFE117
 3642 0162 0200     		.2byte	0x2
 3643 0164 7D       		.byte	0x7d
 3644 0165 10       		.sleb128 16
 3645 0166 00000000 		.4byte	0
 3646 016a 00000000 		.4byte	0
 3647              	.LLST12:
 3648 016e 00000000 		.4byte	.LVL14
 3649 0172 21000000 		.4byte	.LVL16-1
 3650 0176 0100     		.2byte	0x1
 3651 0178 50       		.byte	0x50
 3652 0179 21000000 		.4byte	.LVL16-1
 3653 017d 02010000 		.4byte	.LFE117
 3654 0181 0100     		.2byte	0x1
 3655 0183 54       		.byte	0x54
 3656 0184 00000000 		.4byte	0
 3657 0188 00000000 		.4byte	0
 3658              	.LLST13:
 3659 018c 00000000 		.4byte	.LVL14
 3660 0190 1E000000 		.4byte	.LVL15
 3661 0194 0100     		.2byte	0x1
 3662 0196 51       		.byte	0x51
 3663 0197 1E000000 		.4byte	.LVL15
 3664 019b 3A000000 		.4byte	.LVL17
 3665 019f 0100     		.2byte	0x1
 3666 01a1 55       		.byte	0x55
 3667 01a2 4C000000 		.4byte	.LVL20
 3668 01a6 70000000 		.4byte	.LVL22
 3669 01aa 0100     		.2byte	0x1
 3670 01ac 55       		.byte	0x55
 3671 01ad 9C000000 		.4byte	.LVL31
 3672 01b1 9F000000 		.4byte	.LVL32-1
 3673 01b5 0100     		.2byte	0x1
 3674 01b7 51       		.byte	0x51
 3675 01b8 9F000000 		.4byte	.LVL32-1
 3676 01bc E8000000 		.4byte	.LVL41
 3677 01c0 0100     		.2byte	0x1
 3678 01c2 55       		.byte	0x55
 3679 01c3 F2000000 		.4byte	.LVL42
 3680 01c7 02010000 		.4byte	.LFE117
 3681 01cb 0100     		.2byte	0x1
 3682 01cd 55       		.byte	0x55
 3683 01ce 00000000 		.4byte	0
ARM GAS  /tmp/ccYEievQ.s 			page 66


 3684 01d2 00000000 		.4byte	0
 3685              	.LLST14:
 3686 01d6 3E000000 		.4byte	.LVL18
 3687 01da 49000000 		.4byte	.LVL19-1
 3688 01de 0100     		.2byte	0x1
 3689 01e0 52       		.byte	0x52
 3690 01e1 00000000 		.4byte	0
 3691 01e5 00000000 		.4byte	0
 3692              	.LLST15:
 3693 01e9 3E000000 		.4byte	.LVL18
 3694 01ed 49000000 		.4byte	.LVL19-1
 3695 01f1 0F00     		.2byte	0xf
 3696 01f3 74       		.byte	0x74
 3697 01f4 10       		.sleb128 16
 3698 01f5 06       		.byte	0x6
 3699 01f6 23       		.byte	0x23
 3700 01f7 04       		.uleb128 0x4
 3701 01f8 94       		.byte	0x94
 3702 01f9 02       		.byte	0x2
 3703 01fa 40       		.byte	0x40
 3704 01fb 24       		.byte	0x24
 3705 01fc 40       		.byte	0x40
 3706 01fd 25       		.byte	0x25
 3707 01fe 72       		.byte	0x72
 3708 01ff 00       		.sleb128 0
 3709 0200 1E       		.byte	0x1e
 3710 0201 9F       		.byte	0x9f
 3711 0202 00000000 		.4byte	0
 3712 0206 00000000 		.4byte	0
 3713              	.LLST16:
 3714 020a 6C000000 		.4byte	.LVL21
 3715 020e 77000000 		.4byte	.LVL23-1
 3716 0212 0100     		.2byte	0x1
 3717 0214 52       		.byte	0x52
 3718 0215 00000000 		.4byte	0
 3719 0219 00000000 		.4byte	0
 3720              	.LLST17:
 3721 021d 6C000000 		.4byte	.LVL21
 3722 0221 77000000 		.4byte	.LVL23-1
 3723 0225 0F00     		.2byte	0xf
 3724 0227 74       		.byte	0x74
 3725 0228 10       		.sleb128 16
 3726 0229 06       		.byte	0x6
 3727 022a 23       		.byte	0x23
 3728 022b 04       		.uleb128 0x4
 3729 022c 94       		.byte	0x94
 3730 022d 02       		.byte	0x2
 3731 022e 40       		.byte	0x40
 3732 022f 24       		.byte	0x24
 3733 0230 40       		.byte	0x40
 3734 0231 25       		.byte	0x25
 3735 0232 72       		.byte	0x72
 3736 0233 00       		.sleb128 0
 3737 0234 1E       		.byte	0x1e
 3738 0235 9F       		.byte	0x9f
 3739 0236 00000000 		.4byte	0
 3740 023a 00000000 		.4byte	0
ARM GAS  /tmp/ccYEievQ.s 			page 67


 3741              	.LLST18:
 3742 023e 84000000 		.4byte	.LVL25
 3743 0242 86000000 		.4byte	.LVL26
 3744 0246 0100     		.2byte	0x1
 3745 0248 53       		.byte	0x53
 3746 0249 00000000 		.4byte	0
 3747 024d 00000000 		.4byte	0
 3748              	.LLST19:
 3749 0251 88000000 		.4byte	.LVL27
 3750 0255 93000000 		.4byte	.LVL28-1
 3751 0259 0200     		.2byte	0x2
 3752 025b 74       		.byte	0x74
 3753 025c 14       		.sleb128 20
 3754 025d 00000000 		.4byte	0
 3755 0261 00000000 		.4byte	0
 3756              	.LLST20:
 3757 0265 9A000000 		.4byte	.LVL30
 3758 0269 9C000000 		.4byte	.LVL31
 3759 026d 0100     		.2byte	0x1
 3760 026f 53       		.byte	0x53
 3761 0270 00000000 		.4byte	0
 3762 0274 00000000 		.4byte	0
 3763              	.LLST21:
 3764 0278 C0000000 		.4byte	.LVL34
 3765 027c C2000000 		.4byte	.LVL35
 3766 0280 0100     		.2byte	0x1
 3767 0282 53       		.byte	0x53
 3768 0283 00000000 		.4byte	0
 3769 0287 00000000 		.4byte	0
 3770              	.LLST22:
 3771 028b C4000000 		.4byte	.LVL36
 3772 028f D1000000 		.4byte	.LVL37-1
 3773 0293 0200     		.2byte	0x2
 3774 0295 74       		.byte	0x74
 3775 0296 14       		.sleb128 20
 3776 0297 00000000 		.4byte	0
 3777 029b 00000000 		.4byte	0
 3778              	.LLST23:
 3779 029f D8000000 		.4byte	.LVL39
 3780 02a3 DA000000 		.4byte	.LVL40
 3781 02a7 0100     		.2byte	0x1
 3782 02a9 53       		.byte	0x53
 3783 02aa 00000000 		.4byte	0
 3784 02ae 00000000 		.4byte	0
 3785              	.LLST24:
 3786 02b2 00000000 		.4byte	.LFB118
 3787 02b6 0E000000 		.4byte	.LCFI6
 3788 02ba 0200     		.2byte	0x2
 3789 02bc 7D       		.byte	0x7d
 3790 02bd 00       		.sleb128 0
 3791 02be 0E000000 		.4byte	.LCFI6
 3792 02c2 7A000000 		.4byte	.LFE118
 3793 02c6 0200     		.2byte	0x2
 3794 02c8 7D       		.byte	0x7d
 3795 02c9 08       		.sleb128 8
 3796 02ca 00000000 		.4byte	0
 3797 02ce 00000000 		.4byte	0
ARM GAS  /tmp/ccYEievQ.s 			page 68


 3798              	.LLST25:
 3799 02d2 0C000000 		.4byte	.LVL43
 3800 02d6 20000000 		.4byte	.LVL44
 3801 02da 0100     		.2byte	0x1
 3802 02dc 52       		.byte	0x52
 3803 02dd 00000000 		.4byte	0
 3804 02e1 00000000 		.4byte	0
 3805              	.LLST26:
 3806 02e5 56000000 		.4byte	.LVL46
 3807 02e9 5E000000 		.4byte	.LVL48
 3808 02ed 0100     		.2byte	0x1
 3809 02ef 53       		.byte	0x53
 3810 02f0 66000000 		.4byte	.LVL49
 3811 02f4 68000000 		.4byte	.LVL50
 3812 02f8 0100     		.2byte	0x1
 3813 02fa 53       		.byte	0x53
 3814 02fb 00000000 		.4byte	0
 3815 02ff 00000000 		.4byte	0
 3816              	.LLST27:
 3817 0303 5A000000 		.4byte	.LVL47
 3818 0307 65000000 		.4byte	.LVL49-1
 3819 030b 0500     		.2byte	0x5
 3820 030d 03       		.byte	0x3
 3821 030e 14000000 		.4byte	ADCD1+20
 3822 0312 00000000 		.4byte	0
 3823 0316 00000000 		.4byte	0
 3824              	.LLST28:
 3825 031a 6C000000 		.4byte	.LVL51
 3826 031e 73000000 		.4byte	.LVL52-1
 3827 0322 0100     		.2byte	0x1
 3828 0324 53       		.byte	0x53
 3829 0325 00000000 		.4byte	0
 3830 0329 00000000 		.4byte	0
 3831              		.section	.debug_aranges,"",%progbits
 3832 0000 6C000000 		.4byte	0x6c
 3833 0004 0200     		.2byte	0x2
 3834 0006 00000000 		.4byte	.Ldebug_info0
 3835 000a 04       		.byte	0x4
 3836 000b 00       		.byte	0
 3837 000c 0000     		.2byte	0
 3838 000e 0000     		.2byte	0
 3839 0010 00000000 		.4byte	.LFB119
 3840 0014 38000000 		.4byte	.LFE119-.LFB119
 3841 0018 00000000 		.4byte	.LFB120
 3842 001c 70000000 		.4byte	.LFE120-.LFB120
 3843 0020 00000000 		.4byte	.LFB121
 3844 0024 3A000000 		.4byte	.LFE121-.LFB121
 3845 0028 00000000 		.4byte	.LFB122
 3846 002c 80000000 		.4byte	.LFE122-.LFB122
 3847 0030 00000000 		.4byte	.LFB123
 3848 0034 30000000 		.4byte	.LFE123-.LFB123
 3849 0038 00000000 		.4byte	.LFB117
 3850 003c 02010000 		.4byte	.LFE117-.LFB117
 3851 0040 00000000 		.4byte	.LFB118
 3852 0044 7A000000 		.4byte	.LFE118-.LFB118
 3853 0048 00000000 		.4byte	.LFB124
 3854 004c 12000000 		.4byte	.LFE124-.LFB124
ARM GAS  /tmp/ccYEievQ.s 			page 69


 3855 0050 00000000 		.4byte	.LFB125
 3856 0054 12000000 		.4byte	.LFE125-.LFB125
 3857 0058 00000000 		.4byte	.LFB126
 3858 005c 12000000 		.4byte	.LFE126-.LFB126
 3859 0060 00000000 		.4byte	.LFB127
 3860 0064 12000000 		.4byte	.LFE127-.LFB127
 3861 0068 00000000 		.4byte	0
 3862 006c 00000000 		.4byte	0
 3863              		.section	.debug_ranges,"",%progbits
 3864              	.Ldebug_ranges0:
 3865 0000 00000000 		.4byte	.LFB119
 3866 0004 38000000 		.4byte	.LFE119
 3867 0008 00000000 		.4byte	.LFB120
 3868 000c 70000000 		.4byte	.LFE120
 3869 0010 00000000 		.4byte	.LFB121
 3870 0014 3A000000 		.4byte	.LFE121
 3871 0018 00000000 		.4byte	.LFB122
 3872 001c 80000000 		.4byte	.LFE122
 3873 0020 00000000 		.4byte	.LFB123
 3874 0024 30000000 		.4byte	.LFE123
 3875 0028 00000000 		.4byte	.LFB117
 3876 002c 02010000 		.4byte	.LFE117
 3877 0030 00000000 		.4byte	.LFB118
 3878 0034 7A000000 		.4byte	.LFE118
 3879 0038 00000000 		.4byte	.LFB124
 3880 003c 12000000 		.4byte	.LFE124
 3881 0040 00000000 		.4byte	.LFB125
 3882 0044 12000000 		.4byte	.LFE125
 3883 0048 00000000 		.4byte	.LFB126
 3884 004c 12000000 		.4byte	.LFE126
 3885 0050 00000000 		.4byte	.LFB127
 3886 0054 12000000 		.4byte	.LFE127
 3887 0058 00000000 		.4byte	0
 3888 005c 00000000 		.4byte	0
 3889              		.section	.debug_line,"",%progbits
 3890              	.Ldebug_line0:
 3891 0000 47040000 		.section	.debug_str,"MS",%progbits,1
 3891      02003C02 
 3891      00000201 
 3891      FB0E0D00 
 3891      01010101 
 3892              	.LASF163:
 3893 0000 4D314152 		.ascii	"M1AR\000"
 3893      00
 3894              	.LASF2:
 3895 0005 73697A65 		.ascii	"size_t\000"
 3895      5F7400
 3896              	.LASF107:
 3897 000c 54494D38 		.ascii	"TIM8_UP_TIM13_IRQn\000"
 3897      5F55505F 
 3897      54494D31 
 3897      335F4952 
 3897      516E00
 3898              	.LASF230:
 3899 001f 73717231 		.ascii	"sqr1\000"
 3899      00
 3900              	.LASF231:
ARM GAS  /tmp/ccYEievQ.s 			page 70


 3901 0024 73717232 		.ascii	"sqr2\000"
 3901      00
 3902              	.LASF232:
 3903 0029 73717233 		.ascii	"sqr3\000"
 3903      00
 3904              	.LASF236:
 3905 002e 6164635F 		.ascii	"adc_lld_start\000"
 3905      6C6C645F 
 3905      73746172 
 3905      7400
 3906              	.LASF21:
 3907 003c 73797374 		.ascii	"systime_t\000"
 3907      696D655F 
 3907      7400
 3908              	.LASF191:
 3909 0046 504C4C49 		.ascii	"PLLI2SCFGR\000"
 3909      32534346 
 3909      475200
 3910              	.LASF26:
 3911 0051 705F6374 		.ascii	"p_ctx\000"
 3911      7800
 3912              	.LASF18:
 3913 0057 74707269 		.ascii	"tprio_t\000"
 3913      6F5F7400 
 3914              	.LASF222:
 3915 005f 61646363 		.ascii	"adccallback_t\000"
 3915      616C6C62 
 3915      61636B5F 
 3915      7400
 3916              	.LASF151:
 3917 006d 53515231 		.ascii	"SQR1\000"
 3917      00
 3918              	.LASF152:
 3919 0072 53515232 		.ascii	"SQR2\000"
 3919      00
 3920              	.LASF153:
 3921 0077 53515233 		.ascii	"SQR3\000"
 3921      00
 3922              	.LASF35:
 3923 007c 705F6D73 		.ascii	"p_msgqueue\000"
 3923      67717565 
 3923      756500
 3924              	.LASF8:
 3925 0087 696E7433 		.ascii	"int32_t\000"
 3925      325F7400 
 3926              	.LASF206:
 3927 008f 61646373 		.ascii	"adcstate_t\000"
 3927      74617465 
 3927      5F7400
 3928              	.LASF209:
 3929 009a 4144435F 		.ascii	"ADC_ERR_DMAFAILURE\000"
 3929      4552525F 
 3929      444D4146 
 3929      41494C55 
 3929      524500
 3930              	.LASF120:
 3931 00ad 444D4132 		.ascii	"DMA2_Stream1_IRQn\000"
ARM GAS  /tmp/ccYEievQ.s 			page 71


 3931      5F537472 
 3931      65616D31 
 3931      5F495251 
 3931      6E00
 3932              	.LASF114:
 3933 00bf 53504933 		.ascii	"SPI3_IRQn\000"
 3933      5F495251 
 3933      6E00
 3934              	.LASF67:
 3935 00c9 464C4153 		.ascii	"FLASH_IRQn\000"
 3935      485F4952 
 3935      516E00
 3936              	.LASF141:
 3937 00d4 44434D49 		.ascii	"DCMI_IRQn\000"
 3937      5F495251 
 3937      6E00
 3938              	.LASF214:
 3939 00de 636F6E66 		.ascii	"config\000"
 3939      696700
 3940              	.LASF213:
 3941 00e5 73746174 		.ascii	"state\000"
 3941      6500
 3942              	.LASF91:
 3943 00eb 54494D32 		.ascii	"TIM2_IRQn\000"
 3943      5F495251 
 3943      6E00
 3944              	.LASF250:
 3945 00f5 61646353 		.ascii	"adcSTM32DisableVBATE\000"
 3945      544D3332 
 3945      44697361 
 3945      626C6556 
 3945      42415445 
 3946              	.LASF227:
 3947 010a 6572726F 		.ascii	"error_cb\000"
 3947      725F6362 
 3947      00
 3948              	.LASF127:
 3949 0113 43414E32 		.ascii	"CAN2_RX0_IRQn\000"
 3949      5F525830 
 3949      5F495251 
 3949      6E00
 3950              	.LASF134:
 3951 0121 55534152 		.ascii	"USART6_IRQn\000"
 3951      54365F49 
 3951      52516E00 
 3952              	.LASF48:
 3953 012d 6D5F6F77 		.ascii	"m_owner\000"
 3953      6E657200 
 3954              	.LASF158:
 3955 0135 4A445234 		.ascii	"JDR4\000"
 3955      00
 3956              	.LASF226:
 3957 013a 656E645F 		.ascii	"end_cb\000"
 3957      636200
 3958              	.LASF51:
 3959 0141 65786974 		.ascii	"exitcode\000"
 3959      636F6465 
ARM GAS  /tmp/ccYEievQ.s 			page 72


 3959      00
 3960              	.LASF139:
 3961 014a 4F54475F 		.ascii	"OTG_HS_WKUP_IRQn\000"
 3961      48535F57 
 3961      4B55505F 
 3961      4952516E 
 3961      00
 3962              	.LASF99:
 3963 015b 53504932 		.ascii	"SPI2_IRQn\000"
 3963      5F495251 
 3963      6E00
 3964              	.LASF106:
 3965 0165 54494D38 		.ascii	"TIM8_BRK_TIM12_IRQn\000"
 3965      5F42524B 
 3965      5F54494D 
 3965      31325F49 
 3965      52516E00 
 3966              	.LASF182:
 3967 0179 41484232 		.ascii	"AHB2LPENR\000"
 3967      4C50454E 
 3967      5200
 3968              	.LASF27:
 3969 0183 705F6E65 		.ascii	"p_newer\000"
 3969      77657200 
 3970              	.LASF9:
 3971 018b 6C6F6E67 		.ascii	"long int\000"
 3971      20696E74 
 3971      00
 3972              	.LASF23:
 3973 0194 705F6E65 		.ascii	"p_next\000"
 3973      787400
 3974              	.LASF24:
 3975 019b 705F7072 		.ascii	"p_prev\000"
 3975      657600
 3976              	.LASF221:
 3977 01a2 646D616D 		.ascii	"dmamode\000"
 3977      6F646500 
 3978              	.LASF131:
 3979 01aa 444D4132 		.ascii	"DMA2_Stream5_IRQn\000"
 3979      5F537472 
 3979      65616D35 
 3979      5F495251 
 3979      6E00
 3980              	.LASF16:
 3981 01bc 74737461 		.ascii	"tstate_t\000"
 3981      74655F74 
 3981      00
 3982              	.LASF245:
 3983 01c5 56656374 		.ascii	"Vector88\000"
 3983      6F723838 
 3983      00
 3984              	.LASF38:
 3985 01ce 705F6D74 		.ascii	"p_mtxlist\000"
 3985      786C6973 
 3985      7400
 3986              	.LASF89:
 3987 01d8 54494D31 		.ascii	"TIM1_TRG_COM_TIM11_IRQn\000"
ARM GAS  /tmp/ccYEievQ.s 			page 73


 3987      5F545247 
 3987      5F434F4D 
 3987      5F54494D 
 3987      31315F49 
 3988              	.LASF43:
 3989 01f0 72656761 		.ascii	"regarm_t\000"
 3989      726D5F74 
 3989      00
 3990              	.LASF237:
 3991 01f9 6164635F 		.ascii	"adc_lld_stop\000"
 3991      6C6C645F 
 3991      73746F70 
 3991      00
 3992              	.LASF179:
 3993 0206 41504232 		.ascii	"APB2ENR\000"
 3993      454E5200 
 3994              	.LASF181:
 3995 020e 41484231 		.ascii	"AHB1LPENR\000"
 3995      4C50454E 
 3995      5200
 3996              	.LASF62:
 3997 0218 53797354 		.ascii	"SysTick_IRQn\000"
 3997      69636B5F 
 3997      4952516E 
 3997      00
 3998              	.LASF102:
 3999 0225 55534152 		.ascii	"USART3_IRQn\000"
 3999      54335F49 
 3999      52516E00 
 4000              	.LASF247:
 4001 0231 61646353 		.ascii	"adcSTM32EnableTSVREFE\000"
 4001      544D3332 
 4001      456E6162 
 4001      6C655453 
 4001      56524546 
 4002              	.LASF1:
 4003 0247 7369676E 		.ascii	"signed char\000"
 4003      65642063 
 4003      68617200 
 4004              	.LASF53:
 4005 0253 65776D61 		.ascii	"ewmask\000"
 4005      736B00
 4006              	.LASF3:
 4007 025a 75696E74 		.ascii	"uint8_t\000"
 4007      385F7400 
 4008              	.LASF20:
 4009 0262 6576656E 		.ascii	"eventmask_t\000"
 4009      746D6173 
 4009      6B5F7400 
 4010              	.LASF45:
 4011 026e 636F6E74 		.ascii	"context\000"
 4011      65787400 
 4012              	.LASF76:
 4013 0276 444D4131 		.ascii	"DMA1_Stream2_IRQn\000"
 4013      5F537472 
 4013      65616D32 
 4013      5F495251 
ARM GAS  /tmp/ccYEievQ.s 			page 74


 4013      6E00
 4014              	.LASF170:
 4015 0288 52455345 		.ascii	"RESERVED0\000"
 4015      52564544 
 4015      3000
 4016              	.LASF173:
 4017 0292 52455345 		.ascii	"RESERVED1\000"
 4017      52564544 
 4017      3100
 4018              	.LASF4:
 4019 029c 756E7369 		.ascii	"unsigned char\000"
 4019      676E6564 
 4019      20636861 
 4019      7200
 4020              	.LASF123:
 4021 02aa 444D4132 		.ascii	"DMA2_Stream4_IRQn\000"
 4021      5F537472 
 4021      65616D34 
 4021      5F495251 
 4021      6E00
 4022              	.LASF184:
 4023 02bc 52455345 		.ascii	"RESERVED4\000"
 4023      52564544 
 4023      3400
 4024              	.LASF187:
 4025 02c6 52455345 		.ascii	"RESERVED5\000"
 4025      52564544 
 4025      3500
 4026              	.LASF189:
 4027 02d0 52455345 		.ascii	"RESERVED6\000"
 4027      52564544 
 4027      3600
 4028              	.LASF211:
 4029 02da 61646365 		.ascii	"adcerror_t\000"
 4029      72726F72 
 4029      5F7400
 4030              	.LASF95:
 4031 02e5 49324331 		.ascii	"I2C1_ER_IRQn\000"
 4031      5F45525F 
 4031      4952516E 
 4031      00
 4032              	.LASF200:
 4033 02f2 4144435F 		.ascii	"ADC_UNINIT\000"
 4033      554E494E 
 4033      495400
 4034              	.LASF129:
 4035 02fd 43414E32 		.ascii	"CAN2_SCE_IRQn\000"
 4035      5F534345 
 4035      5F495251 
 4035      6E00
 4036              	.LASF202:
 4037 030b 4144435F 		.ascii	"ADC_READY\000"
 4037      52454144 
 4037      5900
 4038              	.LASF177:
 4039 0315 52455345 		.ascii	"RESERVED2\000"
 4039      52564544 
ARM GAS  /tmp/ccYEievQ.s 			page 75


 4039      3200
 4040              	.LASF180:
 4041 031f 52455345 		.ascii	"RESERVED3\000"
 4041      52564544 
 4041      3300
 4042              	.LASF113:
 4043 0329 54494D35 		.ascii	"TIM5_IRQn\000"
 4043      5F495251 
 4043      6E00
 4044              	.LASF207:
 4045 0333 61646373 		.ascii	"adcsample_t\000"
 4045      616D706C 
 4045      655F7400 
 4046              	.LASF58:
 4047 033f 55736167 		.ascii	"UsageFault_IRQn\000"
 4047      65466175 
 4047      6C745F49 
 4047      52516E00 
 4048              	.LASF54:
 4049 034f 63686172 		.ascii	"char\000"
 4049      00
 4050              	.LASF195:
 4051 0354 69736869 		.ascii	"ishift\000"
 4051      667400
 4052              	.LASF25:
 4053 035b 705F7072 		.ascii	"p_prio\000"
 4053      696F00
 4054              	.LASF175:
 4055 0362 41484232 		.ascii	"AHB2ENR\000"
 4055      454E5200 
 4056              	.LASF52:
 4057 036a 77746F62 		.ascii	"wtobjp\000"
 4057      6A7000
 4058              	.LASF83:
 4059 0371 43414E31 		.ascii	"CAN1_RX0_IRQn\000"
 4059      5F525830 
 4059      5F495251 
 4059      6E00
 4060              	.LASF205:
 4061 037f 4144435F 		.ascii	"ADC_ERROR\000"
 4061      4552524F 
 4061      5200
 4062              	.LASF242:
 4063 0389 666C6167 		.ascii	"flags\000"
 4063      7300
 4064              	.LASF224:
 4065 038f 63697263 		.ascii	"circular\000"
 4065      756C6172 
 4065      00
 4066              	.LASF93:
 4067 0398 54494D34 		.ascii	"TIM4_IRQn\000"
 4067      5F495251 
 4067      6E00
 4068              	.LASF101:
 4069 03a2 55534152 		.ascii	"USART2_IRQn\000"
 4069      54325F49 
 4069      52516E00 
ARM GAS  /tmp/ccYEievQ.s 			page 76


 4070              	.LASF193:
 4071 03ae 73747265 		.ascii	"stream\000"
 4071      616D00
 4072              	.LASF188:
 4073 03b5 42444352 		.ascii	"BDCR\000"
 4073      00
 4074              	.LASF215:
 4075 03ba 73616D70 		.ascii	"samples\000"
 4075      6C657300 
 4076              	.LASF94:
 4077 03c2 49324331 		.ascii	"I2C1_EV_IRQn\000"
 4077      5F45565F 
 4077      4952516E 
 4077      00
 4078              	.LASF159:
 4079 03cf 4144435F 		.ascii	"ADC_TypeDef\000"
 4079      54797065 
 4079      44656600 
 4080              	.LASF44:
 4081 03db 696E7463 		.ascii	"intctx\000"
 4081      747800
 4082              	.LASF37:
 4083 03e2 705F6570 		.ascii	"p_epending\000"
 4083      656E6469 
 4083      6E6700
 4084              	.LASF166:
 4085 03ed 43464752 		.ascii	"CFGR\000"
 4085      00
 4086              	.LASF90:
 4087 03f2 54494D31 		.ascii	"TIM1_CC_IRQn\000"
 4087      5F43435F 
 4087      4952516E 
 4087      00
 4088              	.LASF143:
 4089 03ff 48415348 		.ascii	"HASH_RNG_IRQn\000"
 4089      5F524E47 
 4089      5F495251 
 4089      6E00
 4090              	.LASF70:
 4091 040d 45585449 		.ascii	"EXTI1_IRQn\000"
 4091      315F4952 
 4091      516E00
 4092              	.LASF82:
 4093 0418 43414E31 		.ascii	"CAN1_TX_IRQn\000"
 4093      5F54585F 
 4093      4952516E 
 4093      00
 4094              	.LASF79:
 4095 0425 444D4131 		.ascii	"DMA1_Stream5_IRQn\000"
 4095      5F537472 
 4095      65616D35 
 4095      5F495251 
 4095      6E00
 4096              	.LASF108:
 4097 0437 54494D38 		.ascii	"TIM8_TRG_COM_TIM14_IRQn\000"
 4097      5F545247 
 4097      5F434F4D 
ARM GAS  /tmp/ccYEievQ.s 			page 77


 4097      5F54494D 
 4097      31345F49 
 4098              	.LASF133:
 4099 044f 444D4132 		.ascii	"DMA2_Stream7_IRQn\000"
 4099      5F537472 
 4099      65616D37 
 4099      5F495251 
 4099      6E00
 4100              	.LASF130:
 4101 0461 4F54475F 		.ascii	"OTG_FS_IRQn\000"
 4101      46535F49 
 4101      52516E00 
 4102              	.LASF55:
 4103 046d 4E6F6E4D 		.ascii	"NonMaskableInt_IRQn\000"
 4103      61736B61 
 4103      626C6549 
 4103      6E745F49 
 4103      52516E00 
 4104              	.LASF63:
 4105 0481 57574447 		.ascii	"WWDG_IRQn\000"
 4105      5F495251 
 4105      6E00
 4106              	.LASF11:
 4107 048b 6C6F6E67 		.ascii	"long unsigned int\000"
 4107      20756E73 
 4107      69676E65 
 4107      6420696E 
 4107      7400
 4108              	.LASF178:
 4109 049d 41504231 		.ascii	"APB1ENR\000"
 4109      454E5200 
 4110              	.LASF220:
 4111 04a5 646D6173 		.ascii	"dmastp\000"
 4111      747000
 4112              	.LASF56:
 4113 04ac 4D656D6F 		.ascii	"MemoryManagement_IRQn\000"
 4113      72794D61 
 4113      6E616765 
 4113      6D656E74 
 4113      5F495251 
 4114              	.LASF65:
 4115 04c2 54414D50 		.ascii	"TAMP_STAMP_IRQn\000"
 4115      5F535441 
 4115      4D505F49 
 4115      52516E00 
 4116              	.LASF85:
 4117 04d2 43414E31 		.ascii	"CAN1_SCE_IRQn\000"
 4117      5F534345 
 4117      5F495251 
 4117      6E00
 4118              	.LASF252:
 4119 04e0 5F73746D 		.ascii	"_stm32_dma_streams\000"
 4119      33325F64 
 4119      6D615F73 
 4119      74726561 
 4119      6D7300
 4120              	.LASF119:
ARM GAS  /tmp/ccYEievQ.s 			page 78


 4121 04f3 444D4132 		.ascii	"DMA2_Stream0_IRQn\000"
 4121      5F537472 
 4121      65616D30 
 4121      5F495251 
 4121      6E00
 4122              	.LASF145:
 4123 0505 534D5052 		.ascii	"SMPR1\000"
 4123      3100
 4124              	.LASF146:
 4125 050b 534D5052 		.ascii	"SMPR2\000"
 4125      3200
 4126              	.LASF198:
 4127 0511 73746D33 		.ascii	"stm32_dma_stream_t\000"
 4127      325F646D 
 4127      615F7374 
 4127      7265616D 
 4127      5F7400
 4128              	.LASF97:
 4129 0524 49324332 		.ascii	"I2C2_ER_IRQn\000"
 4129      5F45525F 
 4129      4952516E 
 4129      00
 4130              	.LASF233:
 4131 0531 41444343 		.ascii	"ADCConversionGroup\000"
 4131      6F6E7665 
 4131      7273696F 
 4131      6E47726F 
 4131      757000
 4132              	.LASF204:
 4133 0544 4144435F 		.ascii	"ADC_COMPLETE\000"
 4133      434F4D50 
 4133      4C455445 
 4133      00
 4134              	.LASF228:
 4135 0551 736D7072 		.ascii	"smpr1\000"
 4135      3100
 4136              	.LASF229:
 4137 0557 736D7072 		.ascii	"smpr2\000"
 4137      3200
 4138              	.LASF239:
 4139 055d 6164635F 		.ascii	"adc_lld_start_conversion\000"
 4139      6C6C645F 
 4139      73746172 
 4139      745F636F 
 4139      6E766572 
 4140              	.LASF57:
 4141 0576 42757346 		.ascii	"BusFault_IRQn\000"
 4141      61756C74 
 4141      5F495251 
 4141      6E00
 4142              	.LASF165:
 4143 0584 504C4C43 		.ascii	"PLLCFGR\000"
 4143      46475200 
 4144              	.LASF116:
 4145 058c 55415254 		.ascii	"UART5_IRQn\000"
 4145      355F4952 
 4145      516E00
ARM GAS  /tmp/ccYEievQ.s 			page 79


 4146              	.LASF87:
 4147 0597 54494D31 		.ascii	"TIM1_BRK_TIM9_IRQn\000"
 4147      5F42524B 
 4147      5F54494D 
 4147      395F4952 
 4147      516E00
 4148              	.LASF46:
 4149 05aa 4D757465 		.ascii	"Mutex\000"
 4149      7800
 4150              	.LASF118:
 4151 05b0 54494D37 		.ascii	"TIM7_IRQn\000"
 4151      5F495251 
 4151      6E00
 4152              	.LASF12:
 4153 05ba 6C6F6E67 		.ascii	"long long int\000"
 4153      206C6F6E 
 4153      6720696E 
 4153      7400
 4154              	.LASF125:
 4155 05c8 4554485F 		.ascii	"ETH_WKUP_IRQn\000"
 4155      574B5550 
 4155      5F495251 
 4155      6E00
 4156              	.LASF140:
 4157 05d6 4F54475F 		.ascii	"OTG_HS_IRQn\000"
 4157      48535F49 
 4157      52516E00 
 4158              	.LASF47:
 4159 05e2 6D5F7175 		.ascii	"m_queue\000"
 4159      65756500 
 4160              	.LASF190:
 4161 05ea 53534347 		.ascii	"SSCGR\000"
 4161      5200
 4162              	.LASF98:
 4163 05f0 53504931 		.ascii	"SPI1_IRQn\000"
 4163      5F495251 
 4163      6E00
 4164              	.LASF238:
 4165 05fa 61646370 		.ascii	"adcp\000"
 4165      00
 4166              	.LASF223:
 4167 05ff 61646365 		.ascii	"adcerrorcallback_t\000"
 4167      72726F72 
 4167      63616C6C 
 4167      6261636B 
 4167      5F7400
 4168              	.LASF59:
 4169 0612 53564361 		.ascii	"SVCall_IRQn\000"
 4169      6C6C5F49 
 4169      52516E00 
 4170              	.LASF172:
 4171 061e 41504232 		.ascii	"APB2RSTR\000"
 4171      52535452 
 4171      00
 4172              	.LASF216:
 4173 0627 64657074 		.ascii	"depth\000"
 4173      6800
ARM GAS  /tmp/ccYEievQ.s 			page 80


 4174              	.LASF219:
 4175 062d 6D757465 		.ascii	"mutex\000"
 4175      7800
 4176              	.LASF144:
 4177 0633 4650555F 		.ascii	"FPU_IRQn\000"
 4177      4952516E 
 4177      00
 4178              	.LASF115:
 4179 063c 55415254 		.ascii	"UART4_IRQn\000"
 4179      345F4952 
 4179      516E00
 4180              	.LASF186:
 4181 0647 41504232 		.ascii	"APB2LPENR\000"
 4181      4C50454E 
 4181      5200
 4182              	.LASF34:
 4183 0651 705F7761 		.ascii	"p_waiting\000"
 4183      6974696E 
 4183      6700
 4184              	.LASF105:
 4185 065b 4F54475F 		.ascii	"OTG_FS_WKUP_IRQn\000"
 4185      46535F57 
 4185      4B55505F 
 4185      4952516E 
 4185      00
 4186              	.LASF31:
 4187 066c 705F666C 		.ascii	"p_flags\000"
 4187      61677300 
 4188              	.LASF196:
 4189 0674 73656C66 		.ascii	"selfindex\000"
 4189      696E6465 
 4189      7800
 4190              	.LASF0:
 4191 067e 756E7369 		.ascii	"unsigned int\000"
 4191      676E6564 
 4191      20696E74 
 4191      00
 4192              	.LASF117:
 4193 068b 54494D36 		.ascii	"TIM6_DAC_IRQn\000"
 4193      5F444143 
 4193      5F495251 
 4193      6E00
 4194              	.LASF208:
 4195 0699 6164635F 		.ascii	"adc_channels_num_t\000"
 4195      6368616E 
 4195      6E656C73 
 4195      5F6E756D 
 4195      5F7400
 4196              	.LASF40:
 4197 06ac 705F6D70 		.ascii	"p_mpool\000"
 4197      6F6F6C00 
 4198              	.LASF96:
 4199 06b4 49324332 		.ascii	"I2C2_EV_IRQn\000"
 4199      5F45565F 
 4199      4952516E 
 4199      00
 4200              	.LASF32:
ARM GAS  /tmp/ccYEievQ.s 			page 81


 4201 06c1 705F7265 		.ascii	"p_refs\000"
 4201      667300
 4202              	.LASF225:
 4203 06c8 6E756D5F 		.ascii	"num_channels\000"
 4203      6368616E 
 4203      6E656C73 
 4203      00
 4204              	.LASF42:
 4205 06d5 54687265 		.ascii	"ThreadsList\000"
 4205      6164734C 
 4205      69737400 
 4206              	.LASF253:
 4207 06e1 41444344 		.ascii	"ADCD1\000"
 4207      3100
 4208              	.LASF185:
 4209 06e7 41504231 		.ascii	"APB1LPENR\000"
 4209      4C50454E 
 4209      5200
 4210              	.LASF75:
 4211 06f1 444D4131 		.ascii	"DMA1_Stream1_IRQn\000"
 4211      5F537472 
 4211      65616D31 
 4211      5F495251 
 4211      6E00
 4212              	.LASF122:
 4213 0703 444D4132 		.ascii	"DMA2_Stream3_IRQn\000"
 4213      5F537472 
 4213      65616D33 
 4213      5F495251 
 4213      6E00
 4214              	.LASF126:
 4215 0715 43414E32 		.ascii	"CAN2_TX_IRQn\000"
 4215      5F54585F 
 4215      4952516E 
 4215      00
 4216              	.LASF241:
 4217 0722 6164635F 		.ascii	"adc_lld_stop_conversion\000"
 4217      6C6C645F 
 4217      73746F70 
 4217      5F636F6E 
 4217      76657273 
 4218              	.LASF164:
 4219 073a 444D415F 		.ascii	"DMA_Stream_TypeDef\000"
 4219      53747265 
 4219      616D5F54 
 4219      79706544 
 4219      656600
 4220              	.LASF33:
 4221 074d 705F7469 		.ascii	"p_time\000"
 4221      6D6500
 4222              	.LASF256:
 4223 0754 4952516E 		.ascii	"IRQn\000"
 4223      00
 4224              	.LASF80:
 4225 0759 444D4131 		.ascii	"DMA1_Stream6_IRQn\000"
 4225      5F537472 
 4225      65616D36 
ARM GAS  /tmp/ccYEievQ.s 			page 82


 4225      5F495251 
 4225      6E00
 4226              	.LASF169:
 4227 076b 41484233 		.ascii	"AHB3RSTR\000"
 4227      52535452 
 4227      00
 4228              	.LASF39:
 4229 0774 705F7265 		.ascii	"p_realprio\000"
 4229      616C7072 
 4229      696F00
 4230              	.LASF255:
 4231 077f 2F6F7074 		.ascii	"/opt/ChibiOS/ChibiOS_2.4.4/os/hal/platforms/STM32F4"
 4231      2F436869 
 4231      62694F53 
 4231      2F436869 
 4231      62694F53 
 4232 07b2 78782F61 		.ascii	"xx/adc_lld.c\000"
 4232      64635F6C 
 4232      6C642E63 
 4232      00
 4233              	.LASF203:
 4234 07bf 4144435F 		.ascii	"ADC_ACTIVE\000"
 4234      41435449 
 4234      564500
 4235              	.LASF74:
 4236 07ca 444D4131 		.ascii	"DMA1_Stream0_IRQn\000"
 4236      5F537472 
 4236      65616D30 
 4236      5F495251 
 4236      6E00
 4237              	.LASF171:
 4238 07dc 41504231 		.ascii	"APB1RSTR\000"
 4238      52535452 
 4238      00
 4239              	.LASF199:
 4240 07e5 73746D33 		.ascii	"stm32_dmaisr_t\000"
 4240      325F646D 
 4240      61697372 
 4240      5F7400
 4241              	.LASF104:
 4242 07f4 5254435F 		.ascii	"RTC_Alarm_IRQn\000"
 4242      416C6172 
 4242      6D5F4952 
 4242      516E00
 4243              	.LASF136:
 4244 0803 49324333 		.ascii	"I2C3_ER_IRQn\000"
 4244      5F45525F 
 4244      4952516E 
 4244      00
 4245              	.LASF142:
 4246 0810 43525950 		.ascii	"CRYP_IRQn\000"
 4246      5F495251 
 4246      6E00
 4247              	.LASF103:
 4248 081a 45585449 		.ascii	"EXTI15_10_IRQn\000"
 4248      31355F31 
 4248      305F4952 
ARM GAS  /tmp/ccYEievQ.s 			page 83


 4248      516E00
 4249              	.LASF13:
 4250 0829 6C6F6E67 		.ascii	"long long unsigned int\000"
 4250      206C6F6E 
 4250      6720756E 
 4250      7369676E 
 4250      65642069 
 4251              	.LASF28:
 4252 0840 705F6F6C 		.ascii	"p_older\000"
 4252      64657200 
 4253              	.LASF6:
 4254 0848 75696E74 		.ascii	"uint16_t\000"
 4254      31365F74 
 4254      00
 4255              	.LASF19:
 4256 0851 6D73675F 		.ascii	"msg_t\000"
 4256      7400
 4257              	.LASF92:
 4258 0857 54494D33 		.ascii	"TIM3_IRQn\000"
 4258      5F495251 
 4258      6E00
 4259              	.LASF100:
 4260 0861 55534152 		.ascii	"USART1_IRQn\000"
 4260      54315F49 
 4260      52516E00 
 4261              	.LASF244:
 4262 086d 68616C66 		.ascii	"half_index\000"
 4262      5F696E64 
 4262      657800
 4263              	.LASF71:
 4264 0878 45585449 		.ascii	"EXTI2_IRQn\000"
 4264      325F4952 
 4264      516E00
 4265              	.LASF212:
 4266 0883 41444344 		.ascii	"ADCDriver\000"
 4266      72697665 
 4266      7200
 4267              	.LASF246:
 4268 088d 6164635F 		.ascii	"adc_lld_init\000"
 4268      6C6C645F 
 4268      696E6974 
 4268      00
 4269              	.LASF128:
 4270 089a 43414E32 		.ascii	"CAN2_RX1_IRQn\000"
 4270      5F525831 
 4270      5F495251 
 4270      6E00
 4271              	.LASF197:
 4272 08a8 76656374 		.ascii	"vector\000"
 4272      6F7200
 4273              	.LASF81:
 4274 08af 4144435F 		.ascii	"ADC_IRQn\000"
 4274      4952516E 
 4274      00
 4275              	.LASF210:
 4276 08b8 4144435F 		.ascii	"ADC_ERR_OVERFLOW\000"
 4276      4552525F 
ARM GAS  /tmp/ccYEievQ.s 			page 84


 4276      4F564552 
 4276      464C4F57 
 4276      00
 4277              	.LASF243:
 4278 08c9 68616C66 		.ascii	"half\000"
 4278      00
 4279              	.LASF183:
 4280 08ce 41484233 		.ascii	"AHB3LPENR\000"
 4280      4C50454E 
 4280      5200
 4281              	.LASF249:
 4282 08d8 61646353 		.ascii	"adcSTM32EnableVBATE\000"
 4282      544D3332 
 4282      456E6162 
 4282      6C655642 
 4282      41544500 
 4283              	.LASF64:
 4284 08ec 5056445F 		.ascii	"PVD_IRQn\000"
 4284      4952516E 
 4284      00
 4285              	.LASF111:
 4286 08f5 46534D43 		.ascii	"FSMC_IRQn\000"
 4286      5F495251 
 4286      6E00
 4287              	.LASF69:
 4288 08ff 45585449 		.ascii	"EXTI0_IRQn\000"
 4288      305F4952 
 4288      516E00
 4289              	.LASF15:
 4290 090a 746D6F64 		.ascii	"tmode_t\000"
 4290      655F7400 
 4291              	.LASF78:
 4292 0912 444D4131 		.ascii	"DMA1_Stream4_IRQn\000"
 4292      5F537472 
 4292      65616D34 
 4292      5F495251 
 4292      6E00
 4293              	.LASF234:
 4294 0924 64756D6D 		.ascii	"dummy\000"
 4294      7900
 4295              	.LASF201:
 4296 092a 4144435F 		.ascii	"ADC_STOP\000"
 4296      53544F50 
 4296      00
 4297              	.LASF132:
 4298 0933 444D4132 		.ascii	"DMA2_Stream6_IRQn\000"
 4298      5F537472 
 4298      65616D36 
 4298      5F495251 
 4298      6E00
 4299              	.LASF174:
 4300 0945 41484231 		.ascii	"AHB1ENR\000"
 4300      454E5200 
 4301              	.LASF60:
 4302 094d 44656275 		.ascii	"DebugMonitor_IRQn\000"
 4302      674D6F6E 
 4302      69746F72 
ARM GAS  /tmp/ccYEievQ.s 			page 85


 4302      5F495251 
 4302      6E00
 4303              	.LASF135:
 4304 095f 49324333 		.ascii	"I2C3_EV_IRQn\000"
 4304      5F45565F 
 4304      4952516E 
 4304      00
 4305              	.LASF217:
 4306 096c 67727070 		.ascii	"grpp\000"
 4306      00
 4307              	.LASF168:
 4308 0971 41484232 		.ascii	"AHB2RSTR\000"
 4308      52535452 
 4308      00
 4309              	.LASF218:
 4310 097a 74687265 		.ascii	"thread\000"
 4310      616400
 4311              	.LASF162:
 4312 0981 4D304152 		.ascii	"M0AR\000"
 4312      00
 4313              	.LASF124:
 4314 0986 4554485F 		.ascii	"ETH_IRQn\000"
 4314      4952516E 
 4314      00
 4315              	.LASF192:
 4316 098f 5243435F 		.ascii	"RCC_TypeDef\000"
 4316      54797065 
 4316      44656600 
 4317              	.LASF5:
 4318 099b 73686F72 		.ascii	"short int\000"
 4318      7420696E 
 4318      7400
 4319              	.LASF68:
 4320 09a5 5243435F 		.ascii	"RCC_IRQn\000"
 4320      4952516E 
 4320      00
 4321              	.LASF240:
 4322 09ae 6D6F6465 		.ascii	"mode\000"
 4322      00
 4323              	.LASF147:
 4324 09b3 4A4F4652 		.ascii	"JOFR1\000"
 4324      3100
 4325              	.LASF148:
 4326 09b9 4A4F4652 		.ascii	"JOFR2\000"
 4326      3200
 4327              	.LASF149:
 4328 09bf 4A4F4652 		.ascii	"JOFR3\000"
 4328      3300
 4329              	.LASF150:
 4330 09c5 4A4F4652 		.ascii	"JOFR4\000"
 4330      3400
 4331              	.LASF77:
 4332 09cb 444D4131 		.ascii	"DMA1_Stream3_IRQn\000"
 4332      5F537472 
 4332      65616D33 
 4332      5F495251 
 4332      6E00
ARM GAS  /tmp/ccYEievQ.s 			page 86


 4333              	.LASF14:
 4334 09dd 626F6F6C 		.ascii	"bool_t\000"
 4334      5F7400
 4335              	.LASF155:
 4336 09e4 4A445231 		.ascii	"JDR1\000"
 4336      00
 4337              	.LASF156:
 4338 09e9 4A445232 		.ascii	"JDR2\000"
 4338      00
 4339              	.LASF157:
 4340 09ee 4A445233 		.ascii	"JDR3\000"
 4340      00
 4341              	.LASF22:
 4342 09f3 54687265 		.ascii	"Thread\000"
 4342      616400
 4343              	.LASF154:
 4344 09fa 4A535152 		.ascii	"JSQR\000"
 4344      00
 4345              	.LASF88:
 4346 09ff 54494D31 		.ascii	"TIM1_UP_TIM10_IRQn\000"
 4346      5F55505F 
 4346      54494D31 
 4346      305F4952 
 4346      516E00
 4347              	.LASF251:
 4348 0a12 49544D5F 		.ascii	"ITM_RxBuffer\000"
 4348      52784275 
 4348      66666572 
 4348      00
 4349              	.LASF17:
 4350 0a1f 74726566 		.ascii	"trefs_t\000"
 4350      735F7400 
 4351              	.LASF137:
 4352 0a27 4F54475F 		.ascii	"OTG_HS_EP1_OUT_IRQn\000"
 4352      48535F45 
 4352      50315F4F 
 4352      55545F49 
 4352      52516E00 
 4353              	.LASF66:
 4354 0a3b 5254435F 		.ascii	"RTC_WKUP_IRQn\000"
 4354      574B5550 
 4354      5F495251 
 4354      6E00
 4355              	.LASF254:
 4356 0a49 474E5520 		.ascii	"GNU C 4.6.3\000"
 4356      4320342E 
 4356      362E3300 
 4357              	.LASF161:
 4358 0a55 4E445452 		.ascii	"NDTR\000"
 4358      00
 4359              	.LASF10:
 4360 0a5a 75696E74 		.ascii	"uint32_t\000"
 4360      33325F74 
 4360      00
 4361              	.LASF84:
 4362 0a63 43414E31 		.ascii	"CAN1_RX1_IRQn\000"
 4362      5F525831 
ARM GAS  /tmp/ccYEievQ.s 			page 87


 4362      5F495251 
 4362      6E00
 4363              	.LASF41:
 4364 0a71 54687265 		.ascii	"ThreadsQueue\000"
 4364      61647351 
 4364      75657565 
 4364      00
 4365              	.LASF86:
 4366 0a7e 45585449 		.ascii	"EXTI9_5_IRQn\000"
 4366      395F355F 
 4366      4952516E 
 4366      00
 4367              	.LASF257:
 4368 0a8b 6164635F 		.ascii	"adc_lld_serve_rx_interrupt\000"
 4368      6C6C645F 
 4368      73657276 
 4368      655F7278 
 4368      5F696E74 
 4369              	.LASF50:
 4370 0aa6 7264796D 		.ascii	"rdymsg\000"
 4370      736700
 4371              	.LASF73:
 4372 0aad 45585449 		.ascii	"EXTI4_IRQn\000"
 4372      345F4952 
 4372      516E00
 4373              	.LASF7:
 4374 0ab8 73686F72 		.ascii	"short unsigned int\000"
 4374      7420756E 
 4374      7369676E 
 4374      65642069 
 4374      6E7400
 4375              	.LASF109:
 4376 0acb 54494D38 		.ascii	"TIM8_CC_IRQn\000"
 4376      5F43435F 
 4376      4952516E 
 4376      00
 4377              	.LASF112:
 4378 0ad8 5344494F 		.ascii	"SDIO_IRQn\000"
 4378      5F495251 
 4378      6E00
 4379              	.LASF72:
 4380 0ae2 45585449 		.ascii	"EXTI3_IRQn\000"
 4380      335F4952 
 4380      516E00
 4381              	.LASF61:
 4382 0aed 50656E64 		.ascii	"PendSV_IRQn\000"
 4382      53565F49 
 4382      52516E00 
 4383              	.LASF138:
 4384 0af9 4F54475F 		.ascii	"OTG_HS_EP1_IN_IRQn\000"
 4384      48535F45 
 4384      50315F49 
 4384      4E5F4952 
 4384      516E00
 4385              	.LASF110:
 4386 0b0c 444D4131 		.ascii	"DMA1_Stream7_IRQn\000"
 4386      5F537472 
ARM GAS  /tmp/ccYEievQ.s 			page 88


 4386      65616D37 
 4386      5F495251 
 4386      6E00
 4387              	.LASF167:
 4388 0b1e 41484231 		.ascii	"AHB1RSTR\000"
 4388      52535452 
 4388      00
 4389              	.LASF160:
 4390 0b27 4144435F 		.ascii	"ADC_Common_TypeDef\000"
 4390      436F6D6D 
 4390      6F6E5F54 
 4390      79706544 
 4390      656600
 4391              	.LASF194:
 4392 0b3a 69666372 		.ascii	"ifcr\000"
 4392      00
 4393              	.LASF29:
 4394 0b3f 705F6E61 		.ascii	"p_name\000"
 4394      6D6500
 4395              	.LASF49:
 4396 0b46 6D5F6E65 		.ascii	"m_next\000"
 4396      787400
 4397              	.LASF248:
 4398 0b4d 61646353 		.ascii	"adcSTM32DisableTSVREFE\000"
 4398      544D3332 
 4398      44697361 
 4398      626C6554 
 4398      53565245 
 4399              	.LASF176:
 4400 0b64 41484233 		.ascii	"AHB3ENR\000"
 4400      454E5200 
 4401              	.LASF121:
 4402 0b6c 444D4132 		.ascii	"DMA2_Stream2_IRQn\000"
 4402      5F537472 
 4402      65616D32 
 4402      5F495251 
 4402      6E00
 4403              	.LASF36:
 4404 0b7e 705F6D73 		.ascii	"p_msg\000"
 4404      6700
 4405              	.LASF235:
 4406 0b84 41444343 		.ascii	"ADCConfig\000"
 4406      6F6E6669 
 4406      6700
 4407              	.LASF30:
 4408 0b8e 705F7374 		.ascii	"p_state\000"
 4408      61746500 
 4409              		.ident	"GCC: (Sourcery CodeBench Lite 2012.03-56) 4.6.3"
ARM GAS  /tmp/ccYEievQ.s 			page 89


DEFINED SYMBOLS
                            *ABS*:00000000 adc_lld.c
     /tmp/ccYEievQ.s:21     .text.adc_lld_init:00000000 $t
     /tmp/ccYEievQ.s:27     .text.adc_lld_init:00000000 adc_lld_init
     /tmp/ccYEievQ.s:843    .bss.ADCD1:00000000 .LANCHOR0
     /tmp/ccYEievQ.s:68     .text.adc_lld_init:00000034 $d
     /tmp/ccYEievQ.s:73     .text.adc_lld_start:00000000 $t
     /tmp/ccYEievQ.s:79     .text.adc_lld_start:00000000 adc_lld_start
     /tmp/ccYEievQ.s:400    .text.adc_lld_serve_rx_interrupt:00000000 adc_lld_serve_rx_interrupt
     /tmp/ccYEievQ.s:158    .text.adc_lld_stop:00000000 $t
     /tmp/ccYEievQ.s:164    .text.adc_lld_stop:00000000 adc_lld_stop
     /tmp/ccYEievQ.s:217    .text.adc_lld_start_conversion:00000000 $t
     /tmp/ccYEievQ.s:223    .text.adc_lld_start_conversion:00000000 adc_lld_start_conversion
     /tmp/ccYEievQ.s:339    .text.adc_lld_stop_conversion:00000000 $t
     /tmp/ccYEievQ.s:345    .text.adc_lld_stop_conversion:00000000 adc_lld_stop_conversion
     /tmp/ccYEievQ.s:395    .text.adc_lld_serve_rx_interrupt:00000000 $t
     /tmp/ccYEievQ.s:631    .text.Vector88:00000000 $t
     /tmp/ccYEievQ.s:637    .text.Vector88:00000000 Vector88
     /tmp/ccYEievQ.s:741    .text.adcSTM32EnableTSVREFE:00000000 $t
     /tmp/ccYEievQ.s:747    .text.adcSTM32EnableTSVREFE:00000000 adcSTM32EnableTSVREFE
     /tmp/ccYEievQ.s:766    .text.adcSTM32DisableTSVREFE:00000000 $t
     /tmp/ccYEievQ.s:772    .text.adcSTM32DisableTSVREFE:00000000 adcSTM32DisableTSVREFE
     /tmp/ccYEievQ.s:791    .text.adcSTM32EnableVBATE:00000000 $t
     /tmp/ccYEievQ.s:797    .text.adcSTM32EnableVBATE:00000000 adcSTM32EnableVBATE
     /tmp/ccYEievQ.s:816    .text.adcSTM32DisableVBATE:00000000 $t
     /tmp/ccYEievQ.s:822    .text.adcSTM32DisableVBATE:00000000 adcSTM32DisableVBATE
     /tmp/ccYEievQ.s:846    .bss.ADCD1:00000000 ADCD1
     /tmp/ccYEievQ.s:842    .bss.ADCD1:00000000 $d
                     .debug_frame:00000010 $d
     /tmp/ccYEievQ.s:72     .text.adc_lld_init:00000038 $t

UNDEFINED SYMBOLS
adcObjectInit
nvicEnableVector
_stm32_dma_streams
dmaStreamAllocate
dmaStreamRelease
chSchReadyI
_port_irq_epilogue
