ARM GAS  /tmp/ccYEievQ.s 			page 1


   1              		.syntax unified
   2              		.cpu cortex-m4
   3              		.eabi_attribute 27, 3
   4              		.eabi_attribute 28, 1
   5              		.fpu fpv4-sp-d16
   6              		.eabi_attribute 20, 1
   7              		.eabi_attribute 21, 1
   8              		.eabi_attribute 23, 3
   9              		.eabi_attribute 24, 1
  10              		.eabi_attribute 25, 1
  11              		.eabi_attribute 26, 1
  12              		.eabi_attribute 30, 2
  13              		.eabi_attribute 34, 1
  14              		.eabi_attribute 18, 4
  15              		.thumb
  16              		.file	"adc_lld.c"
  17              		.text
  18              	.Ltext0:
  19              		.cfi_sections	.debug_frame
  20              		.section	.text.adc_lld_init,"ax",%progbits
  21              		.align	2
  22              		.p2align 4,,15
  23              		.global	adc_lld_init
  24              		.thumb
  25              		.thumb_func
  26              		.type	adc_lld_init, %function
  27              	adc_lld_init:
  28              	.LFB119:
  29              		.file 1 "/opt/ChibiOS/ChibiOS_2.4.4/os/hal/platforms/STM32F4xx/adc_lld.c"
  30              		.loc 1 182 0
  31              		.cfi_startproc
  32              		@ args = 0, pretend = 0, frame = 0
  33              		@ frame_needed = 0, uses_anonymous_args = 0
  34 0000 10B5     		push	{r4, lr}
  35              	.LCFI0:
  36              		.cfi_def_cfa_offset 8
  37              		.cfi_offset 14, -4
  38              		.cfi_offset 4, -8
  39              		.loc 1 186 0
  40 0002 40F20004 		movw	r4, #:lower16:.LANCHOR0
  41 0006 C0F20004 		movt	r4, #:upper16:.LANCHOR0
  42 000a 2046     		mov	r0, r4
  43 000c FFF7FEFF 		bl	adcObjectInit
  44              		.loc 1 187 0
  45 0010 4FF40052 		mov	r2, #8192
  46 0014 C4F20102 		movt	r2, 16385
  47 0018 A262     		str	r2, [r4, #40]
  48              		.loc 1 189 0
  49 001a 42F61643 		movw	r3, #11286
  50              		.loc 1 188 0
  51 001e 054A     		ldr	r2, .L2
  52              		.loc 1 189 0
  53 0020 C0F20203 		movt	r3, 2
  54              		.loc 1 225 0
  55 0024 1220     		movs	r0, #18
  56 0026 5021     		movs	r1, #80
  57              		.loc 1 188 0
ARM GAS  /tmp/ccYEievQ.s 			page 2


  58 0028 E262     		str	r2, [r4, #44]
  59              		.loc 1 189 0
  60 002a 2363     		str	r3, [r4, #48]
  61              		.loc 1 226 0
  62 002c BDE81040 		pop	{r4, lr}
  63              		.loc 1 225 0
  64 0030 FFF7FEBF 		b	nvicEnableVector
  65              	.L3:
  66              		.align	2
  67              	.L2:
  68 0034 90000000 		.word	_stm32_dma_streams+144
  69              		.cfi_endproc
  70              	.LFE119:
  71              		.size	adc_lld_init, .-adc_lld_init
  72 0038 AFF30080 		.section	.text.adc_lld_start,"ax",%progbits
  72      AFF30080 
  73              		.align	2
  74              		.p2align 4,,15
  75              		.global	adc_lld_start
  76              		.thumb
  77              		.thumb_func
  78              		.type	adc_lld_start, %function
  79              	adc_lld_start:
  80              	.LFB120:
  81              		.loc 1 235 0
  82              		.cfi_startproc
  83              		@ args = 0, pretend = 0, frame = 0
  84              		@ frame_needed = 0, uses_anonymous_args = 0
  85              	.LVL0:
  86              		.loc 1 238 0
  87 0000 0378     		ldrb	r3, [r0, #0]	@ zero_extendqisi2
  88 0002 012B     		cmp	r3, #1
  89              		.loc 1 235 0
  90 0004 10B5     		push	{r4, lr}
  91              	.LCFI1:
  92              		.cfi_def_cfa_offset 8
  93              		.cfi_offset 14, -4
  94              		.cfi_offset 4, -8
  95              		.loc 1 235 0
  96 0006 0446     		mov	r4, r0
  97              		.loc 1 238 0
  98 0008 00D0     		beq	.L8
  99 000a 10BD     		pop	{r4, pc}
 100              	.L8:
 101              		.loc 1 240 0
 102 000c 40F20001 		movw	r1, #:lower16:.LANCHOR0
 103 0010 C0F20001 		movt	r1, #:upper16:.LANCHOR0
 104 0014 8842     		cmp	r0, r1
 105 0016 12D0     		beq	.L9
 106              	.LVL1:
 107              	.L6:
 108              		.loc 1 280 0
 109 0018 4FF40C5C 		mov	ip, #8960
 110 001c C4F2010C 		movt	ip, 16385
 111              		.loc 1 285 0
 112 0020 A36A     		ldr	r3, [r4, #40]
 113              		.loc 1 280 0
ARM GAS  /tmp/ccYEievQ.s 			page 3


 114 0022 DCF80410 		ldr	r1, [ip, #4]
 115 0026 01F44002 		and	r2, r1, #12582912
 116 002a 42F48030 		orr	r0, r2, #65536
 117              		.loc 1 285 0
 118 002e 0021     		movs	r1, #0
 119              		.loc 1 280 0
 120 0030 CCF80400 		str	r0, [ip, #4]
 121              		.loc 1 285 0
 122 0034 5960     		str	r1, [r3, #4]
 123              		.loc 1 286 0
 124 0036 9960     		str	r1, [r3, #8]
 125              		.loc 1 287 0
 126 0038 0121     		movs	r1, #1
 127 003a 9960     		str	r1, [r3, #8]
 128 003c 10BD     		pop	{r4, pc}
 129              	.L9:
 130              	.LBB2:
 131              		.loc 1 242 0
 132 003e 40F20002 		movw	r2, #:lower16:adc_lld_serve_rx_interrupt
 133 0042 0521     		movs	r1, #5
 134 0044 C0F20002 		movt	r2, #:upper16:adc_lld_serve_rx_interrupt
 135 0048 2346     		mov	r3, r4
 136 004a C06A     		ldr	r0, [r0, #44]
 137 004c FFF7FEFF 		bl	dmaStreamAllocate
 138              		.loc 1 247 0
 139 0050 E06A     		ldr	r0, [r4, #44]
 140 0052 42F24C02 		movw	r2, #8268
 141 0056 0168     		ldr	r1, [r0, #0]
 142              		.loc 1 248 0
 143 0058 4FF46050 		mov	r0, #14336
 144 005c C4F20200 		movt	r0, 16386
 145              		.loc 1 247 0
 146 0060 C4F20102 		movt	r2, 16385
 147 0064 8A60     		str	r2, [r1, #8]
 148              		.loc 1 248 0
 149 0066 436C     		ldr	r3, [r0, #68]
 150 0068 43F48072 		orr	r2, r3, #256
 151 006c 4264     		str	r2, [r0, #68]
 152 006e D3E7     		b	.L6
 153              	.LBE2:
 154              		.cfi_endproc
 155              	.LFE120:
 156              		.size	adc_lld_start, .-adc_lld_start
 157              		.section	.text.adc_lld_stop,"ax",%progbits
 158              		.align	2
 159              		.p2align 4,,15
 160              		.global	adc_lld_stop
 161              		.thumb
 162              		.thumb_func
 163              		.type	adc_lld_stop, %function
 164              	adc_lld_stop:
 165              	.LFB121:
 166              		.loc 1 298 0
 167              		.cfi_startproc
 168              		@ args = 0, pretend = 0, frame = 0
 169              		@ frame_needed = 0, uses_anonymous_args = 0
 170              	.LVL2:
ARM GAS  /tmp/ccYEievQ.s 			page 4


 171              		.loc 1 301 0
 172 0000 0378     		ldrb	r3, [r0, #0]	@ zero_extendqisi2
 173 0002 022B     		cmp	r3, #2
 174              		.loc 1 298 0
 175 0004 10B5     		push	{r4, lr}
 176              	.LCFI2:
 177              		.cfi_def_cfa_offset 8
 178              		.cfi_offset 14, -4
 179              		.cfi_offset 4, -8
 180              		.loc 1 298 0
 181 0006 0446     		mov	r4, r0
 182              		.loc 1 301 0
 183 0008 00D0     		beq	.L12
 184 000a 10BD     		pop	{r4, pc}
 185              	.L12:
 186              		.loc 1 302 0
 187 000c C06A     		ldr	r0, [r0, #44]
 188              	.LVL3:
 189 000e FFF7FEFF 		bl	dmaStreamRelease
 190              		.loc 1 307 0
 191 0012 40F20000 		movw	r0, #:lower16:.LANCHOR0
 192 0016 C0F20000 		movt	r0, #:upper16:.LANCHOR0
 193              		.loc 1 303 0
 194 001a 0021     		movs	r1, #0
 195              		.loc 1 307 0
 196 001c 8442     		cmp	r4, r0
 197              		.loc 1 303 0
 198 001e A26A     		ldr	r2, [r4, #40]
 199              		.loc 1 308 0
 200 0020 04BF     		itt	eq
 201 0022 4FF46050 		moveq	r0, #14336
 202 0026 C4F20200 		movteq	r0, 16386
 203              		.loc 1 303 0
 204 002a 5160     		str	r1, [r2, #4]
 205              		.loc 1 304 0
 206 002c 9160     		str	r1, [r2, #8]
 207              		.loc 1 308 0
 208 002e 02BF     		ittt	eq
 209 0030 426C     		ldreq	r2, [r0, #68]
 210 0032 22F48072 		biceq	r2, r2, #256
 211 0036 4264     		streq	r2, [r0, #68]
 212 0038 10BD     		pop	{r4, pc}
 213              		.cfi_endproc
 214              	.LFE121:
 215              		.size	adc_lld_stop, .-adc_lld_stop
 216 003a 00BFAFF3 		.section	.text.adc_lld_start_conversion,"ax",%progbits
 216      0080
 217              		.align	2
 218              		.p2align 4,,15
 219              		.global	adc_lld_start_conversion
 220              		.thumb
 221              		.thumb_func
 222              		.type	adc_lld_start_conversion, %function
 223              	adc_lld_start_conversion:
 224              	.LFB122:
 225              		.loc 1 330 0
 226              		.cfi_startproc
ARM GAS  /tmp/ccYEievQ.s 			page 5


 227              		@ args = 0, pretend = 0, frame = 0
 228              		@ frame_needed = 0, uses_anonymous_args = 0
 229              		@ link register save eliminated.
 230              	.LVL4:
 231              		.loc 1 332 0
 232 0000 0369     		ldr	r3, [r0, #16]
 233              	.LVL5:
 234              		.loc 1 335 0
 235 0002 026B     		ldr	r2, [r0, #48]
 236              	.LVL6:
 237              		.loc 1 336 0
 238 0004 1968     		ldr	r1, [r3, #0]
 239              		.loc 1 330 0
 240 0006 2DE9F003 		push	{r4, r5, r6, r7, r8, r9}
 241              	.LCFI3:
 242              		.cfi_def_cfa_offset 24
 243              		.cfi_offset 9, -4
 244              		.cfi_offset 8, -8
 245              		.cfi_offset 7, -12
 246              		.cfi_offset 6, -16
 247              		.cfi_offset 5, -20
 248              		.cfi_offset 4, -24
 249              		.loc 1 336 0
 250 000a 09B1     		cbz	r1, .L14
 251              	.LVL7:
 252              		.loc 1 337 0
 253 000c 42F48072 		orr	r2, r2, #256
 254              	.LVL8:
 255              	.L14:
 256              		.loc 1 339 0
 257 0010 C768     		ldr	r7, [r0, #12]
 258              		.loc 1 344 0
 259 0012 C16A     		ldr	r1, [r0, #44]
 260              		.loc 1 345 0
 261 0014 9D88     		ldrh	r5, [r3, #4]
 262              		.loc 1 344 0
 263 0016 0968     		ldr	r1, [r1, #0]
 264 0018 8668     		ldr	r6, [r0, #8]
 265              		.loc 1 360 0
 266 001a D3F810C0 		ldr	ip, [r3, #16]
 267              		.loc 1 344 0
 268 001e CE60     		str	r6, [r1, #12]
 269              		.loc 1 339 0
 270 0020 012F     		cmp	r7, #1
 271              		.loc 1 342 0
 272 0022 88BF     		it	hi
 273 0024 42F00802 		orrhi	r2, r2, #8
 274              	.LVL9:
 275              		.loc 1 345 0
 276 0028 07FB05F4 		mul	r4, r7, r5
 277 002c 4C60     		str	r4, [r1, #4]
 278              		.loc 1 347 0
 279 002e 0A60     		str	r2, [r1, #0]
 280              		.loc 1 348 0
 281 0030 D1F80090 		ldr	r9, [r1, #0]
 282              		.loc 1 352 0
 283 0034 D3F81880 		ldr	r8, [r3, #24]
ARM GAS  /tmp/ccYEievQ.s 			page 6


 284              		.loc 1 353 0
 285 0038 DF69     		ldr	r7, [r3, #28]
 286              		.loc 1 354 0
 287 003a 1E6A     		ldr	r6, [r3, #32]
 288              		.loc 1 355 0
 289 003c 5D6A     		ldr	r5, [r3, #36]
 290              		.loc 1 356 0
 291 003e 9C6A     		ldr	r4, [r3, #40]
 292              		.loc 1 361 0
 293 0040 5B69     		ldr	r3, [r3, #20]
 294              		.loc 1 351 0
 295 0042 826A     		ldr	r2, [r0, #40]
 296              	.LVL10:
 297              		.loc 1 348 0
 298 0044 49F00109 		orr	r9, r9, #1
 299 0048 C1F80090 		str	r9, [r1, #0]
 300              		.loc 1 360 0
 301 004c 4CF0806C 		orr	ip, ip, #67108864
 302              		.loc 1 351 0
 303 0050 0021     		movs	r1, #0
 304              		.loc 1 361 0
 305 0052 13F0804F 		tst	r3, #1073741824
 306              		.loc 1 363 0
 307 0056 43F44073 		orr	r3, r3, #768
 308              		.loc 1 360 0
 309 005a 4CF48070 		orr	r0, ip, #256
 310              	.LVL11:
 311              		.loc 1 363 0
 312 005e 14BF     		ite	ne
 313 0060 43F00303 		orrne	r3, r3, #3
 314              		.loc 1 366 0
 315 0064 43F00103 		orreq	r3, r3, #1
 316              		.loc 1 351 0
 317 0068 1160     		str	r1, [r2, #0]
 318              		.loc 1 352 0
 319 006a C2F80C80 		str	r8, [r2, #12]
 320              		.loc 1 353 0
 321 006e 1761     		str	r7, [r2, #16]
 322              		.loc 1 354 0
 323 0070 D662     		str	r6, [r2, #44]
 324              		.loc 1 355 0
 325 0072 1563     		str	r5, [r2, #48]
 326              		.loc 1 356 0
 327 0074 5463     		str	r4, [r2, #52]
 328              		.loc 1 360 0
 329 0076 5060     		str	r0, [r2, #4]
 330              		.loc 1 365 0
 331 0078 9360     		str	r3, [r2, #8]
 332              		.loc 1 367 0
 333 007a BDE8F003 		pop	{r4, r5, r6, r7, r8, r9}
 334 007e 7047     		bx	lr
 335              		.cfi_endproc
 336              	.LFE122:
 337              		.size	adc_lld_start_conversion, .-adc_lld_start_conversion
 338              		.section	.text.adc_lld_stop_conversion,"ax",%progbits
 339              		.align	2
 340              		.p2align 4,,15
ARM GAS  /tmp/ccYEievQ.s 			page 7


 341              		.global	adc_lld_stop_conversion
 342              		.thumb
 343              		.thumb_func
 344              		.type	adc_lld_stop_conversion, %function
 345              	adc_lld_stop_conversion:
 346              	.LFB123:
 347              		.loc 1 376 0
 348              		.cfi_startproc
 349              		@ args = 0, pretend = 0, frame = 0
 350              		@ frame_needed = 0, uses_anonymous_args = 0
 351              		@ link register save eliminated.
 352              	.LVL12:
 353              		.loc 1 378 0
 354 0000 C16A     		ldr	r1, [r0, #44]
 355 0002 0A68     		ldr	r2, [r1, #0]
 356              		.loc 1 376 0
 357 0004 10B4     		push	{r4}
 358              	.LCFI4:
 359              		.cfi_def_cfa_offset 4
 360              		.cfi_offset 4, -4
 361              		.loc 1 378 0
 362 0006 1468     		ldr	r4, [r2, #0]
 363 0008 24F01F03 		bic	r3, r4, #31
 364 000c 1360     		str	r3, [r2, #0]
 365              	.L19:
 366              		.loc 1 378 0 is_stmt 0 discriminator 1
 367 000e 1368     		ldr	r3, [r2, #0]
 368 0010 13F00103 		ands	r3, r3, #1
 369 0014 FBD1     		bne	.L19
 370              		.loc 1 378 0 discriminator 2
 371 0016 0C7A     		ldrb	r4, [r1, #8]	@ zero_extendqisi2
 372              		.loc 1 379 0 is_stmt 1 discriminator 2
 373 0018 826A     		ldr	r2, [r0, #40]
 374              		.loc 1 378 0 discriminator 2
 375 001a 4968     		ldr	r1, [r1, #4]
 376 001c 3D20     		movs	r0, #61
 377              	.LVL13:
 378 001e 00FA04F0 		lsl	r0, r0, r4
 379 0022 0860     		str	r0, [r1, #0]
 380              		.loc 1 381 0 discriminator 2
 381 0024 0120     		movs	r0, #1
 382              		.loc 1 379 0 discriminator 2
 383 0026 5360     		str	r3, [r2, #4]
 384              		.loc 1 380 0 discriminator 2
 385 0028 9360     		str	r3, [r2, #8]
 386              		.loc 1 381 0 discriminator 2
 387 002a 9060     		str	r0, [r2, #8]
 388              		.loc 1 382 0 discriminator 2
 389 002c 10BC     		pop	{r4}
 390 002e 7047     		bx	lr
 391              		.cfi_endproc
 392              	.LFE123:
 393              		.size	adc_lld_stop_conversion, .-adc_lld_stop_conversion
 394              		.section	.text.adc_lld_serve_rx_interrupt,"ax",%progbits
 395              		.align	2
 396              		.p2align 4,,15
 397              		.thumb
ARM GAS  /tmp/ccYEievQ.s 			page 8


 398              		.thumb_func
 399              		.type	adc_lld_serve_rx_interrupt, %function
 400              	adc_lld_serve_rx_interrupt:
 401              	.LFB117:
 402              		.loc 1 87 0
 403              		.cfi_startproc
 404              		@ args = 0, pretend = 0, frame = 0
 405              		@ frame_needed = 0, uses_anonymous_args = 0
 406              	.LVL14:
 407              		.loc 1 90 0
 408 0000 11F00C0F 		tst	r1, #12
 409              		.loc 1 87 0
 410 0004 38B5     		push	{r3, r4, r5, lr}
 411              	.LCFI5:
 412              		.cfi_def_cfa_offset 16
 413              		.cfi_offset 14, -4
 414              		.cfi_offset 5, -8
 415              		.cfi_offset 4, -12
 416              		.cfi_offset 3, -16
 417              		.loc 1 87 0
 418 0006 0D46     		mov	r5, r1
 419 0008 0446     		mov	r4, r0
 420              		.loc 1 90 0
 421 000a 47D1     		bne	.L34
 422              		.loc 1 98 0
 423 000c 0369     		ldr	r3, [r0, #16]
 424 000e 002B     		cmp	r3, #0
 425 0010 43D0     		beq	.L21
 426              		.loc 1 99 0
 427 0012 CA06     		lsls	r2, r1, #27
 428 0014 05D5     		bpl	.L26
 429              		.loc 1 101 0
 430 0016 9B68     		ldr	r3, [r3, #8]
 431 0018 1BB1     		cbz	r3, .L26
 432              		.loc 1 101 0 is_stmt 0 discriminator 1
 433 001a C268     		ldr	r2, [r0, #12]
 434 001c 8168     		ldr	r1, [r0, #8]
 435              	.LVL15:
 436 001e 5208     		lsrs	r2, r2, #1
 437 0020 9847     		blx	r3
 438              	.LVL16:
 439              	.L26:
 440              		.loc 1 103 0 is_stmt 1
 441 0022 AB06     		lsls	r3, r5, #26
 442 0024 39D5     		bpl	.L21
 443              		.loc 1 105 0
 444 0026 2169     		ldr	r1, [r4, #16]
 445 0028 0B68     		ldr	r3, [r1, #0]
 446 002a 7BB1     		cbz	r3, .L27
 447              		.loc 1 105 0 is_stmt 0 discriminator 1
 448 002c 8B68     		ldr	r3, [r1, #8]
 449 002e 002B     		cmp	r3, #0
 450 0030 33D0     		beq	.L21
 451              		.loc 1 105 0 discriminator 3
 452 0032 E268     		ldr	r2, [r4, #12]
 453 0034 012A     		cmp	r2, #1
 454 0036 50D9     		bls	.L28
ARM GAS  /tmp/ccYEievQ.s 			page 9


 455              	.LBB3:
 456              		.loc 1 105 0 discriminator 4
 457 0038 8D88     		ldrh	r5, [r1, #4]
 458              	.LVL17:
 459 003a A168     		ldr	r1, [r4, #8]
 460 003c 5208     		lsrs	r2, r2, #1
 461              	.LVL18:
 462 003e 05FB02F5 		mul	r5, r5, r2
 463 0042 2046     		mov	r0, r4
 464 0044 01EB4501 		add	r1, r1, r5, lsl #1
 465 0048 9847     		blx	r3
 466              	.LVL19:
 467 004a 38BD     		pop	{r3, r4, r5, pc}
 468              	.LVL20:
 469              	.L27:
 470              	.LBE3:
 471              		.loc 1 105 0 discriminator 2
 472 004c 2046     		mov	r0, r4
 473 004e FFF7FEFF 		bl	adc_lld_stop_conversion
 474 0052 2169     		ldr	r1, [r4, #16]
 475 0054 8B68     		ldr	r3, [r1, #8]
 476 0056 002B     		cmp	r3, #0
 477 0058 4FD0     		beq	.L29
 478              		.loc 1 105 0 discriminator 6
 479 005a E268     		ldr	r2, [r4, #12]
 480 005c 0420     		movs	r0, #4
 481 005e 012A     		cmp	r2, #1
 482 0060 2070     		strb	r0, [r4, #0]
 483 0062 46D9     		bls	.L30
 484              	.LBB4:
 485              		.loc 1 105 0 discriminator 8
 486 0064 B1F804C0 		ldrh	ip, [r1, #4]
 487 0068 A168     		ldr	r1, [r4, #8]
 488 006a 5208     		lsrs	r2, r2, #1
 489              	.LVL21:
 490 006c 0CFB02F5 		mul	r5, ip, r2
 491              	.LVL22:
 492 0070 2046     		mov	r0, r4
 493 0072 01EB4501 		add	r1, r1, r5, lsl #1
 494 0076 9847     		blx	r3
 495              	.LVL23:
 496              	.L31:
 497              	.LBE4:
 498              		.loc 1 105 0 discriminator 10
 499 0078 2278     		ldrb	r2, [r4, #0]	@ zero_extendqisi2
 500 007a 042A     		cmp	r2, #4
 501 007c 34D0     		beq	.L35
 502              	.L32:
 503              	.LBB5:
 504              		.loc 1 105 0 discriminator 12
 505 007e 2023     		movs	r3, #32
 506              	.LVL24:
 507              	@ 105 "/opt/ChibiOS/ChibiOS_2.4.4/os/hal/platforms/STM32F4xx/adc_lld.c" 1
 508 0080 83F31188 		msr     BASEPRI, r3
 509              	@ 0 "" 2
 510              	.LVL25:
 511              		.thumb
ARM GAS  /tmp/ccYEievQ.s 			page 10


 512              	.LBE5:
 513 0084 6369     		ldr	r3, [r4, #20]
 514              	.LVL26:
 515 0086 2BB1     		cbz	r3, .L33
 516              	.LVL27:
 517              	.LBB6:
 518              		.loc 1 105 0 discriminator 13
 519 0088 0022     		movs	r2, #0
 520 008a 6261     		str	r2, [r4, #20]
 521 008c 1846     		mov	r0, r3
 522 008e 5A62     		str	r2, [r3, #36]
 523 0090 FFF7FEFF 		bl	chSchReadyI
 524              	.LVL28:
 525              	.L33:
 526              	.LBE6:
 527              	.LBB7:
 528              		.loc 1 105 0 discriminator 14
 529 0094 0023     		movs	r3, #0
 530              	.LVL29:
 531              	@ 105 "/opt/ChibiOS/ChibiOS_2.4.4/os/hal/platforms/STM32F4xx/adc_lld.c" 1
 532 0096 83F31188 		msr     BASEPRI, r3
 533              	@ 0 "" 2
 534              	.LVL30:
 535              		.thumb
 536              	.L21:
 537 009a 38BD     		pop	{r3, r4, r5, pc}
 538              	.LVL31:
 539              	.L34:
 540              	.LBE7:
 541              		.loc 1 93 0 is_stmt 1
 542 009c FFF7FEFF 		bl	adc_lld_stop_conversion
 543              	.LVL32:
 544 00a0 2369     		ldr	r3, [r4, #16]
 545 00a2 DB68     		ldr	r3, [r3, #12]
 546 00a4 3BB1     		cbz	r3, .L23
 547              		.loc 1 93 0 is_stmt 0 discriminator 1
 548 00a6 0522     		movs	r2, #5
 549 00a8 2046     		mov	r0, r4
 550 00aa 0021     		movs	r1, #0
 551 00ac 2270     		strb	r2, [r4, #0]
 552 00ae 9847     		blx	r3
 553 00b0 2078     		ldrb	r0, [r4, #0]	@ zero_extendqisi2
 554 00b2 0528     		cmp	r0, #5
 555 00b4 15D0     		beq	.L36
 556              	.L23:
 557              		.loc 1 93 0 discriminator 2
 558 00b6 0022     		movs	r2, #0
 559 00b8 2261     		str	r2, [r4, #16]
 560              	.LBB8:
 561 00ba 2023     		movs	r3, #32
 562              	.LVL33:
 563              	@ 93 "/opt/ChibiOS/ChibiOS_2.4.4/os/hal/platforms/STM32F4xx/adc_lld.c" 1
 564 00bc 83F31188 		msr     BASEPRI, r3
 565              	@ 0 "" 2
 566              	.LVL34:
 567              		.thumb
 568              	.LBE8:
ARM GAS  /tmp/ccYEievQ.s 			page 11


 569 00c0 6369     		ldr	r3, [r4, #20]
 570              	.LVL35:
 571 00c2 33B1     		cbz	r3, .L24
 572              	.LVL36:
 573              	.LBB9:
 574              		.loc 1 93 0 discriminator 4
 575 00c4 6261     		str	r2, [r4, #20]
 576 00c6 4FF0FF32 		mov	r2, #-1
 577 00ca 1846     		mov	r0, r3
 578 00cc 5A62     		str	r2, [r3, #36]
 579 00ce FFF7FEFF 		bl	chSchReadyI
 580              	.LVL37:
 581              	.L24:
 582              	.LBE9:
 583              	.LBB10:
 584              		.loc 1 93 0 discriminator 5
 585 00d2 0023     		movs	r3, #0
 586              	.LVL38:
 587              	@ 93 "/opt/ChibiOS/ChibiOS_2.4.4/os/hal/platforms/STM32F4xx/adc_lld.c" 1
 588 00d4 83F31188 		msr     BASEPRI, r3
 589              	@ 0 "" 2
 590              	.LVL39:
 591              		.thumb
 592 00d8 38BD     		pop	{r3, r4, r5, pc}
 593              	.LVL40:
 594              	.L28:
 595              	.LBE10:
 596              		.loc 1 105 0 is_stmt 1 discriminator 5
 597 00da 2046     		mov	r0, r4
 598 00dc A168     		ldr	r1, [r4, #8]
 599 00de 9847     		blx	r3
 600 00e0 38BD     		pop	{r3, r4, r5, pc}
 601              	.L36:
 602              		.loc 1 93 0 discriminator 3
 603 00e2 0221     		movs	r1, #2
 604 00e4 2170     		strb	r1, [r4, #0]
 605 00e6 E6E7     		b	.L23
 606              	.LVL41:
 607              	.L35:
 608              		.loc 1 105 0 discriminator 11
 609 00e8 0220     		movs	r0, #2
 610 00ea 0023     		movs	r3, #0
 611 00ec 2070     		strb	r0, [r4, #0]
 612 00ee 2361     		str	r3, [r4, #16]
 613 00f0 C5E7     		b	.L32
 614              	.LVL42:
 615              	.L30:
 616              		.loc 1 105 0 is_stmt 0 discriminator 9
 617 00f2 2046     		mov	r0, r4
 618 00f4 A168     		ldr	r1, [r4, #8]
 619 00f6 9847     		blx	r3
 620 00f8 BEE7     		b	.L31
 621              	.L29:
 622              		.loc 1 105 0 discriminator 7
 623 00fa 0221     		movs	r1, #2
 624 00fc 2170     		strb	r1, [r4, #0]
 625 00fe 2361     		str	r3, [r4, #16]
ARM GAS  /tmp/ccYEievQ.s 			page 12


 626 0100 BDE7     		b	.L32
 627              		.cfi_endproc
 628              	.LFE117:
 629              		.size	adc_lld_serve_rx_interrupt, .-adc_lld_serve_rx_interrupt
 630 0102 00BFAFF3 		.section	.text.Vector88,"ax",%progbits
 630      0080AFF3 
 630      0080AFF3 
 630      0080
 631              		.align	2
 632              		.p2align 4,,15
 633              		.global	Vector88
 634              		.thumb
 635              		.thumb_func
 636              		.type	Vector88, %function
 637              	Vector88:
 638              	.LFB118:
 639              		.loc 1 122 0 is_stmt 1
 640              		.cfi_startproc
 641              		@ args = 0, pretend = 0, frame = 0
 642              		@ frame_needed = 0, uses_anonymous_args = 0
 643              		.loc 1 128 0
 644 0000 4FF40053 		mov	r3, #8192
 645 0004 C4F20103 		movt	r3, 16385
 646              		.loc 1 129 0
 647 0008 0021     		movs	r1, #0
 648              		.loc 1 128 0
 649 000a 1A68     		ldr	r2, [r3, #0]
 650              	.LVL43:
 651              		.loc 1 122 0
 652 000c 10B5     		push	{r4, lr}
 653              	.LCFI6:
 654              		.cfi_def_cfa_offset 8
 655              		.cfi_offset 14, -4
 656              		.cfi_offset 4, -8
 657              		.loc 1 129 0
 658 000e 1960     		str	r1, [r3, #0]
 659              		.loc 1 132 0
 660 0010 9106     		lsls	r1, r2, #26
 661 0012 2BD5     		bpl	.L38
 662              		.loc 1 132 0 is_stmt 0 discriminator 1
 663 0014 40F20004 		movw	r4, #:lower16:.LANCHOR0
 664 0018 C0F20004 		movt	r4, #:upper16:.LANCHOR0
 665 001c E16A     		ldr	r1, [r4, #44]
 666 001e 0A68     		ldr	r2, [r1, #0]
 667              	.LVL44:
 668 0020 5068     		ldr	r0, [r2, #4]
 669 0022 18B3     		cbz	r0, .L38
 670              		.loc 1 135 0 is_stmt 1
 671 0024 2369     		ldr	r3, [r4, #16]
 672 0026 0BB3     		cbz	r3, .L38
 673              		.loc 1 136 0
 674 0028 2046     		mov	r0, r4
 675 002a FFF7FEFF 		bl	adc_lld_stop_conversion
 676 002e 2069     		ldr	r0, [r4, #16]
 677 0030 C368     		ldr	r3, [r0, #12]
 678 0032 3BB1     		cbz	r3, .L39
 679              		.loc 1 136 0 is_stmt 0 discriminator 1
ARM GAS  /tmp/ccYEievQ.s 			page 13


 680 0034 0521     		movs	r1, #5
 681 0036 2170     		strb	r1, [r4, #0]
 682 0038 2046     		mov	r0, r4
 683 003a 0121     		movs	r1, #1
 684 003c 9847     		blx	r3
 685 003e 2278     		ldrb	r2, [r4, #0]	@ zero_extendqisi2
 686 0040 052A     		cmp	r2, #5
 687 0042 17D0     		beq	.L41
 688              	.L39:
 689              		.loc 1 136 0 discriminator 2
 690 0044 0021     		movs	r1, #0
 691 0046 40F20002 		movw	r2, #:lower16:.LANCHOR0
 692 004a C0F20002 		movt	r2, #:upper16:.LANCHOR0
 693 004e 2161     		str	r1, [r4, #16]
 694              	.LBB11:
 695 0050 2023     		movs	r3, #32
 696              	.LVL45:
 697              	@ 136 "/opt/ChibiOS/ChibiOS_2.4.4/os/hal/platforms/STM32F4xx/adc_lld.c" 1
 698 0052 83F31188 		msr     BASEPRI, r3
 699              	@ 0 "" 2
 700              	.LVL46:
 701              		.thumb
 702              	.LBE11:
 703 0056 6069     		ldr	r0, [r4, #20]
 704 0058 28B1     		cbz	r0, .L40
 705              	.LVL47:
 706              	.LBB12:
 707              		.loc 1 136 0 discriminator 4
 708 005a 4FF0FF33 		mov	r3, #-1
 709              	.LVL48:
 710 005e 4362     		str	r3, [r0, #36]
 711 0060 5161     		str	r1, [r2, #20]
 712 0062 FFF7FEFF 		bl	chSchReadyI
 713              	.LVL49:
 714              	.L40:
 715              	.LBE12:
 716              	.LBB13:
 717              		.loc 1 136 0 discriminator 5
 718 0066 0023     		movs	r3, #0
 719              	.LVL50:
 720              	@ 136 "/opt/ChibiOS/ChibiOS_2.4.4/os/hal/platforms/STM32F4xx/adc_lld.c" 1
 721 0068 83F31188 		msr     BASEPRI, r3
 722              	@ 0 "" 2
 723              	.LVL51:
 724              		.thumb
 725              	.L38:
 726              	.LBE13:
 727              		.loc 1 170 0 is_stmt 1
 728 006c BDE81040 		pop	{r4, lr}
 729              		.loc 1 169 0
 730 0070 FFF7FEBF 		b	_port_irq_epilogue
 731              	.LVL52:
 732              	.L41:
 733              		.loc 1 136 0 discriminator 3
 734 0074 0223     		movs	r3, #2
 735 0076 2370     		strb	r3, [r4, #0]
 736 0078 E4E7     		b	.L39
ARM GAS  /tmp/ccYEievQ.s 			page 14


 737              		.cfi_endproc
 738              	.LFE118:
 739              		.size	Vector88, .-Vector88
 740 007a 00BFAFF3 		.section	.text.adcSTM32EnableTSVREFE,"ax",%progbits
 740      0080
 741              		.align	2
 742              		.p2align 4,,15
 743              		.global	adcSTM32EnableTSVREFE
 744              		.thumb
 745              		.thumb_func
 746              		.type	adcSTM32EnableTSVREFE, %function
 747              	adcSTM32EnableTSVREFE:
 748              	.LFB124:
 749              		.loc 1 390 0
 750              		.cfi_startproc
 751              		@ args = 0, pretend = 0, frame = 0
 752              		@ frame_needed = 0, uses_anonymous_args = 0
 753              		@ link register save eliminated.
 754              		.loc 1 392 0
 755 0000 4FF40C53 		mov	r3, #8960
 756 0004 C4F20103 		movt	r3, 16385
 757 0008 5868     		ldr	r0, [r3, #4]
 758 000a 40F40002 		orr	r2, r0, #8388608
 759 000e 5A60     		str	r2, [r3, #4]
 760              		.loc 1 393 0
 761 0010 7047     		bx	lr
 762              		.cfi_endproc
 763              	.LFE124:
 764              		.size	adcSTM32EnableTSVREFE, .-adcSTM32EnableTSVREFE
 765 0012 00BFAFF3 		.section	.text.adcSTM32DisableTSVREFE,"ax",%progbits
 765      0080AFF3 
 765      0080AFF3 
 765      0080
 766              		.align	2
 767              		.p2align 4,,15
 768              		.global	adcSTM32DisableTSVREFE
 769              		.thumb
 770              		.thumb_func
 771              		.type	adcSTM32DisableTSVREFE, %function
 772              	adcSTM32DisableTSVREFE:
 773              	.LFB125:
 774              		.loc 1 401 0
 775              		.cfi_startproc
 776              		@ args = 0, pretend = 0, frame = 0
 777              		@ frame_needed = 0, uses_anonymous_args = 0
 778              		@ link register save eliminated.
 779              		.loc 1 403 0
 780 0000 4FF40C53 		mov	r3, #8960
 781 0004 C4F20103 		movt	r3, 16385
 782 0008 5868     		ldr	r0, [r3, #4]
 783 000a 20F40002 		bic	r2, r0, #8388608
 784 000e 5A60     		str	r2, [r3, #4]
 785              		.loc 1 404 0
 786 0010 7047     		bx	lr
 787              		.cfi_endproc
 788              	.LFE125:
 789              		.size	adcSTM32DisableTSVREFE, .-adcSTM32DisableTSVREFE
ARM GAS  /tmp/ccYEievQ.s 			page 15


 790 0012 00BFAFF3 		.section	.text.adcSTM32EnableVBATE,"ax",%progbits
 790      0080AFF3 
 790      0080AFF3 
 790      0080
 791              		.align	2
 792              		.p2align 4,,15
 793              		.global	adcSTM32EnableVBATE
 794              		.thumb
 795              		.thumb_func
 796              		.type	adcSTM32EnableVBATE, %function
 797              	adcSTM32EnableVBATE:
 798              	.LFB126:
 799              		.loc 1 412 0
 800              		.cfi_startproc
 801              		@ args = 0, pretend = 0, frame = 0
 802              		@ frame_needed = 0, uses_anonymous_args = 0
 803              		@ link register save eliminated.
 804              		.loc 1 414 0
 805 0000 4FF40C53 		mov	r3, #8960
 806 0004 C4F20103 		movt	r3, 16385
 807 0008 5868     		ldr	r0, [r3, #4]
 808 000a 40F48002 		orr	r2, r0, #4194304
 809 000e 5A60     		str	r2, [r3, #4]
 810              		.loc 1 415 0
 811 0010 7047     		bx	lr
 812              		.cfi_endproc
 813              	.LFE126:
 814              		.size	adcSTM32EnableVBATE, .-adcSTM32EnableVBATE
 815 0012 00BFAFF3 		.section	.text.adcSTM32DisableVBATE,"ax",%progbits
 815      0080AFF3 
 815      0080AFF3 
 815      0080
 816              		.align	2
 817              		.p2align 4,,15
 818              		.global	adcSTM32DisableVBATE
 819              		.thumb
 820              		.thumb_func
 821              		.type	adcSTM32DisableVBATE, %function
 822              	adcSTM32DisableVBATE:
 823              	.LFB127:
 824              		.loc 1 423 0
 825              		.cfi_startproc
 826              		@ args = 0, pretend = 0, frame = 0
 827              		@ frame_needed = 0, uses_anonymous_args = 0
 828              		@ link register save eliminated.
 829              		.loc 1 425 0
 830 0000 4FF40C53 		mov	r3, #8960
 831 0004 C4F20103 		movt	r3, 16385
 832 0008 5868     		ldr	r0, [r3, #4]
 833 000a 20F48002 		bic	r2, r0, #4194304
 834 000e 5A60     		str	r2, [r3, #4]
 835              		.loc 1 426 0
 836 0010 7047     		bx	lr
 837              		.cfi_endproc
 838              	.LFE127:
 839              		.size	adcSTM32DisableVBATE, .-adcSTM32DisableVBATE
 840              		.global	ADCD1
ARM GAS  /tmp/ccYEievQ.s 			page 16


 841 0012 00BFAFF3 		.section	.bss.ADCD1,"aw",%nobits
 841      0080AFF3 
 841      0080AFF3 
 841      0080
 842              		.align	2
 843              		.set	.LANCHOR0,. + 0
 844              		.type	ADCD1, %object
 845              		.size	ADCD1, 52
 846              	ADCD1:
 847 0000 00000000 		.space	52
 847      00000000 
 847      00000000 
 847      00000000 
 847      00000000 
 848              		.text
 849              	.Letext0:
 850              		.file 2 "/opt/arm/bin/../lib/gcc/arm-none-eabi/4.6.3/include/stddef.h"
 851              		.file 3 "/opt/arm/bin/../lib/gcc/arm-none-eabi/4.6.3/../../../../arm-none-eabi/include/stdint.h"
 852              		.file 4 "/opt/ChibiOS/ChibiOS_2.4.4/os/ports/GCC/ARMCMx/chtypes.h"
 853              		.file 5 "/opt/ChibiOS/ChibiOS_2.4.4/os/kernel/include/chlists.h"
 854              		.file 6 "/opt/ChibiOS/ChibiOS_2.4.4/os/kernel/include/chthreads.h"
 855              		.file 7 "/opt/ChibiOS/ChibiOS_2.4.4/os/ports/GCC/ARMCMx/chcore_v7m.h"
 856              		.file 8 "/opt/ChibiOS/ChibiOS_2.4.4/os/kernel/include/chmtx.h"
 857              		.file 9 "/opt/ChibiOS/ChibiOS_2.4.4/os/hal/platforms/STM32F4xx/stm32f4xx.h"
 858              		.file 10 "/opt/ChibiOS/ChibiOS_2.4.4/os/hal/platforms/STM32F4xx/stm32_dma.h"
 859              		.file 11 "/opt/ChibiOS/ChibiOS_2.4.4/os/hal/include/adc.h"
 860              		.file 12 "/opt/ChibiOS/ChibiOS_2.4.4/os/hal/platforms/STM32F4xx/adc_lld.h"
 861              		.file 13 "/opt/ChibiOS/ChibiOS_2.4.4/os/ports/common/ARMCMx/CMSIS/include/core_cm4.h"