ARM GAS  /tmp/ccYFxY3c.s 			page 1


   1              		.syntax unified
   2              		.cpu cortex-m4
   3              		.eabi_attribute 27, 3
   4              		.eabi_attribute 28, 1
   5              		.fpu fpv4-sp-d16
   6              		.eabi_attribute 20, 1
   7              		.eabi_attribute 21, 1
   8              		.eabi_attribute 23, 3
   9              		.eabi_attribute 24, 1
  10              		.eabi_attribute 25, 1
  11              		.eabi_attribute 26, 1
  12              		.eabi_attribute 30, 2
  13              		.eabi_attribute 34, 1
  14              		.eabi_attribute 18, 4
  15              		.thumb
  16              		.file	"chcore_v7m.c"
  17              		.text
  18              	.Ltext0:
  19              		.cfi_sections	.debug_frame
  20              		.section	.text._port_switch_from_isr,"ax",%progbits
  21              		.align	2
  22              		.p2align 4,,15
  23              		.global	_port_switch_from_isr
  24              		.thumb
  25              		.thumb_func
  26              		.type	_port_switch_from_isr, %function
  27              	_port_switch_from_isr:
  28              	.LFB11:
  29              		.file 1 "/opt/ChibiOS/ChibiOS_2.4.4/os/ports/GCC/ARMCMx/chcore_v7m.c"
  30              		.loc 1 207 0
  31              		.cfi_startproc
  32              		@ Naked Function: prologue and epilogue provided by programmer.
  33              		@ args = 0, pretend = 0, frame = 0
  34              		@ frame_needed = 0, uses_anonymous_args = 0
  35              		.loc 1 210 0
  36 0000 FFF7FEFF 		bl	chSchDoReschedule
  37              		.loc 1 212 0
  38              	@ 212 "/opt/ChibiOS/ChibiOS_2.4.4/os/ports/GCC/ARMCMx/chcore_v7m.c" 1
  39              		_port_exit_from_isr:
  40              	@ 0 "" 2
  41              		.loc 1 214 0
  42              	@ 214 "/opt/ChibiOS/ChibiOS_2.4.4/os/ports/GCC/ARMCMx/chcore_v7m.c" 1
  43 0004 00DF     		svc     #0
  44              	@ 0 "" 2
  45              		.loc 1 221 0
  46              		.thumb
  47              		.cfi_endproc
  48              	.LFE11:
  49              		.size	_port_switch_from_isr, .-_port_switch_from_isr
  50 0006 00BFAFF3 		.section	.text.SVCallVector,"ax",%progbits
  50      0080AFF3 
  50      0080
  51              		.align	2
  52              		.p2align 4,,15
  53              		.global	SVCallVector
  54              		.thumb
  55              		.thumb_func
ARM GAS  /tmp/ccYFxY3c.s 			page 2


  56              		.type	SVCallVector, %function
  57              	SVCallVector:
  58              	.LFB8:
  59              		.loc 1 65 0
  60              		.cfi_startproc
  61              		@ args = 0, pretend = 0, frame = 0
  62              		@ frame_needed = 0, uses_anonymous_args = 0
  63              		@ link register save eliminated.
  64              		.loc 1 69 0
  65              	@ 69 "/opt/ChibiOS/ChibiOS_2.4.4/os/ports/GCC/ARMCMx/chcore_v7m.c" 1
  66 0000 EFF30983 		mrs     r3, PSP
  67              	@ 0 "" 2
  68              	.LVL0:
  69              		.loc 1 73 0
  70              		.thumb
  71 0004 2033     		adds	r3, r3, #32
  72              	.LVL1:
  73              		.loc 1 80 0
  74              	@ 80 "/opt/ChibiOS/ChibiOS_2.4.4/os/ports/GCC/ARMCMx/chcore_v7m.c" 1
  75 0006 83F30988 		msr     PSP, r3
  76              	@ 0 "" 2
  77              		.thumb
  78              	.LBB2:
  79              		.loc 1 81 0
  80 000a 0023     		movs	r3, #0
  81              	.LVL2:
  82              	@ 81 "/opt/ChibiOS/ChibiOS_2.4.4/os/ports/GCC/ARMCMx/chcore_v7m.c" 1
  83 000c 83F31188 		msr     BASEPRI, r3
  84              	@ 0 "" 2
  85              	.LVL3:
  86              		.thumb
  87              	.LBE2:
  88              		.loc 1 82 0
  89 0010 7047     		bx	lr
  90              		.cfi_endproc
  91              	.LFE8:
  92              		.size	SVCallVector, .-SVCallVector
  93 0012 00BFAFF3 		.section	.text._port_init,"ax",%progbits
  93      0080AFF3 
  93      0080AFF3 
  93      0080
  94              		.align	2
  95              		.p2align 4,,15
  96              		.global	_port_init
  97              		.thumb
  98              		.thumb_func
  99              		.type	_port_init, %function
 100              	_port_init:
 101              	.LFB9:
 102              		.loc 1 118 0
 103              		.cfi_startproc
 104              		@ args = 0, pretend = 0, frame = 0
 105              		@ frame_needed = 0, uses_anonymous_args = 0
 106 0000 08B5     		push	{r3, lr}
 107              	.LCFI0:
 108              		.cfi_def_cfa_offset 8
 109              		.cfi_offset 14, -4
ARM GAS  /tmp/ccYFxY3c.s 			page 3


 110              		.cfi_offset 3, -8
 111              		.loc 1 121 0
 112 0002 4FF46D43 		mov	r3, #60672
 113 0006 CEF20003 		movt	r3, 57344
 114              		.loc 1 122 0
 115 000a 0022     		movs	r2, #0
 116 000c C0F2FA52 		movt	r2, 1530
 117              		.loc 1 121 0
 118 0010 0021     		movs	r1, #0
 119 0012 9960     		str	r1, [r3, #8]
 120              		.loc 1 125 0
 121 0014 0720     		movs	r0, #7
 122 0016 1021     		movs	r1, #16
 123              		.loc 1 122 0
 124 0018 DA60     		str	r2, [r3, #12]
 125              		.loc 1 125 0
 126 001a FFF7FEFF 		bl	nvicSetSystemHandlerPriority
 127              		.loc 1 127 0
 128 001e 0A20     		movs	r0, #10
 129 0020 4FF40071 		mov	r1, #512
 130 0024 FFF7FEFF 		bl	nvicSetSystemHandlerPriority
 131              		.loc 1 129 0
 132 0028 0B20     		movs	r0, #11
 133 002a 8021     		movs	r1, #128
 134              		.loc 1 131 0
 135 002c BDE80840 		pop	{r3, lr}
 136              		.loc 1 129 0
 137 0030 FFF7FEBF 		b	nvicSetSystemHandlerPriority
 138              		.cfi_endproc
 139              	.LFE9:
 140              		.size	_port_init, .-_port_init
 141 0034 AFF30080 		.section	.text._port_irq_epilogue,"ax",%progbits
 141      AFF30080 
 141      AFF30080 
 142              		.align	2
 143              		.p2align 4,,15
 144              		.global	_port_irq_epilogue
 145              		.thumb
 146              		.thumb_func
 147              		.type	_port_irq_epilogue, %function
 148              	_port_irq_epilogue:
 149              	.LFB10:
 150              		.loc 1 148 0
 151              		.cfi_startproc
 152              		@ args = 0, pretend = 0, frame = 0
 153              		@ frame_needed = 0, uses_anonymous_args = 0
 154              		@ link register save eliminated.
 155              	.LBB3:
 156              		.loc 1 150 0
 157 0000 2023     		movs	r3, #32
 158              	.LVL4:
 159              	@ 150 "/opt/ChibiOS/ChibiOS_2.4.4/os/ports/GCC/ARMCMx/chcore_v7m.c" 1
 160 0002 83F31188 		msr     BASEPRI, r3
 161              	@ 0 "" 2
 162              	.LVL5:
 163              		.thumb
 164              	.LBE3:
ARM GAS  /tmp/ccYFxY3c.s 			page 4


 165              		.loc 1 151 0
 166 0006 4FF46D40 		mov	r0, #60672
 167 000a CEF20000 		movt	r0, 57344
 168 000e 4368     		ldr	r3, [r0, #4]
 169              	.LVL6:
 170 0010 13F40063 		ands	r3, r3, #2048
 171 0014 1FD0     		beq	.L5
 172              	.LBB4:
 173              		.loc 1 155 0
 174              	@ 155 "/opt/ChibiOS/ChibiOS_2.4.4/os/ports/GCC/ARMCMx/chcore_v7m.c" 1
 175 0016 EFF30982 		mrs     r2, PSP
 176              	@ 0 "" 2
 177              	.LVL7:
 178              		.loc 1 159 0
 179              		.thumb
 180 001a A2F1200C 		sub	ip, r2, #32
 181              		.loc 1 160 0
 182              	@ 160 "/opt/ChibiOS/ChibiOS_2.4.4/os/ports/GCC/ARMCMx/chcore_v7m.c" 1
 183 001e 8CF30988 		msr     PSP, ip
 184              	@ 0 "" 2
 185              		.loc 1 165 0
 186              		.thumb
 187 0022 40F20003 		movw	r3, #:lower16:rlist
 188 0026 C0F20003 		movt	r3, #:upper16:rlist
 189              		.loc 1 161 0
 190 002a 4FF08070 		mov	r0, #16777216
 191              		.loc 1 165 0
 192 002e 9969     		ldr	r1, [r3, #24]
 193              		.loc 1 161 0
 194 0030 42F8040C 		str	r0, [r2, #-4]
 195              		.loc 1 165 0
 196 0034 91B1     		cbz	r1, .L6
 197              		.loc 1 165 0 is_stmt 0 discriminator 1
 198 0036 1868     		ldr	r0, [r3, #0]
 199 0038 DB69     		ldr	r3, [r3, #28]
 200 003a 8168     		ldr	r1, [r0, #8]
 201 003c 9B68     		ldr	r3, [r3, #8]
 202 003e 9942     		cmp	r1, r3
 203 0040 94BF     		ite	ls
 204 0042 0023     		movls	r3, #0
 205 0044 0123     		movhi	r3, #1
 206 0046 9BB1     		cbz	r3, .L8
 207              	.L11:
 208              		.loc 1 167 0 is_stmt 1
 209 0048 40F20001 		movw	r1, #:lower16:_port_switch_from_isr
 210 004c C0F20001 		movt	r1, #:upper16:_port_switch_from_isr
 211 0050 42F8081C 		str	r1, [r2, #-8]
 212 0054 7047     		bx	lr
 213              	.LVL8:
 214              	.L5:
 215              	.LBE4:
 216              	.LBB5:
 217              		.loc 1 197 0
 218              	@ 197 "/opt/ChibiOS/ChibiOS_2.4.4/os/ports/GCC/ARMCMx/chcore_v7m.c" 1
 219 0056 83F31188 		msr     BASEPRI, r3
 220              	@ 0 "" 2
 221              	.LVL9:
ARM GAS  /tmp/ccYFxY3c.s 			page 5


 222              		.thumb
 223 005a 7047     		bx	lr
 224              	.LVL10:
 225              	.L6:
 226              	.LBE5:
 227              	.LBB6:
 228              		.loc 1 165 0 discriminator 2
 229 005c 1868     		ldr	r0, [r3, #0]
 230 005e DB69     		ldr	r3, [r3, #28]
 231 0060 8168     		ldr	r1, [r0, #8]
 232 0062 9B68     		ldr	r3, [r3, #8]
 233 0064 9942     		cmp	r1, r3
 234 0066 34BF     		ite	cc
 235 0068 0023     		movcc	r3, #0
 236 006a 0123     		movcs	r3, #1
 237 006c 002B     		cmp	r3, #0
 238 006e EBD1     		bne	.L11
 239              	.L8:
 240              		.loc 1 176 0
 241 0070 40F20003 		movw	r3, #:lower16:_port_exit_from_isr
 242 0074 C0F20003 		movt	r3, #:upper16:_port_exit_from_isr
 243 0078 42F8083C 		str	r3, [r2, #-8]
 244 007c 7047     		bx	lr
 245              	.LBE6:
 246              		.cfi_endproc
 247              	.LFE10:
 248              		.size	_port_irq_epilogue, .-_port_irq_epilogue
 249 007e 00BF     		.section	.text.SysTickVector,"ax",%progbits
 250              		.align	2
 251              		.p2align 4,,15
 252              		.global	SysTickVector
 253              		.thumb
 254              		.thumb_func
 255              		.type	SysTickVector, %function
 256              	SysTickVector:
 257              	.LFB7:
 258              		.loc 1 47 0
 259              		.cfi_startproc
 260              		@ args = 0, pretend = 0, frame = 0
 261              		@ frame_needed = 0, uses_anonymous_args = 0
 262 0000 08B5     		push	{r3, lr}
 263              	.LCFI1:
 264              		.cfi_def_cfa_offset 8
 265              		.cfi_offset 14, -4
 266              		.cfi_offset 3, -8
 267              	.LBB7:
 268              		.loc 1 51 0
 269 0002 2023     		movs	r3, #32
 270              	.LVL11:
 271              	@ 51 "/opt/ChibiOS/ChibiOS_2.4.4/os/ports/GCC/ARMCMx/chcore_v7m.c" 1
 272 0004 83F31188 		msr     BASEPRI, r3
 273              	@ 0 "" 2
 274              	.LVL12:
 275              		.thumb
 276              	.LBE7:
 277              		.loc 1 52 0
 278 0008 FFF7FEFF 		bl	chSysTimerHandlerI
ARM GAS  /tmp/ccYFxY3c.s 			page 6


 279              	.LVL13:
 280              	.LBB8:
 281              		.loc 1 53 0
 282 000c 0023     		movs	r3, #0
 283              	.LVL14:
 284              	@ 53 "/opt/ChibiOS/ChibiOS_2.4.4/os/ports/GCC/ARMCMx/chcore_v7m.c" 1
 285 000e 83F31188 		msr     BASEPRI, r3
 286              	@ 0 "" 2
 287              	.LVL15:
 288              		.thumb
 289              	.LBE8:
 290              		.loc 1 56 0
 291 0012 BDE80840 		pop	{r3, lr}
 292              		.loc 1 55 0
 293 0016 FFF7FEBF 		b	_port_irq_epilogue
 294              	.LVL16:
 295              		.cfi_endproc
 296              	.LFE7:
 297              		.size	SysTickVector, .-SysTickVector
 298              		.section	.text._port_switch,"ax",%progbits
 299              		.align	2
 300              		.p2align 4,,15
 301              		.global	_port_switch
 302              		.thumb
 303              		.thumb_func
 304              		.type	_port_switch, %function
 305              	_port_switch:
 306              	.LFB12:
 307              		.loc 1 236 0
 308              		.cfi_startproc
 309              		@ Naked Function: prologue and epilogue provided by programmer.
 310              		@ args = 0, pretend = 0, frame = 0
 311              		@ frame_needed = 0, uses_anonymous_args = 0
 312              	.LVL17:
 313              		.loc 1 238 0
 314              	@ 238 "/opt/ChibiOS/ChibiOS_2.4.4/os/ports/GCC/ARMCMx/chcore_v7m.c" 1
 315 0000 2DE9F04F 		push    {r4, r5, r6, r7, r8, r9, r10, r11, lr}
 316              	@ 0 "" 2
 317              		.loc 1 244 0
 318              	@ 244 "/opt/ChibiOS/ChibiOS_2.4.4/os/ports/GCC/ARMCMx/chcore_v7m.c" 1
 319 0004 C1F80CD0 		str     sp, [r1, #12]                          
 320 0008 D0F80CD0 		ldr     sp, [r0, #12]
 321              	@ 0 "" 2
 322              		.loc 1 250 0
 323              	@ 250 "/opt/ChibiOS/ChibiOS_2.4.4/os/ports/GCC/ARMCMx/chcore_v7m.c" 1
 324 000c BDE8F08F 		pop     {r4, r5, r6, r7, r8, r9, r10, r11, pc}
 325              	@ 0 "" 2
 326              		.loc 1 252 0
 327              		.thumb
 328              		.cfi_endproc
 329              	.LFE12:
 330              		.size	_port_switch, .-_port_switch
 331              		.section	.text._port_thread_start,"ax",%progbits
 332              		.align	2
 333              		.p2align 4,,15
 334              		.global	_port_thread_start
 335              		.thumb
ARM GAS  /tmp/ccYFxY3c.s 			page 7


 336              		.thumb_func
 337              		.type	_port_thread_start, %function
 338              	_port_thread_start:
 339              	.LFB13:
 340              		.loc 1 259 0
 341              		.cfi_startproc
 342              		@ args = 0, pretend = 0, frame = 0
 343              		@ frame_needed = 0, uses_anonymous_args = 0
 344              		@ link register save eliminated.
 345              	.LBB9:
 346              		.loc 1 261 0
 347 0000 0023     		movs	r3, #0
 348              	.LVL18:
 349              	@ 261 "/opt/ChibiOS/ChibiOS_2.4.4/os/ports/GCC/ARMCMx/chcore_v7m.c" 1
 350 0002 83F31188 		msr     BASEPRI, r3
 351              	@ 0 "" 2
 352              	.LVL19:
 353              		.thumb
 354              	.LBE9:
 355              		.loc 1 262 0
 356              	@ 262 "/opt/ChibiOS/ChibiOS_2.4.4/os/ports/GCC/ARMCMx/chcore_v7m.c" 1
 357 0006 2846     		mov     r0, r5                                 
 358 0008 A047     		blx     r4                                     
 359 000a FFF7FEFF 		bl      chThdExit
 360              	@ 0 "" 2
 361              		.loc 1 265 0
 362              		.thumb
 363 000e 7047     		bx	lr
 364              		.cfi_endproc
 365              	.LFE13:
 366              		.size	_port_thread_start, .-_port_thread_start
 367              		.text
 368              	.Letext0:
 369              		.file 2 "/opt/arm/bin/../lib/gcc/arm-none-eabi/4.6.3/../../../../arm-none-eabi/include/stdint.h"
 370              		.file 3 "/opt/ChibiOS/ChibiOS_2.4.4/os/ports/GCC/ARMCMx/chtypes.h"
 371              		.file 4 "/opt/ChibiOS/ChibiOS_2.4.4/os/kernel/include/chlists.h"
 372              		.file 5 "/opt/ChibiOS/ChibiOS_2.4.4/os/kernel/include/chthreads.h"
 373              		.file 6 "/opt/ChibiOS/ChibiOS_2.4.4/os/ports/GCC/ARMCMx/chcore_v7m.h"
 374              		.file 7 "/opt/ChibiOS/ChibiOS_2.4.4/os/ports/common/ARMCMx/nvic.h"
 375              		.file 8 "/opt/ChibiOS/ChibiOS_2.4.4/os/kernel/include/chschd.h"
 376              		.file 9 "/opt/ChibiOS/ChibiOS_2.4.4/os/kernel/include/chmtx.h"