ARM GAS  /tmp/ccA1wdUE.s 			page 1


   1              		.syntax unified
   2              		.cpu cortex-m4
   3              		.eabi_attribute 27, 3
   4              		.eabi_attribute 28, 1
   5              		.fpu fpv4-sp-d16
   6              		.eabi_attribute 20, 1
   7              		.eabi_attribute 21, 1
   8              		.eabi_attribute 23, 3
   9              		.eabi_attribute 24, 1
  10              		.eabi_attribute 25, 1
  11              		.eabi_attribute 26, 1
  12              		.eabi_attribute 30, 2
  13              		.eabi_attribute 34, 1
  14              		.eabi_attribute 18, 4
  15              		.thumb
  16              		.file	"chdynamic.c"
  17              		.text
  18              	.Ltext0:
  19              		.cfi_sections	.debug_frame
  20              		.section	.text.chThdAddRef,"ax",%progbits
  21              		.align	2
  22              		.p2align 4,,15
  23              		.global	chThdAddRef
  24              		.thumb
  25              		.thumb_func
  26              		.type	chThdAddRef, %function
  27              	chThdAddRef:
  28              	.LFB7:
  29              		.file 1 "/opt/ChibiOS/ChibiOS_2.4.4/os/kernel/src/chdynamic.c"
  30              		.loc 1 52 0
  31              		.cfi_startproc
  32              		@ args = 0, pretend = 0, frame = 0
  33              		@ frame_needed = 0, uses_anonymous_args = 0
  34              		@ link register save eliminated.
  35              	.LVL0:
  36              	.LBB2:
  37              		.loc 1 54 0
  38 0000 2023     		movs	r3, #32
  39              	.LVL1:
  40              	@ 54 "/opt/ChibiOS/ChibiOS_2.4.4/os/kernel/src/chdynamic.c" 1
  41 0002 83F31188 		msr     BASEPRI, r3
  42              	@ 0 "" 2
  43              	.LVL2:
  44              		.thumb
  45              	.LBE2:
  46              		.loc 1 56 0
  47 0006 817F     		ldrb	r1, [r0, #30]	@ zero_extendqisi2
  48 0008 4B1C     		adds	r3, r1, #1
  49              	.LVL3:
  50 000a 8377     		strb	r3, [r0, #30]
  51              	.LBB3:
  52              		.loc 1 57 0
  53 000c 0023     		movs	r3, #0
  54              	.LVL4:
  55              	@ 57 "/opt/ChibiOS/ChibiOS_2.4.4/os/kernel/src/chdynamic.c" 1
  56 000e 83F31188 		msr     BASEPRI, r3
  57              	@ 0 "" 2
ARM GAS  /tmp/ccA1wdUE.s 			page 2


  58              	.LVL5:
  59              		.thumb
  60              	.LBE3:
  61              		.loc 1 59 0
  62 0012 7047     		bx	lr
  63              		.cfi_endproc
  64              	.LFE7:
  65              		.size	chThdAddRef, .-chThdAddRef
  66 0014 AFF30080 		.section	.text.chThdRelease,"ax",%progbits
  66      AFF30080 
  66      AFF30080 
  67              		.align	2
  68              		.p2align 4,,15
  69              		.global	chThdRelease
  70              		.thumb
  71              		.thumb_func
  72              		.type	chThdRelease, %function
  73              	chThdRelease:
  74              	.LFB8:
  75              		.loc 1 74 0
  76              		.cfi_startproc
  77              		@ args = 0, pretend = 0, frame = 0
  78              		@ frame_needed = 0, uses_anonymous_args = 0
  79              		@ link register save eliminated.
  80              	.LVL6:
  81              		.loc 1 74 0
  82 0000 0146     		mov	r1, r0
  83              	.LBB4:
  84              		.loc 1 77 0
  85 0002 2023     		movs	r3, #32
  86              	.LVL7:
  87              	@ 77 "/opt/ChibiOS/ChibiOS_2.4.4/os/kernel/src/chdynamic.c" 1
  88 0004 83F31188 		msr     BASEPRI, r3
  89              	@ 0 "" 2
  90              	.LVL8:
  91              		.thumb
  92              	.LBE4:
  93              		.loc 1 79 0
  94 0008 827F     		ldrb	r2, [r0, #30]	@ zero_extendqisi2
  95 000a 531E     		subs	r3, r2, #1
  96              	.LVL9:
  97 000c DAB2     		uxtb	r2, r3
  98 000e 8277     		strb	r2, [r0, #30]
  99              	.LVL10:
 100              	.LBB5:
 101              		.loc 1 80 0
 102 0010 0023     		movs	r3, #0
 103              	.LVL11:
 104              	@ 80 "/opt/ChibiOS/ChibiOS_2.4.4/os/kernel/src/chdynamic.c" 1
 105 0012 83F31188 		msr     BASEPRI, r3
 106              	@ 0 "" 2
 107              	.LVL12:
 108              		.thumb
 109              	.LBE5:
 110              		.loc 1 85 0
 111 0016 22B9     		cbnz	r2, .L2
 112              		.loc 1 85 0 is_stmt 0 discriminator 1
ARM GAS  /tmp/ccA1wdUE.s 			page 3


 113 0018 90F81CC0 		ldrb	ip, [r0, #28]	@ zero_extendqisi2
 114 001c BCF10E0F 		cmp	ip, #14
 115 0020 00D0     		beq	.L7
 116              	.L2:
 117 0022 7047     		bx	lr
 118              	.L7:
 119              		.loc 1 86 0 is_stmt 1
 120 0024 437F     		ldrb	r3, [r0, #29]	@ zero_extendqisi2
 121              	.LVL13:
 122 0026 03F00303 		and	r3, r3, #3
 123 002a 012B     		cmp	r3, #1
 124 002c 09D0     		beq	.L4
 125 002e 022B     		cmp	r3, #2
 126 0030 F7D1     		bne	.L2
 127              		.loc 1 98 0
 128 0032 4369     		ldr	r3, [r0, #20]
 129 0034 0269     		ldr	r2, [r0, #16]
 130              	.LVL14:
 131              		.loc 1 100 0
 132 0036 406C     		ldr	r0, [r0, #68]
 133              	.LVL15:
 134              		.loc 1 98 0
 135 0038 1A61     		str	r2, [r3, #16]
 136 003a 0A69     		ldr	r2, [r1, #16]
 137 003c 5361     		str	r3, [r2, #20]
 138              		.loc 1 105 0
 139              		.loc 1 100 0
 140 003e FFF7FEBF 		b	chPoolFree
 141              	.LVL16:
 142              	.L4:
 143              		.loc 1 90 0
 144 0042 4369     		ldr	r3, [r0, #20]
 145 0044 0269     		ldr	r2, [r0, #16]
 146              	.LVL17:
 147 0046 1A61     		str	r2, [r3, #16]
 148 0048 0169     		ldr	r1, [r0, #16]
 149 004a 4B61     		str	r3, [r1, #20]
 150              		.loc 1 105 0
 151              		.loc 1 92 0
 152 004c FFF7FEBF 		b	chHeapFree
 153              	.LVL18:
 154              		.cfi_endproc
 155              	.LFE8:
 156              		.size	chThdRelease, .-chThdRelease
 157              		.section	.text.chThdCreateFromHeap,"ax",%progbits
 158              		.align	2
 159              		.p2align 4,,15
 160              		.global	chThdCreateFromHeap
 161              		.thumb
 162              		.thumb_func
 163              		.type	chThdCreateFromHeap, %function
 164              	chThdCreateFromHeap:
 165              	.LFB9:
 166              		.loc 1 131 0
 167              		.cfi_startproc
 168              		@ args = 4, pretend = 0, frame = 0
 169              		@ frame_needed = 0, uses_anonymous_args = 0
ARM GAS  /tmp/ccA1wdUE.s 			page 4


 170              	.LVL19:
 171 0000 70B5     		push	{r4, r5, r6, lr}
 172              	.LCFI0:
 173              		.cfi_def_cfa_offset 16
 174              		.cfi_offset 14, -4
 175              		.cfi_offset 6, -8
 176              		.cfi_offset 5, -12
 177              		.cfi_offset 4, -16
 178 0002 82B0     		sub	sp, sp, #8
 179              	.LCFI1:
 180              		.cfi_def_cfa_offset 24
 181              		.loc 1 131 0
 182 0004 0C46     		mov	r4, r1
 183 0006 1546     		mov	r5, r2
 184 0008 1E46     		mov	r6, r3
 185              		.loc 1 135 0
 186 000a FFF7FEFF 		bl	chHeapAlloc
 187              	.LVL20:
 188              		.loc 1 136 0
 189 000e A8B1     		cbz	r0, .L10
 190              	.LBB6:
 191              		.loc 1 148 0
 192 0010 2023     		movs	r3, #32
 193              	.LVL21:
 194              	@ 148 "/opt/ChibiOS/ChibiOS_2.4.4/os/kernel/src/chdynamic.c" 1
 195 0012 83F31188 		msr     BASEPRI, r3
 196              	@ 0 "" 2
 197              	.LVL22:
 198              		.thumb
 199              	.LBE6:
 200              		.loc 1 149 0
 201 0016 2146     		mov	r1, r4
 202 0018 069C     		ldr	r4, [sp, #24]
 203              	.LVL23:
 204 001a 3346     		mov	r3, r6
 205              	.LVL24:
 206 001c 2A46     		mov	r2, r5
 207 001e 0094     		str	r4, [sp, #0]
 208 0020 FFF7FEFF 		bl	chThdCreateI
 209              	.LVL25:
 210              		.loc 1 150 0
 211 0024 0123     		movs	r3, #1
 212 0026 4377     		strb	r3, [r0, #29]
 213              		.loc 1 151 0
 214 0028 0021     		movs	r1, #0
 215              		.loc 1 149 0
 216 002a 0446     		mov	r4, r0
 217              	.LVL26:
 218              		.loc 1 151 0
 219 002c FFF7FEFF 		bl	chSchWakeupS
 220              	.LVL27:
 221              	.LBB7:
 222              		.loc 1 152 0
 223 0030 0023     		movs	r3, #0
 224              	.LVL28:
 225              	@ 152 "/opt/ChibiOS/ChibiOS_2.4.4/os/kernel/src/chdynamic.c" 1
 226 0032 83F31188 		msr     BASEPRI, r3
ARM GAS  /tmp/ccA1wdUE.s 			page 5


 227              	@ 0 "" 2
 228              	.LVL29:
 229              		.thumb
 230              	.L9:
 231              	.LBE7:
 232              		.loc 1 154 0
 233 0036 2046     		mov	r0, r4
 234 0038 02B0     		add	sp, sp, #8
 235 003a 70BD     		pop	{r4, r5, r6, pc}
 236              	.LVL30:
 237              	.L10:
 238              		.loc 1 137 0
 239 003c 0446     		mov	r4, r0
 240              	.LVL31:
 241 003e FAE7     		b	.L9
 242              		.cfi_endproc
 243              	.LFE9:
 244              		.size	chThdCreateFromHeap, .-chThdCreateFromHeap
 245              		.section	.text.chThdCreateFromMemoryPool,"ax",%progbits
 246              		.align	2
 247              		.p2align 4,,15
 248              		.global	chThdCreateFromMemoryPool
 249              		.thumb
 250              		.thumb_func
 251              		.type	chThdCreateFromMemoryPool, %function
 252              	chThdCreateFromMemoryPool:
 253              	.LFB10:
 254              		.loc 1 180 0
 255              		.cfi_startproc
 256              		@ args = 0, pretend = 0, frame = 0
 257              		@ frame_needed = 0, uses_anonymous_args = 0
 258              	.LVL32:
 259 0000 F0B5     		push	{r4, r5, r6, r7, lr}
 260              	.LCFI2:
 261              		.cfi_def_cfa_offset 20
 262              		.cfi_offset 14, -4
 263              		.cfi_offset 7, -8
 264              		.cfi_offset 6, -12
 265              		.cfi_offset 5, -16
 266              		.cfi_offset 4, -20
 267 0002 83B0     		sub	sp, sp, #12
 268              	.LCFI3:
 269              		.cfi_def_cfa_offset 32
 270              		.loc 1 180 0
 271 0004 0446     		mov	r4, r0
 272 0006 0D46     		mov	r5, r1
 273 0008 1646     		mov	r6, r2
 274 000a 1F46     		mov	r7, r3
 275              		.loc 1 186 0
 276 000c FFF7FEFF 		bl	chPoolAlloc
 277              	.LVL33:
 278              		.loc 1 187 0
 279 0010 A8B1     		cbz	r0, .L13
 280              	.LBB8:
 281              		.loc 1 199 0
 282 0012 2023     		movs	r3, #32
 283              	.LVL34:
ARM GAS  /tmp/ccA1wdUE.s 			page 6


 284              	@ 199 "/opt/ChibiOS/ChibiOS_2.4.4/os/kernel/src/chdynamic.c" 1
 285 0014 83F31188 		msr     BASEPRI, r3
 286              	@ 0 "" 2
 287              	.LVL35:
 288              		.thumb
 289              	.LBE8:
 290              		.loc 1 200 0
 291 0018 6168     		ldr	r1, [r4, #4]
 292 001a 0097     		str	r7, [sp, #0]
 293 001c 2A46     		mov	r2, r5
 294 001e 3346     		mov	r3, r6
 295              	.LVL36:
 296 0020 FFF7FEFF 		bl	chThdCreateI
 297              	.LVL37:
 298              		.loc 1 201 0
 299 0024 0223     		movs	r3, #2
 300 0026 4377     		strb	r3, [r0, #29]
 301              		.loc 1 202 0
 302 0028 4464     		str	r4, [r0, #68]
 303              		.loc 1 203 0
 304 002a 0021     		movs	r1, #0
 305              		.loc 1 200 0
 306 002c 0546     		mov	r5, r0
 307              	.LVL38:
 308              		.loc 1 203 0
 309 002e FFF7FEFF 		bl	chSchWakeupS
 310              	.LVL39:
 311              	.LBB9:
 312              		.loc 1 204 0
 313 0032 0023     		movs	r3, #0
 314              	.LVL40:
 315              	@ 204 "/opt/ChibiOS/ChibiOS_2.4.4/os/kernel/src/chdynamic.c" 1
 316 0034 83F31188 		msr     BASEPRI, r3
 317              	@ 0 "" 2
 318              	.LVL41:
 319              		.thumb
 320              	.L12:
 321              	.LBE9:
 322              		.loc 1 206 0
 323 0038 2846     		mov	r0, r5
 324 003a 03B0     		add	sp, sp, #12
 325 003c F0BD     		pop	{r4, r5, r6, r7, pc}
 326              	.LVL42:
 327              	.L13:
 328              		.loc 1 188 0
 329 003e 0546     		mov	r5, r0
 330              	.LVL43:
 331 0040 FAE7     		b	.L12
 332              		.cfi_endproc
 333              	.LFE10:
 334              		.size	chThdCreateFromMemoryPool, .-chThdCreateFromMemoryPool
 335 0042 00BFAFF3 		.text
 335      0080AFF3 
 335      0080AFF3 
 335      0080
 336              	.Letext0:
 337              		.file 2 "/opt/arm/bin/../lib/gcc/arm-none-eabi/4.6.3/include/stddef.h"
ARM GAS  /tmp/ccA1wdUE.s 			page 7


 338              		.file 3 "/opt/arm/bin/../lib/gcc/arm-none-eabi/4.6.3/../../../../arm-none-eabi/include/stdint.h"
 339              		.file 4 "/opt/ChibiOS/ChibiOS_2.4.4/os/ports/GCC/ARMCMx/chtypes.h"
 340              		.file 5 "/opt/ChibiOS/ChibiOS_2.4.4/os/kernel/include/chlists.h"
 341              		.file 6 "/opt/ChibiOS/ChibiOS_2.4.4/os/kernel/include/chthreads.h"
 342              		.file 7 "/opt/ChibiOS/ChibiOS_2.4.4/os/ports/GCC/ARMCMx/chcore_v7m.h"
 343              		.file 8 "/opt/ChibiOS/ChibiOS_2.4.4/os/kernel/include/chmtx.h"
 344              		.file 9 "/opt/ChibiOS/ChibiOS_2.4.4/os/kernel/include/chmemcore.h"
 345              		.file 10 "/opt/ChibiOS/ChibiOS_2.4.4/os/kernel/include/chheap.h"
 346              		.file 11 "/opt/ChibiOS/ChibiOS_2.4.4/os/kernel/include/chmempools.h"