ARM GAS  /tmp/ccdIJT9a.s 			page 1


   1              		.syntax unified
   2              		.cpu cortex-m4
   3              		.eabi_attribute 27, 3
   4              		.eabi_attribute 28, 1
   5              		.fpu fpv4-sp-d16
   6              		.eabi_attribute 20, 1
   7              		.eabi_attribute 21, 1
   8              		.eabi_attribute 23, 3
   9              		.eabi_attribute 24, 1
  10              		.eabi_attribute 25, 1
  11              		.eabi_attribute 26, 1
  12              		.eabi_attribute 30, 2
  13              		.eabi_attribute 34, 1
  14              		.eabi_attribute 18, 4
  15              		.thumb
  16              		.file	"chmboxes.c"
  17              		.text
  18              	.Ltext0:
  19              		.cfi_sections	.debug_frame
  20              		.section	.text.chMBInit,"ax",%progbits
  21              		.align	2
  22              		.p2align 4,,15
  23              		.global	chMBInit
  24              		.thumb
  25              		.thumb_func
  26              		.type	chMBInit, %function
  27              	chMBInit:
  28              	.LFB7:
  29              		.file 1 "/opt/ChibiOS/ChibiOS_2.4.4/os/kernel/src/chmboxes.c"
  30              		.loc 1 72 0
  31              		.cfi_startproc
  32              		@ args = 0, pretend = 0, frame = 0
  33              		@ frame_needed = 0, uses_anonymous_args = 0
  34              	.LVL0:
  35 0000 38B5     		push	{r3, r4, r5, lr}
  36              	.LCFI0:
  37              		.cfi_def_cfa_offset 16
  38              		.cfi_offset 14, -4
  39              		.cfi_offset 5, -8
  40              		.cfi_offset 4, -12
  41              		.cfi_offset 3, -16
  42              		.loc 1 72 0
  43 0002 0446     		mov	r4, r0
  44 0004 0B46     		mov	r3, r1
  45              		.loc 1 77 0
  46 0006 01EB8205 		add	r5, r1, r2, lsl #2
  47              		.loc 1 78 0
  48 000a 1C30     		adds	r0, r0, #28
  49              	.LVL1:
  50 000c 1146     		mov	r1, r2
  51              	.LVL2:
  52              		.loc 1 76 0
  53 000e E360     		str	r3, [r4, #12]
  54 0010 A360     		str	r3, [r4, #8]
  55              		.loc 1 77 0
  56 0012 84E82800 		stmia	r4, {r3, r5}
  57              		.loc 1 78 0
ARM GAS  /tmp/ccdIJT9a.s 			page 2


  58 0016 FFF7FEFF 		bl	chSemInit
  59              	.LVL3:
  60              		.loc 1 79 0
  61 001a 04F11000 		add	r0, r4, #16
  62 001e 0021     		movs	r1, #0
  63              		.loc 1 80 0
  64 0020 BDE83840 		pop	{r3, r4, r5, lr}
  65              		.loc 1 79 0
  66 0024 FFF7FEBF 		b	chSemInit
  67              		.cfi_endproc
  68              	.LFE7:
  69              		.size	chMBInit, .-chMBInit
  70 0028 AFF30080 		.section	.text.chMBReset,"ax",%progbits
  70      AFF30080 
  71              		.align	2
  72              		.p2align 4,,15
  73              		.global	chMBReset
  74              		.thumb
  75              		.thumb_func
  76              		.type	chMBReset, %function
  77              	chMBReset:
  78              	.LFB8:
  79              		.loc 1 91 0
  80              		.cfi_startproc
  81              		@ args = 0, pretend = 0, frame = 0
  82              		@ frame_needed = 0, uses_anonymous_args = 0
  83              	.LVL4:
  84 0000 10B5     		push	{r4, lr}
  85              	.LCFI1:
  86              		.cfi_def_cfa_offset 8
  87              		.cfi_offset 14, -4
  88              		.cfi_offset 4, -8
  89              	.LBB2:
  90              		.loc 1 95 0
  91 0002 2023     		movs	r3, #32
  92              	.LVL5:
  93              	.LBE2:
  94              		.loc 1 91 0
  95 0004 0446     		mov	r4, r0
  96              	.LBB3:
  97              		.loc 1 95 0
  98              	@ 95 "/opt/ChibiOS/ChibiOS_2.4.4/os/kernel/src/chmboxes.c" 1
  99 0006 83F31188 		msr     BASEPRI, r3
 100              	@ 0 "" 2
 101              	.LVL6:
 102              		.thumb
 103              	.LBE3:
 104              		.loc 1 96 0
 105 000a 0368     		ldr	r3, [r0, #0]
 106              	.LVL7:
 107              		.loc 1 97 0
 108 000c 4268     		ldr	r2, [r0, #4]
 109              		.loc 1 96 0
 110 000e C360     		str	r3, [r0, #12]
 111              		.loc 1 97 0
 112 0010 D11A     		subs	r1, r2, r3
 113              		.loc 1 96 0
ARM GAS  /tmp/ccdIJT9a.s 			page 3


 114 0012 A360     		str	r3, [r4, #8]
 115              		.loc 1 97 0
 116 0014 1C30     		adds	r0, r0, #28
 117              	.LVL8:
 118 0016 8910     		asrs	r1, r1, #2
 119 0018 FFF7FEFF 		bl	chSemResetI
 120              		.loc 1 98 0
 121 001c 04F11000 		add	r0, r4, #16
 122 0020 0021     		movs	r1, #0
 123 0022 FFF7FEFF 		bl	chSemResetI
 124              		.loc 1 99 0
 125 0026 FFF7FEFF 		bl	chSchRescheduleS
 126              	.LBB4:
 127              		.loc 1 100 0
 128 002a 0023     		movs	r3, #0
 129              	.LVL9:
 130              	@ 100 "/opt/ChibiOS/ChibiOS_2.4.4/os/kernel/src/chmboxes.c" 1
 131 002c 83F31188 		msr     BASEPRI, r3
 132              	@ 0 "" 2
 133              	.LVL10:
 134              		.thumb
 135              	.LBE4:
 136              		.loc 1 101 0
 137 0030 10BD     		pop	{r4, pc}
 138              		.cfi_endproc
 139              	.LFE8:
 140              		.size	chMBReset, .-chMBReset
 141 0032 00BFAFF3 		.section	.text.chMBPostS,"ax",%progbits
 141      0080AFF3 
 141      0080AFF3 
 141      0080
 142              		.align	2
 143              		.p2align 4,,15
 144              		.global	chMBPostS
 145              		.thumb
 146              		.thumb_func
 147              		.type	chMBPostS, %function
 148              	chMBPostS:
 149              	.LFB10:
 150              		.loc 1 150 0
 151              		.cfi_startproc
 152              		@ args = 0, pretend = 0, frame = 0
 153              		@ frame_needed = 0, uses_anonymous_args = 0
 154              	.LVL11:
 155 0000 70B5     		push	{r4, r5, r6, lr}
 156              	.LCFI2:
 157              		.cfi_def_cfa_offset 16
 158              		.cfi_offset 14, -4
 159              		.cfi_offset 6, -8
 160              		.cfi_offset 5, -12
 161              		.cfi_offset 4, -16
 162              		.loc 1 150 0
 163 0002 0446     		mov	r4, r0
 164 0004 0D46     		mov	r5, r1
 165              		.loc 1 156 0
 166 0006 1C30     		adds	r0, r0, #28
 167              	.LVL12:
ARM GAS  /tmp/ccdIJT9a.s 			page 4


 168 0008 1146     		mov	r1, r2
 169              	.LVL13:
 170 000a FFF7FEFF 		bl	chSemWaitTimeoutS
 171              	.LVL14:
 172              		.loc 1 157 0
 173 000e 0646     		mov	r6, r0
 174 0010 78B9     		cbnz	r0, .L4
 175              		.loc 1 158 0
 176 0012 A368     		ldr	r3, [r4, #8]
 177              		.loc 1 159 0
 178 0014 6268     		ldr	r2, [r4, #4]
 179              		.loc 1 158 0
 180 0016 43F8045B 		str	r5, [r3], #4
 181              		.loc 1 159 0
 182 001a 9342     		cmp	r3, r2
 183              		.loc 1 158 0
 184 001c A360     		str	r3, [r4, #8]
 185              		.loc 1 160 0
 186 001e 28BF     		it	cs
 187 0020 2368     		ldrcs	r3, [r4, #0]
 188              		.loc 1 161 0
 189 0022 04F11000 		add	r0, r4, #16
 190              	.LVL15:
 191              		.loc 1 160 0
 192 0026 28BF     		it	cs
 193 0028 A360     		strcs	r3, [r4, #8]
 194              		.loc 1 161 0
 195 002a FFF7FEFF 		bl	chSemSignalI
 196              		.loc 1 162 0
 197 002e FFF7FEFF 		bl	chSchRescheduleS
 198              	.L4:
 199              		.loc 1 165 0
 200 0032 3046     		mov	r0, r6
 201 0034 70BD     		pop	{r4, r5, r6, pc}
 202              		.cfi_endproc
 203              	.LFE10:
 204              		.size	chMBPostS, .-chMBPostS
 205 0036 00BFAFF3 		.section	.text.chMBPost,"ax",%progbits
 205      0080AFF3 
 205      0080
 206              		.align	2
 207              		.p2align 4,,15
 208              		.global	chMBPost
 209              		.thumb
 210              		.thumb_func
 211              		.type	chMBPost, %function
 212              	chMBPost:
 213              	.LFB9:
 214              		.loc 1 122 0
 215              		.cfi_startproc
 216              		@ args = 0, pretend = 0, frame = 0
 217              		@ frame_needed = 0, uses_anonymous_args = 0
 218              	.LVL16:
 219 0000 08B5     		push	{r3, lr}
 220              	.LCFI3:
 221              		.cfi_def_cfa_offset 8
 222              		.cfi_offset 14, -4
ARM GAS  /tmp/ccdIJT9a.s 			page 5


 223              		.cfi_offset 3, -8
 224              	.LBB5:
 225              		.loc 1 125 0
 226 0002 2023     		movs	r3, #32
 227              	.LVL17:
 228              	@ 125 "/opt/ChibiOS/ChibiOS_2.4.4/os/kernel/src/chmboxes.c" 1
 229 0004 83F31188 		msr     BASEPRI, r3
 230              	@ 0 "" 2
 231              	.LVL18:
 232              		.thumb
 233              	.LBE5:
 234              		.loc 1 126 0
 235 0008 FFF7FEFF 		bl	chMBPostS
 236              	.LVL19:
 237              	.LBB6:
 238              		.loc 1 127 0
 239 000c 0023     		movs	r3, #0
 240              	.LVL20:
 241              	@ 127 "/opt/ChibiOS/ChibiOS_2.4.4/os/kernel/src/chmboxes.c" 1
 242 000e 83F31188 		msr     BASEPRI, r3
 243              	@ 0 "" 2
 244              	.LVL21:
 245              		.thumb
 246              	.LBE6:
 247              		.loc 1 129 0
 248 0012 08BD     		pop	{r3, pc}
 249              		.cfi_endproc
 250              	.LFE9:
 251              		.size	chMBPost, .-chMBPost
 252 0014 AFF30080 		.section	.text.chMBPostI,"ax",%progbits
 252      AFF30080 
 252      AFF30080 
 253              		.align	2
 254              		.p2align 4,,15
 255              		.global	chMBPostI
 256              		.thumb
 257              		.thumb_func
 258              		.type	chMBPostI, %function
 259              	chMBPostI:
 260              	.LFB11:
 261              		.loc 1 181 0
 262              		.cfi_startproc
 263              		@ args = 0, pretend = 0, frame = 0
 264              		@ frame_needed = 0, uses_anonymous_args = 0
 265              	.LVL22:
 266              		.loc 1 186 0
 267 0000 436A     		ldr	r3, [r0, #36]
 268 0002 002B     		cmp	r3, #0
 269              		.loc 1 181 0
 270 0004 10B5     		push	{r4, lr}
 271              	.LCFI4:
 272              		.cfi_def_cfa_offset 8
 273              		.cfi_offset 14, -4
 274              		.cfi_offset 4, -8
 275              		.loc 1 186 0
 276 0006 10DD     		ble	.L11
 277              		.loc 1 189 0
ARM GAS  /tmp/ccdIJT9a.s 			page 6


 278 0008 8268     		ldr	r2, [r0, #8]
 279              		.loc 1 190 0
 280 000a 4468     		ldr	r4, [r0, #4]
 281              		.loc 1 188 0
 282 000c 013B     		subs	r3, r3, #1
 283 000e 4362     		str	r3, [r0, #36]
 284              		.loc 1 189 0
 285 0010 42F8041B 		str	r1, [r2], #4
 286              		.loc 1 190 0
 287 0014 A242     		cmp	r2, r4
 288              		.loc 1 191 0
 289 0016 28BF     		it	cs
 290 0018 0368     		ldrcs	r3, [r0, #0]
 291              		.loc 1 189 0
 292 001a 8260     		str	r2, [r0, #8]
 293              		.loc 1 191 0
 294 001c 28BF     		it	cs
 295 001e 8360     		strcs	r3, [r0, #8]
 296              		.loc 1 192 0
 297 0020 1030     		adds	r0, r0, #16
 298              	.LVL23:
 299 0022 FFF7FEFF 		bl	chSemSignalI
 300              	.LVL24:
 301              		.loc 1 193 0
 302 0026 0020     		movs	r0, #0
 303 0028 10BD     		pop	{r4, pc}
 304              	.LVL25:
 305              	.L11:
 306              		.loc 1 187 0
 307 002a 4FF0FF30 		mov	r0, #-1
 308              	.LVL26:
 309              		.loc 1 194 0
 310 002e 10BD     		pop	{r4, pc}
 311              		.cfi_endproc
 312              	.LFE11:
 313              		.size	chMBPostI, .-chMBPostI
 314              		.section	.text.chMBPostAheadS,"ax",%progbits
 315              		.align	2
 316              		.p2align 4,,15
 317              		.global	chMBPostAheadS
 318              		.thumb
 319              		.thumb_func
 320              		.type	chMBPostAheadS, %function
 321              	chMBPostAheadS:
 322              	.LFB13:
 323              		.loc 1 243 0
 324              		.cfi_startproc
 325              		@ args = 0, pretend = 0, frame = 0
 326              		@ frame_needed = 0, uses_anonymous_args = 0
 327              	.LVL27:
 328 0000 70B5     		push	{r4, r5, r6, lr}
 329              	.LCFI5:
 330              		.cfi_def_cfa_offset 16
 331              		.cfi_offset 14, -4
 332              		.cfi_offset 6, -8
 333              		.cfi_offset 5, -12
 334              		.cfi_offset 4, -16
ARM GAS  /tmp/ccdIJT9a.s 			page 7


 335              		.loc 1 243 0
 336 0002 0446     		mov	r4, r0
 337 0004 0D46     		mov	r5, r1
 338              		.loc 1 249 0
 339 0006 1C30     		adds	r0, r0, #28
 340              	.LVL28:
 341 0008 1146     		mov	r1, r2
 342              	.LVL29:
 343 000a FFF7FEFF 		bl	chSemWaitTimeoutS
 344              	.LVL30:
 345              		.loc 1 250 0
 346 000e 0646     		mov	r6, r0
 347 0010 60B9     		cbnz	r0, .L13
 348              		.loc 1 251 0
 349 0012 E368     		ldr	r3, [r4, #12]
 350 0014 2268     		ldr	r2, [r4, #0]
 351 0016 043B     		subs	r3, r3, #4
 352 0018 9342     		cmp	r3, r2
 353 001a E360     		str	r3, [r4, #12]
 354 001c 08D3     		bcc	.L15
 355              	.LVL31:
 356              	.L14:
 357              		.loc 1 254 0
 358 001e 04F11000 		add	r0, r4, #16
 359              		.loc 1 253 0
 360 0022 1D60     		str	r5, [r3, #0]
 361              		.loc 1 254 0
 362 0024 FFF7FEFF 		bl	chSemSignalI
 363              		.loc 1 255 0
 364 0028 FFF7FEFF 		bl	chSchRescheduleS
 365              	.L13:
 366              		.loc 1 258 0
 367 002c 3046     		mov	r0, r6
 368 002e 70BD     		pop	{r4, r5, r6, pc}
 369              	.L15:
 370              		.loc 1 252 0
 371 0030 6068     		ldr	r0, [r4, #4]
 372 0032 031F     		subs	r3, r0, #4
 373 0034 E360     		str	r3, [r4, #12]
 374 0036 F2E7     		b	.L14
 375              		.cfi_endproc
 376              	.LFE13:
 377              		.size	chMBPostAheadS, .-chMBPostAheadS
 378 0038 AFF30080 		.section	.text.chMBPostAhead,"ax",%progbits
 378      AFF30080 
 379              		.align	2
 380              		.p2align 4,,15
 381              		.global	chMBPostAhead
 382              		.thumb
 383              		.thumb_func
 384              		.type	chMBPostAhead, %function
 385              	chMBPostAhead:
 386              	.LFB12:
 387              		.loc 1 215 0
 388              		.cfi_startproc
 389              		@ args = 0, pretend = 0, frame = 0
 390              		@ frame_needed = 0, uses_anonymous_args = 0
ARM GAS  /tmp/ccdIJT9a.s 			page 8


 391              	.LVL32:
 392 0000 08B5     		push	{r3, lr}
 393              	.LCFI6:
 394              		.cfi_def_cfa_offset 8
 395              		.cfi_offset 14, -4
 396              		.cfi_offset 3, -8
 397              	.LBB7:
 398              		.loc 1 218 0
 399 0002 2023     		movs	r3, #32
 400              	.LVL33:
 401              	@ 218 "/opt/ChibiOS/ChibiOS_2.4.4/os/kernel/src/chmboxes.c" 1
 402 0004 83F31188 		msr     BASEPRI, r3
 403              	@ 0 "" 2
 404              	.LVL34:
 405              		.thumb
 406              	.LBE7:
 407              		.loc 1 219 0
 408 0008 FFF7FEFF 		bl	chMBPostAheadS
 409              	.LVL35:
 410              	.LBB8:
 411              		.loc 1 220 0
 412 000c 0023     		movs	r3, #0
 413              	.LVL36:
 414              	@ 220 "/opt/ChibiOS/ChibiOS_2.4.4/os/kernel/src/chmboxes.c" 1
 415 000e 83F31188 		msr     BASEPRI, r3
 416              	@ 0 "" 2
 417              	.LVL37:
 418              		.thumb
 419              	.LBE8:
 420              		.loc 1 222 0
 421 0012 08BD     		pop	{r3, pc}
 422              		.cfi_endproc
 423              	.LFE12:
 424              		.size	chMBPostAhead, .-chMBPostAhead
 425 0014 AFF30080 		.section	.text.chMBPostAheadI,"ax",%progbits
 425      AFF30080 
 425      AFF30080 
 426              		.align	2
 427              		.p2align 4,,15
 428              		.global	chMBPostAheadI
 429              		.thumb
 430              		.thumb_func
 431              		.type	chMBPostAheadI, %function
 432              	chMBPostAheadI:
 433              	.LFB14:
 434              		.loc 1 274 0
 435              		.cfi_startproc
 436              		@ args = 0, pretend = 0, frame = 0
 437              		@ frame_needed = 0, uses_anonymous_args = 0
 438              	.LVL38:
 439              		.loc 1 279 0
 440 0000 436A     		ldr	r3, [r0, #36]
 441 0002 002B     		cmp	r3, #0
 442              		.loc 1 274 0
 443 0004 10B5     		push	{r4, lr}
 444              	.LCFI7:
 445              		.cfi_def_cfa_offset 8
ARM GAS  /tmp/ccdIJT9a.s 			page 9


 446              		.cfi_offset 14, -4
 447              		.cfi_offset 4, -8
 448              		.loc 1 279 0
 449 0006 10DD     		ble	.L20
 450              		.loc 1 282 0
 451 0008 C268     		ldr	r2, [r0, #12]
 452 000a 0468     		ldr	r4, [r0, #0]
 453 000c 043A     		subs	r2, r2, #4
 454              		.loc 1 281 0
 455 000e 013B     		subs	r3, r3, #1
 456              		.loc 1 282 0
 457 0010 A242     		cmp	r2, r4
 458              		.loc 1 281 0
 459 0012 4362     		str	r3, [r0, #36]
 460              		.loc 1 282 0
 461 0014 C260     		str	r2, [r0, #12]
 462 0016 02D2     		bcs	.L19
 463              		.loc 1 283 0
 464 0018 4368     		ldr	r3, [r0, #4]
 465 001a 1A1F     		subs	r2, r3, #4
 466 001c C260     		str	r2, [r0, #12]
 467              	.L19:
 468              		.loc 1 285 0
 469 001e 1030     		adds	r0, r0, #16
 470              	.LVL39:
 471              		.loc 1 284 0
 472 0020 1160     		str	r1, [r2, #0]
 473              		.loc 1 285 0
 474 0022 FFF7FEFF 		bl	chSemSignalI
 475              	.LVL40:
 476              		.loc 1 286 0
 477 0026 0020     		movs	r0, #0
 478 0028 10BD     		pop	{r4, pc}
 479              	.LVL41:
 480              	.L20:
 481              		.loc 1 280 0
 482 002a 4FF0FF30 		mov	r0, #-1
 483              	.LVL42:
 484              		.loc 1 287 0
 485 002e 10BD     		pop	{r4, pc}
 486              		.cfi_endproc
 487              	.LFE14:
 488              		.size	chMBPostAheadI, .-chMBPostAheadI
 489              		.section	.text.chMBFetchS,"ax",%progbits
 490              		.align	2
 491              		.p2align 4,,15
 492              		.global	chMBFetchS
 493              		.thumb
 494              		.thumb_func
 495              		.type	chMBFetchS, %function
 496              	chMBFetchS:
 497              	.LFB16:
 498              		.loc 1 336 0
 499              		.cfi_startproc
 500              		@ args = 0, pretend = 0, frame = 0
 501              		@ frame_needed = 0, uses_anonymous_args = 0
 502              	.LVL43:
ARM GAS  /tmp/ccdIJT9a.s 			page 10


 503 0000 70B5     		push	{r4, r5, r6, lr}
 504              	.LCFI8:
 505              		.cfi_def_cfa_offset 16
 506              		.cfi_offset 14, -4
 507              		.cfi_offset 6, -8
 508              		.cfi_offset 5, -12
 509              		.cfi_offset 4, -16
 510              		.loc 1 336 0
 511 0002 0446     		mov	r4, r0
 512 0004 0D46     		mov	r5, r1
 513              		.loc 1 342 0
 514 0006 1030     		adds	r0, r0, #16
 515              	.LVL44:
 516 0008 1146     		mov	r1, r2
 517              	.LVL45:
 518 000a FFF7FEFF 		bl	chSemWaitTimeoutS
 519              	.LVL46:
 520              		.loc 1 343 0
 521 000e 0646     		mov	r6, r0
 522 0010 80B9     		cbnz	r0, .L22
 523              		.loc 1 344 0
 524 0012 E368     		ldr	r3, [r4, #12]
 525              		.loc 1 345 0
 526 0014 6268     		ldr	r2, [r4, #4]
 527              		.loc 1 344 0
 528 0016 53F8041B 		ldr	r1, [r3], #4
 529              		.loc 1 345 0
 530 001a 9342     		cmp	r3, r2
 531              		.loc 1 344 0
 532 001c 2960     		str	r1, [r5, #0]
 533 001e E360     		str	r3, [r4, #12]
 534              		.loc 1 346 0
 535 0020 28BF     		it	cs
 536 0022 2368     		ldrcs	r3, [r4, #0]
 537              		.loc 1 347 0
 538 0024 04F11C00 		add	r0, r4, #28
 539              	.LVL47:
 540              		.loc 1 346 0
 541 0028 28BF     		it	cs
 542 002a E360     		strcs	r3, [r4, #12]
 543              		.loc 1 347 0
 544 002c FFF7FEFF 		bl	chSemSignalI
 545              		.loc 1 348 0
 546 0030 FFF7FEFF 		bl	chSchRescheduleS
 547              	.L22:
 548              		.loc 1 351 0
 549 0034 3046     		mov	r0, r6
 550 0036 70BD     		pop	{r4, r5, r6, pc}
 551              		.cfi_endproc
 552              	.LFE16:
 553              		.size	chMBFetchS, .-chMBFetchS
 554 0038 AFF30080 		.section	.text.chMBFetch,"ax",%progbits
 554      AFF30080 
 555              		.align	2
 556              		.p2align 4,,15
 557              		.global	chMBFetch
 558              		.thumb
ARM GAS  /tmp/ccdIJT9a.s 			page 11


 559              		.thumb_func
 560              		.type	chMBFetch, %function
 561              	chMBFetch:
 562              	.LFB15:
 563              		.loc 1 308 0
 564              		.cfi_startproc
 565              		@ args = 0, pretend = 0, frame = 0
 566              		@ frame_needed = 0, uses_anonymous_args = 0
 567              	.LVL48:
 568 0000 08B5     		push	{r3, lr}
 569              	.LCFI9:
 570              		.cfi_def_cfa_offset 8
 571              		.cfi_offset 14, -4
 572              		.cfi_offset 3, -8
 573              	.LBB9:
 574              		.loc 1 311 0
 575 0002 2023     		movs	r3, #32
 576              	.LVL49:
 577              	@ 311 "/opt/ChibiOS/ChibiOS_2.4.4/os/kernel/src/chmboxes.c" 1
 578 0004 83F31188 		msr     BASEPRI, r3
 579              	@ 0 "" 2
 580              	.LVL50:
 581              		.thumb
 582              	.LBE9:
 583              		.loc 1 312 0
 584 0008 FFF7FEFF 		bl	chMBFetchS
 585              	.LVL51:
 586              	.LBB10:
 587              		.loc 1 313 0
 588 000c 0023     		movs	r3, #0
 589              	.LVL52:
 590              	@ 313 "/opt/ChibiOS/ChibiOS_2.4.4/os/kernel/src/chmboxes.c" 1
 591 000e 83F31188 		msr     BASEPRI, r3
 592              	@ 0 "" 2
 593              	.LVL53:
 594              		.thumb
 595              	.LBE10:
 596              		.loc 1 315 0
 597 0012 08BD     		pop	{r3, pc}
 598              		.cfi_endproc
 599              	.LFE15:
 600              		.size	chMBFetch, .-chMBFetch
 601 0014 AFF30080 		.section	.text.chMBFetchI,"ax",%progbits
 601      AFF30080 
 601      AFF30080 
 602              		.align	2
 603              		.p2align 4,,15
 604              		.global	chMBFetchI
 605              		.thumb
 606              		.thumb_func
 607              		.type	chMBFetchI, %function
 608              	chMBFetchI:
 609              	.LFB17:
 610              		.loc 1 367 0
 611              		.cfi_startproc
 612              		@ args = 0, pretend = 0, frame = 0
 613              		@ frame_needed = 0, uses_anonymous_args = 0
ARM GAS  /tmp/ccdIJT9a.s 			page 12


 614              	.LVL54:
 615              		.loc 1 372 0
 616 0000 8369     		ldr	r3, [r0, #24]
 617 0002 002B     		cmp	r3, #0
 618              		.loc 1 367 0
 619 0004 10B5     		push	{r4, lr}
 620              	.LCFI10:
 621              		.cfi_def_cfa_offset 8
 622              		.cfi_offset 14, -4
 623              		.cfi_offset 4, -8
 624              		.loc 1 372 0
 625 0006 11DD     		ble	.L28
 626              		.loc 1 375 0
 627 0008 C268     		ldr	r2, [r0, #12]
 628              		.loc 1 376 0
 629 000a 4468     		ldr	r4, [r0, #4]
 630              		.loc 1 374 0
 631 000c 013B     		subs	r3, r3, #1
 632 000e 8361     		str	r3, [r0, #24]
 633              		.loc 1 375 0
 634 0010 52F8043B 		ldr	r3, [r2], #4
 635              		.loc 1 376 0
 636 0014 A242     		cmp	r2, r4
 637              		.loc 1 375 0
 638 0016 0B60     		str	r3, [r1, #0]
 639              		.loc 1 377 0
 640 0018 28BF     		it	cs
 641 001a 0368     		ldrcs	r3, [r0, #0]
 642              		.loc 1 375 0
 643 001c C260     		str	r2, [r0, #12]
 644              		.loc 1 377 0
 645 001e 28BF     		it	cs
 646 0020 C360     		strcs	r3, [r0, #12]
 647              		.loc 1 378 0
 648 0022 1C30     		adds	r0, r0, #28
 649              	.LVL55:
 650 0024 FFF7FEFF 		bl	chSemSignalI
 651              	.LVL56:
 652              		.loc 1 379 0
 653 0028 0020     		movs	r0, #0
 654 002a 10BD     		pop	{r4, pc}
 655              	.LVL57:
 656              	.L28:
 657              		.loc 1 373 0
 658 002c 4FF0FF30 		mov	r0, #-1
 659              	.LVL58:
 660              		.loc 1 380 0
 661 0030 10BD     		pop	{r4, pc}
 662              		.cfi_endproc
 663              	.LFE17:
 664              		.size	chMBFetchI, .-chMBFetchI
 665 0032 00BFAFF3 		.text
 665      0080AFF3 
 665      0080AFF3 
 665      0080
 666              	.Letext0:
 667              		.file 2 "/opt/arm/bin/../lib/gcc/arm-none-eabi/4.6.3/../../../../arm-none-eabi/include/stdint.h"
ARM GAS  /tmp/ccdIJT9a.s 			page 13


 668              		.file 3 "/opt/ChibiOS/ChibiOS_2.4.4/os/ports/GCC/ARMCMx/chtypes.h"
 669              		.file 4 "/opt/ChibiOS/ChibiOS_2.4.4/os/kernel/include/chlists.h"
 670              		.file 5 "/opt/ChibiOS/ChibiOS_2.4.4/os/kernel/include/chthreads.h"
 671              		.file 6 "/opt/ChibiOS/ChibiOS_2.4.4/os/ports/GCC/ARMCMx/chcore_v7m.h"
 672              		.file 7 "/opt/ChibiOS/ChibiOS_2.4.4/os/kernel/include/chsem.h"
 673              		.file 8 "/opt/ChibiOS/ChibiOS_2.4.4/os/kernel/include/chmtx.h"
 674              		.file 9 "/opt/ChibiOS/ChibiOS_2.4.4/os/kernel/include/chmboxes.h"