ARM GAS  /tmp/ccQ1YUP8.s 			page 1


   1              		.syntax unified
   2              		.cpu cortex-m4
   3              		.eabi_attribute 27, 3
   4              		.eabi_attribute 28, 1
   5              		.fpu fpv4-sp-d16
   6              		.eabi_attribute 20, 1
   7              		.eabi_attribute 21, 1
   8              		.eabi_attribute 23, 3
   9              		.eabi_attribute 24, 1
  10              		.eabi_attribute 25, 1
  11              		.eabi_attribute 26, 1
  12              		.eabi_attribute 30, 2
  13              		.eabi_attribute 34, 1
  14              		.eabi_attribute 18, 4
  15              		.thumb
  16              		.file	"chmsg.c"
  17              		.text
  18              	.Ltext0:
  19              		.cfi_sections	.debug_frame
  20              		.section	.text.chMsgSend,"ax",%progbits
  21              		.align	2
  22              		.p2align 4,,15
  23              		.global	chMsgSend
  24              		.thumb
  25              		.thumb_func
  26              		.type	chMsgSend, %function
  27              	chMsgSend:
  28              	.LFB7:
  29              		.file 1 "/opt/ChibiOS/ChibiOS_2.4.4/os/kernel/src/chmsg.c"
  30              		.loc 1 75 0
  31              		.cfi_startproc
  32              		@ args = 0, pretend = 0, frame = 0
  33              		@ frame_needed = 0, uses_anonymous_args = 0
  34              	.LVL0:
  35 0000 70B5     		push	{r4, r5, r6, lr}
  36              	.LCFI0:
  37              		.cfi_def_cfa_offset 16
  38              		.cfi_offset 14, -4
  39              		.cfi_offset 6, -8
  40              		.cfi_offset 5, -12
  41              		.cfi_offset 4, -16
  42              		.loc 1 76 0
  43 0002 40F20002 		movw	r2, #:lower16:rlist
  44 0006 C0F20002 		movt	r2, #:upper16:rlist
  45              	.LBB10:
  46              		.loc 1 80 0
  47 000a 2023     		movs	r3, #32
  48              	.LVL1:
  49              	.LBE10:
  50              		.loc 1 76 0
  51 000c D469     		ldr	r4, [r2, #28]
  52              	.LVL2:
  53              	.LBB11:
  54              		.loc 1 80 0
  55              	@ 80 "/opt/ChibiOS/ChibiOS_2.4.4/os/kernel/src/chmsg.c" 1
  56 000e 83F31188 		msr     BASEPRI, r3
  57              	@ 0 "" 2
ARM GAS  /tmp/ccQ1YUP8.s 			page 2


  58              	.LVL3:
  59              		.thumb
  60              	.LBE11:
  61              		.loc 1 82 0
  62 0012 00F12C05 		add	r5, r0, #44
  63 0016 6562     		str	r5, [r4, #36]
  64              	.LVL4:
  65              		.loc 1 84 0
  66 0018 067F     		ldrb	r6, [r0, #28]	@ zero_extendqisi2
  67              	.LBB12:
  68              	.LBB13:
  69              		.file 2 "/opt/ChibiOS/ChibiOS_2.4.4/os/kernel/include/chinline.h"
  70              		.loc 2 55 0
  71 001a 036B     		ldr	r3, [r0, #48]
  72              	.LVL5:
  73              		.loc 2 54 0
  74 001c 2560     		str	r5, [r4, #0]
  75              	.LBE13:
  76              	.LBE12:
  77              		.loc 1 84 0
  78 001e 0C2E     		cmp	r6, #12
  79              		.loc 1 81 0
  80 0020 6163     		str	r1, [r4, #52]
  81              	.LBB15:
  82              	.LBB14:
  83              		.loc 2 55 0
  84 0022 6360     		str	r3, [r4, #4]
  85              		.loc 2 56 0
  86 0024 0463     		str	r4, [r0, #48]
  87 0026 1C60     		str	r4, [r3, #0]
  88              	.LBE14:
  89              	.LBE15:
  90              		.loc 1 84 0
  91 0028 07D0     		beq	.L4
  92              		.loc 1 86 0
  93 002a 0A20     		movs	r0, #10
  94              	.LVL6:
  95 002c FFF7FEFF 		bl	chSchGoSleepS
  96              	.LVL7:
  97              		.loc 1 87 0
  98 0030 606A     		ldr	r0, [r4, #36]
  99              	.LVL8:
 100              	.LBB16:
 101              		.loc 1 88 0
 102 0032 0023     		movs	r3, #0
 103              	.LVL9:
 104              	@ 88 "/opt/ChibiOS/ChibiOS_2.4.4/os/kernel/src/chmsg.c" 1
 105 0034 83F31188 		msr     BASEPRI, r3
 106              	@ 0 "" 2
 107              	.LVL10:
 108              		.thumb
 109              	.LBE16:
 110              		.loc 1 90 0
 111 0038 70BD     		pop	{r4, r5, r6, pc}
 112              	.LVL11:
 113              	.L4:
 114              		.loc 1 85 0
ARM GAS  /tmp/ccQ1YUP8.s 			page 3


 115 003a FFF7FEFF 		bl	chSchReadyI
 116              	.LVL12:
 117              		.loc 1 86 0
 118 003e 0A20     		movs	r0, #10
 119 0040 FFF7FEFF 		bl	chSchGoSleepS
 120              		.loc 1 87 0
 121 0044 606A     		ldr	r0, [r4, #36]
 122              	.LVL13:
 123              	.LBB17:
 124              		.loc 1 88 0
 125 0046 0023     		movs	r3, #0
 126              	@ 88 "/opt/ChibiOS/ChibiOS_2.4.4/os/kernel/src/chmsg.c" 1
 127 0048 83F31188 		msr     BASEPRI, r3
 128              	@ 0 "" 2
 129              	.LVL14:
 130              		.thumb
 131              	.LBE17:
 132              		.loc 1 90 0
 133 004c 70BD     		pop	{r4, r5, r6, pc}
 134              		.cfi_endproc
 135              	.LFE7:
 136              		.size	chMsgSend, .-chMsgSend
 137 004e 00BF     		.section	.text.chMsgWait,"ax",%progbits
 138              		.align	2
 139              		.p2align 4,,15
 140              		.global	chMsgWait
 141              		.thumb
 142              		.thumb_func
 143              		.type	chMsgWait, %function
 144              	chMsgWait:
 145              	.LFB8:
 146              		.loc 1 106 0
 147              		.cfi_startproc
 148              		@ args = 0, pretend = 0, frame = 0
 149              		@ frame_needed = 0, uses_anonymous_args = 0
 150 0000 10B5     		push	{r4, lr}
 151              	.LCFI1:
 152              		.cfi_def_cfa_offset 8
 153              		.cfi_offset 14, -4
 154              		.cfi_offset 4, -8
 155              	.LBB18:
 156              		.loc 1 109 0
 157 0002 2023     		movs	r3, #32
 158              	.LVL15:
 159              	@ 109 "/opt/ChibiOS/ChibiOS_2.4.4/os/kernel/src/chmsg.c" 1
 160 0004 83F31188 		msr     BASEPRI, r3
 161              	@ 0 "" 2
 162              	.LVL16:
 163              		.thumb
 164              	.LBE18:
 165              		.loc 1 110 0
 166 0008 40F20004 		movw	r4, #:lower16:rlist
 167 000c C0F20004 		movt	r4, #:upper16:rlist
 168 0010 E369     		ldr	r3, [r4, #28]
 169              	.LVL17:
 170 0012 1A46     		mov	r2, r3
 171 0014 52F82C0F 		ldr	r0, [r2, #44]!
ARM GAS  /tmp/ccQ1YUP8.s 			page 4


 172 0018 9042     		cmp	r0, r2
 173 001a 08D0     		beq	.L7
 174              	.L6:
 175              	.LVL18:
 176              	.LBB19:
 177              	.LBB20:
 178              		.loc 2 62 0
 179 001c 0168     		ldr	r1, [r0, #0]
 180 001e D962     		str	r1, [r3, #44]
 181 0020 4A60     		str	r2, [r1, #4]
 182              	.LBE20:
 183              	.LBE19:
 184              		.loc 1 113 0
 185 0022 0B22     		movs	r2, #11
 186 0024 0277     		strb	r2, [r0, #28]
 187              	.LBB21:
 188              		.loc 1 114 0
 189 0026 0023     		movs	r3, #0
 190              	.LVL19:
 191              	@ 114 "/opt/ChibiOS/ChibiOS_2.4.4/os/kernel/src/chmsg.c" 1
 192 0028 83F31188 		msr     BASEPRI, r3
 193              	@ 0 "" 2
 194              	.LVL20:
 195              		.thumb
 196              	.LBE21:
 197              		.loc 1 116 0
 198 002c 10BD     		pop	{r4, pc}
 199              	.LVL21:
 200              	.L7:
 201              		.loc 1 111 0
 202 002e 0C20     		movs	r0, #12
 203 0030 FFF7FEFF 		bl	chSchGoSleepS
 204 0034 E369     		ldr	r3, [r4, #28]
 205 0036 1A46     		mov	r2, r3
 206 0038 52F82C0F 		ldr	r0, [r2, #44]!
 207 003c EEE7     		b	.L6
 208              		.cfi_endproc
 209              	.LFE8:
 210              		.size	chMsgWait, .-chMsgWait
 211 003e 00BF     		.section	.text.chMsgRelease,"ax",%progbits
 212              		.align	2
 213              		.p2align 4,,15
 214              		.global	chMsgRelease
 215              		.thumb
 216              		.thumb_func
 217              		.type	chMsgRelease, %function
 218              	chMsgRelease:
 219              	.LFB9:
 220              		.loc 1 128 0
 221              		.cfi_startproc
 222              		@ args = 0, pretend = 0, frame = 0
 223              		@ frame_needed = 0, uses_anonymous_args = 0
 224              	.LVL22:
 225 0000 08B5     		push	{r3, lr}
 226              	.LCFI2:
 227              		.cfi_def_cfa_offset 8
 228              		.cfi_offset 14, -4
ARM GAS  /tmp/ccQ1YUP8.s 			page 5


 229              		.cfi_offset 3, -8
 230              	.LBB22:
 231              		.loc 1 130 0
 232 0002 2023     		movs	r3, #32
 233              	.LVL23:
 234              	@ 130 "/opt/ChibiOS/ChibiOS_2.4.4/os/kernel/src/chmsg.c" 1
 235 0004 83F31188 		msr     BASEPRI, r3
 236              	@ 0 "" 2
 237              	.LVL24:
 238              		.thumb
 239              	.LBE22:
 240              		.loc 1 133 0
 241 0008 FFF7FEFF 		bl	chSchWakeupS
 242              	.LVL25:
 243              	.LBB23:
 244              		.loc 1 134 0
 245 000c 0023     		movs	r3, #0
 246              	.LVL26:
 247              	@ 134 "/opt/ChibiOS/ChibiOS_2.4.4/os/kernel/src/chmsg.c" 1
 248 000e 83F31188 		msr     BASEPRI, r3
 249              	@ 0 "" 2
 250              	.LVL27:
 251              		.thumb
 252              	.LBE23:
 253              		.loc 1 135 0
 254 0012 08BD     		pop	{r3, pc}
 255              		.cfi_endproc
 256              	.LFE9:
 257              		.size	chMsgRelease, .-chMsgRelease
 258 0014 AFF30080 		.text
 258      AFF30080 
 258      AFF30080 
 259              	.Letext0:
 260              		.file 3 "/opt/arm/bin/../lib/gcc/arm-none-eabi/4.6.3/../../../../arm-none-eabi/include/stdint.h"
 261              		.file 4 "/opt/ChibiOS/ChibiOS_2.4.4/os/ports/GCC/ARMCMx/chtypes.h"
 262              		.file 5 "/opt/ChibiOS/ChibiOS_2.4.4/os/kernel/include/chlists.h"
 263              		.file 6 "/opt/ChibiOS/ChibiOS_2.4.4/os/kernel/include/chthreads.h"
 264              		.file 7 "/opt/ChibiOS/ChibiOS_2.4.4/os/ports/GCC/ARMCMx/chcore_v7m.h"
 265              		.file 8 "/opt/ChibiOS/ChibiOS_2.4.4/os/kernel/include/chschd.h"
 266              		.file 9 "/opt/ChibiOS/ChibiOS_2.4.4/os/kernel/include/chmtx.h"