ARM GAS  /tmp/cciKPYbS.s 			page 1


   1              		.syntax unified
   2              		.cpu cortex-m4
   3              		.eabi_attribute 27, 3
   4              		.eabi_attribute 28, 1
   5              		.fpu fpv4-sp-d16
   6              		.eabi_attribute 20, 1
   7              		.eabi_attribute 21, 1
   8              		.eabi_attribute 23, 3
   9              		.eabi_attribute 24, 1
  10              		.eabi_attribute 25, 1
  11              		.eabi_attribute 26, 1
  12              		.eabi_attribute 30, 2
  13              		.eabi_attribute 34, 1
  14              		.eabi_attribute 18, 4
  15              		.thumb
  16              		.file	"chmtx.c"
  17              		.text
  18              	.Ltext0:
  19              		.cfi_sections	.debug_frame
  20              		.section	.text.chMtxInit,"ax",%progbits
  21              		.align	2
  22              		.p2align 4,,15
  23              		.global	chMtxInit
  24              		.thumb
  25              		.thumb_func
  26              		.type	chMtxInit, %function
  27              	chMtxInit:
  28              	.LFB7:
  29              		.file 1 "/opt/ChibiOS/ChibiOS_2.4.4/os/kernel/src/chmtx.c"
  30              		.loc 1 86 0
  31              		.cfi_startproc
  32              		@ args = 0, pretend = 0, frame = 0
  33              		@ frame_needed = 0, uses_anonymous_args = 0
  34              		@ link register save eliminated.
  35              	.LVL0:
  36              		.loc 1 91 0
  37 0000 0023     		movs	r3, #0
  38              		.loc 1 90 0
  39 0002 4060     		str	r0, [r0, #4]
  40 0004 0060     		str	r0, [r0, #0]
  41              		.loc 1 91 0
  42 0006 8360     		str	r3, [r0, #8]
  43              		.loc 1 92 0
  44 0008 7047     		bx	lr
  45              		.cfi_endproc
  46              	.LFE7:
  47              		.size	chMtxInit, .-chMtxInit
  48 000a 00BFAFF3 		.section	.text.chMtxLockS,"ax",%progbits
  48      0080
  49              		.align	2
  50              		.p2align 4,,15
  51              		.global	chMtxLockS
  52              		.thumb
  53              		.thumb_func
  54              		.type	chMtxLockS, %function
  55              	chMtxLockS:
  56              	.LFB9:
ARM GAS  /tmp/cciKPYbS.s 			page 2


  57              		.loc 1 121 0
  58              		.cfi_startproc
  59              		@ args = 0, pretend = 0, frame = 0
  60              		@ frame_needed = 0, uses_anonymous_args = 0
  61              	.LVL1:
  62 0000 F8B5     		push	{r3, r4, r5, r6, r7, lr}
  63              	.LCFI0:
  64              		.cfi_def_cfa_offset 24
  65              		.cfi_offset 14, -4
  66              		.cfi_offset 7, -8
  67              		.cfi_offset 6, -12
  68              		.cfi_offset 5, -16
  69              		.cfi_offset 4, -20
  70              		.cfi_offset 3, -24
  71              		.loc 1 122 0
  72 0002 40F20003 		movw	r3, #:lower16:rlist
  73              		.loc 1 121 0
  74 0006 0546     		mov	r5, r0
  75              		.loc 1 122 0
  76 0008 C0F20003 		movt	r3, #:upper16:rlist
  77              		.loc 1 128 0
  78 000c 8068     		ldr	r0, [r0, #8]
  79              	.LVL2:
  80              		.loc 1 122 0
  81 000e DC69     		ldr	r4, [r3, #28]
  82              	.LVL3:
  83              		.loc 1 128 0
  84 0010 0028     		cmp	r0, #0
  85 0012 50D0     		beq	.L3
  86              	.LVL4:
  87              	.LBB33:
  88              		.loc 1 135 0 discriminator 1
  89 0014 A268     		ldr	r2, [r4, #8]
  90 0016 8168     		ldr	r1, [r0, #8]
  91 0018 8A42     		cmp	r2, r1
  92 001a 06D9     		bls	.L4
  93              	.LVL5:
  94              	.L18:
  95              		.loc 1 139 0
  96 001c 037F     		ldrb	r3, [r0, #28]	@ zero_extendqisi2
  97              		.loc 1 137 0
  98 001e 8260     		str	r2, [r0, #8]
  99              		.loc 1 139 0
 100 0020 042B     		cmp	r3, #4
 101 0022 30D0     		beq	.L6
 102 0024 052B     		cmp	r3, #5
 103 0026 1BD0     		beq	.L7
 104 0028 93B1     		cbz	r3, .L5
 105              	.LVL6:
 106              	.L4:
 107              		.file 2 "/opt/ChibiOS/ChibiOS_2.4.4/os/kernel/include/chinline.h"
 108              		.loc 2 43 0
 109 002a 2B46     		mov	r3, r5
 110              	.LVL7:
 111              	.L14:
 112              	.LBB34:
 113              	.LBB35:
ARM GAS  /tmp/cciKPYbS.s 			page 3


 114              		.loc 2 45 0
 115 002c 1B68     		ldr	r3, [r3, #0]
 116              	.LVL8:
 117              		.loc 2 46 0
 118 002e 9D42     		cmp	r5, r3
 119 0030 03D0     		beq	.L13
 120 0032 9868     		ldr	r0, [r3, #8]
 121 0034 A268     		ldr	r2, [r4, #8]
 122 0036 9042     		cmp	r0, r2
 123 0038 F8D2     		bcs	.L14
 124              	.L13:
 125              		.loc 2 48 0
 126 003a 5968     		ldr	r1, [r3, #4]
 127              		.loc 2 47 0
 128 003c 2360     		str	r3, [r4, #0]
 129              	.LBE35:
 130              	.LBE34:
 131              		.loc 1 175 0
 132 003e 0420     		movs	r0, #4
 133              	.LBB37:
 134              	.LBB36:
 135              		.loc 2 48 0
 136 0040 6160     		str	r1, [r4, #4]
 137              		.loc 2 49 0
 138 0042 0C60     		str	r4, [r1, #0]
 139 0044 5C60     		str	r4, [r3, #4]
 140              	.LBE36:
 141              	.LBE37:
 142              		.loc 1 174 0
 143 0046 6562     		str	r5, [r4, #36]
 144              	.LBE33:
 145              		.loc 1 187 0
 146 0048 BDE8F840 		pop	{r3, r4, r5, r6, r7, lr}
 147              	.LBB58:
 148              		.loc 1 175 0
 149 004c FFF7FEBF 		b	chSchGoSleepS
 150              	.LVL9:
 151              	.L5:
 152              	.LBB38:
 153              	.LBB39:
 154              		.loc 2 75 0
 155 0050 90E80C00 		ldmia	r0, {r2, r3}
 156 0054 1A60     		str	r2, [r3, #0]
 157              		.loc 2 76 0
 158 0056 0168     		ldr	r1, [r0, #0]
 159 0058 4B60     		str	r3, [r1, #4]
 160              	.LBE39:
 161              	.LBE38:
 162              		.loc 1 167 0
 163 005a FFF7FEFF 		bl	chSchReadyI
 164              	.LVL10:
 165              		.loc 1 168 0
 166 005e E4E7     		b	.L4
 167              	.LVL11:
 168              	.L7:
 169              	.LBB40:
 170              	.LBB41:
ARM GAS  /tmp/cciKPYbS.s 			page 4


 171              		.loc 2 75 0
 172 0060 4168     		ldr	r1, [r0, #4]
 173 0062 0768     		ldr	r7, [r0, #0]
 174              	.LBE41:
 175              	.LBE40:
 176              		.loc 1 158 0
 177 0064 466A     		ldr	r6, [r0, #36]
 178              	.LVL12:
 179              	.LBB44:
 180              	.LBB42:
 181              		.loc 2 75 0
 182 0066 0F60     		str	r7, [r1, #0]
 183              		.loc 2 76 0
 184 0068 0768     		ldr	r7, [r0, #0]
 185              	.LBE42:
 186              	.LBE44:
 187              		.loc 2 43 0
 188 006a 3346     		mov	r3, r6
 189              	.LBB45:
 190              	.LBB43:
 191              		.loc 2 76 0
 192 006c 7960     		str	r1, [r7, #4]
 193              	.LVL13:
 194              	.L12:
 195              	.LBE43:
 196              	.LBE45:
 197              	.LBB46:
 198              	.LBB47:
 199              		.loc 2 45 0
 200 006e 1B68     		ldr	r3, [r3, #0]
 201              	.LVL14:
 202              		.loc 2 46 0
 203 0070 9E42     		cmp	r6, r3
 204 0072 02D0     		beq	.L11
 205 0074 9968     		ldr	r1, [r3, #8]
 206 0076 9142     		cmp	r1, r2
 207 0078 F9D2     		bcs	.L12
 208              	.L11:
 209              		.loc 2 48 0
 210 007a 5A68     		ldr	r2, [r3, #4]
 211              		.loc 2 47 0
 212 007c 0360     		str	r3, [r0, #0]
 213              		.loc 2 48 0
 214 007e 4260     		str	r2, [r0, #4]
 215              		.loc 2 49 0
 216 0080 1060     		str	r0, [r2, #0]
 217 0082 5860     		str	r0, [r3, #4]
 218 0084 D1E7     		b	.L4
 219              	.LVL15:
 220              	.L6:
 221              	.LBE47:
 222              	.LBE46:
 223              	.LBB48:
 224              	.LBB49:
 225              		.loc 2 75 0
 226 0086 4168     		ldr	r1, [r0, #4]
 227 0088 0768     		ldr	r7, [r0, #0]
ARM GAS  /tmp/cciKPYbS.s 			page 5


 228              	.LBE49:
 229              	.LBE48:
 230              		.loc 1 142 0
 231 008a 466A     		ldr	r6, [r0, #36]
 232              	.LVL16:
 233              	.LBB52:
 234              	.LBB50:
 235              		.loc 2 75 0
 236 008c 0F60     		str	r7, [r1, #0]
 237              		.loc 2 76 0
 238 008e 0768     		ldr	r7, [r0, #0]
 239              	.LBE50:
 240              	.LBE52:
 241              		.loc 1 142 0
 242 0090 3346     		mov	r3, r6
 243              	.LBB53:
 244              	.LBB51:
 245              		.loc 2 76 0
 246 0092 7960     		str	r1, [r7, #4]
 247              	.LVL17:
 248              	.L9:
 249              	.LBE51:
 250              	.LBE53:
 251              	.LBB54:
 252              	.LBB55:
 253              		.loc 2 45 0
 254 0094 1B68     		ldr	r3, [r3, #0]
 255              	.LVL18:
 256              		.loc 2 46 0
 257 0096 9E42     		cmp	r6, r3
 258 0098 12D0     		beq	.L15
 259 009a 9968     		ldr	r1, [r3, #8]
 260 009c 9142     		cmp	r1, r2
 261 009e F9D2     		bcs	.L9
 262              	.LVL19:
 263              	.L8:
 264              		.loc 2 48 0
 265 00a0 5A68     		ldr	r2, [r3, #4]
 266              		.loc 2 47 0
 267 00a2 0360     		str	r3, [r0, #0]
 268              		.loc 2 48 0
 269 00a4 4260     		str	r2, [r0, #4]
 270              		.loc 2 49 0
 271 00a6 1060     		str	r0, [r2, #0]
 272 00a8 5860     		str	r0, [r3, #4]
 273              	.LBE55:
 274              	.LBE54:
 275              		.loc 1 143 0
 276 00aa B068     		ldr	r0, [r6, #8]
 277              	.LVL20:
 278              		.loc 1 135 0
 279 00ac A268     		ldr	r2, [r4, #8]
 280 00ae 8368     		ldr	r3, [r0, #8]
 281              	.LVL21:
 282 00b0 9342     		cmp	r3, r2
 283 00b2 B3D3     		bcc	.L18
 284 00b4 B9E7     		b	.L4
ARM GAS  /tmp/cciKPYbS.s 			page 6


 285              	.LVL22:
 286              	.L3:
 287              	.LBE58:
 288              		.loc 1 184 0
 289 00b6 E36B     		ldr	r3, [r4, #60]
 290              		.loc 1 183 0
 291 00b8 AC60     		str	r4, [r5, #8]
 292              		.loc 1 184 0
 293 00ba EB60     		str	r3, [r5, #12]
 294              		.loc 1 185 0
 295 00bc E563     		str	r5, [r4, #60]
 296              		.loc 1 187 0
 297 00be F8BD     		pop	{r3, r4, r5, r6, r7, pc}
 298              	.LVL23:
 299              	.L15:
 300              	.LBB59:
 301              	.LBB57:
 302              	.LBB56:
 303              		.loc 2 45 0
 304 00c0 3346     		mov	r3, r6
 305              	.LVL24:
 306 00c2 EDE7     		b	.L8
 307              	.LBE56:
 308              	.LBE57:
 309              	.LBE59:
 310              		.cfi_endproc
 311              	.LFE9:
 312              		.size	chMtxLockS, .-chMtxLockS
 313 00c4 AFF30080 		.section	.text.chMtxLock,"ax",%progbits
 313      AFF30080 
 313      AFF30080 
 314              		.align	2
 315              		.p2align 4,,15
 316              		.global	chMtxLock
 317              		.thumb
 318              		.thumb_func
 319              		.type	chMtxLock, %function
 320              	chMtxLock:
 321              	.LFB8:
 322              		.loc 1 103 0
 323              		.cfi_startproc
 324              		@ args = 0, pretend = 0, frame = 0
 325              		@ frame_needed = 0, uses_anonymous_args = 0
 326              	.LVL25:
 327 0000 08B5     		push	{r3, lr}
 328              	.LCFI1:
 329              		.cfi_def_cfa_offset 8
 330              		.cfi_offset 14, -4
 331              		.cfi_offset 3, -8
 332              	.LBB60:
 333              		.loc 1 105 0
 334 0002 2023     		movs	r3, #32
 335              	.LVL26:
 336              	@ 105 "/opt/ChibiOS/ChibiOS_2.4.4/os/kernel/src/chmtx.c" 1
 337 0004 83F31188 		msr     BASEPRI, r3
 338              	@ 0 "" 2
 339              	.LVL27:
ARM GAS  /tmp/cciKPYbS.s 			page 7


 340              		.thumb
 341              	.LBE60:
 342              		.loc 1 107 0
 343 0008 FFF7FEFF 		bl	chMtxLockS
 344              	.LVL28:
 345              	.LBB61:
 346              		.loc 1 109 0
 347 000c 0023     		movs	r3, #0
 348              	.LVL29:
 349              	@ 109 "/opt/ChibiOS/ChibiOS_2.4.4/os/kernel/src/chmtx.c" 1
 350 000e 83F31188 		msr     BASEPRI, r3
 351              	@ 0 "" 2
 352              	.LVL30:
 353              		.thumb
 354              	.LBE61:
 355              		.loc 1 110 0
 356 0012 08BD     		pop	{r3, pc}
 357              		.cfi_endproc
 358              	.LFE8:
 359              		.size	chMtxLock, .-chMtxLock
 360 0014 AFF30080 		.section	.text.chMtxTryLock,"ax",%progbits
 360      AFF30080 
 360      AFF30080 
 361              		.align	2
 362              		.p2align 4,,15
 363              		.global	chMtxTryLock
 364              		.thumb
 365              		.thumb_func
 366              		.type	chMtxTryLock, %function
 367              	chMtxTryLock:
 368              	.LFB10:
 369              		.loc 1 206 0
 370              		.cfi_startproc
 371              		@ args = 0, pretend = 0, frame = 0
 372              		@ frame_needed = 0, uses_anonymous_args = 0
 373              		@ link register save eliminated.
 374              	.LVL31:
 375              		.loc 1 206 0
 376 0000 0246     		mov	r2, r0
 377              	.LBB62:
 378              		.loc 1 209 0
 379 0002 2023     		movs	r3, #32
 380              	.LVL32:
 381              	@ 209 "/opt/ChibiOS/ChibiOS_2.4.4/os/kernel/src/chmtx.c" 1
 382 0004 83F31188 		msr     BASEPRI, r3
 383              	@ 0 "" 2
 384              	.LVL33:
 385              		.thumb
 386              	.LBE62:
 387              	.LBB63:
 388              	.LBB64:
 389              		.loc 1 239 0
 390 0008 8368     		ldr	r3, [r0, #8]
 391              	.LVL34:
 392              		.loc 1 240 0
 393 000a 0020     		movs	r0, #0
 394              	.LVL35:
ARM GAS  /tmp/cciKPYbS.s 			page 8


 395              		.loc 1 239 0
 396 000c 1BB1     		cbz	r3, .L28
 397              	.LBE64:
 398              	.LBE63:
 399              	.LBB66:
 400              		.loc 1 213 0
 401 000e 0023     		movs	r3, #0
 402              	.LVL36:
 403              	@ 213 "/opt/ChibiOS/ChibiOS_2.4.4/os/kernel/src/chmtx.c" 1
 404 0010 83F31188 		msr     BASEPRI, r3
 405              	@ 0 "" 2
 406              	.LVL37:
 407              		.thumb
 408              	.LBE66:
 409              		.loc 1 215 0
 410 0014 7047     		bx	lr
 411              	.LVL38:
 412              	.L28:
 413              	.LBB67:
 414              	.LBB65:
 415              		.loc 1 241 0
 416 0016 40F2000C 		movw	ip, #:lower16:rlist
 417 001a C0F2000C 		movt	ip, #:upper16:rlist
 418              		.loc 1 244 0
 419 001e 0120     		movs	r0, #1
 420              		.loc 1 241 0
 421 0020 DCF81C30 		ldr	r3, [ip, #28]
 422              		.loc 1 242 0
 423 0024 D96B     		ldr	r1, [r3, #60]
 424              	.LVL39:
 425              		.loc 1 241 0
 426 0026 9360     		str	r3, [r2, #8]
 427              		.loc 1 242 0
 428 0028 D160     		str	r1, [r2, #12]
 429              		.loc 1 243 0
 430 002a DA63     		str	r2, [r3, #60]
 431              	.LBE65:
 432              	.LBE67:
 433              	.LBB68:
 434              		.loc 1 213 0
 435 002c 0023     		movs	r3, #0
 436              	@ 213 "/opt/ChibiOS/ChibiOS_2.4.4/os/kernel/src/chmtx.c" 1
 437 002e 83F31188 		msr     BASEPRI, r3
 438              	@ 0 "" 2
 439              	.LVL40:
 440              		.thumb
 441              	.LBE68:
 442              		.loc 1 215 0
 443 0032 7047     		bx	lr
 444              		.cfi_endproc
 445              	.LFE10:
 446              		.size	chMtxTryLock, .-chMtxTryLock
 447 0034 AFF30080 		.section	.text.chMtxTryLockS,"ax",%progbits
 447      AFF30080 
 447      AFF30080 
 448              		.align	2
 449              		.p2align 4,,15
ARM GAS  /tmp/cciKPYbS.s 			page 9


 450              		.global	chMtxTryLockS
 451              		.thumb
 452              		.thumb_func
 453              		.type	chMtxTryLockS, %function
 454              	chMtxTryLockS:
 455              	.LFB11:
 456              		.loc 1 234 0
 457              		.cfi_startproc
 458              		@ args = 0, pretend = 0, frame = 0
 459              		@ frame_needed = 0, uses_anonymous_args = 0
 460              		@ link register save eliminated.
 461              	.LVL41:
 462              		.loc 1 239 0
 463 0000 8268     		ldr	r2, [r0, #8]
 464              		.loc 1 234 0
 465 0002 0346     		mov	r3, r0
 466              		.loc 1 239 0
 467 0004 0AB1     		cbz	r2, .L32
 468              		.loc 1 240 0
 469 0006 0020     		movs	r0, #0
 470              	.LVL42:
 471              		.loc 1 245 0
 472 0008 7047     		bx	lr
 473              	.L32:
 474              		.loc 1 241 0
 475 000a 40F2000C 		movw	ip, #:lower16:rlist
 476 000e C0F2000C 		movt	ip, #:upper16:rlist
 477              		.loc 1 244 0
 478 0012 0120     		movs	r0, #1
 479              		.loc 1 241 0
 480 0014 DCF81C20 		ldr	r2, [ip, #28]
 481              		.loc 1 242 0
 482 0018 D16B     		ldr	r1, [r2, #60]
 483              		.loc 1 241 0
 484 001a 9A60     		str	r2, [r3, #8]
 485              		.loc 1 242 0
 486 001c D960     		str	r1, [r3, #12]
 487              		.loc 1 243 0
 488 001e D363     		str	r3, [r2, #60]
 489              		.loc 1 244 0
 490 0020 7047     		bx	lr
 491              		.cfi_endproc
 492              	.LFE11:
 493              		.size	chMtxTryLockS, .-chMtxTryLockS
 494 0022 00BFAFF3 		.section	.text.chMtxUnlock,"ax",%progbits
 494      0080AFF3 
 494      0080AFF3 
 494      0080
 495              		.align	2
 496              		.p2align 4,,15
 497              		.global	chMtxUnlock
 498              		.thumb
 499              		.thumb_func
 500              		.type	chMtxUnlock, %function
 501              	chMtxUnlock:
 502              	.LFB12:
 503              		.loc 1 257 0
ARM GAS  /tmp/cciKPYbS.s 			page 10


 504              		.cfi_startproc
 505              		@ args = 0, pretend = 0, frame = 0
 506              		@ frame_needed = 0, uses_anonymous_args = 0
 507              		.loc 1 258 0
 508 0000 40F20002 		movw	r2, #:lower16:rlist
 509 0004 C0F20002 		movt	r2, #:upper16:rlist
 510              		.loc 1 257 0
 511 0008 F8B5     		push	{r3, r4, r5, r6, r7, lr}
 512              	.LCFI2:
 513              		.cfi_def_cfa_offset 24
 514              		.cfi_offset 14, -4
 515              		.cfi_offset 7, -8
 516              		.cfi_offset 6, -12
 517              		.cfi_offset 5, -16
 518              		.cfi_offset 4, -20
 519              		.cfi_offset 3, -24
 520              		.loc 1 258 0
 521 000a D269     		ldr	r2, [r2, #28]
 522              	.LVL43:
 523              	.LBB69:
 524              		.loc 1 261 0
 525 000c 2023     		movs	r3, #32
 526              	.LVL44:
 527              	@ 261 "/opt/ChibiOS/ChibiOS_2.4.4/os/kernel/src/chmtx.c" 1
 528 000e 83F31188 		msr     BASEPRI, r3
 529              	@ 0 "" 2
 530              	.LVL45:
 531              		.thumb
 532              	.LBE69:
 533              		.loc 1 270 0
 534 0012 D46B     		ldr	r4, [r2, #60]
 535              	.LVL46:
 536              		.loc 1 273 0
 537 0014 2368     		ldr	r3, [r4, #0]
 538              	.LVL47:
 539              		.loc 1 271 0
 540 0016 E168     		ldr	r1, [r4, #12]
 541              		.loc 1 273 0
 542 0018 A342     		cmp	r3, r4
 543              		.loc 1 271 0
 544 001a D163     		str	r1, [r2, #60]
 545              		.loc 1 273 0
 546 001c 1CD0     		beq	.L34
 547              	.LBB70:
 548              		.loc 1 278 0
 549 001e 176C     		ldr	r7, [r2, #64]
 550              	.LVL48:
 551              		.loc 1 280 0
 552 0020 49B1     		cbz	r1, .L35
 553              	.LVL49:
 554              	.L39:
 555              		.loc 1 284 0
 556 0022 0868     		ldr	r0, [r1, #0]
 557 0024 8842     		cmp	r0, r1
 558 0026 03D0     		beq	.L36
 559              		.loc 1 284 0 is_stmt 0 discriminator 1
 560 0028 8068     		ldr	r0, [r0, #8]
ARM GAS  /tmp/cciKPYbS.s 			page 11


 561 002a 8742     		cmp	r7, r0
 562 002c 38BF     		it	cc
 563 002e 0746     		movcc	r7, r0
 564              	.LVL50:
 565              	.L36:
 566              		.loc 1 286 0 is_stmt 1
 567 0030 C968     		ldr	r1, [r1, #12]
 568              	.LVL51:
 569              		.loc 1 280 0
 570 0032 0029     		cmp	r1, #0
 571 0034 F5D1     		bne	.L39
 572              	.L35:
 573              	.LBB71:
 574              	.LBB72:
 575              		.loc 2 62 0
 576 0036 1D68     		ldr	r5, [r3, #0]
 577              	.LBE72:
 578              	.LBE71:
 579              		.loc 1 295 0
 580 0038 DE6B     		ldr	r6, [r3, #60]
 581              		.loc 1 290 0
 582 003a 9760     		str	r7, [r2, #8]
 583              	.LVL52:
 584              		.loc 1 297 0
 585 003c 1846     		mov	r0, r3
 586              	.LBB75:
 587              	.LBB73:
 588              		.loc 2 62 0
 589 003e 2560     		str	r5, [r4, #0]
 590              	.LBE73:
 591              	.LBE75:
 592              		.loc 1 297 0
 593 0040 0021     		movs	r1, #0
 594              	.LVL53:
 595              	.LBB76:
 596              	.LBB74:
 597              		.loc 2 62 0
 598 0042 6C60     		str	r4, [r5, #4]
 599              	.LBE74:
 600              	.LBE76:
 601              		.loc 1 294 0
 602 0044 A360     		str	r3, [r4, #8]
 603              		.loc 1 295 0
 604 0046 E660     		str	r6, [r4, #12]
 605              		.loc 1 296 0
 606 0048 DC63     		str	r4, [r3, #60]
 607              		.loc 1 297 0
 608 004a FFF7FEFF 		bl	chSchWakeupS
 609              	.LVL54:
 610              	.LBE70:
 611              	.LBB77:
 612              		.loc 1 301 0
 613 004e 0023     		movs	r3, #0
 614              	.LVL55:
 615              	@ 301 "/opt/ChibiOS/ChibiOS_2.4.4/os/kernel/src/chmtx.c" 1
 616 0050 83F31188 		msr     BASEPRI, r3
 617              	@ 0 "" 2
ARM GAS  /tmp/cciKPYbS.s 			page 12


 618              	.LVL56:
 619              		.thumb
 620              	.LBE77:
 621              		.loc 1 303 0
 622 0054 2046     		mov	r0, r4
 623 0056 F8BD     		pop	{r3, r4, r5, r6, r7, pc}
 624              	.LVL57:
 625              	.L34:
 626              		.loc 1 300 0
 627 0058 0023     		movs	r3, #0
 628 005a A360     		str	r3, [r4, #8]
 629              	.LBB78:
 630              		.loc 1 301 0
 631 005c 0023     		movs	r3, #0
 632              	@ 301 "/opt/ChibiOS/ChibiOS_2.4.4/os/kernel/src/chmtx.c" 1
 633 005e 83F31188 		msr     BASEPRI, r3
 634              	@ 0 "" 2
 635              	.LVL58:
 636              		.thumb
 637              	.LBE78:
 638              		.loc 1 303 0
 639 0062 2046     		mov	r0, r4
 640 0064 F8BD     		pop	{r3, r4, r5, r6, r7, pc}
 641              		.cfi_endproc
 642              	.LFE12:
 643              		.size	chMtxUnlock, .-chMtxUnlock
 644 0066 00BFAFF3 		.section	.text.chMtxUnlockS,"ax",%progbits
 644      0080AFF3 
 644      0080
 645              		.align	2
 646              		.p2align 4,,15
 647              		.global	chMtxUnlockS
 648              		.thumb
 649              		.thumb_func
 650              		.type	chMtxUnlockS, %function
 651              	chMtxUnlockS:
 652              	.LFB13:
 653              		.loc 1 317 0
 654              		.cfi_startproc
 655              		@ args = 0, pretend = 0, frame = 0
 656              		@ frame_needed = 0, uses_anonymous_args = 0
 657              		.loc 1 318 0
 658 0000 40F20003 		movw	r3, #:lower16:rlist
 659 0004 C0F20003 		movt	r3, #:upper16:rlist
 660              		.loc 1 317 0
 661 0008 70B5     		push	{r4, r5, r6, lr}
 662              	.LCFI3:
 663              		.cfi_def_cfa_offset 16
 664              		.cfi_offset 14, -4
 665              		.cfi_offset 6, -8
 666              		.cfi_offset 5, -12
 667              		.cfi_offset 4, -16
 668              		.loc 1 318 0
 669 000a D969     		ldr	r1, [r3, #28]
 670              	.LVL59:
 671              		.loc 1 331 0
 672 000c CC6B     		ldr	r4, [r1, #60]
ARM GAS  /tmp/cciKPYbS.s 			page 13


 673              	.LVL60:
 674              		.loc 1 334 0
 675 000e 2368     		ldr	r3, [r4, #0]
 676              	.LVL61:
 677              		.loc 1 332 0
 678 0010 E268     		ldr	r2, [r4, #12]
 679              		.loc 1 334 0
 680 0012 A342     		cmp	r3, r4
 681              		.loc 1 332 0
 682 0014 CA63     		str	r2, [r1, #60]
 683              		.loc 1 334 0
 684 0016 18D0     		beq	.L42
 685              	.LBB79:
 686              		.loc 1 339 0
 687 0018 0E6C     		ldr	r6, [r1, #64]
 688              	.LVL62:
 689              		.loc 1 341 0
 690 001a 4AB1     		cbz	r2, .L43
 691              	.LVL63:
 692              	.L47:
 693              		.loc 1 345 0
 694 001c 1068     		ldr	r0, [r2, #0]
 695 001e 9042     		cmp	r0, r2
 696 0020 03D0     		beq	.L44
 697              		.loc 1 345 0 is_stmt 0 discriminator 1
 698 0022 8068     		ldr	r0, [r0, #8]
 699 0024 8642     		cmp	r6, r0
 700 0026 38BF     		it	cc
 701 0028 0646     		movcc	r6, r0
 702              	.LVL64:
 703              	.L44:
 704              		.loc 1 347 0 is_stmt 1
 705 002a D268     		ldr	r2, [r2, #12]
 706              	.LVL65:
 707              		.loc 1 341 0
 708 002c 002A     		cmp	r2, #0
 709 002e F5D1     		bne	.L47
 710              	.L43:
 711              	.LBB80:
 712              	.LBB81:
 713              		.loc 2 62 0
 714 0030 1A68     		ldr	r2, [r3, #0]
 715              	.LVL66:
 716              	.LBE81:
 717              	.LBE80:
 718              		.loc 1 354 0
 719 0032 DD6B     		ldr	r5, [r3, #60]
 720              		.loc 1 349 0
 721 0034 8E60     		str	r6, [r1, #8]
 722              	.LVL67:
 723              		.loc 1 356 0
 724 0036 1846     		mov	r0, r3
 725              	.LBB83:
 726              	.LBB82:
 727              		.loc 2 62 0
 728 0038 2260     		str	r2, [r4, #0]
 729 003a 5460     		str	r4, [r2, #4]
ARM GAS  /tmp/cciKPYbS.s 			page 14


 730              	.LBE82:
 731              	.LBE83:
 732              		.loc 1 353 0
 733 003c A360     		str	r3, [r4, #8]
 734              		.loc 1 354 0
 735 003e E560     		str	r5, [r4, #12]
 736              		.loc 1 355 0
 737 0040 DC63     		str	r4, [r3, #60]
 738              		.loc 1 356 0
 739 0042 FFF7FEFF 		bl	chSchReadyI
 740              	.LVL68:
 741              	.LBE79:
 742              		.loc 1 361 0
 743 0046 2046     		mov	r0, r4
 744 0048 70BD     		pop	{r4, r5, r6, pc}
 745              	.LVL69:
 746              	.L42:
 747              		.loc 1 359 0
 748 004a 0021     		movs	r1, #0
 749              	.LVL70:
 750 004c A160     		str	r1, [r4, #8]
 751              		.loc 1 361 0
 752 004e 2046     		mov	r0, r4
 753 0050 70BD     		pop	{r4, r5, r6, pc}
 754              		.cfi_endproc
 755              	.LFE13:
 756              		.size	chMtxUnlockS, .-chMtxUnlockS
 757 0052 00BFAFF3 		.section	.text.chMtxUnlockAll,"ax",%progbits
 757      0080AFF3 
 757      0080AFF3 
 757      0080
 758              		.align	2
 759              		.p2align 4,,15
 760              		.global	chMtxUnlockAll
 761              		.thumb
 762              		.thumb_func
 763              		.type	chMtxUnlockAll, %function
 764              	chMtxUnlockAll:
 765              	.LFB14:
 766              		.loc 1 374 0
 767              		.cfi_startproc
 768              		@ args = 0, pretend = 0, frame = 0
 769              		@ frame_needed = 0, uses_anonymous_args = 0
 770              		.loc 1 375 0
 771 0000 40F20002 		movw	r2, #:lower16:rlist
 772 0004 C0F20002 		movt	r2, #:upper16:rlist
 773              		.loc 1 374 0
 774 0008 70B5     		push	{r4, r5, r6, lr}
 775              	.LCFI4:
 776              		.cfi_def_cfa_offset 16
 777              		.cfi_offset 14, -4
 778              		.cfi_offset 6, -8
 779              		.cfi_offset 5, -12
 780              		.cfi_offset 4, -16
 781              	.LBB84:
 782              		.loc 1 377 0
 783 000a 2023     		movs	r3, #32
ARM GAS  /tmp/cciKPYbS.s 			page 15


 784              	.LVL71:
 785              	.LBE84:
 786              		.loc 1 375 0
 787 000c D469     		ldr	r4, [r2, #28]
 788              	.LVL72:
 789              	.LBB85:
 790              		.loc 1 377 0
 791              	@ 377 "/opt/ChibiOS/ChibiOS_2.4.4/os/kernel/src/chmtx.c" 1
 792 000e 83F31188 		msr     BASEPRI, r3
 793              	@ 0 "" 2
 794              	.LVL73:
 795              		.thumb
 796              	.LBE85:
 797              		.loc 1 378 0
 798 0012 E36B     		ldr	r3, [r4, #60]
 799              	.LVL74:
 800 0014 C3B1     		cbz	r3, .L50
 801              	.LBB86:
 802              		.loc 1 390 0
 803 0016 0025     		movs	r5, #0
 804              	.LVL75:
 805              	.L54:
 806              		.loc 1 382 0
 807 0018 1A68     		ldr	r2, [r3, #0]
 808              		.loc 1 381 0
 809 001a D968     		ldr	r1, [r3, #12]
 810              		.loc 1 382 0
 811 001c 9A42     		cmp	r2, r3
 812              		.loc 1 381 0
 813 001e E163     		str	r1, [r4, #60]
 814              		.loc 1 390 0
 815 0020 08BF     		it	eq
 816 0022 9D60     		streq	r5, [r3, #8]
 817              		.loc 1 382 0
 818 0024 09D0     		beq	.L52
 819              	.LVL76:
 820              	.LBB87:
 821              	.LBB88:
 822              	.LBB89:
 823              		.loc 2 62 0
 824 0026 1168     		ldr	r1, [r2, #0]
 825              	.LBE89:
 826              	.LBE88:
 827              		.loc 1 385 0
 828 0028 D66B     		ldr	r6, [r2, #60]
 829              	.LBB92:
 830              	.LBB90:
 831              		.loc 2 62 0
 832 002a 1960     		str	r1, [r3, #0]
 833              	.LBE90:
 834              	.LBE92:
 835              		.loc 1 387 0
 836 002c 1046     		mov	r0, r2
 837              	.LBB93:
 838              	.LBB91:
 839              		.loc 2 62 0
 840 002e 4B60     		str	r3, [r1, #4]
ARM GAS  /tmp/cciKPYbS.s 			page 16


 841              	.LBE91:
 842              	.LBE93:
 843              		.loc 1 384 0
 844 0030 9A60     		str	r2, [r3, #8]
 845              		.loc 1 385 0
 846 0032 DE60     		str	r6, [r3, #12]
 847              		.loc 1 386 0
 848 0034 D363     		str	r3, [r2, #60]
 849              		.loc 1 387 0
 850 0036 FFF7FEFF 		bl	chSchReadyI
 851              	.LVL77:
 852              	.L52:
 853              	.LBE87:
 854              	.LBE86:
 855              		.loc 1 391 0
 856 003a E36B     		ldr	r3, [r4, #60]
 857 003c 002B     		cmp	r3, #0
 858 003e EBD1     		bne	.L54
 859              		.loc 1 392 0
 860 0040 236C     		ldr	r3, [r4, #64]
 861 0042 A360     		str	r3, [r4, #8]
 862              		.loc 1 393 0
 863 0044 FFF7FEFF 		bl	chSchRescheduleS
 864              	.L50:
 865              	.LBB94:
 866              		.loc 1 395 0
 867 0048 0023     		movs	r3, #0
 868              	.LVL78:
 869              	@ 395 "/opt/ChibiOS/ChibiOS_2.4.4/os/kernel/src/chmtx.c" 1
 870 004a 83F31188 		msr     BASEPRI, r3
 871              	@ 0 "" 2
 872              	.LVL79:
 873              		.thumb
 874              	.LBE94:
 875              		.loc 1 396 0
 876 004e 70BD     		pop	{r4, r5, r6, pc}
 877              		.cfi_endproc
 878              	.LFE14:
 879              		.size	chMtxUnlockAll, .-chMtxUnlockAll
 880              		.text
 881              	.Letext0:
 882              		.file 3 "/opt/arm/bin/../lib/gcc/arm-none-eabi/4.6.3/../../../../arm-none-eabi/include/stdint.h"
 883              		.file 4 "/opt/ChibiOS/ChibiOS_2.4.4/os/ports/GCC/ARMCMx/chtypes.h"
 884              		.file 5 "/opt/ChibiOS/ChibiOS_2.4.4/os/kernel/include/chlists.h"
 885              		.file 6 "/opt/ChibiOS/ChibiOS_2.4.4/os/kernel/include/chthreads.h"
 886              		.file 7 "/opt/ChibiOS/ChibiOS_2.4.4/os/ports/GCC/ARMCMx/chcore_v7m.h"
 887              		.file 8 "/opt/ChibiOS/ChibiOS_2.4.4/os/kernel/include/chschd.h"
 888              		.file 9 "/opt/ChibiOS/ChibiOS_2.4.4/os/kernel/include/chmtx.h"