ARM GAS  /tmp/cciKPYbS.s 			page 1


   1              		.syntax unified
   2              		.cpu cortex-m4
   3              		.eabi_attribute 27, 3
   4              		.eabi_attribute 28, 1
   5              		.fpu fpv4-sp-d16
   6              		.eabi_attribute 20, 1
   7              		.eabi_attribute 21, 1
   8              		.eabi_attribute 23, 3
   9              		.eabi_attribute 24, 1
  10              		.eabi_attribute 25, 1
  11              		.eabi_attribute 26, 1
  12              		.eabi_attribute 30, 2
  13              		.eabi_attribute 34, 1
  14              		.eabi_attribute 18, 4
  15              		.thumb
  16              		.file	"chmtx.c"
  17              		.text
  18              	.Ltext0:
  19              		.cfi_sections	.debug_frame
  20              		.section	.text.chMtxInit,"ax",%progbits
  21              		.align	2
  22              		.p2align 4,,15
  23              		.global	chMtxInit
  24              		.thumb
  25              		.thumb_func
  26              		.type	chMtxInit, %function
  27              	chMtxInit:
  28              	.LFB7:
  29              		.file 1 "/opt/ChibiOS/ChibiOS_2.4.4/os/kernel/src/chmtx.c"
  30              		.loc 1 86 0
  31              		.cfi_startproc
  32              		@ args = 0, pretend = 0, frame = 0
  33              		@ frame_needed = 0, uses_anonymous_args = 0
  34              		@ link register save eliminated.
  35              	.LVL0:
  36              		.loc 1 91 0
  37 0000 0023     		movs	r3, #0
  38              		.loc 1 90 0
  39 0002 4060     		str	r0, [r0, #4]
  40 0004 0060     		str	r0, [r0, #0]
  41              		.loc 1 91 0
  42 0006 8360     		str	r3, [r0, #8]
  43              		.loc 1 92 0
  44 0008 7047     		bx	lr
  45              		.cfi_endproc
  46              	.LFE7:
  47              		.size	chMtxInit, .-chMtxInit
  48 000a 00BFAFF3 		.section	.text.chMtxLockS,"ax",%progbits
  48      0080
  49              		.align	2
  50              		.p2align 4,,15
  51              		.global	chMtxLockS
  52              		.thumb
  53              		.thumb_func
  54              		.type	chMtxLockS, %function
  55              	chMtxLockS:
  56              	.LFB9:
ARM GAS  /tmp/cciKPYbS.s 			page 2


  57              		.loc 1 121 0
  58              		.cfi_startproc
  59              		@ args = 0, pretend = 0, frame = 0
  60              		@ frame_needed = 0, uses_anonymous_args = 0
  61              	.LVL1:
  62 0000 F8B5     		push	{r3, r4, r5, r6, r7, lr}
  63              	.LCFI0:
  64              		.cfi_def_cfa_offset 24
  65              		.cfi_offset 14, -4
  66              		.cfi_offset 7, -8
  67              		.cfi_offset 6, -12
  68              		.cfi_offset 5, -16
  69              		.cfi_offset 4, -20
  70              		.cfi_offset 3, -24
  71              		.loc 1 122 0
  72 0002 40F20003 		movw	r3, #:lower16:rlist
  73              		.loc 1 121 0
  74 0006 0546     		mov	r5, r0
  75              		.loc 1 122 0
  76 0008 C0F20003 		movt	r3, #:upper16:rlist
  77              		.loc 1 128 0
  78 000c 8068     		ldr	r0, [r0, #8]
  79              	.LVL2:
  80              		.loc 1 122 0
  81 000e DC69     		ldr	r4, [r3, #28]
  82              	.LVL3:
  83              		.loc 1 128 0
  84 0010 0028     		cmp	r0, #0
  85 0012 50D0     		beq	.L3
  86              	.LVL4:
  87              	.LBB33:
  88              		.loc 1 135 0 discriminator 1
  89 0014 A268     		ldr	r2, [r4, #8]
  90 0016 8168     		ldr	r1, [r0, #8]
  91 0018 8A42     		cmp	r2, r1
  92 001a 06D9     		bls	.L4
  93              	.LVL5:
  94              	.L18:
  95              		.loc 1 139 0
  96 001c 037F     		ldrb	r3, [r0, #28]	@ zero_extendqisi2
  97              		.loc 1 137 0
  98 001e 8260     		str	r2, [r0, #8]
  99              		.loc 1 139 0
 100 0020 042B     		cmp	r3, #4
 101 0022 30D0     		beq	.L6
 102 0024 052B     		cmp	r3, #5
 103 0026 1BD0     		beq	.L7
 104 0028 93B1     		cbz	r3, .L5
 105              	.LVL6:
 106              	.L4:
 107              		.file 2 "/opt/ChibiOS/ChibiOS_2.4.4/os/kernel/include/chinline.h"
 108              		.loc 2 43 0
 109 002a 2B46     		mov	r3, r5
 110              	.LVL7:
 111              	.L14:
 112              	.LBB34:
 113              	.LBB35:
ARM GAS  /tmp/cciKPYbS.s 			page 3


 114              		.loc 2 45 0
 115 002c 1B68     		ldr	r3, [r3, #0]
 116              	.LVL8:
 117              		.loc 2 46 0
 118 002e 9D42     		cmp	r5, r3
 119 0030 03D0     		beq	.L13
 120 0032 9868     		ldr	r0, [r3, #8]
 121 0034 A268     		ldr	r2, [r4, #8]
 122 0036 9042     		cmp	r0, r2
 123 0038 F8D2     		bcs	.L14
 124              	.L13:
 125              		.loc 2 48 0
 126 003a 5968     		ldr	r1, [r3, #4]
 127              		.loc 2 47 0
 128 003c 2360     		str	r3, [r4, #0]
 129              	.LBE35:
 130              	.LBE34:
 131              		.loc 1 175 0
 132 003e 0420     		movs	r0, #4
 133              	.LBB37:
 134              	.LBB36:
 135              		.loc 2 48 0
 136 0040 6160     		str	r1, [r4, #4]
 137              		.loc 2 49 0
 138 0042 0C60     		str	r4, [r1, #0]
 139 0044 5C60     		str	r4, [r3, #4]
 140              	.LBE36:
 141              	.LBE37:
 142              		.loc 1 174 0
 143 0046 6562     		str	r5, [r4, #36]
 144              	.LBE33:
 145              		.loc 1 187 0
 146 0048 BDE8F840 		pop	{r3, r4, r5, r6, r7, lr}
 147              	.LBB58:
 148              		.loc 1 175 0
 149 004c FFF7FEBF 		b	chSchGoSleepS
 150              	.LVL9:
 151              	.L5:
 152              	.LBB38:
 153              	.LBB39:
 154              		.loc 2 75 0
 155 0050 90E80C00 		ldmia	r0, {r2, r3}
 156 0054 1A60     		str	r2, [r3, #0]
 157              		.loc 2 76 0
 158 0056 0168     		ldr	r1, [r0, #0]
 159 0058 4B60     		str	r3, [r1, #4]
 160              	.LBE39:
 161              	.LBE38:
 162              		.loc 1 167 0
 163 005a FFF7FEFF 		bl	chSchReadyI
 164              	.LVL10:
 165              		.loc 1 168 0
 166 005e E4E7     		b	.L4
 167              	.LVL11:
 168              	.L7:
 169              	.LBB40:
 170              	.LBB41:
ARM GAS  /tmp/cciKPYbS.s 			page 4


 171              		.loc 2 75 0
 172 0060 4168     		ldr	r1, [r0, #4]
 173 0062 0768     		ldr	r7, [r0, #0]
 174              	.LBE41:
 175              	.LBE40:
 176              		.loc 1 158 0
 177 0064 466A     		ldr	r6, [r0, #36]
 178              	.LVL12:
 179              	.LBB44:
 180              	.LBB42:
 181              		.loc 2 75 0
 182 0066 0F60     		str	r7, [r1, #0]
 183              		.loc 2 76 0
 184 0068 0768     		ldr	r7, [r0, #0]
 185              	.LBE42:
 186              	.LBE44:
 187              		.loc 2 43 0
 188 006a 3346     		mov	r3, r6
 189              	.LBB45:
 190              	.LBB43:
 191              		.loc 2 76 0
 192 006c 7960     		str	r1, [r7, #4]
 193              	.LVL13:
 194              	.L12:
 195              	.LBE43:
 196              	.LBE45:
 197              	.LBB46:
 198              	.LBB47:
 199              		.loc 2 45 0
 200 006e 1B68     		ldr	r3, [r3, #0]
 201              	.LVL14:
 202              		.loc 2 46 0
 203 0070 9E42     		cmp	r6, r3
 204 0072 02D0     		beq	.L11
 205 0074 9968     		ldr	r1, [r3, #8]
 206 0076 9142     		cmp	r1, r2
 207 0078 F9D2     		bcs	.L12
 208              	.L11:
 209              		.loc 2 48 0
 210 007a 5A68     		ldr	r2, [r3, #4]
 211              		.loc 2 47 0
 212 007c 0360     		str	r3, [r0, #0]
 213              		.loc 2 48 0
 214 007e 4260     		str	r2, [r0, #4]
 215              		.loc 2 49 0
 216 0080 1060     		str	r0, [r2, #0]
 217 0082 5860     		str	r0, [r3, #4]
 218 0084 D1E7     		b	.L4
 219              	.LVL15:
 220              	.L6:
 221              	.LBE47:
 222              	.LBE46:
 223              	.LBB48:
 224              	.LBB49:
 225              		.loc 2 75 0
 226 0086 4168     		ldr	r1, [r0, #4]
 227 0088 0768     		ldr	r7, [r0, #0]
ARM GAS  /tmp/cciKPYbS.s 			page 5


 228              	.LBE49:
 229              	.LBE48:
 230              		.loc 1 142 0
 231 008a 466A     		ldr	r6, [r0, #36]
 232              	.LVL16:
 233              	.LBB52:
 234              	.LBB50:
 235              		.loc 2 75 0
 236 008c 0F60     		str	r7, [r1, #0]
 237              		.loc 2 76 0
 238 008e 0768     		ldr	r7, [r0, #0]
 239              	.LBE50:
 240              	.LBE52:
 241              		.loc 1 142 0
 242 0090 3346     		mov	r3, r6
 243              	.LBB53:
 244              	.LBB51:
 245              		.loc 2 76 0
 246 0092 7960     		str	r1, [r7, #4]
 247              	.LVL17:
 248              	.L9:
 249              	.LBE51:
 250              	.LBE53:
 251              	.LBB54:
 252              	.LBB55:
 253              		.loc 2 45 0
 254 0094 1B68     		ldr	r3, [r3, #0]
 255              	.LVL18:
 256              		.loc 2 46 0
 257 0096 9E42     		cmp	r6, r3
 258 0098 12D0     		beq	.L15
 259 009a 9968     		ldr	r1, [r3, #8]
 260 009c 9142     		cmp	r1, r2
 261 009e F9D2     		bcs	.L9
 262              	.LVL19:
 263              	.L8:
 264              		.loc 2 48 0
 265 00a0 5A68     		ldr	r2, [r3, #4]
 266              		.loc 2 47 0
 267 00a2 0360     		str	r3, [r0, #0]
 268              		.loc 2 48 0
 269 00a4 4260     		str	r2, [r0, #4]
 270              		.loc 2 49 0
 271 00a6 1060     		str	r0, [r2, #0]
 272 00a8 5860     		str	r0, [r3, #4]
 273              	.LBE55:
 274              	.LBE54:
 275              		.loc 1 143 0
 276 00aa B068     		ldr	r0, [r6, #8]
 277              	.LVL20:
 278              		.loc 1 135 0
 279 00ac A268     		ldr	r2, [r4, #8]
 280 00ae 8368     		ldr	r3, [r0, #8]
 281              	.LVL21:
 282 00b0 9342     		cmp	r3, r2
 283 00b2 B3D3     		bcc	.L18
 284 00b4 B9E7     		b	.L4
ARM GAS  /tmp/cciKPYbS.s 			page 6


 285              	.LVL22:
 286              	.L3:
 287              	.LBE58:
 288              		.loc 1 184 0
 289 00b6 E36B     		ldr	r3, [r4, #60]
 290              		.loc 1 183 0
 291 00b8 AC60     		str	r4, [r5, #8]
 292              		.loc 1 184 0
 293 00ba EB60     		str	r3, [r5, #12]
 294              		.loc 1 185 0
 295 00bc E563     		str	r5, [r4, #60]
 296              		.loc 1 187 0
 297 00be F8BD     		pop	{r3, r4, r5, r6, r7, pc}
 298              	.LVL23:
 299              	.L15:
 300              	.LBB59:
 301              	.LBB57:
 302              	.LBB56:
 303              		.loc 2 45 0
 304 00c0 3346     		mov	r3, r6
 305              	.LVL24:
 306 00c2 EDE7     		b	.L8
 307              	.LBE56:
 308              	.LBE57:
 309              	.LBE59:
 310              		.cfi_endproc
 311              	.LFE9:
 312              		.size	chMtxLockS, .-chMtxLockS
 313 00c4 AFF30080 		.section	.text.chMtxLock,"ax",%progbits
 313      AFF30080 
 313      AFF30080 
 314              		.align	2
 315              		.p2align 4,,15
 316              		.global	chMtxLock
 317              		.thumb
 318              		.thumb_func
 319              		.type	chMtxLock, %function
 320              	chMtxLock:
 321              	.LFB8:
 322              		.loc 1 103 0
 323              		.cfi_startproc
 324              		@ args = 0, pretend = 0, frame = 0
 325              		@ frame_needed = 0, uses_anonymous_args = 0
 326              	.LVL25:
 327 0000 08B5     		push	{r3, lr}
 328              	.LCFI1:
 329              		.cfi_def_cfa_offset 8
 330              		.cfi_offset 14, -4
 331              		.cfi_offset 3, -8
 332              	.LBB60:
 333              		.loc 1 105 0
 334 0002 2023     		movs	r3, #32
 335              	.LVL26:
 336              	@ 105 "/opt/ChibiOS/ChibiOS_2.4.4/os/kernel/src/chmtx.c" 1
 337 0004 83F31188 		msr     BASEPRI, r3
 338              	@ 0 "" 2
 339              	.LVL27:
ARM GAS  /tmp/cciKPYbS.s 			page 7


 340              		.thumb
 341              	.LBE60:
 342              		.loc 1 107 0
 343 0008 FFF7FEFF 		bl	chMtxLockS
 344              	.LVL28:
 345              	.LBB61:
 346              		.loc 1 109 0
 347 000c 0023     		movs	r3, #0
 348              	.LVL29:
 349              	@ 109 "/opt/ChibiOS/ChibiOS_2.4.4/os/kernel/src/chmtx.c" 1
 350 000e 83F31188 		msr     BASEPRI, r3
 351              	@ 0 "" 2
 352              	.LVL30:
 353              		.thumb
 354              	.LBE61:
 355              		.loc 1 110 0
 356 0012 08BD     		pop	{r3, pc}
 357              		.cfi_endproc
 358              	.LFE8:
 359              		.size	chMtxLock, .-chMtxLock
 360 0014 AFF30080 		.section	.text.chMtxTryLock,"ax",%progbits
 360      AFF30080 
 360      AFF30080 
 361              		.align	2
 362              		.p2align 4,,15
 363              		.global	chMtxTryLock
 364              		.thumb
 365              		.thumb_func
 366              		.type	chMtxTryLock, %function
 367              	chMtxTryLock:
 368              	.LFB10:
 369              		.loc 1 206 0
 370              		.cfi_startproc
 371              		@ args = 0, pretend = 0, frame = 0
 372              		@ frame_needed = 0, uses_anonymous_args = 0
 373              		@ link register save eliminated.
 374              	.LVL31:
 375              		.loc 1 206 0
 376 0000 0246     		mov	r2, r0
 377              	.LBB62:
 378              		.loc 1 209 0
 379 0002 2023     		movs	r3, #32
 380              	.LVL32:
 381              	@ 209 "/opt/ChibiOS/ChibiOS_2.4.4/os/kernel/src/chmtx.c" 1
 382 0004 83F31188 		msr     BASEPRI, r3
 383              	@ 0 "" 2
 384              	.LVL33:
 385              		.thumb
 386              	.LBE62:
 387              	.LBB63:
 388              	.LBB64:
 389              		.loc 1 239 0
 390 0008 8368     		ldr	r3, [r0, #8]
 391              	.LVL34:
 392              		.loc 1 240 0
 393 000a 0020     		movs	r0, #0
 394              	.LVL35:
ARM GAS  /tmp/cciKPYbS.s 			page 8


 395              		.loc 1 239 0
 396 000c 1BB1     		cbz	r3, .L28
 397              	.LBE64:
 398              	.LBE63:
 399              	.LBB66:
 400              		.loc 1 213 0
 401 000e 0023     		movs	r3, #0
 402              	.LVL36:
 403              	@ 213 "/opt/ChibiOS/ChibiOS_2.4.4/os/kernel/src/chmtx.c" 1
 404 0010 83F31188 		msr     BASEPRI, r3
 405              	@ 0 "" 2
 406              	.LVL37:
 407              		.thumb
 408              	.LBE66:
 409              		.loc 1 215 0
 410 0014 7047     		bx	lr
 411              	.LVL38:
 412              	.L28:
 413              	.LBB67:
 414              	.LBB65:
 415              		.loc 1 241 0
 416 0016 40F2000C 		movw	ip, #:lower16:rlist
 417 001a C0F2000C 		movt	ip, #:upper16:rlist
 418              		.loc 1 244 0
 419 001e 0120     		movs	r0, #1
 420              		.loc 1 241 0
 421 0020 DCF81C30 		ldr	r3, [ip, #28]
 422              		.loc 1 242 0
 423 0024 D96B     		ldr	r1, [r3, #60]
 424              	.LVL39:
 425              		.loc 1 241 0
 426 0026 9360     		str	r3, [r2, #8]
 427              		.loc 1 242 0
 428 0028 D160     		str	r1, [r2, #12]
 429              		.loc 1 243 0
 430 002a DA63     		str	r2, [r3, #60]
 431              	.LBE65:
 432              	.LBE67:
 433              	.LBB68:
 434              		.loc 1 213 0
 435 002c 0023     		movs	r3, #0
 436              	@ 213 "/opt/ChibiOS/ChibiOS_2.4.4/os/kernel/src/chmtx.c" 1
 437 002e 83F31188 		msr     BASEPRI, r3
 438              	@ 0 "" 2
 439              	.LVL40:
 440              		.thumb
 441              	.LBE68:
 442              		.loc 1 215 0
 443 0032 7047     		bx	lr
 444              		.cfi_endproc
 445              	.LFE10:
 446              		.size	chMtxTryLock, .-chMtxTryLock
 447 0034 AFF30080 		.section	.text.chMtxTryLockS,"ax",%progbits
 447      AFF30080 
 447      AFF30080 
 448              		.align	2
 449              		.p2align 4,,15
ARM GAS  /tmp/cciKPYbS.s 			page 9


 450              		.global	chMtxTryLockS
 451              		.thumb
 452              		.thumb_func
 453              		.type	chMtxTryLockS, %function
 454              	chMtxTryLockS:
 455              	.LFB11:
 456              		.loc 1 234 0
 457              		.cfi_startproc
 458              		@ args = 0, pretend = 0, frame = 0
 459              		@ frame_needed = 0, uses_anonymous_args = 0
 460              		@ link register save eliminated.
 461              	.LVL41:
 462              		.loc 1 239 0
 463 0000 8268     		ldr	r2, [r0, #8]
 464              		.loc 1 234 0
 465 0002 0346     		mov	r3, r0
 466              		.loc 1 239 0
 467 0004 0AB1     		cbz	r2, .L32
 468              		.loc 1 240 0
 469 0006 0020     		movs	r0, #0
 470              	.LVL42:
 471              		.loc 1 245 0
 472 0008 7047     		bx	lr
 473              	.L32:
 474              		.loc 1 241 0
 475 000a 40F2000C 		movw	ip, #:lower16:rlist
 476 000e C0F2000C 		movt	ip, #:upper16:rlist
 477              		.loc 1 244 0
 478 0012 0120     		movs	r0, #1
 479              		.loc 1 241 0
 480 0014 DCF81C20 		ldr	r2, [ip, #28]
 481              		.loc 1 242 0
 482 0018 D16B     		ldr	r1, [r2, #60]
 483              		.loc 1 241 0
 484 001a 9A60     		str	r2, [r3, #8]
 485              		.loc 1 242 0
 486 001c D960     		str	r1, [r3, #12]
 487              		.loc 1 243 0
 488 001e D363     		str	r3, [r2, #60]
 489              		.loc 1 244 0
 490 0020 7047     		bx	lr
 491              		.cfi_endproc
 492              	.LFE11:
 493              		.size	chMtxTryLockS, .-chMtxTryLockS
 494 0022 00BFAFF3 		.section	.text.chMtxUnlock,"ax",%progbits
 494      0080AFF3 
 494      0080AFF3 
 494      0080
 495              		.align	2
 496              		.p2align 4,,15
 497              		.global	chMtxUnlock
 498              		.thumb
 499              		.thumb_func
 500              		.type	chMtxUnlock, %function
 501              	chMtxUnlock:
 502              	.LFB12:
 503              		.loc 1 257 0
ARM GAS  /tmp/cciKPYbS.s 			page 10


 504              		.cfi_startproc
 505              		@ args = 0, pretend = 0, frame = 0
 506              		@ frame_needed = 0, uses_anonymous_args = 0
 507              		.loc 1 258 0
 508 0000 40F20002 		movw	r2, #:lower16:rlist
 509 0004 C0F20002 		movt	r2, #:upper16:rlist
 510              		.loc 1 257 0
 511 0008 F8B5     		push	{r3, r4, r5, r6, r7, lr}
 512              	.LCFI2:
 513              		.cfi_def_cfa_offset 24
 514              		.cfi_offset 14, -4
 515              		.cfi_offset 7, -8
 516              		.cfi_offset 6, -12
 517              		.cfi_offset 5, -16
 518              		.cfi_offset 4, -20
 519              		.cfi_offset 3, -24
 520              		.loc 1 258 0
 521 000a D269     		ldr	r2, [r2, #28]
 522              	.LVL43:
 523              	.LBB69:
 524              		.loc 1 261 0
 525 000c 2023     		movs	r3, #32
 526              	.LVL44:
 527              	@ 261 "/opt/ChibiOS/ChibiOS_2.4.4/os/kernel/src/chmtx.c" 1
 528 000e 83F31188 		msr     BASEPRI, r3
 529              	@ 0 "" 2
 530              	.LVL45:
 531              		.thumb
 532              	.LBE69:
 533              		.loc 1 270 0
 534 0012 D46B     		ldr	r4, [r2, #60]
 535              	.LVL46:
 536              		.loc 1 273 0
 537 0014 2368     		ldr	r3, [r4, #0]
 538              	.LVL47:
 539              		.loc 1 271 0
 540 0016 E168     		ldr	r1, [r4, #12]
 541              		.loc 1 273 0
 542 0018 A342     		cmp	r3, r4
 543              		.loc 1 271 0
 544 001a D163     		str	r1, [r2, #60]
 545              		.loc 1 273 0
 546 001c 1CD0     		beq	.L34
 547              	.LBB70:
 548              		.loc 1 278 0
 549 001e 176C     		ldr	r7, [r2, #64]
 550              	.LVL48:
 551              		.loc 1 280 0
 552 0020 49B1     		cbz	r1, .L35
 553              	.LVL49:
 554              	.L39:
 555              		.loc 1 284 0
 556 0022 0868     		ldr	r0, [r1, #0]
 557 0024 8842     		cmp	r0, r1
 558 0026 03D0     		beq	.L36
 559              		.loc 1 284 0 is_stmt 0 discriminator 1
 560 0028 8068     		ldr	r0, [r0, #8]
ARM GAS  /tmp/cciKPYbS.s 			page 11


 561 002a 8742     		cmp	r7, r0
 562 002c 38BF     		it	cc
 563 002e 0746     		movcc	r7, r0
 564              	.LVL50:
 565              	.L36:
 566              		.loc 1 286 0 is_stmt 1
 567 0030 C968     		ldr	r1, [r1, #12]
 568              	.LVL51:
 569              		.loc 1 280 0
 570 0032 0029     		cmp	r1, #0
 571 0034 F5D1     		bne	.L39
 572              	.L35:
 573              	.LBB71:
 574              	.LBB72:
 575              		.loc 2 62 0
 576 0036 1D68     		ldr	r5, [r3, #0]
 577              	.LBE72:
 578              	.LBE71:
 579              		.loc 1 295 0
 580 0038 DE6B     		ldr	r6, [r3, #60]
 581              		.loc 1 290 0
 582 003a 9760     		str	r7, [r2, #8]
 583              	.LVL52:
 584              		.loc 1 297 0
 585 003c 1846     		mov	r0, r3
 586              	.LBB75:
 587              	.LBB73:
 588              		.loc 2 62 0
 589 003e 2560     		str	r5, [r4, #0]
 590              	.LBE73:
 591              	.LBE75:
 592              		.loc 1 297 0
 593 0040 0021     		movs	r1, #0
 594              	.LVL53:
 595              	.LBB76:
 596              	.LBB74:
 597              		.loc 2 62 0
 598 0042 6C60     		str	r4, [r5, #4]
 599              	.LBE74:
 600              	.LBE76:
 601              		.loc 1 294 0
 602 0044 A360     		str	r3, [r4, #8]
 603              		.loc 1 295 0
 604 0046 E660     		str	r6, [r4, #12]
 605              		.loc 1 296 0
 606 0048 DC63     		str	r4, [r3, #60]
 607              		.loc 1 297 0
 608 004a FFF7FEFF 		bl	chSchWakeupS
 609              	.LVL54:
 610              	.LBE70:
 611              	.LBB77:
 612              		.loc 1 301 0
 613 004e 0023     		movs	r3, #0
 614              	.LVL55:
 615              	@ 301 "/opt/ChibiOS/ChibiOS_2.4.4/os/kernel/src/chmtx.c" 1
 616 0050 83F31188 		msr     BASEPRI, r3
 617              	@ 0 "" 2
ARM GAS  /tmp/cciKPYbS.s 			page 12


 618              	.LVL56:
 619              		.thumb
 620              	.LBE77:
 621              		.loc 1 303 0
 622 0054 2046     		mov	r0, r4
 623 0056 F8BD     		pop	{r3, r4, r5, r6, r7, pc}
 624              	.LVL57:
 625              	.L34:
 626              		.loc 1 300 0
 627 0058 0023     		movs	r3, #0
 628 005a A360     		str	r3, [r4, #8]
 629              	.LBB78:
 630              		.loc 1 301 0
 631 005c 0023     		movs	r3, #0
 632              	@ 301 "/opt/ChibiOS/ChibiOS_2.4.4/os/kernel/src/chmtx.c" 1
 633 005e 83F31188 		msr     BASEPRI, r3
 634              	@ 0 "" 2
 635              	.LVL58:
 636              		.thumb
 637              	.LBE78:
 638              		.loc 1 303 0
 639 0062 2046     		mov	r0, r4
 640 0064 F8BD     		pop	{r3, r4, r5, r6, r7, pc}
 641              		.cfi_endproc
 642              	.LFE12:
 643              		.size	chMtxUnlock, .-chMtxUnlock
 644 0066 00BFAFF3 		.section	.text.chMtxUnlockS,"ax",%progbits
 644      0080AFF3 
 644      0080
 645              		.align	2
 646              		.p2align 4,,15
 647              		.global	chMtxUnlockS
 648              		.thumb
 649              		.thumb_func
 650              		.type	chMtxUnlockS, %function
 651              	chMtxUnlockS:
 652              	.LFB13:
 653              		.loc 1 317 0
 654              		.cfi_startproc
 655              		@ args = 0, pretend = 0, frame = 0
 656              		@ frame_needed = 0, uses_anonymous_args = 0
 657              		.loc 1 318 0
 658 0000 40F20003 		movw	r3, #:lower16:rlist
 659 0004 C0F20003 		movt	r3, #:upper16:rlist
 660              		.loc 1 317 0
 661 0008 70B5     		push	{r4, r5, r6, lr}
 662              	.LCFI3:
 663              		.cfi_def_cfa_offset 16
 664              		.cfi_offset 14, -4
 665              		.cfi_offset 6, -8
 666              		.cfi_offset 5, -12
 667              		.cfi_offset 4, -16
 668              		.loc 1 318 0
 669 000a D969     		ldr	r1, [r3, #28]
 670              	.LVL59:
 671              		.loc 1 331 0
 672 000c CC6B     		ldr	r4, [r1, #60]
ARM GAS  /tmp/cciKPYbS.s 			page 13


 673              	.LVL60:
 674              		.loc 1 334 0
 675 000e 2368     		ldr	r3, [r4, #0]
 676              	.LVL61:
 677              		.loc 1 332 0
 678 0010 E268     		ldr	r2, [r4, #12]
 679              		.loc 1 334 0
 680 0012 A342     		cmp	r3, r4
 681              		.loc 1 332 0
 682 0014 CA63     		str	r2, [r1, #60]
 683              		.loc 1 334 0
 684 0016 18D0     		beq	.L42
 685              	.LBB79:
 686              		.loc 1 339 0
 687 0018 0E6C     		ldr	r6, [r1, #64]
 688              	.LVL62:
 689              		.loc 1 341 0
 690 001a 4AB1     		cbz	r2, .L43
 691              	.LVL63:
 692              	.L47:
 693              		.loc 1 345 0
 694 001c 1068     		ldr	r0, [r2, #0]
 695 001e 9042     		cmp	r0, r2
 696 0020 03D0     		beq	.L44
 697              		.loc 1 345 0 is_stmt 0 discriminator 1
 698 0022 8068     		ldr	r0, [r0, #8]
 699 0024 8642     		cmp	r6, r0
 700 0026 38BF     		it	cc
 701 0028 0646     		movcc	r6, r0
 702              	.LVL64:
 703              	.L44:
 704              		.loc 1 347 0 is_stmt 1
 705 002a D268     		ldr	r2, [r2, #12]
 706              	.LVL65:
 707              		.loc 1 341 0
 708 002c 002A     		cmp	r2, #0
 709 002e F5D1     		bne	.L47
 710              	.L43:
 711              	.LBB80:
 712              	.LBB81:
 713              		.loc 2 62 0
 714 0030 1A68     		ldr	r2, [r3, #0]
 715              	.LVL66:
 716              	.LBE81:
 717              	.LBE80:
 718              		.loc 1 354 0
 719 0032 DD6B     		ldr	r5, [r3, #60]
 720              		.loc 1 349 0
 721 0034 8E60     		str	r6, [r1, #8]
 722              	.LVL67:
 723              		.loc 1 356 0
 724 0036 1846     		mov	r0, r3
 725              	.LBB83:
 726              	.LBB82:
 727              		.loc 2 62 0
 728 0038 2260     		str	r2, [r4, #0]
 729 003a 5460     		str	r4, [r2, #4]
ARM GAS  /tmp/cciKPYbS.s 			page 14


 730              	.LBE82:
 731              	.LBE83:
 732              		.loc 1 353 0
 733 003c A360     		str	r3, [r4, #8]
 734              		.loc 1 354 0
 735 003e E560     		str	r5, [r4, #12]
 736              		.loc 1 355 0
 737 0040 DC63     		str	r4, [r3, #60]
 738              		.loc 1 356 0
 739 0042 FFF7FEFF 		bl	chSchReadyI
 740              	.LVL68:
 741              	.LBE79:
 742              		.loc 1 361 0
 743 0046 2046     		mov	r0, r4
 744 0048 70BD     		pop	{r4, r5, r6, pc}
 745              	.LVL69:
 746              	.L42:
 747              		.loc 1 359 0
 748 004a 0021     		movs	r1, #0
 749              	.LVL70:
 750 004c A160     		str	r1, [r4, #8]
 751              		.loc 1 361 0
 752 004e 2046     		mov	r0, r4
 753 0050 70BD     		pop	{r4, r5, r6, pc}
 754              		.cfi_endproc
 755              	.LFE13:
 756              		.size	chMtxUnlockS, .-chMtxUnlockS
 757 0052 00BFAFF3 		.section	.text.chMtxUnlockAll,"ax",%progbits
 757      0080AFF3 
 757      0080AFF3 
 757      0080
 758              		.align	2
 759              		.p2align 4,,15
 760              		.global	chMtxUnlockAll
 761              		.thumb
 762              		.thumb_func
 763              		.type	chMtxUnlockAll, %function
 764              	chMtxUnlockAll:
 765              	.LFB14:
 766              		.loc 1 374 0
 767              		.cfi_startproc
 768              		@ args = 0, pretend = 0, frame = 0
 769              		@ frame_needed = 0, uses_anonymous_args = 0
 770              		.loc 1 375 0
 771 0000 40F20002 		movw	r2, #:lower16:rlist
 772 0004 C0F20002 		movt	r2, #:upper16:rlist
 773              		.loc 1 374 0
 774 0008 70B5     		push	{r4, r5, r6, lr}
 775              	.LCFI4:
 776              		.cfi_def_cfa_offset 16
 777              		.cfi_offset 14, -4
 778              		.cfi_offset 6, -8
 779              		.cfi_offset 5, -12
 780              		.cfi_offset 4, -16
 781              	.LBB84:
 782              		.loc 1 377 0
 783 000a 2023     		movs	r3, #32
ARM GAS  /tmp/cciKPYbS.s 			page 15


 784              	.LVL71:
 785              	.LBE84:
 786              		.loc 1 375 0
 787 000c D469     		ldr	r4, [r2, #28]
 788              	.LVL72:
 789              	.LBB85:
 790              		.loc 1 377 0
 791              	@ 377 "/opt/ChibiOS/ChibiOS_2.4.4/os/kernel/src/chmtx.c" 1
 792 000e 83F31188 		msr     BASEPRI, r3
 793              	@ 0 "" 2
 794              	.LVL73:
 795              		.thumb
 796              	.LBE85:
 797              		.loc 1 378 0
 798 0012 E36B     		ldr	r3, [r4, #60]
 799              	.LVL74:
 800 0014 C3B1     		cbz	r3, .L50
 801              	.LBB86:
 802              		.loc 1 390 0
 803 0016 0025     		movs	r5, #0
 804              	.LVL75:
 805              	.L54:
 806              		.loc 1 382 0
 807 0018 1A68     		ldr	r2, [r3, #0]
 808              		.loc 1 381 0
 809 001a D968     		ldr	r1, [r3, #12]
 810              		.loc 1 382 0
 811 001c 9A42     		cmp	r2, r3
 812              		.loc 1 381 0
 813 001e E163     		str	r1, [r4, #60]
 814              		.loc 1 390 0
 815 0020 08BF     		it	eq
 816 0022 9D60     		streq	r5, [r3, #8]
 817              		.loc 1 382 0
 818 0024 09D0     		beq	.L52
 819              	.LVL76:
 820              	.LBB87:
 821              	.LBB88:
 822              	.LBB89:
 823              		.loc 2 62 0
 824 0026 1168     		ldr	r1, [r2, #0]
 825              	.LBE89:
 826              	.LBE88:
 827              		.loc 1 385 0
 828 0028 D66B     		ldr	r6, [r2, #60]
 829              	.LBB92:
 830              	.LBB90:
 831              		.loc 2 62 0
 832 002a 1960     		str	r1, [r3, #0]
 833              	.LBE90:
 834              	.LBE92:
 835              		.loc 1 387 0
 836 002c 1046     		mov	r0, r2
 837              	.LBB93:
 838              	.LBB91:
 839              		.loc 2 62 0
 840 002e 4B60     		str	r3, [r1, #4]
ARM GAS  /tmp/cciKPYbS.s 			page 16


 841              	.LBE91:
 842              	.LBE93:
 843              		.loc 1 384 0
 844 0030 9A60     		str	r2, [r3, #8]
 845              		.loc 1 385 0
 846 0032 DE60     		str	r6, [r3, #12]
 847              		.loc 1 386 0
 848 0034 D363     		str	r3, [r2, #60]
 849              		.loc 1 387 0
 850 0036 FFF7FEFF 		bl	chSchReadyI
 851              	.LVL77:
 852              	.L52:
 853              	.LBE87:
 854              	.LBE86:
 855              		.loc 1 391 0
 856 003a E36B     		ldr	r3, [r4, #60]
 857 003c 002B     		cmp	r3, #0
 858 003e EBD1     		bne	.L54
 859              		.loc 1 392 0
 860 0040 236C     		ldr	r3, [r4, #64]
 861 0042 A360     		str	r3, [r4, #8]
 862              		.loc 1 393 0
 863 0044 FFF7FEFF 		bl	chSchRescheduleS
 864              	.L50:
 865              	.LBB94:
 866              		.loc 1 395 0
 867 0048 0023     		movs	r3, #0
 868              	.LVL78:
 869              	@ 395 "/opt/ChibiOS/ChibiOS_2.4.4/os/kernel/src/chmtx.c" 1
 870 004a 83F31188 		msr     BASEPRI, r3
 871              	@ 0 "" 2
 872              	.LVL79:
 873              		.thumb
 874              	.LBE94:
 875              		.loc 1 396 0
 876 004e 70BD     		pop	{r4, r5, r6, pc}
 877              		.cfi_endproc
 878              	.LFE14:
 879              		.size	chMtxUnlockAll, .-chMtxUnlockAll
 880              		.text
 881              	.Letext0:
 882              		.file 3 "/opt/arm/bin/../lib/gcc/arm-none-eabi/4.6.3/../../../../arm-none-eabi/include/stdint.h"
 883              		.file 4 "/opt/ChibiOS/ChibiOS_2.4.4/os/ports/GCC/ARMCMx/chtypes.h"
 884              		.file 5 "/opt/ChibiOS/ChibiOS_2.4.4/os/kernel/include/chlists.h"
 885              		.file 6 "/opt/ChibiOS/ChibiOS_2.4.4/os/kernel/include/chthreads.h"
 886              		.file 7 "/opt/ChibiOS/ChibiOS_2.4.4/os/ports/GCC/ARMCMx/chcore_v7m.h"
 887              		.file 8 "/opt/ChibiOS/ChibiOS_2.4.4/os/kernel/include/chschd.h"
 888              		.file 9 "/opt/ChibiOS/ChibiOS_2.4.4/os/kernel/include/chmtx.h"
 889              		.section	.debug_info,"",%progbits
 890              	.Ldebug_info0:
 891 0000 5D090000 		.4byte	0x95d
 892 0004 0200     		.2byte	0x2
 893 0006 00000000 		.4byte	.Ldebug_abbrev0
 894 000a 04       		.byte	0x4
 895 000b 01       		.uleb128 0x1
 896 000c 57020000 		.4byte	.LASF72
 897 0010 01       		.byte	0x1
ARM GAS  /tmp/cciKPYbS.s 			page 17


 898 0011 83000000 		.4byte	.LASF73
 899 0015 00000000 		.4byte	0
 900 0019 00000000 		.4byte	0
 901 001d D0010000 		.4byte	.Ldebug_ranges0+0x1d0
 902 0021 00000000 		.4byte	.Ldebug_line0
 903 0025 02       		.uleb128 0x2
 904 0026 04       		.byte	0x4
 905 0027 05       		.byte	0x5
 906 0028 696E7400 		.ascii	"int\000"
 907 002c 03       		.uleb128 0x3
 908 002d 04       		.byte	0x4
 909 002e 07       		.byte	0x7
 910 002f F9000000 		.4byte	.LASF0
 911 0033 03       		.uleb128 0x3
 912 0034 01       		.byte	0x1
 913 0035 06       		.byte	0x6
 914 0036 4E000000 		.4byte	.LASF1
 915 003a 04       		.uleb128 0x4
 916 003b CA020000 		.4byte	.LASF5
 917 003f 03       		.byte	0x3
 918 0040 2A       		.byte	0x2a
 919 0041 45000000 		.4byte	0x45
 920 0045 03       		.uleb128 0x3
 921 0046 01       		.byte	0x1
 922 0047 08       		.byte	0x8
 923 0048 ED010000 		.4byte	.LASF2
 924 004c 03       		.uleb128 0x3
 925 004d 02       		.byte	0x2
 926 004e 05       		.byte	0x5
 927 004f 05020000 		.4byte	.LASF3
 928 0053 03       		.uleb128 0x3
 929 0054 02       		.byte	0x2
 930 0055 07       		.byte	0x7
 931 0056 20010000 		.4byte	.LASF4
 932 005a 04       		.uleb128 0x4
 933 005b E5010000 		.4byte	.LASF6
 934 005f 03       		.byte	0x3
 935 0060 4F       		.byte	0x4f
 936 0061 65000000 		.4byte	0x65
 937 0065 03       		.uleb128 0x3
 938 0066 04       		.byte	0x4
 939 0067 05       		.byte	0x5
 940 0068 71000000 		.4byte	.LASF7
 941 006c 04       		.uleb128 0x4
 942 006d 46020000 		.4byte	.LASF8
 943 0071 03       		.byte	0x3
 944 0072 50       		.byte	0x50
 945 0073 77000000 		.4byte	0x77
 946 0077 03       		.uleb128 0x3
 947 0078 04       		.byte	0x4
 948 0079 07       		.byte	0x7
 949 007a 06010000 		.4byte	.LASF9
 950 007e 03       		.uleb128 0x3
 951 007f 08       		.byte	0x8
 952 0080 05       		.byte	0x5
 953 0081 40000000 		.4byte	.LASF10
 954 0085 03       		.uleb128 0x3
ARM GAS  /tmp/cciKPYbS.s 			page 18


 955 0086 08       		.byte	0x8
 956 0087 07       		.byte	0x7
 957 0088 0D000000 		.4byte	.LASF11
 958 008c 04       		.uleb128 0x4
 959 008d 62000000 		.4byte	.LASF12
 960 0091 04       		.byte	0x4
 961 0092 2E       		.byte	0x2e
 962 0093 5A000000 		.4byte	0x5a
 963 0097 04       		.uleb128 0x4
 964 0098 5C010000 		.4byte	.LASF13
 965 009c 04       		.byte	0x4
 966 009d 2F       		.byte	0x2f
 967 009e 3A000000 		.4byte	0x3a
 968 00a2 04       		.uleb128 0x4
 969 00a3 7A000000 		.4byte	.LASF14
 970 00a7 04       		.byte	0x4
 971 00a8 30       		.byte	0x30
 972 00a9 3A000000 		.4byte	0x3a
 973 00ad 04       		.uleb128 0x4
 974 00ae CE010000 		.4byte	.LASF15
 975 00b2 04       		.byte	0x4
 976 00b3 31       		.byte	0x31
 977 00b4 3A000000 		.4byte	0x3a
 978 00b8 04       		.uleb128 0x4
 979 00b9 DD010000 		.4byte	.LASF16
 980 00bd 04       		.byte	0x4
 981 00be 32       		.byte	0x32
 982 00bf 6C000000 		.4byte	0x6c
 983 00c3 04       		.uleb128 0x4
 984 00c4 33010000 		.4byte	.LASF17
 985 00c8 04       		.byte	0x4
 986 00c9 33       		.byte	0x33
 987 00ca 5A000000 		.4byte	0x5a
 988 00ce 04       		.uleb128 0x4
 989 00cf 70010000 		.4byte	.LASF18
 990 00d3 04       		.byte	0x4
 991 00d4 35       		.byte	0x35
 992 00d5 6C000000 		.4byte	0x6c
 993 00d9 04       		.uleb128 0x4
 994 00da 7B020000 		.4byte	.LASF19
 995 00de 04       		.byte	0x4
 996 00df 36       		.byte	0x36
 997 00e0 6C000000 		.4byte	0x6c
 998 00e4 04       		.uleb128 0x4
 999 00e5 E6000000 		.4byte	.LASF20
 1000 00e9 04       		.byte	0x4
 1001 00ea 37       		.byte	0x37
 1002 00eb 5A000000 		.4byte	0x5a
 1003 00ef 04       		.uleb128 0x4
 1004 00f0 34020000 		.4byte	.LASF21
 1005 00f4 05       		.byte	0x5
 1006 00f5 2A       		.byte	0x2a
 1007 00f6 FA000000 		.4byte	0xfa
 1008 00fa 05       		.uleb128 0x5
 1009 00fb 34020000 		.4byte	.LASF21
 1010 00ff 48       		.byte	0x48
 1011 0100 06       		.byte	0x6
ARM GAS  /tmp/cciKPYbS.s 			page 19


 1012 0101 5E       		.byte	0x5e
 1013 0102 11020000 		.4byte	0x211
 1014 0106 06       		.uleb128 0x6
 1015 0107 25020000 		.4byte	.LASF22
 1016 010b 06       		.byte	0x6
 1017 010c 5F       		.byte	0x5f
 1018 010d 36020000 		.4byte	0x236
 1019 0111 02       		.byte	0x2
 1020 0112 23       		.byte	0x23
 1021 0113 00       		.uleb128 0
 1022 0114 06       		.uleb128 0x6
 1023 0115 D6010000 		.4byte	.LASF23
 1024 0119 06       		.byte	0x6
 1025 011a 61       		.byte	0x61
 1026 011b 36020000 		.4byte	0x236
 1027 011f 02       		.byte	0x2
 1028 0120 23       		.byte	0x23
 1029 0121 04       		.uleb128 0x4
 1030 0122 06       		.uleb128 0x6
 1031 0123 39000000 		.4byte	.LASF24
 1032 0127 06       		.byte	0x6
 1033 0128 63       		.byte	0x63
 1034 0129 B8000000 		.4byte	0xb8
 1035 012d 02       		.byte	0x2
 1036 012e 23       		.byte	0x23
 1037 012f 08       		.uleb128 0x8
 1038 0130 06       		.uleb128 0x6
 1039 0131 F2020000 		.4byte	.LASF25
 1040 0135 06       		.byte	0x6
 1041 0136 64       		.byte	0x64
 1042 0137 03030000 		.4byte	0x303
 1043 013b 02       		.byte	0x2
 1044 013c 23       		.byte	0x23
 1045 013d 0C       		.uleb128 0xc
 1046 013e 06       		.uleb128 0x6
 1047 013f CD000000 		.4byte	.LASF26
 1048 0143 06       		.byte	0x6
 1049 0144 66       		.byte	0x66
 1050 0145 36020000 		.4byte	0x236
 1051 0149 02       		.byte	0x2
 1052 014a 23       		.byte	0x23
 1053 014b 10       		.uleb128 0x10
 1054 014c 06       		.uleb128 0x6
 1055 014d 99010000 		.4byte	.LASF27
 1056 0151 06       		.byte	0x6
 1057 0152 67       		.byte	0x67
 1058 0153 36020000 		.4byte	0x236
 1059 0157 02       		.byte	0x2
 1060 0158 23       		.byte	0x23
 1061 0159 14       		.uleb128 0x14
 1062 015a 06       		.uleb128 0x6
 1063 015b D9020000 		.4byte	.LASF28
 1064 015f 06       		.byte	0x6
 1065 0160 6E       		.byte	0x6e
 1066 0161 1E040000 		.4byte	0x41e
 1067 0165 02       		.byte	0x2
 1068 0166 23       		.byte	0x23
ARM GAS  /tmp/cciKPYbS.s 			page 20


 1069 0167 18       		.uleb128 0x18
 1070 0168 06       		.uleb128 0x6
 1071 0169 0F020000 		.4byte	.LASF29
 1072 016d 06       		.byte	0x6
 1073 016e 79       		.byte	0x79
 1074 016f A2000000 		.4byte	0xa2
 1075 0173 02       		.byte	0x2
 1076 0174 23       		.byte	0x23
 1077 0175 1C       		.uleb128 0x1c
 1078 0176 06       		.uleb128 0x6
 1079 0177 2C020000 		.4byte	.LASF30
 1080 017b 06       		.byte	0x6
 1081 017c 7D       		.byte	0x7d
 1082 017d 97000000 		.4byte	0x97
 1083 0181 02       		.byte	0x2
 1084 0182 23       		.byte	0x23
 1085 0183 1D       		.uleb128 0x1d
 1086 0184 06       		.uleb128 0x6
 1087 0185 B3020000 		.4byte	.LASF31
 1088 0189 06       		.byte	0x6
 1089 018a 82       		.byte	0x82
 1090 018b AD000000 		.4byte	0xad
 1091 018f 02       		.byte	0x2
 1092 0190 23       		.byte	0x23
 1093 0191 1E       		.uleb128 0x1e
 1094 0192 06       		.uleb128 0x6
 1095 0193 90020000 		.4byte	.LASF32
 1096 0197 06       		.byte	0x6
 1097 0198 89       		.byte	0x89
 1098 0199 26030000 		.4byte	0x326
 1099 019d 02       		.byte	0x2
 1100 019e 23       		.byte	0x23
 1101 019f 20       		.uleb128 0x20
 1102 01a0 07       		.uleb128 0x7
 1103 01a1 705F7500 		.ascii	"p_u\000"
 1104 01a5 06       		.byte	0x6
 1105 01a6 AE       		.byte	0xae
 1106 01a7 E9030000 		.4byte	0x3e9
 1107 01ab 02       		.byte	0x2
 1108 01ac 23       		.byte	0x23
 1109 01ad 24       		.uleb128 0x24
 1110 01ae 06       		.uleb128 0x6
 1111 01af F8020000 		.4byte	.LASF33
 1112 01b3 06       		.byte	0x6
 1113 01b4 B3       		.byte	0xb3
 1114 01b5 5E020000 		.4byte	0x25e
 1115 01b9 02       		.byte	0x2
 1116 01ba 23       		.byte	0x23
 1117 01bb 28       		.uleb128 0x28
 1118 01bc 06       		.uleb128 0x6
 1119 01bd 9E020000 		.4byte	.LASF34
 1120 01c1 06       		.byte	0x6
 1121 01c2 B9       		.byte	0xb9
 1122 01c3 3C020000 		.4byte	0x23c
 1123 01c7 02       		.byte	0x2
 1124 01c8 23       		.byte	0x23
 1125 01c9 2C       		.uleb128 0x2c
ARM GAS  /tmp/cciKPYbS.s 			page 21


 1126 01ca 06       		.uleb128 0x6
 1127 01cb 00000000 		.4byte	.LASF35
 1128 01cf 06       		.byte	0x6
 1129 01d0 BD       		.byte	0xbd
 1130 01d1 C3000000 		.4byte	0xc3
 1131 01d5 02       		.byte	0x2
 1132 01d6 23       		.byte	0x23
 1133 01d7 34       		.uleb128 0x34
 1134 01d8 06       		.uleb128 0x6
 1135 01d9 3B020000 		.4byte	.LASF36
 1136 01dd 06       		.byte	0x6
 1137 01de C3       		.byte	0xc3
 1138 01df CE000000 		.4byte	0xce
 1139 01e3 02       		.byte	0x2
 1140 01e4 23       		.byte	0x23
 1141 01e5 38       		.uleb128 0x38
 1142 01e6 06       		.uleb128 0x6
 1143 01e7 FB010000 		.4byte	.LASF37
 1144 01eb 06       		.byte	0x6
 1145 01ec CA       		.byte	0xca
 1146 01ed 30040000 		.4byte	0x430
 1147 01f1 02       		.byte	0x2
 1148 01f2 23       		.byte	0x23
 1149 01f3 3C       		.uleb128 0x3c
 1150 01f4 06       		.uleb128 0x6
 1151 01f5 85020000 		.4byte	.LASF38
 1152 01f9 06       		.byte	0x6
 1153 01fa CE       		.byte	0xce
 1154 01fb B8000000 		.4byte	0xb8
 1155 01ff 02       		.byte	0x2
 1156 0200 23       		.byte	0x23
 1157 0201 40       		.uleb128 0x40
 1158 0202 06       		.uleb128 0x6
 1159 0203 5A000000 		.4byte	.LASF39
 1160 0207 06       		.byte	0x6
 1161 0208 D4       		.byte	0xd4
 1162 0209 74020000 		.4byte	0x274
 1163 020d 02       		.byte	0x2
 1164 020e 23       		.byte	0x23
 1165 020f 44       		.uleb128 0x44
 1166 0210 00       		.byte	0
 1167 0211 08       		.uleb128 0x8
 1168 0212 08       		.byte	0x8
 1169 0213 05       		.byte	0x5
 1170 0214 61       		.byte	0x61
 1171 0215 36020000 		.4byte	0x236
 1172 0219 06       		.uleb128 0x6
 1173 021a 25020000 		.4byte	.LASF22
 1174 021e 05       		.byte	0x5
 1175 021f 62       		.byte	0x62
 1176 0220 36020000 		.4byte	0x236
 1177 0224 02       		.byte	0x2
 1178 0225 23       		.byte	0x23
 1179 0226 00       		.uleb128 0
 1180 0227 06       		.uleb128 0x6
 1181 0228 D6010000 		.4byte	.LASF23
 1182 022c 05       		.byte	0x5
ARM GAS  /tmp/cciKPYbS.s 			page 22


 1183 022d 64       		.byte	0x64
 1184 022e 36020000 		.4byte	0x236
 1185 0232 02       		.byte	0x2
 1186 0233 23       		.byte	0x23
 1187 0234 04       		.uleb128 0x4
 1188 0235 00       		.byte	0
 1189 0236 09       		.uleb128 0x9
 1190 0237 04       		.byte	0x4
 1191 0238 EF000000 		.4byte	0xef
 1192 023c 04       		.uleb128 0x4
 1193 023d A7010000 		.4byte	.LASF40
 1194 0241 05       		.byte	0x5
 1195 0242 66       		.byte	0x66
 1196 0243 11020000 		.4byte	0x211
 1197 0247 08       		.uleb128 0x8
 1198 0248 04       		.byte	0x4
 1199 0249 05       		.byte	0x5
 1200 024a 6B       		.byte	0x6b
 1201 024b 5E020000 		.4byte	0x25e
 1202 024f 06       		.uleb128 0x6
 1203 0250 25020000 		.4byte	.LASF22
 1204 0254 05       		.byte	0x5
 1205 0255 6D       		.byte	0x6d
 1206 0256 36020000 		.4byte	0x236
 1207 025a 02       		.byte	0x2
 1208 025b 23       		.byte	0x23
 1209 025c 00       		.uleb128 0
 1210 025d 00       		.byte	0
 1211 025e 04       		.uleb128 0x4
 1212 025f 64010000 		.4byte	.LASF41
 1213 0263 05       		.byte	0x5
 1214 0264 70       		.byte	0x70
 1215 0265 47020000 		.4byte	0x247
 1216 0269 04       		.uleb128 0x4
 1217 026a DD000000 		.4byte	.LASF42
 1218 026e 07       		.byte	0x7
 1219 026f D7       		.byte	0xd7
 1220 0270 74020000 		.4byte	0x274
 1221 0274 0A       		.uleb128 0xa
 1222 0275 04       		.byte	0x4
 1223 0276 05       		.uleb128 0x5
 1224 0277 97020000 		.4byte	.LASF43
 1225 027b 24       		.byte	0x24
 1226 027c 07       		.byte	0x7
 1227 027d FE       		.byte	0xfe
 1228 027e 03030000 		.4byte	0x303
 1229 0282 0B       		.uleb128 0xb
 1230 0283 723400   		.ascii	"r4\000"
 1231 0286 07       		.byte	0x7
 1232 0287 1101     		.2byte	0x111
 1233 0289 69020000 		.4byte	0x269
 1234 028d 02       		.byte	0x2
 1235 028e 23       		.byte	0x23
 1236 028f 00       		.uleb128 0
 1237 0290 0B       		.uleb128 0xb
 1238 0291 723500   		.ascii	"r5\000"
 1239 0294 07       		.byte	0x7
ARM GAS  /tmp/cciKPYbS.s 			page 23


 1240 0295 1201     		.2byte	0x112
 1241 0297 69020000 		.4byte	0x269
 1242 029b 02       		.byte	0x2
 1243 029c 23       		.byte	0x23
 1244 029d 04       		.uleb128 0x4
 1245 029e 0B       		.uleb128 0xb
 1246 029f 723600   		.ascii	"r6\000"
 1247 02a2 07       		.byte	0x7
 1248 02a3 1301     		.2byte	0x113
 1249 02a5 69020000 		.4byte	0x269
 1250 02a9 02       		.byte	0x2
 1251 02aa 23       		.byte	0x23
 1252 02ab 08       		.uleb128 0x8
 1253 02ac 0B       		.uleb128 0xb
 1254 02ad 723700   		.ascii	"r7\000"
 1255 02b0 07       		.byte	0x7
 1256 02b1 1401     		.2byte	0x114
 1257 02b3 69020000 		.4byte	0x269
 1258 02b7 02       		.byte	0x2
 1259 02b8 23       		.byte	0x23
 1260 02b9 0C       		.uleb128 0xc
 1261 02ba 0B       		.uleb128 0xb
 1262 02bb 723800   		.ascii	"r8\000"
 1263 02be 07       		.byte	0x7
 1264 02bf 1501     		.2byte	0x115
 1265 02c1 69020000 		.4byte	0x269
 1266 02c5 02       		.byte	0x2
 1267 02c6 23       		.byte	0x23
 1268 02c7 10       		.uleb128 0x10
 1269 02c8 0B       		.uleb128 0xb
 1270 02c9 723900   		.ascii	"r9\000"
 1271 02cc 07       		.byte	0x7
 1272 02cd 1601     		.2byte	0x116
 1273 02cf 69020000 		.4byte	0x269
 1274 02d3 02       		.byte	0x2
 1275 02d4 23       		.byte	0x23
 1276 02d5 14       		.uleb128 0x14
 1277 02d6 0B       		.uleb128 0xb
 1278 02d7 72313000 		.ascii	"r10\000"
 1279 02db 07       		.byte	0x7
 1280 02dc 1701     		.2byte	0x117
 1281 02de 69020000 		.4byte	0x269
 1282 02e2 02       		.byte	0x2
 1283 02e3 23       		.byte	0x23
 1284 02e4 18       		.uleb128 0x18
 1285 02e5 0B       		.uleb128 0xb
 1286 02e6 72313100 		.ascii	"r11\000"
 1287 02ea 07       		.byte	0x7
 1288 02eb 1801     		.2byte	0x118
 1289 02ed 69020000 		.4byte	0x269
 1290 02f1 02       		.byte	0x2
 1291 02f2 23       		.byte	0x23
 1292 02f3 1C       		.uleb128 0x1c
 1293 02f4 0B       		.uleb128 0xb
 1294 02f5 6C7200   		.ascii	"lr\000"
 1295 02f8 07       		.byte	0x7
 1296 02f9 1901     		.2byte	0x119
ARM GAS  /tmp/cciKPYbS.s 			page 24


 1297 02fb 69020000 		.4byte	0x269
 1298 02ff 02       		.byte	0x2
 1299 0300 23       		.byte	0x23
 1300 0301 20       		.uleb128 0x20
 1301 0302 00       		.byte	0
 1302 0303 0C       		.uleb128 0xc
 1303 0304 18010000 		.4byte	.LASF44
 1304 0308 04       		.byte	0x4
 1305 0309 07       		.byte	0x7
 1306 030a 2301     		.2byte	0x123
 1307 030c 20030000 		.4byte	0x320
 1308 0310 0B       		.uleb128 0xb
 1309 0311 72313300 		.ascii	"r13\000"
 1310 0315 07       		.byte	0x7
 1311 0316 2401     		.2byte	0x124
 1312 0318 20030000 		.4byte	0x320
 1313 031c 02       		.byte	0x2
 1314 031d 23       		.byte	0x23
 1315 031e 00       		.uleb128 0
 1316 031f 00       		.byte	0
 1317 0320 09       		.uleb128 0x9
 1318 0321 04       		.byte	0x4
 1319 0322 76020000 		.4byte	0x276
 1320 0326 0D       		.uleb128 0xd
 1321 0327 D9000000 		.4byte	0xd9
 1322 032b 08       		.uleb128 0x8
 1323 032c 20       		.byte	0x20
 1324 032d 08       		.byte	0x8
 1325 032e 5E       		.byte	0x5e
 1326 032f 96030000 		.4byte	0x396
 1327 0333 06       		.uleb128 0x6
 1328 0334 4F020000 		.4byte	.LASF45
 1329 0338 08       		.byte	0x8
 1330 0339 5F       		.byte	0x5f
 1331 033a 3C020000 		.4byte	0x23c
 1332 033e 02       		.byte	0x2
 1333 033f 23       		.byte	0x23
 1334 0340 00       		.uleb128 0
 1335 0341 06       		.uleb128 0x6
 1336 0342 17020000 		.4byte	.LASF46
 1337 0346 08       		.byte	0x8
 1338 0347 60       		.byte	0x60
 1339 0348 B8000000 		.4byte	0xb8
 1340 034c 02       		.byte	0x2
 1341 034d 23       		.byte	0x23
 1342 034e 08       		.uleb128 0x8
 1343 034f 06       		.uleb128 0x6
 1344 0350 A1010000 		.4byte	.LASF47
 1345 0354 08       		.byte	0x8
 1346 0355 62       		.byte	0x62
 1347 0356 03030000 		.4byte	0x303
 1348 035a 02       		.byte	0x2
 1349 035b 23       		.byte	0x23
 1350 035c 0C       		.uleb128 0xc
 1351 035d 06       		.uleb128 0x6
 1352 035e D5000000 		.4byte	.LASF48
 1353 0362 08       		.byte	0x8
ARM GAS  /tmp/cciKPYbS.s 			page 25


 1354 0363 65       		.byte	0x65
 1355 0364 36020000 		.4byte	0x236
 1356 0368 02       		.byte	0x2
 1357 0369 23       		.byte	0x23
 1358 036a 10       		.uleb128 0x10
 1359 036b 06       		.uleb128 0x6
 1360 036c C6010000 		.4byte	.LASF49
 1361 0370 08       		.byte	0x8
 1362 0371 66       		.byte	0x66
 1363 0372 36020000 		.4byte	0x236
 1364 0376 02       		.byte	0x2
 1365 0377 23       		.byte	0x23
 1366 0378 14       		.uleb128 0x14
 1367 0379 06       		.uleb128 0x6
 1368 037a E0020000 		.4byte	.LASF50
 1369 037e 08       		.byte	0x8
 1370 037f 6A       		.byte	0x6a
 1371 0380 E4000000 		.4byte	0xe4
 1372 0384 02       		.byte	0x2
 1373 0385 23       		.byte	0x23
 1374 0386 18       		.uleb128 0x18
 1375 0387 06       		.uleb128 0x6
 1376 0388 BC010000 		.4byte	.LASF51
 1377 038c 08       		.byte	0x8
 1378 038d 6C       		.byte	0x6c
 1379 038e 36020000 		.4byte	0x236
 1380 0392 02       		.byte	0x2
 1381 0393 23       		.byte	0x23
 1382 0394 1C       		.uleb128 0x1c
 1383 0395 00       		.byte	0
 1384 0396 04       		.uleb128 0x4
 1385 0397 BA020000 		.4byte	.LASF52
 1386 039b 08       		.byte	0x8
 1387 039c 6E       		.byte	0x6e
 1388 039d 2B030000 		.4byte	0x32b
 1389 03a1 05       		.uleb128 0x5
 1390 03a2 89010000 		.4byte	.LASF53
 1391 03a6 10       		.byte	0x10
 1392 03a7 09       		.byte	0x9
 1393 03a8 2C       		.byte	0x2c
 1394 03a9 D8030000 		.4byte	0x3d8
 1395 03ad 06       		.uleb128 0x6
 1396 03ae 69000000 		.4byte	.LASF54
 1397 03b2 09       		.byte	0x9
 1398 03b3 2D       		.byte	0x2d
 1399 03b4 3C020000 		.4byte	0x23c
 1400 03b8 02       		.byte	0x2
 1401 03b9 23       		.byte	0x23
 1402 03ba 00       		.uleb128 0
 1403 03bb 06       		.uleb128 0x6
 1404 03bc EA020000 		.4byte	.LASF55
 1405 03c0 09       		.byte	0x9
 1406 03c1 2F       		.byte	0x2f
 1407 03c2 36020000 		.4byte	0x236
 1408 03c6 02       		.byte	0x2
 1409 03c7 23       		.byte	0x23
 1410 03c8 08       		.uleb128 0x8
ARM GAS  /tmp/cciKPYbS.s 			page 26


 1411 03c9 06       		.uleb128 0x6
 1412 03ca 74020000 		.4byte	.LASF56
 1413 03ce 09       		.byte	0x9
 1414 03cf 31       		.byte	0x31
 1415 03d0 D8030000 		.4byte	0x3d8
 1416 03d4 02       		.byte	0x2
 1417 03d5 23       		.byte	0x23
 1418 03d6 0C       		.uleb128 0xc
 1419 03d7 00       		.byte	0
 1420 03d8 09       		.uleb128 0x9
 1421 03d9 04       		.byte	0x4
 1422 03da A1030000 		.4byte	0x3a1
 1423 03de 04       		.uleb128 0x4
 1424 03df 89010000 		.4byte	.LASF53
 1425 03e3 09       		.byte	0x9
 1426 03e4 33       		.byte	0x33
 1427 03e5 A1030000 		.4byte	0x3a1
 1428 03e9 0E       		.uleb128 0xe
 1429 03ea 04       		.byte	0x4
 1430 03eb 06       		.byte	0x6
 1431 03ec 90       		.byte	0x90
 1432 03ed 1E040000 		.4byte	0x41e
 1433 03f1 0F       		.uleb128 0xf
 1434 03f2 06000000 		.4byte	.LASF57
 1435 03f6 06       		.byte	0x6
 1436 03f7 97       		.byte	0x97
 1437 03f8 C3000000 		.4byte	0xc3
 1438 03fc 0F       		.uleb128 0xf
 1439 03fd 24000000 		.4byte	.LASF58
 1440 0401 06       		.byte	0x6
 1441 0402 9E       		.byte	0x9e
 1442 0403 C3000000 		.4byte	0xc3
 1443 0407 0F       		.uleb128 0xf
 1444 0408 D2020000 		.4byte	.LASF59
 1445 040c 06       		.byte	0x6
 1446 040d A5       		.byte	0xa5
 1447 040e 74020000 		.4byte	0x274
 1448 0412 0F       		.uleb128 0xf
 1449 0413 1E020000 		.4byte	.LASF60
 1450 0417 06       		.byte	0x6
 1451 0418 AC       		.byte	0xac
 1452 0419 CE000000 		.4byte	0xce
 1453 041d 00       		.byte	0
 1454 041e 09       		.uleb128 0x9
 1455 041f 04       		.byte	0x4
 1456 0420 24040000 		.4byte	0x424
 1457 0424 10       		.uleb128 0x10
 1458 0425 29040000 		.4byte	0x429
 1459 0429 03       		.uleb128 0x3
 1460 042a 01       		.byte	0x1
 1461 042b 08       		.byte	0x8
 1462 042c 63020000 		.4byte	.LASF61
 1463 0430 09       		.uleb128 0x9
 1464 0431 04       		.byte	0x4
 1465 0432 DE030000 		.4byte	0x3de
 1466 0436 11       		.uleb128 0x11
 1467 0437 B4010000 		.4byte	.LASF62
ARM GAS  /tmp/cciKPYbS.s 			page 27


 1468 043b 02       		.byte	0x2
 1469 043c 49       		.byte	0x49
 1470 043d 01       		.byte	0x1
 1471 043e 36020000 		.4byte	0x236
 1472 0442 03       		.byte	0x3
 1473 0443 52040000 		.4byte	0x452
 1474 0447 12       		.uleb128 0x12
 1475 0448 747000   		.ascii	"tp\000"
 1476 044b 02       		.byte	0x2
 1477 044c 49       		.byte	0x49
 1478 044d 36020000 		.4byte	0x236
 1479 0451 00       		.byte	0
 1480 0452 13       		.uleb128 0x13
 1481 0453 39010000 		.4byte	.LASF74
 1482 0457 02       		.byte	0x2
 1483 0458 29       		.byte	0x29
 1484 0459 01       		.byte	0x1
 1485 045a 03       		.byte	0x3
 1486 045b 7F040000 		.4byte	0x47f
 1487 045f 12       		.uleb128 0x12
 1488 0460 747000   		.ascii	"tp\000"
 1489 0463 02       		.byte	0x2
 1490 0464 29       		.byte	0x29
 1491 0465 36020000 		.4byte	0x236
 1492 0469 12       		.uleb128 0x12
 1493 046a 74717000 		.ascii	"tqp\000"
 1494 046e 02       		.byte	0x2
 1495 046f 29       		.byte	0x29
 1496 0470 7F040000 		.4byte	0x47f
 1497 0474 14       		.uleb128 0x14
 1498 0475 637000   		.ascii	"cp\000"
 1499 0478 02       		.byte	0x2
 1500 0479 2B       		.byte	0x2b
 1501 047a 36020000 		.4byte	0x236
 1502 047e 00       		.byte	0
 1503 047f 09       		.uleb128 0x9
 1504 0480 04       		.byte	0x4
 1505 0481 3C020000 		.4byte	0x23c
 1506 0485 15       		.uleb128 0x15
 1507 0486 01       		.byte	0x1
 1508 0487 BF000000 		.4byte	.LASF75
 1509 048b 01       		.byte	0x1
 1510 048c EA       		.byte	0xea
 1511 048d 01       		.byte	0x1
 1512 048e 8C000000 		.4byte	0x8c
 1513 0492 01       		.byte	0x1
 1514 0493 A2040000 		.4byte	0x4a2
 1515 0497 12       		.uleb128 0x12
 1516 0498 6D7000   		.ascii	"mp\000"
 1517 049b 01       		.byte	0x1
 1518 049c EA       		.byte	0xea
 1519 049d 30040000 		.4byte	0x430
 1520 04a1 00       		.byte	0
 1521 04a2 11       		.uleb128 0x11
 1522 04a3 68020000 		.4byte	.LASF63
 1523 04a7 02       		.byte	0x2
 1524 04a8 3B       		.byte	0x3b
ARM GAS  /tmp/cciKPYbS.s 			page 28


 1525 04a9 01       		.byte	0x1
 1526 04aa 36020000 		.4byte	0x236
 1527 04ae 03       		.byte	0x3
 1528 04af C9040000 		.4byte	0x4c9
 1529 04b3 12       		.uleb128 0x12
 1530 04b4 74717000 		.ascii	"tqp\000"
 1531 04b8 02       		.byte	0x2
 1532 04b9 3B       		.byte	0x3b
 1533 04ba 7F040000 		.4byte	0x47f
 1534 04be 14       		.uleb128 0x14
 1535 04bf 747000   		.ascii	"tp\000"
 1536 04c2 02       		.byte	0x2
 1537 04c3 3C       		.byte	0x3c
 1538 04c4 36020000 		.4byte	0x236
 1539 04c8 00       		.byte	0
 1540 04c9 16       		.uleb128 0x16
 1541 04ca 01       		.byte	0x1
 1542 04cb A9020000 		.4byte	.LASF64
 1543 04cf 01       		.byte	0x1
 1544 04d0 56       		.byte	0x56
 1545 04d1 01       		.byte	0x1
 1546 04d2 00000000 		.4byte	.LFB7
 1547 04d6 0A000000 		.4byte	.LFE7
 1548 04da 02       		.byte	0x2
 1549 04db 7D       		.byte	0x7d
 1550 04dc 00       		.sleb128 0
 1551 04dd EE040000 		.4byte	0x4ee
 1552 04e1 17       		.uleb128 0x17
 1553 04e2 6D7000   		.ascii	"mp\000"
 1554 04e5 01       		.byte	0x1
 1555 04e6 56       		.byte	0x56
 1556 04e7 30040000 		.4byte	0x430
 1557 04eb 01       		.byte	0x1
 1558 04ec 50       		.byte	0x50
 1559 04ed 00       		.byte	0
 1560 04ee 18       		.uleb128 0x18
 1561 04ef 01       		.byte	0x1
 1562 04f0 B4000000 		.4byte	.LASF65
 1563 04f4 01       		.byte	0x1
 1564 04f5 79       		.byte	0x79
 1565 04f6 01       		.byte	0x1
 1566 04f7 00000000 		.4byte	.LFB9
 1567 04fb C4000000 		.4byte	.LFE9
 1568 04ff 00000000 		.4byte	.LLST0
 1569 0503 2F060000 		.4byte	0x62f
 1570 0507 19       		.uleb128 0x19
 1571 0508 6D7000   		.ascii	"mp\000"
 1572 050b 01       		.byte	0x1
 1573 050c 79       		.byte	0x79
 1574 050d 30040000 		.4byte	0x430
 1575 0511 20000000 		.4byte	.LLST1
 1576 0515 1A       		.uleb128 0x1a
 1577 0516 63747000 		.ascii	"ctp\000"
 1578 051a 01       		.byte	0x1
 1579 051b 7A       		.byte	0x7a
 1580 051c 36020000 		.4byte	0x236
 1581 0520 3E000000 		.4byte	.LLST2
ARM GAS  /tmp/cciKPYbS.s 			page 29


 1582 0524 1B       		.uleb128 0x1b
 1583 0525 00000000 		.4byte	.Ldebug_ranges0+0
 1584 0529 1A       		.uleb128 0x1a
 1585 052a 747000   		.ascii	"tp\000"
 1586 052d 01       		.byte	0x1
 1587 052e 84       		.byte	0x84
 1588 052f 36020000 		.4byte	0x236
 1589 0533 5D000000 		.4byte	.LLST3
 1590 0537 1C       		.uleb128 0x1c
 1591 0538 52040000 		.4byte	0x452
 1592 053c 2C000000 		.4byte	.LBB34
 1593 0540 20000000 		.4byte	.Ldebug_ranges0+0x20
 1594 0544 01       		.byte	0x1
 1595 0545 AD       		.byte	0xad
 1596 0546 6C050000 		.4byte	0x56c
 1597 054a 1D       		.uleb128 0x1d
 1598 054b 69040000 		.4byte	0x469
 1599 054f A9000000 		.4byte	.LLST4
 1600 0553 1D       		.uleb128 0x1d
 1601 0554 5F040000 		.4byte	0x45f
 1602 0558 BC000000 		.4byte	.LLST5
 1603 055c 1B       		.uleb128 0x1b
 1604 055d 38000000 		.4byte	.Ldebug_ranges0+0x38
 1605 0561 1E       		.uleb128 0x1e
 1606 0562 74040000 		.4byte	0x474
 1607 0566 CF000000 		.4byte	.LLST6
 1608 056a 00       		.byte	0
 1609 056b 00       		.byte	0
 1610 056c 1F       		.uleb128 0x1f
 1611 056d 36040000 		.4byte	0x436
 1612 0571 50000000 		.4byte	.LBB38
 1613 0575 5A000000 		.4byte	.LBE38
 1614 0579 01       		.byte	0x1
 1615 057a A7       		.byte	0xa7
 1616 057b 89050000 		.4byte	0x589
 1617 057f 1D       		.uleb128 0x1d
 1618 0580 47040000 		.4byte	0x447
 1619 0584 ED000000 		.4byte	.LLST7
 1620 0588 00       		.byte	0
 1621 0589 1C       		.uleb128 0x1c
 1622 058a 36040000 		.4byte	0x436
 1623 058e 60000000 		.4byte	.LBB40
 1624 0592 50000000 		.4byte	.Ldebug_ranges0+0x50
 1625 0596 01       		.byte	0x1
 1626 0597 9E       		.byte	0x9e
 1627 0598 A6050000 		.4byte	0x5a6
 1628 059c 1D       		.uleb128 0x1d
 1629 059d 47040000 		.4byte	0x447
 1630 05a1 00010000 		.4byte	.LLST8
 1631 05a5 00       		.byte	0
 1632 05a6 1F       		.uleb128 0x1f
 1633 05a7 52040000 		.4byte	0x452
 1634 05ab 6E000000 		.4byte	.LBB46
 1635 05af 86000000 		.4byte	.LBE46
 1636 05b3 01       		.byte	0x1
 1637 05b4 9E       		.byte	0x9e
 1638 05b5 DF050000 		.4byte	0x5df
ARM GAS  /tmp/cciKPYbS.s 			page 30


 1639 05b9 1D       		.uleb128 0x1d
 1640 05ba 69040000 		.4byte	0x469
 1641 05be 13010000 		.4byte	.LLST9
 1642 05c2 1D       		.uleb128 0x1d
 1643 05c3 5F040000 		.4byte	0x45f
 1644 05c7 27010000 		.4byte	.LLST10
 1645 05cb 20       		.uleb128 0x20
 1646 05cc 6E000000 		.4byte	.LBB47
 1647 05d0 86000000 		.4byte	.LBE47
 1648 05d4 1E       		.uleb128 0x1e
 1649 05d5 74040000 		.4byte	0x474
 1650 05d9 3A010000 		.4byte	.LLST11
 1651 05dd 00       		.byte	0
 1652 05de 00       		.byte	0
 1653 05df 1C       		.uleb128 0x1c
 1654 05e0 36040000 		.4byte	0x436
 1655 05e4 86000000 		.4byte	.LBB48
 1656 05e8 70000000 		.4byte	.Ldebug_ranges0+0x70
 1657 05ec 01       		.byte	0x1
 1658 05ed 8E       		.byte	0x8e
 1659 05ee FC050000 		.4byte	0x5fc
 1660 05f2 1D       		.uleb128 0x1d
 1661 05f3 47040000 		.4byte	0x447
 1662 05f7 59010000 		.4byte	.LLST12
 1663 05fb 00       		.byte	0
 1664 05fc 21       		.uleb128 0x21
 1665 05fd 52040000 		.4byte	0x452
 1666 0601 94000000 		.4byte	.LBB54
 1667 0605 90000000 		.4byte	.Ldebug_ranges0+0x90
 1668 0609 01       		.byte	0x1
 1669 060a 8E       		.byte	0x8e
 1670 060b 1D       		.uleb128 0x1d
 1671 060c 69040000 		.4byte	0x469
 1672 0610 83010000 		.4byte	.LLST13
 1673 0614 1D       		.uleb128 0x1d
 1674 0615 5F040000 		.4byte	0x45f
 1675 0619 AD010000 		.4byte	.LLST14
 1676 061d 1B       		.uleb128 0x1b
 1677 061e A8000000 		.4byte	.Ldebug_ranges0+0xa8
 1678 0622 1E       		.uleb128 0x1e
 1679 0623 74040000 		.4byte	0x474
 1680 0627 D7010000 		.4byte	.LLST15
 1681 062b 00       		.byte	0
 1682 062c 00       		.byte	0
 1683 062d 00       		.byte	0
 1684 062e 00       		.byte	0
 1685 062f 18       		.uleb128 0x18
 1686 0630 01       		.byte	0x1
 1687 0631 8F010000 		.4byte	.LASF66
 1688 0635 01       		.byte	0x1
 1689 0636 67       		.byte	0x67
 1690 0637 01       		.byte	0x1
 1691 0638 00000000 		.4byte	.LFB8
 1692 063c 14000000 		.4byte	.LFE8
 1693 0640 01020000 		.4byte	.LLST16
 1694 0644 8D060000 		.4byte	0x68d
 1695 0648 19       		.uleb128 0x19
ARM GAS  /tmp/cciKPYbS.s 			page 31


 1696 0649 6D7000   		.ascii	"mp\000"
 1697 064c 01       		.byte	0x1
 1698 064d 67       		.byte	0x67
 1699 064e 30040000 		.4byte	0x430
 1700 0652 21020000 		.4byte	.LLST17
 1701 0656 22       		.uleb128 0x22
 1702 0657 02000000 		.4byte	.LBB60
 1703 065b 08000000 		.4byte	.LBE60
 1704 065f 73060000 		.4byte	0x673
 1705 0663 1A       		.uleb128 0x1a
 1706 0664 746D7000 		.ascii	"tmp\000"
 1707 0668 01       		.byte	0x1
 1708 0669 69       		.byte	0x69
 1709 066a 6C000000 		.4byte	0x6c
 1710 066e 34020000 		.4byte	.LLST18
 1711 0672 00       		.byte	0
 1712 0673 20       		.uleb128 0x20
 1713 0674 0C000000 		.4byte	.LBB61
 1714 0678 12000000 		.4byte	.LBE61
 1715 067c 1A       		.uleb128 0x1a
 1716 067d 746D7000 		.ascii	"tmp\000"
 1717 0681 01       		.byte	0x1
 1718 0682 6D       		.byte	0x6d
 1719 0683 6C000000 		.4byte	0x6c
 1720 0687 47020000 		.4byte	.LLST19
 1721 068b 00       		.byte	0
 1722 068c 00       		.byte	0
 1723 068d 23       		.uleb128 0x23
 1724 068e 01       		.byte	0x1
 1725 068f 7C010000 		.4byte	.LASF67
 1726 0693 01       		.byte	0x1
 1727 0694 CE       		.byte	0xce
 1728 0695 01       		.byte	0x1
 1729 0696 8C000000 		.4byte	0x8c
 1730 069a 00000000 		.4byte	.LFB10
 1731 069e 34000000 		.4byte	.LFE10
 1732 06a2 02       		.byte	0x2
 1733 06a3 7D       		.byte	0x7d
 1734 06a4 00       		.sleb128 0
 1735 06a5 12070000 		.4byte	0x712
 1736 06a9 19       		.uleb128 0x19
 1737 06aa 6D7000   		.ascii	"mp\000"
 1738 06ad 01       		.byte	0x1
 1739 06ae CE       		.byte	0xce
 1740 06af 30040000 		.4byte	0x430
 1741 06b3 5A020000 		.4byte	.LLST20
 1742 06b7 24       		.uleb128 0x24
 1743 06b8 6200     		.ascii	"b\000"
 1744 06ba 01       		.byte	0x1
 1745 06bb CF       		.byte	0xcf
 1746 06bc 8C000000 		.4byte	0x8c
 1747 06c0 01       		.byte	0x1
 1748 06c1 50       		.byte	0x50
 1749 06c2 22       		.uleb128 0x22
 1750 06c3 02000000 		.4byte	.LBB62
 1751 06c7 08000000 		.4byte	.LBE62
 1752 06cb DF060000 		.4byte	0x6df
ARM GAS  /tmp/cciKPYbS.s 			page 32


 1753 06cf 1A       		.uleb128 0x1a
 1754 06d0 746D7000 		.ascii	"tmp\000"
 1755 06d4 01       		.byte	0x1
 1756 06d5 D1       		.byte	0xd1
 1757 06d6 6C000000 		.4byte	0x6c
 1758 06da 78020000 		.4byte	.LLST21
 1759 06de 00       		.byte	0
 1760 06df 1C       		.uleb128 0x1c
 1761 06e0 85040000 		.4byte	0x485
 1762 06e4 08000000 		.4byte	.LBB63
 1763 06e8 C0000000 		.4byte	.Ldebug_ranges0+0xc0
 1764 06ec 01       		.byte	0x1
 1765 06ed D3       		.byte	0xd3
 1766 06ee FC060000 		.4byte	0x6fc
 1767 06f2 1D       		.uleb128 0x1d
 1768 06f3 97040000 		.4byte	0x497
 1769 06f7 8B020000 		.4byte	.LLST22
 1770 06fb 00       		.byte	0
 1771 06fc 1B       		.uleb128 0x1b
 1772 06fd D8000000 		.4byte	.Ldebug_ranges0+0xd8
 1773 0701 1A       		.uleb128 0x1a
 1774 0702 746D7000 		.ascii	"tmp\000"
 1775 0706 01       		.byte	0x1
 1776 0707 D5       		.byte	0xd5
 1777 0708 6C000000 		.4byte	0x6c
 1778 070c A9020000 		.4byte	.LLST23
 1779 0710 00       		.byte	0
 1780 0711 00       		.byte	0
 1781 0712 25       		.uleb128 0x25
 1782 0713 85040000 		.4byte	0x485
 1783 0717 00000000 		.4byte	.LFB11
 1784 071b 22000000 		.4byte	.LFE11
 1785 071f 02       		.byte	0x2
 1786 0720 7D       		.byte	0x7d
 1787 0721 00       		.sleb128 0
 1788 0722 30070000 		.4byte	0x730
 1789 0726 1D       		.uleb128 0x1d
 1790 0727 97040000 		.4byte	0x497
 1791 072b C7020000 		.4byte	.LLST24
 1792 072f 00       		.byte	0
 1793 0730 26       		.uleb128 0x26
 1794 0731 01       		.byte	0x1
 1795 0732 2D000000 		.4byte	.LASF68
 1796 0736 01       		.byte	0x1
 1797 0737 0101     		.2byte	0x101
 1798 0739 01       		.byte	0x1
 1799 073a 30040000 		.4byte	0x430
 1800 073e 00000000 		.4byte	.LFB12
 1801 0742 66000000 		.4byte	.LFE12
 1802 0746 E5020000 		.4byte	.LLST25
 1803 074a 00080000 		.4byte	0x800
 1804 074e 27       		.uleb128 0x27
 1805 074f 63747000 		.ascii	"ctp\000"
 1806 0753 01       		.byte	0x1
 1807 0754 0201     		.2byte	0x102
 1808 0756 36020000 		.4byte	0x236
 1809 075a 05030000 		.4byte	.LLST26
ARM GAS  /tmp/cciKPYbS.s 			page 33


 1810 075e 27       		.uleb128 0x27
 1811 075f 756D7000 		.ascii	"ump\000"
 1812 0763 01       		.byte	0x1
 1813 0764 0301     		.2byte	0x103
 1814 0766 30040000 		.4byte	0x430
 1815 076a 18030000 		.4byte	.LLST27
 1816 076e 27       		.uleb128 0x27
 1817 076f 6D7000   		.ascii	"mp\000"
 1818 0772 01       		.byte	0x1
 1819 0773 0301     		.2byte	0x103
 1820 0775 30040000 		.4byte	0x430
 1821 0779 2B030000 		.4byte	.LLST28
 1822 077d 22       		.uleb128 0x22
 1823 077e 0C000000 		.4byte	.LBB69
 1824 0782 12000000 		.4byte	.LBE69
 1825 0786 9B070000 		.4byte	0x79b
 1826 078a 27       		.uleb128 0x27
 1827 078b 746D7000 		.ascii	"tmp\000"
 1828 078f 01       		.byte	0x1
 1829 0790 0501     		.2byte	0x105
 1830 0792 6C000000 		.4byte	0x6c
 1831 0796 3E030000 		.4byte	.LLST29
 1832 079a 00       		.byte	0
 1833 079b 22       		.uleb128 0x22
 1834 079c 1E000000 		.4byte	.LBB70
 1835 07a0 4E000000 		.4byte	.LBE70
 1836 07a4 E9070000 		.4byte	0x7e9
 1837 07a8 28       		.uleb128 0x28
 1838 07a9 747000   		.ascii	"tp\000"
 1839 07ac 01       		.byte	0x1
 1840 07ad 1201     		.2byte	0x112
 1841 07af 36020000 		.4byte	0x236
 1842 07b3 29       		.uleb128 0x29
 1843 07b4 54010000 		.4byte	.LASF69
 1844 07b8 01       		.byte	0x1
 1845 07b9 1601     		.2byte	0x116
 1846 07bb B8000000 		.4byte	0xb8
 1847 07bf 51030000 		.4byte	.LLST30
 1848 07c3 2A       		.uleb128 0x2a
 1849 07c4 A2040000 		.4byte	0x4a2
 1850 07c8 36000000 		.4byte	.LBB71
 1851 07cc F0000000 		.4byte	.Ldebug_ranges0+0xf0
 1852 07d0 01       		.byte	0x1
 1853 07d1 2501     		.2byte	0x125
 1854 07d3 1D       		.uleb128 0x1d
 1855 07d4 B3040000 		.4byte	0x4b3
 1856 07d8 64030000 		.4byte	.LLST31
 1857 07dc 1B       		.uleb128 0x1b
 1858 07dd 10010000 		.4byte	.Ldebug_ranges0+0x110
 1859 07e1 2B       		.uleb128 0x2b
 1860 07e2 BE040000 		.4byte	0x4be
 1861 07e6 00       		.byte	0
 1862 07e7 00       		.byte	0
 1863 07e8 00       		.byte	0
 1864 07e9 1B       		.uleb128 0x1b
 1865 07ea 30010000 		.4byte	.Ldebug_ranges0+0x130
 1866 07ee 27       		.uleb128 0x27
ARM GAS  /tmp/cciKPYbS.s 			page 34


 1867 07ef 746D7000 		.ascii	"tmp\000"
 1868 07f3 01       		.byte	0x1
 1869 07f4 2D01     		.2byte	0x12d
 1870 07f6 6C000000 		.4byte	0x6c
 1871 07fa 77030000 		.4byte	.LLST32
 1872 07fe 00       		.byte	0
 1873 07ff 00       		.byte	0
 1874 0800 26       		.uleb128 0x26
 1875 0801 01       		.byte	0x1
 1876 0802 EC000000 		.4byte	.LASF70
 1877 0806 01       		.byte	0x1
 1878 0807 3D01     		.2byte	0x13d
 1879 0809 01       		.byte	0x1
 1880 080a 30040000 		.4byte	0x430
 1881 080e 00000000 		.4byte	.LFB13
 1882 0812 52000000 		.4byte	.LFE13
 1883 0816 95030000 		.4byte	.LLST33
 1884 081a 98080000 		.4byte	0x898
 1885 081e 27       		.uleb128 0x27
 1886 081f 63747000 		.ascii	"ctp\000"
 1887 0823 01       		.byte	0x1
 1888 0824 3E01     		.2byte	0x13e
 1889 0826 36020000 		.4byte	0x236
 1890 082a B5030000 		.4byte	.LLST34
 1891 082e 27       		.uleb128 0x27
 1892 082f 756D7000 		.ascii	"ump\000"
 1893 0833 01       		.byte	0x1
 1894 0834 3F01     		.2byte	0x13f
 1895 0836 30040000 		.4byte	0x430
 1896 083a D4030000 		.4byte	.LLST35
 1897 083e 27       		.uleb128 0x27
 1898 083f 6D7000   		.ascii	"mp\000"
 1899 0842 01       		.byte	0x1
 1900 0843 3F01     		.2byte	0x13f
 1901 0845 30040000 		.4byte	0x430
 1902 0849 F6030000 		.4byte	.LLST36
 1903 084d 20       		.uleb128 0x20
 1904 084e 18000000 		.4byte	.LBB79
 1905 0852 46000000 		.4byte	.LBE79
 1906 0856 28       		.uleb128 0x28
 1907 0857 747000   		.ascii	"tp\000"
 1908 085a 01       		.byte	0x1
 1909 085b 4F01     		.2byte	0x14f
 1910 085d 36020000 		.4byte	0x236
 1911 0861 29       		.uleb128 0x29
 1912 0862 54010000 		.4byte	.LASF69
 1913 0866 01       		.byte	0x1
 1914 0867 5301     		.2byte	0x153
 1915 0869 B8000000 		.4byte	0xb8
 1916 086d 09040000 		.4byte	.LLST37
 1917 0871 2A       		.uleb128 0x2a
 1918 0872 A2040000 		.4byte	0x4a2
 1919 0876 30000000 		.4byte	.LBB80
 1920 087a 48010000 		.4byte	.Ldebug_ranges0+0x148
 1921 087e 01       		.byte	0x1
 1922 087f 6001     		.2byte	0x160
 1923 0881 1D       		.uleb128 0x1d
ARM GAS  /tmp/cciKPYbS.s 			page 35


 1924 0882 B3040000 		.4byte	0x4b3
 1925 0886 1C040000 		.4byte	.LLST38
 1926 088a 1B       		.uleb128 0x1b
 1927 088b 60010000 		.4byte	.Ldebug_ranges0+0x160
 1928 088f 2B       		.uleb128 0x2b
 1929 0890 BE040000 		.4byte	0x4be
 1930 0894 00       		.byte	0
 1931 0895 00       		.byte	0
 1932 0896 00       		.byte	0
 1933 0897 00       		.byte	0
 1934 0898 2C       		.uleb128 0x2c
 1935 0899 01       		.byte	0x1
 1936 089a 45010000 		.4byte	.LASF71
 1937 089e 01       		.byte	0x1
 1938 089f 7601     		.2byte	0x176
 1939 08a1 01       		.byte	0x1
 1940 08a2 00000000 		.4byte	.LFB14
 1941 08a6 50000000 		.4byte	.LFE14
 1942 08aa 2F040000 		.4byte	.LLST39
 1943 08ae 53090000 		.4byte	0x953
 1944 08b2 27       		.uleb128 0x27
 1945 08b3 63747000 		.ascii	"ctp\000"
 1946 08b7 01       		.byte	0x1
 1947 08b8 7701     		.2byte	0x177
 1948 08ba 36020000 		.4byte	0x236
 1949 08be 4F040000 		.4byte	.LLST40
 1950 08c2 2D       		.uleb128 0x2d
 1951 08c3 78010000 		.4byte	.Ldebug_ranges0+0x178
 1952 08c7 DC080000 		.4byte	0x8dc
 1953 08cb 27       		.uleb128 0x27
 1954 08cc 746D7000 		.ascii	"tmp\000"
 1955 08d0 01       		.byte	0x1
 1956 08d1 7901     		.2byte	0x179
 1957 08d3 6C000000 		.4byte	0x6c
 1958 08d7 6E040000 		.4byte	.LLST41
 1959 08db 00       		.byte	0
 1960 08dc 22       		.uleb128 0x22
 1961 08dd 16000000 		.4byte	.LBB86
 1962 08e1 3A000000 		.4byte	.LBE86
 1963 08e5 38090000 		.4byte	0x938
 1964 08e9 27       		.uleb128 0x27
 1965 08ea 756D7000 		.ascii	"ump\000"
 1966 08ee 01       		.byte	0x1
 1967 08ef 7C01     		.2byte	0x17c
 1968 08f1 30040000 		.4byte	0x430
 1969 08f5 81040000 		.4byte	.LLST42
 1970 08f9 20       		.uleb128 0x20
 1971 08fa 26000000 		.4byte	.LBB87
 1972 08fe 3A000000 		.4byte	.LBE87
 1973 0902 28       		.uleb128 0x28
 1974 0903 747000   		.ascii	"tp\000"
 1975 0906 01       		.byte	0x1
 1976 0907 7F01     		.2byte	0x17f
 1977 0909 36020000 		.4byte	0x236
 1978 090d 2A       		.uleb128 0x2a
 1979 090e A2040000 		.4byte	0x4a2
 1980 0912 26000000 		.4byte	.LBB88
ARM GAS  /tmp/cciKPYbS.s 			page 36


 1981 0916 90010000 		.4byte	.Ldebug_ranges0+0x190
 1982 091a 01       		.byte	0x1
 1983 091b 7F01     		.2byte	0x17f
 1984 091d 1D       		.uleb128 0x1d
 1985 091e B3040000 		.4byte	0x4b3
 1986 0922 94040000 		.4byte	.LLST43
 1987 0926 1B       		.uleb128 0x1b
 1988 0927 B0010000 		.4byte	.Ldebug_ranges0+0x1b0
 1989 092b 1E       		.uleb128 0x1e
 1990 092c BE040000 		.4byte	0x4be
 1991 0930 A7040000 		.4byte	.LLST44
 1992 0934 00       		.byte	0
 1993 0935 00       		.byte	0
 1994 0936 00       		.byte	0
 1995 0937 00       		.byte	0
 1996 0938 20       		.uleb128 0x20
 1997 0939 48000000 		.4byte	.LBB94
 1998 093d 4E000000 		.4byte	.LBE94
 1999 0941 27       		.uleb128 0x27
 2000 0942 746D7000 		.ascii	"tmp\000"
 2001 0946 01       		.byte	0x1
 2002 0947 8B01     		.2byte	0x18b
 2003 0949 6C000000 		.4byte	0x6c
 2004 094d BB040000 		.4byte	.LLST45
 2005 0951 00       		.byte	0
 2006 0952 00       		.byte	0
 2007 0953 2E       		.uleb128 0x2e
 2008 0954 C4020000 		.4byte	.LASF76
 2009 0958 08       		.byte	0x8
 2010 0959 72       		.byte	0x72
 2011 095a 96030000 		.4byte	0x396
 2012 095e 01       		.byte	0x1
 2013 095f 01       		.byte	0x1
 2014 0960 00       		.byte	0
 2015              		.section	.debug_abbrev,"",%progbits
 2016              	.Ldebug_abbrev0:
 2017 0000 01       		.uleb128 0x1
 2018 0001 11       		.uleb128 0x11
 2019 0002 01       		.byte	0x1
 2020 0003 25       		.uleb128 0x25
 2021 0004 0E       		.uleb128 0xe
 2022 0005 13       		.uleb128 0x13
 2023 0006 0B       		.uleb128 0xb
 2024 0007 03       		.uleb128 0x3
 2025 0008 0E       		.uleb128 0xe
 2026 0009 11       		.uleb128 0x11
 2027 000a 01       		.uleb128 0x1
 2028 000b 52       		.uleb128 0x52
 2029 000c 01       		.uleb128 0x1
 2030 000d 55       		.uleb128 0x55
 2031 000e 06       		.uleb128 0x6
 2032 000f 10       		.uleb128 0x10
 2033 0010 06       		.uleb128 0x6
 2034 0011 00       		.byte	0
 2035 0012 00       		.byte	0
 2036 0013 02       		.uleb128 0x2
 2037 0014 24       		.uleb128 0x24
ARM GAS  /tmp/cciKPYbS.s 			page 37


 2038 0015 00       		.byte	0
 2039 0016 0B       		.uleb128 0xb
 2040 0017 0B       		.uleb128 0xb
 2041 0018 3E       		.uleb128 0x3e
 2042 0019 0B       		.uleb128 0xb
 2043 001a 03       		.uleb128 0x3
 2044 001b 08       		.uleb128 0x8
 2045 001c 00       		.byte	0
 2046 001d 00       		.byte	0
 2047 001e 03       		.uleb128 0x3
 2048 001f 24       		.uleb128 0x24
 2049 0020 00       		.byte	0
 2050 0021 0B       		.uleb128 0xb
 2051 0022 0B       		.uleb128 0xb
 2052 0023 3E       		.uleb128 0x3e
 2053 0024 0B       		.uleb128 0xb
 2054 0025 03       		.uleb128 0x3
 2055 0026 0E       		.uleb128 0xe
 2056 0027 00       		.byte	0
 2057 0028 00       		.byte	0
 2058 0029 04       		.uleb128 0x4
 2059 002a 16       		.uleb128 0x16
 2060 002b 00       		.byte	0
 2061 002c 03       		.uleb128 0x3
 2062 002d 0E       		.uleb128 0xe
 2063 002e 3A       		.uleb128 0x3a
 2064 002f 0B       		.uleb128 0xb
 2065 0030 3B       		.uleb128 0x3b
 2066 0031 0B       		.uleb128 0xb
 2067 0032 49       		.uleb128 0x49
 2068 0033 13       		.uleb128 0x13
 2069 0034 00       		.byte	0
 2070 0035 00       		.byte	0
 2071 0036 05       		.uleb128 0x5
 2072 0037 13       		.uleb128 0x13
 2073 0038 01       		.byte	0x1
 2074 0039 03       		.uleb128 0x3
 2075 003a 0E       		.uleb128 0xe
 2076 003b 0B       		.uleb128 0xb
 2077 003c 0B       		.uleb128 0xb
 2078 003d 3A       		.uleb128 0x3a
 2079 003e 0B       		.uleb128 0xb
 2080 003f 3B       		.uleb128 0x3b
 2081 0040 0B       		.uleb128 0xb
 2082 0041 01       		.uleb128 0x1
 2083 0042 13       		.uleb128 0x13
 2084 0043 00       		.byte	0
 2085 0044 00       		.byte	0
 2086 0045 06       		.uleb128 0x6
 2087 0046 0D       		.uleb128 0xd
 2088 0047 00       		.byte	0
 2089 0048 03       		.uleb128 0x3
 2090 0049 0E       		.uleb128 0xe
 2091 004a 3A       		.uleb128 0x3a
 2092 004b 0B       		.uleb128 0xb
 2093 004c 3B       		.uleb128 0x3b
 2094 004d 0B       		.uleb128 0xb
ARM GAS  /tmp/cciKPYbS.s 			page 38


 2095 004e 49       		.uleb128 0x49
 2096 004f 13       		.uleb128 0x13
 2097 0050 38       		.uleb128 0x38
 2098 0051 0A       		.uleb128 0xa
 2099 0052 00       		.byte	0
 2100 0053 00       		.byte	0
 2101 0054 07       		.uleb128 0x7
 2102 0055 0D       		.uleb128 0xd
 2103 0056 00       		.byte	0
 2104 0057 03       		.uleb128 0x3
 2105 0058 08       		.uleb128 0x8
 2106 0059 3A       		.uleb128 0x3a
 2107 005a 0B       		.uleb128 0xb
 2108 005b 3B       		.uleb128 0x3b
 2109 005c 0B       		.uleb128 0xb
 2110 005d 49       		.uleb128 0x49
 2111 005e 13       		.uleb128 0x13
 2112 005f 38       		.uleb128 0x38
 2113 0060 0A       		.uleb128 0xa
 2114 0061 00       		.byte	0
 2115 0062 00       		.byte	0
 2116 0063 08       		.uleb128 0x8
 2117 0064 13       		.uleb128 0x13
 2118 0065 01       		.byte	0x1
 2119 0066 0B       		.uleb128 0xb
 2120 0067 0B       		.uleb128 0xb
 2121 0068 3A       		.uleb128 0x3a
 2122 0069 0B       		.uleb128 0xb
 2123 006a 3B       		.uleb128 0x3b
 2124 006b 0B       		.uleb128 0xb
 2125 006c 01       		.uleb128 0x1
 2126 006d 13       		.uleb128 0x13
 2127 006e 00       		.byte	0
 2128 006f 00       		.byte	0
 2129 0070 09       		.uleb128 0x9
 2130 0071 0F       		.uleb128 0xf
 2131 0072 00       		.byte	0
 2132 0073 0B       		.uleb128 0xb
 2133 0074 0B       		.uleb128 0xb
 2134 0075 49       		.uleb128 0x49
 2135 0076 13       		.uleb128 0x13
 2136 0077 00       		.byte	0
 2137 0078 00       		.byte	0
 2138 0079 0A       		.uleb128 0xa
 2139 007a 0F       		.uleb128 0xf
 2140 007b 00       		.byte	0
 2141 007c 0B       		.uleb128 0xb
 2142 007d 0B       		.uleb128 0xb
 2143 007e 00       		.byte	0
 2144 007f 00       		.byte	0
 2145 0080 0B       		.uleb128 0xb
 2146 0081 0D       		.uleb128 0xd
 2147 0082 00       		.byte	0
 2148 0083 03       		.uleb128 0x3
 2149 0084 08       		.uleb128 0x8
 2150 0085 3A       		.uleb128 0x3a
 2151 0086 0B       		.uleb128 0xb
ARM GAS  /tmp/cciKPYbS.s 			page 39


 2152 0087 3B       		.uleb128 0x3b
 2153 0088 05       		.uleb128 0x5
 2154 0089 49       		.uleb128 0x49
 2155 008a 13       		.uleb128 0x13
 2156 008b 38       		.uleb128 0x38
 2157 008c 0A       		.uleb128 0xa
 2158 008d 00       		.byte	0
 2159 008e 00       		.byte	0
 2160 008f 0C       		.uleb128 0xc
 2161 0090 13       		.uleb128 0x13
 2162 0091 01       		.byte	0x1
 2163 0092 03       		.uleb128 0x3
 2164 0093 0E       		.uleb128 0xe
 2165 0094 0B       		.uleb128 0xb
 2166 0095 0B       		.uleb128 0xb
 2167 0096 3A       		.uleb128 0x3a
 2168 0097 0B       		.uleb128 0xb
 2169 0098 3B       		.uleb128 0x3b
 2170 0099 05       		.uleb128 0x5
 2171 009a 01       		.uleb128 0x1
 2172 009b 13       		.uleb128 0x13
 2173 009c 00       		.byte	0
 2174 009d 00       		.byte	0
 2175 009e 0D       		.uleb128 0xd
 2176 009f 35       		.uleb128 0x35
 2177 00a0 00       		.byte	0
 2178 00a1 49       		.uleb128 0x49
 2179 00a2 13       		.uleb128 0x13
 2180 00a3 00       		.byte	0
 2181 00a4 00       		.byte	0
 2182 00a5 0E       		.uleb128 0xe
 2183 00a6 17       		.uleb128 0x17
 2184 00a7 01       		.byte	0x1
 2185 00a8 0B       		.uleb128 0xb
 2186 00a9 0B       		.uleb128 0xb
 2187 00aa 3A       		.uleb128 0x3a
 2188 00ab 0B       		.uleb128 0xb
 2189 00ac 3B       		.uleb128 0x3b
 2190 00ad 0B       		.uleb128 0xb
 2191 00ae 01       		.uleb128 0x1
 2192 00af 13       		.uleb128 0x13
 2193 00b0 00       		.byte	0
 2194 00b1 00       		.byte	0
 2195 00b2 0F       		.uleb128 0xf
 2196 00b3 0D       		.uleb128 0xd
 2197 00b4 00       		.byte	0
 2198 00b5 03       		.uleb128 0x3
 2199 00b6 0E       		.uleb128 0xe
 2200 00b7 3A       		.uleb128 0x3a
 2201 00b8 0B       		.uleb128 0xb
 2202 00b9 3B       		.uleb128 0x3b
 2203 00ba 0B       		.uleb128 0xb
 2204 00bb 49       		.uleb128 0x49
 2205 00bc 13       		.uleb128 0x13
 2206 00bd 00       		.byte	0
 2207 00be 00       		.byte	0
 2208 00bf 10       		.uleb128 0x10
ARM GAS  /tmp/cciKPYbS.s 			page 40


 2209 00c0 26       		.uleb128 0x26
 2210 00c1 00       		.byte	0
 2211 00c2 49       		.uleb128 0x49
 2212 00c3 13       		.uleb128 0x13
 2213 00c4 00       		.byte	0
 2214 00c5 00       		.byte	0
 2215 00c6 11       		.uleb128 0x11
 2216 00c7 2E       		.uleb128 0x2e
 2217 00c8 01       		.byte	0x1
 2218 00c9 03       		.uleb128 0x3
 2219 00ca 0E       		.uleb128 0xe
 2220 00cb 3A       		.uleb128 0x3a
 2221 00cc 0B       		.uleb128 0xb
 2222 00cd 3B       		.uleb128 0x3b
 2223 00ce 0B       		.uleb128 0xb
 2224 00cf 27       		.uleb128 0x27
 2225 00d0 0C       		.uleb128 0xc
 2226 00d1 49       		.uleb128 0x49
 2227 00d2 13       		.uleb128 0x13
 2228 00d3 20       		.uleb128 0x20
 2229 00d4 0B       		.uleb128 0xb
 2230 00d5 01       		.uleb128 0x1
 2231 00d6 13       		.uleb128 0x13
 2232 00d7 00       		.byte	0
 2233 00d8 00       		.byte	0
 2234 00d9 12       		.uleb128 0x12
 2235 00da 05       		.uleb128 0x5
 2236 00db 00       		.byte	0
 2237 00dc 03       		.uleb128 0x3
 2238 00dd 08       		.uleb128 0x8
 2239 00de 3A       		.uleb128 0x3a
 2240 00df 0B       		.uleb128 0xb
 2241 00e0 3B       		.uleb128 0x3b
 2242 00e1 0B       		.uleb128 0xb
 2243 00e2 49       		.uleb128 0x49
 2244 00e3 13       		.uleb128 0x13
 2245 00e4 00       		.byte	0
 2246 00e5 00       		.byte	0
 2247 00e6 13       		.uleb128 0x13
 2248 00e7 2E       		.uleb128 0x2e
 2249 00e8 01       		.byte	0x1
 2250 00e9 03       		.uleb128 0x3
 2251 00ea 0E       		.uleb128 0xe
 2252 00eb 3A       		.uleb128 0x3a
 2253 00ec 0B       		.uleb128 0xb
 2254 00ed 3B       		.uleb128 0x3b
 2255 00ee 0B       		.uleb128 0xb
 2256 00ef 27       		.uleb128 0x27
 2257 00f0 0C       		.uleb128 0xc
 2258 00f1 20       		.uleb128 0x20
 2259 00f2 0B       		.uleb128 0xb
 2260 00f3 01       		.uleb128 0x1
 2261 00f4 13       		.uleb128 0x13
 2262 00f5 00       		.byte	0
 2263 00f6 00       		.byte	0
 2264 00f7 14       		.uleb128 0x14
 2265 00f8 34       		.uleb128 0x34
ARM GAS  /tmp/cciKPYbS.s 			page 41


 2266 00f9 00       		.byte	0
 2267 00fa 03       		.uleb128 0x3
 2268 00fb 08       		.uleb128 0x8
 2269 00fc 3A       		.uleb128 0x3a
 2270 00fd 0B       		.uleb128 0xb
 2271 00fe 3B       		.uleb128 0x3b
 2272 00ff 0B       		.uleb128 0xb
 2273 0100 49       		.uleb128 0x49
 2274 0101 13       		.uleb128 0x13
 2275 0102 00       		.byte	0
 2276 0103 00       		.byte	0
 2277 0104 15       		.uleb128 0x15
 2278 0105 2E       		.uleb128 0x2e
 2279 0106 01       		.byte	0x1
 2280 0107 3F       		.uleb128 0x3f
 2281 0108 0C       		.uleb128 0xc
 2282 0109 03       		.uleb128 0x3
 2283 010a 0E       		.uleb128 0xe
 2284 010b 3A       		.uleb128 0x3a
 2285 010c 0B       		.uleb128 0xb
 2286 010d 3B       		.uleb128 0x3b
 2287 010e 0B       		.uleb128 0xb
 2288 010f 27       		.uleb128 0x27
 2289 0110 0C       		.uleb128 0xc
 2290 0111 49       		.uleb128 0x49
 2291 0112 13       		.uleb128 0x13
 2292 0113 20       		.uleb128 0x20
 2293 0114 0B       		.uleb128 0xb
 2294 0115 01       		.uleb128 0x1
 2295 0116 13       		.uleb128 0x13
 2296 0117 00       		.byte	0
 2297 0118 00       		.byte	0
 2298 0119 16       		.uleb128 0x16
 2299 011a 2E       		.uleb128 0x2e
 2300 011b 01       		.byte	0x1
 2301 011c 3F       		.uleb128 0x3f
 2302 011d 0C       		.uleb128 0xc
 2303 011e 03       		.uleb128 0x3
 2304 011f 0E       		.uleb128 0xe
 2305 0120 3A       		.uleb128 0x3a
 2306 0121 0B       		.uleb128 0xb
 2307 0122 3B       		.uleb128 0x3b
 2308 0123 0B       		.uleb128 0xb
 2309 0124 27       		.uleb128 0x27
 2310 0125 0C       		.uleb128 0xc
 2311 0126 11       		.uleb128 0x11
 2312 0127 01       		.uleb128 0x1
 2313 0128 12       		.uleb128 0x12
 2314 0129 01       		.uleb128 0x1
 2315 012a 40       		.uleb128 0x40
 2316 012b 0A       		.uleb128 0xa
 2317 012c 01       		.uleb128 0x1
 2318 012d 13       		.uleb128 0x13
 2319 012e 00       		.byte	0
 2320 012f 00       		.byte	0
 2321 0130 17       		.uleb128 0x17
 2322 0131 05       		.uleb128 0x5
ARM GAS  /tmp/cciKPYbS.s 			page 42


 2323 0132 00       		.byte	0
 2324 0133 03       		.uleb128 0x3
 2325 0134 08       		.uleb128 0x8
 2326 0135 3A       		.uleb128 0x3a
 2327 0136 0B       		.uleb128 0xb
 2328 0137 3B       		.uleb128 0x3b
 2329 0138 0B       		.uleb128 0xb
 2330 0139 49       		.uleb128 0x49
 2331 013a 13       		.uleb128 0x13
 2332 013b 02       		.uleb128 0x2
 2333 013c 0A       		.uleb128 0xa
 2334 013d 00       		.byte	0
 2335 013e 00       		.byte	0
 2336 013f 18       		.uleb128 0x18
 2337 0140 2E       		.uleb128 0x2e
 2338 0141 01       		.byte	0x1
 2339 0142 3F       		.uleb128 0x3f
 2340 0143 0C       		.uleb128 0xc
 2341 0144 03       		.uleb128 0x3
 2342 0145 0E       		.uleb128 0xe
 2343 0146 3A       		.uleb128 0x3a
 2344 0147 0B       		.uleb128 0xb
 2345 0148 3B       		.uleb128 0x3b
 2346 0149 0B       		.uleb128 0xb
 2347 014a 27       		.uleb128 0x27
 2348 014b 0C       		.uleb128 0xc
 2349 014c 11       		.uleb128 0x11
 2350 014d 01       		.uleb128 0x1
 2351 014e 12       		.uleb128 0x12
 2352 014f 01       		.uleb128 0x1
 2353 0150 40       		.uleb128 0x40
 2354 0151 06       		.uleb128 0x6
 2355 0152 01       		.uleb128 0x1
 2356 0153 13       		.uleb128 0x13
 2357 0154 00       		.byte	0
 2358 0155 00       		.byte	0
 2359 0156 19       		.uleb128 0x19
 2360 0157 05       		.uleb128 0x5
 2361 0158 00       		.byte	0
 2362 0159 03       		.uleb128 0x3
 2363 015a 08       		.uleb128 0x8
 2364 015b 3A       		.uleb128 0x3a
 2365 015c 0B       		.uleb128 0xb
 2366 015d 3B       		.uleb128 0x3b
 2367 015e 0B       		.uleb128 0xb
 2368 015f 49       		.uleb128 0x49
 2369 0160 13       		.uleb128 0x13
 2370 0161 02       		.uleb128 0x2
 2371 0162 06       		.uleb128 0x6
 2372 0163 00       		.byte	0
 2373 0164 00       		.byte	0
 2374 0165 1A       		.uleb128 0x1a
 2375 0166 34       		.uleb128 0x34
 2376 0167 00       		.byte	0
 2377 0168 03       		.uleb128 0x3
 2378 0169 08       		.uleb128 0x8
 2379 016a 3A       		.uleb128 0x3a
ARM GAS  /tmp/cciKPYbS.s 			page 43


 2380 016b 0B       		.uleb128 0xb
 2381 016c 3B       		.uleb128 0x3b
 2382 016d 0B       		.uleb128 0xb
 2383 016e 49       		.uleb128 0x49
 2384 016f 13       		.uleb128 0x13
 2385 0170 02       		.uleb128 0x2
 2386 0171 06       		.uleb128 0x6
 2387 0172 00       		.byte	0
 2388 0173 00       		.byte	0
 2389 0174 1B       		.uleb128 0x1b
 2390 0175 0B       		.uleb128 0xb
 2391 0176 01       		.byte	0x1
 2392 0177 55       		.uleb128 0x55
 2393 0178 06       		.uleb128 0x6
 2394 0179 00       		.byte	0
 2395 017a 00       		.byte	0
 2396 017b 1C       		.uleb128 0x1c
 2397 017c 1D       		.uleb128 0x1d
 2398 017d 01       		.byte	0x1
 2399 017e 31       		.uleb128 0x31
 2400 017f 13       		.uleb128 0x13
 2401 0180 52       		.uleb128 0x52
 2402 0181 01       		.uleb128 0x1
 2403 0182 55       		.uleb128 0x55
 2404 0183 06       		.uleb128 0x6
 2405 0184 58       		.uleb128 0x58
 2406 0185 0B       		.uleb128 0xb
 2407 0186 59       		.uleb128 0x59
 2408 0187 0B       		.uleb128 0xb
 2409 0188 01       		.uleb128 0x1
 2410 0189 13       		.uleb128 0x13
 2411 018a 00       		.byte	0
 2412 018b 00       		.byte	0
 2413 018c 1D       		.uleb128 0x1d
 2414 018d 05       		.uleb128 0x5
 2415 018e 00       		.byte	0
 2416 018f 31       		.uleb128 0x31
 2417 0190 13       		.uleb128 0x13
 2418 0191 02       		.uleb128 0x2
 2419 0192 06       		.uleb128 0x6
 2420 0193 00       		.byte	0
 2421 0194 00       		.byte	0
 2422 0195 1E       		.uleb128 0x1e
 2423 0196 34       		.uleb128 0x34
 2424 0197 00       		.byte	0
 2425 0198 31       		.uleb128 0x31
 2426 0199 13       		.uleb128 0x13
 2427 019a 02       		.uleb128 0x2
 2428 019b 06       		.uleb128 0x6
 2429 019c 00       		.byte	0
 2430 019d 00       		.byte	0
 2431 019e 1F       		.uleb128 0x1f
 2432 019f 1D       		.uleb128 0x1d
 2433 01a0 01       		.byte	0x1
 2434 01a1 31       		.uleb128 0x31
 2435 01a2 13       		.uleb128 0x13
 2436 01a3 11       		.uleb128 0x11
ARM GAS  /tmp/cciKPYbS.s 			page 44


 2437 01a4 01       		.uleb128 0x1
 2438 01a5 12       		.uleb128 0x12
 2439 01a6 01       		.uleb128 0x1
 2440 01a7 58       		.uleb128 0x58
 2441 01a8 0B       		.uleb128 0xb
 2442 01a9 59       		.uleb128 0x59
 2443 01aa 0B       		.uleb128 0xb
 2444 01ab 01       		.uleb128 0x1
 2445 01ac 13       		.uleb128 0x13
 2446 01ad 00       		.byte	0
 2447 01ae 00       		.byte	0
 2448 01af 20       		.uleb128 0x20
 2449 01b0 0B       		.uleb128 0xb
 2450 01b1 01       		.byte	0x1
 2451 01b2 11       		.uleb128 0x11
 2452 01b3 01       		.uleb128 0x1
 2453 01b4 12       		.uleb128 0x12
 2454 01b5 01       		.uleb128 0x1
 2455 01b6 00       		.byte	0
 2456 01b7 00       		.byte	0
 2457 01b8 21       		.uleb128 0x21
 2458 01b9 1D       		.uleb128 0x1d
 2459 01ba 01       		.byte	0x1
 2460 01bb 31       		.uleb128 0x31
 2461 01bc 13       		.uleb128 0x13
 2462 01bd 52       		.uleb128 0x52
 2463 01be 01       		.uleb128 0x1
 2464 01bf 55       		.uleb128 0x55
 2465 01c0 06       		.uleb128 0x6
 2466 01c1 58       		.uleb128 0x58
 2467 01c2 0B       		.uleb128 0xb
 2468 01c3 59       		.uleb128 0x59
 2469 01c4 0B       		.uleb128 0xb
 2470 01c5 00       		.byte	0
 2471 01c6 00       		.byte	0
 2472 01c7 22       		.uleb128 0x22
 2473 01c8 0B       		.uleb128 0xb
 2474 01c9 01       		.byte	0x1
 2475 01ca 11       		.uleb128 0x11
 2476 01cb 01       		.uleb128 0x1
 2477 01cc 12       		.uleb128 0x12
 2478 01cd 01       		.uleb128 0x1
 2479 01ce 01       		.uleb128 0x1
 2480 01cf 13       		.uleb128 0x13
 2481 01d0 00       		.byte	0
 2482 01d1 00       		.byte	0
 2483 01d2 23       		.uleb128 0x23
 2484 01d3 2E       		.uleb128 0x2e
 2485 01d4 01       		.byte	0x1
 2486 01d5 3F       		.uleb128 0x3f
 2487 01d6 0C       		.uleb128 0xc
 2488 01d7 03       		.uleb128 0x3
 2489 01d8 0E       		.uleb128 0xe
 2490 01d9 3A       		.uleb128 0x3a
 2491 01da 0B       		.uleb128 0xb
 2492 01db 3B       		.uleb128 0x3b
 2493 01dc 0B       		.uleb128 0xb
ARM GAS  /tmp/cciKPYbS.s 			page 45


 2494 01dd 27       		.uleb128 0x27
 2495 01de 0C       		.uleb128 0xc
 2496 01df 49       		.uleb128 0x49
 2497 01e0 13       		.uleb128 0x13
 2498 01e1 11       		.uleb128 0x11
 2499 01e2 01       		.uleb128 0x1
 2500 01e3 12       		.uleb128 0x12
 2501 01e4 01       		.uleb128 0x1
 2502 01e5 40       		.uleb128 0x40
 2503 01e6 0A       		.uleb128 0xa
 2504 01e7 01       		.uleb128 0x1
 2505 01e8 13       		.uleb128 0x13
 2506 01e9 00       		.byte	0
 2507 01ea 00       		.byte	0
 2508 01eb 24       		.uleb128 0x24
 2509 01ec 34       		.uleb128 0x34
 2510 01ed 00       		.byte	0
 2511 01ee 03       		.uleb128 0x3
 2512 01ef 08       		.uleb128 0x8
 2513 01f0 3A       		.uleb128 0x3a
 2514 01f1 0B       		.uleb128 0xb
 2515 01f2 3B       		.uleb128 0x3b
 2516 01f3 0B       		.uleb128 0xb
 2517 01f4 49       		.uleb128 0x49
 2518 01f5 13       		.uleb128 0x13
 2519 01f6 02       		.uleb128 0x2
 2520 01f7 0A       		.uleb128 0xa
 2521 01f8 00       		.byte	0
 2522 01f9 00       		.byte	0
 2523 01fa 25       		.uleb128 0x25
 2524 01fb 2E       		.uleb128 0x2e
 2525 01fc 01       		.byte	0x1
 2526 01fd 31       		.uleb128 0x31
 2527 01fe 13       		.uleb128 0x13
 2528 01ff 11       		.uleb128 0x11
 2529 0200 01       		.uleb128 0x1
 2530 0201 12       		.uleb128 0x12
 2531 0202 01       		.uleb128 0x1
 2532 0203 40       		.uleb128 0x40
 2533 0204 0A       		.uleb128 0xa
 2534 0205 01       		.uleb128 0x1
 2535 0206 13       		.uleb128 0x13
 2536 0207 00       		.byte	0
 2537 0208 00       		.byte	0
 2538 0209 26       		.uleb128 0x26
 2539 020a 2E       		.uleb128 0x2e
 2540 020b 01       		.byte	0x1
 2541 020c 3F       		.uleb128 0x3f
 2542 020d 0C       		.uleb128 0xc
 2543 020e 03       		.uleb128 0x3
 2544 020f 0E       		.uleb128 0xe
 2545 0210 3A       		.uleb128 0x3a
 2546 0211 0B       		.uleb128 0xb
 2547 0212 3B       		.uleb128 0x3b
 2548 0213 05       		.uleb128 0x5
 2549 0214 27       		.uleb128 0x27
 2550 0215 0C       		.uleb128 0xc
ARM GAS  /tmp/cciKPYbS.s 			page 46


 2551 0216 49       		.uleb128 0x49
 2552 0217 13       		.uleb128 0x13
 2553 0218 11       		.uleb128 0x11
 2554 0219 01       		.uleb128 0x1
 2555 021a 12       		.uleb128 0x12
 2556 021b 01       		.uleb128 0x1
 2557 021c 40       		.uleb128 0x40
 2558 021d 06       		.uleb128 0x6
 2559 021e 01       		.uleb128 0x1
 2560 021f 13       		.uleb128 0x13
 2561 0220 00       		.byte	0
 2562 0221 00       		.byte	0
 2563 0222 27       		.uleb128 0x27
 2564 0223 34       		.uleb128 0x34
 2565 0224 00       		.byte	0
 2566 0225 03       		.uleb128 0x3
 2567 0226 08       		.uleb128 0x8
 2568 0227 3A       		.uleb128 0x3a
 2569 0228 0B       		.uleb128 0xb
 2570 0229 3B       		.uleb128 0x3b
 2571 022a 05       		.uleb128 0x5
 2572 022b 49       		.uleb128 0x49
 2573 022c 13       		.uleb128 0x13
 2574 022d 02       		.uleb128 0x2
 2575 022e 06       		.uleb128 0x6
 2576 022f 00       		.byte	0
 2577 0230 00       		.byte	0
 2578 0231 28       		.uleb128 0x28
 2579 0232 34       		.uleb128 0x34
 2580 0233 00       		.byte	0
 2581 0234 03       		.uleb128 0x3
 2582 0235 08       		.uleb128 0x8
 2583 0236 3A       		.uleb128 0x3a
 2584 0237 0B       		.uleb128 0xb
 2585 0238 3B       		.uleb128 0x3b
 2586 0239 05       		.uleb128 0x5
 2587 023a 49       		.uleb128 0x49
 2588 023b 13       		.uleb128 0x13
 2589 023c 00       		.byte	0
 2590 023d 00       		.byte	0
 2591 023e 29       		.uleb128 0x29
 2592 023f 34       		.uleb128 0x34
 2593 0240 00       		.byte	0
 2594 0241 03       		.uleb128 0x3
 2595 0242 0E       		.uleb128 0xe
 2596 0243 3A       		.uleb128 0x3a
 2597 0244 0B       		.uleb128 0xb
 2598 0245 3B       		.uleb128 0x3b
 2599 0246 05       		.uleb128 0x5
 2600 0247 49       		.uleb128 0x49
 2601 0248 13       		.uleb128 0x13
 2602 0249 02       		.uleb128 0x2
 2603 024a 06       		.uleb128 0x6
 2604 024b 00       		.byte	0
 2605 024c 00       		.byte	0
 2606 024d 2A       		.uleb128 0x2a
 2607 024e 1D       		.uleb128 0x1d
ARM GAS  /tmp/cciKPYbS.s 			page 47


 2608 024f 01       		.byte	0x1
 2609 0250 31       		.uleb128 0x31
 2610 0251 13       		.uleb128 0x13
 2611 0252 52       		.uleb128 0x52
 2612 0253 01       		.uleb128 0x1
 2613 0254 55       		.uleb128 0x55
 2614 0255 06       		.uleb128 0x6
 2615 0256 58       		.uleb128 0x58
 2616 0257 0B       		.uleb128 0xb
 2617 0258 59       		.uleb128 0x59
 2618 0259 05       		.uleb128 0x5
 2619 025a 00       		.byte	0
 2620 025b 00       		.byte	0
 2621 025c 2B       		.uleb128 0x2b
 2622 025d 34       		.uleb128 0x34
 2623 025e 00       		.byte	0
 2624 025f 31       		.uleb128 0x31
 2625 0260 13       		.uleb128 0x13
 2626 0261 00       		.byte	0
 2627 0262 00       		.byte	0
 2628 0263 2C       		.uleb128 0x2c
 2629 0264 2E       		.uleb128 0x2e
 2630 0265 01       		.byte	0x1
 2631 0266 3F       		.uleb128 0x3f
 2632 0267 0C       		.uleb128 0xc
 2633 0268 03       		.uleb128 0x3
 2634 0269 0E       		.uleb128 0xe
 2635 026a 3A       		.uleb128 0x3a
 2636 026b 0B       		.uleb128 0xb
 2637 026c 3B       		.uleb128 0x3b
 2638 026d 05       		.uleb128 0x5
 2639 026e 27       		.uleb128 0x27
 2640 026f 0C       		.uleb128 0xc
 2641 0270 11       		.uleb128 0x11
 2642 0271 01       		.uleb128 0x1
 2643 0272 12       		.uleb128 0x12
 2644 0273 01       		.uleb128 0x1
 2645 0274 40       		.uleb128 0x40
 2646 0275 06       		.uleb128 0x6
 2647 0276 01       		.uleb128 0x1
 2648 0277 13       		.uleb128 0x13
 2649 0278 00       		.byte	0
 2650 0279 00       		.byte	0
 2651 027a 2D       		.uleb128 0x2d
 2652 027b 0B       		.uleb128 0xb
 2653 027c 01       		.byte	0x1
 2654 027d 55       		.uleb128 0x55
 2655 027e 06       		.uleb128 0x6
 2656 027f 01       		.uleb128 0x1
 2657 0280 13       		.uleb128 0x13
 2658 0281 00       		.byte	0
 2659 0282 00       		.byte	0
 2660 0283 2E       		.uleb128 0x2e
 2661 0284 34       		.uleb128 0x34
 2662 0285 00       		.byte	0
 2663 0286 03       		.uleb128 0x3
 2664 0287 0E       		.uleb128 0xe
ARM GAS  /tmp/cciKPYbS.s 			page 48


 2665 0288 3A       		.uleb128 0x3a
 2666 0289 0B       		.uleb128 0xb
 2667 028a 3B       		.uleb128 0x3b
 2668 028b 0B       		.uleb128 0xb
 2669 028c 49       		.uleb128 0x49
 2670 028d 13       		.uleb128 0x13
 2671 028e 3F       		.uleb128 0x3f
 2672 028f 0C       		.uleb128 0xc
 2673 0290 3C       		.uleb128 0x3c
 2674 0291 0C       		.uleb128 0xc
 2675 0292 00       		.byte	0
 2676 0293 00       		.byte	0
 2677 0294 00       		.byte	0
 2678              		.section	.debug_loc,"",%progbits
 2679              	.Ldebug_loc0:
 2680              	.LLST0:
 2681 0000 00000000 		.4byte	.LFB9
 2682 0004 02000000 		.4byte	.LCFI0
 2683 0008 0200     		.2byte	0x2
 2684 000a 7D       		.byte	0x7d
 2685 000b 00       		.sleb128 0
 2686 000c 02000000 		.4byte	.LCFI0
 2687 0010 C4000000 		.4byte	.LFE9
 2688 0014 0200     		.2byte	0x2
 2689 0016 7D       		.byte	0x7d
 2690 0017 18       		.sleb128 24
 2691 0018 00000000 		.4byte	0
 2692 001c 00000000 		.4byte	0
 2693              	.LLST1:
 2694 0020 00000000 		.4byte	.LVL1
 2695 0024 0E000000 		.4byte	.LVL2
 2696 0028 0100     		.2byte	0x1
 2697 002a 50       		.byte	0x50
 2698 002b 0E000000 		.4byte	.LVL2
 2699 002f C4000000 		.4byte	.LFE9
 2700 0033 0100     		.2byte	0x1
 2701 0035 55       		.byte	0x55
 2702 0036 00000000 		.4byte	0
 2703 003a 00000000 		.4byte	0
 2704              	.LLST2:
 2705 003e 10000000 		.4byte	.LVL3
 2706 0042 1C000000 		.4byte	.LVL5
 2707 0046 0200     		.2byte	0x2
 2708 0048 73       		.byte	0x73
 2709 0049 1C       		.sleb128 28
 2710 004a 2A000000 		.4byte	.LVL6
 2711 004e C4000000 		.4byte	.LFE9
 2712 0052 0100     		.2byte	0x1
 2713 0054 54       		.byte	0x54
 2714 0055 00000000 		.4byte	0
 2715 0059 00000000 		.4byte	0
 2716              	.LLST3:
 2717 005d 14000000 		.4byte	.LVL4
 2718 0061 1C000000 		.4byte	.LVL5
 2719 0065 0200     		.2byte	0x2
 2720 0067 75       		.byte	0x75
 2721 0068 08       		.sleb128 8
ARM GAS  /tmp/cciKPYbS.s 			page 49


 2722 0069 1C000000 		.4byte	.LVL5
 2723 006d 2A000000 		.4byte	.LVL6
 2724 0071 0100     		.2byte	0x1
 2725 0073 50       		.byte	0x50
 2726 0074 50000000 		.4byte	.LVL9
 2727 0078 5D000000 		.4byte	.LVL10-1
 2728 007c 0100     		.2byte	0x1
 2729 007e 50       		.byte	0x50
 2730 007f 60000000 		.4byte	.LVL11
 2731 0083 AC000000 		.4byte	.LVL20
 2732 0087 0100     		.2byte	0x1
 2733 0089 50       		.byte	0x50
 2734 008a AC000000 		.4byte	.LVL20
 2735 008e B6000000 		.4byte	.LVL22
 2736 0092 0200     		.2byte	0x2
 2737 0094 76       		.byte	0x76
 2738 0095 08       		.sleb128 8
 2739 0096 C0000000 		.4byte	.LVL23
 2740 009a C4000000 		.4byte	.LFE9
 2741 009e 0100     		.2byte	0x1
 2742 00a0 50       		.byte	0x50
 2743 00a1 00000000 		.4byte	0
 2744 00a5 00000000 		.4byte	0
 2745              	.LLST4:
 2746 00a9 2A000000 		.4byte	.LVL6
 2747 00ad 50000000 		.4byte	.LVL9
 2748 00b1 0100     		.2byte	0x1
 2749 00b3 55       		.byte	0x55
 2750 00b4 00000000 		.4byte	0
 2751 00b8 00000000 		.4byte	0
 2752              	.LLST5:
 2753 00bc 2A000000 		.4byte	.LVL6
 2754 00c0 50000000 		.4byte	.LVL9
 2755 00c4 0100     		.2byte	0x1
 2756 00c6 54       		.byte	0x54
 2757 00c7 00000000 		.4byte	0
 2758 00cb 00000000 		.4byte	0
 2759              	.LLST6:
 2760 00cf 2A000000 		.4byte	.LVL6
 2761 00d3 2C000000 		.4byte	.LVL7
 2762 00d7 0100     		.2byte	0x1
 2763 00d9 55       		.byte	0x55
 2764 00da 2C000000 		.4byte	.LVL7
 2765 00de 4F000000 		.4byte	.LVL9-1
 2766 00e2 0100     		.2byte	0x1
 2767 00e4 53       		.byte	0x53
 2768 00e5 00000000 		.4byte	0
 2769 00e9 00000000 		.4byte	0
 2770              	.LLST7:
 2771 00ed 50000000 		.4byte	.LVL9
 2772 00f1 5D000000 		.4byte	.LVL10-1
 2773 00f5 0100     		.2byte	0x1
 2774 00f7 50       		.byte	0x50
 2775 00f8 00000000 		.4byte	0
 2776 00fc 00000000 		.4byte	0
 2777              	.LLST8:
 2778 0100 60000000 		.4byte	.LVL11
ARM GAS  /tmp/cciKPYbS.s 			page 50


 2779 0104 86000000 		.4byte	.LVL15
 2780 0108 0100     		.2byte	0x1
 2781 010a 50       		.byte	0x50
 2782 010b 00000000 		.4byte	0
 2783 010f 00000000 		.4byte	0
 2784              	.LLST9:
 2785 0113 66000000 		.4byte	.LVL12
 2786 0117 86000000 		.4byte	.LVL15
 2787 011b 0200     		.2byte	0x2
 2788 011d 70       		.byte	0x70
 2789 011e 24       		.sleb128 36
 2790 011f 00000000 		.4byte	0
 2791 0123 00000000 		.4byte	0
 2792              	.LLST10:
 2793 0127 66000000 		.4byte	.LVL12
 2794 012b 86000000 		.4byte	.LVL15
 2795 012f 0100     		.2byte	0x1
 2796 0131 50       		.byte	0x50
 2797 0132 00000000 		.4byte	0
 2798 0136 00000000 		.4byte	0
 2799              	.LLST11:
 2800 013a 66000000 		.4byte	.LVL12
 2801 013e 6E000000 		.4byte	.LVL13
 2802 0142 0200     		.2byte	0x2
 2803 0144 70       		.byte	0x70
 2804 0145 24       		.sleb128 36
 2805 0146 6E000000 		.4byte	.LVL13
 2806 014a 86000000 		.4byte	.LVL15
 2807 014e 0100     		.2byte	0x1
 2808 0150 53       		.byte	0x53
 2809 0151 00000000 		.4byte	0
 2810 0155 00000000 		.4byte	0
 2811              	.LLST12:
 2812 0159 86000000 		.4byte	.LVL15
 2813 015d AC000000 		.4byte	.LVL20
 2814 0161 0100     		.2byte	0x1
 2815 0163 50       		.byte	0x50
 2816 0164 AC000000 		.4byte	.LVL20
 2817 0168 B0000000 		.4byte	.LVL21
 2818 016c 0200     		.2byte	0x2
 2819 016e 73       		.byte	0x73
 2820 016f 04       		.sleb128 4
 2821 0170 C0000000 		.4byte	.LVL23
 2822 0174 C4000000 		.4byte	.LFE9
 2823 0178 0100     		.2byte	0x1
 2824 017a 50       		.byte	0x50
 2825 017b 00000000 		.4byte	0
 2826 017f 00000000 		.4byte	0
 2827              	.LLST13:
 2828 0183 8C000000 		.4byte	.LVL16
 2829 0187 AC000000 		.4byte	.LVL20
 2830 018b 0200     		.2byte	0x2
 2831 018d 70       		.byte	0x70
 2832 018e 24       		.sleb128 36
 2833 018f AC000000 		.4byte	.LVL20
 2834 0193 B6000000 		.4byte	.LVL22
 2835 0197 0100     		.2byte	0x1
ARM GAS  /tmp/cciKPYbS.s 			page 51


 2836 0199 56       		.byte	0x56
 2837 019a C0000000 		.4byte	.LVL23
 2838 019e C4000000 		.4byte	.LFE9
 2839 01a2 0100     		.2byte	0x1
 2840 01a4 56       		.byte	0x56
 2841 01a5 00000000 		.4byte	0
 2842 01a9 00000000 		.4byte	0
 2843              	.LLST14:
 2844 01ad 8C000000 		.4byte	.LVL16
 2845 01b1 AC000000 		.4byte	.LVL20
 2846 01b5 0100     		.2byte	0x1
 2847 01b7 50       		.byte	0x50
 2848 01b8 AC000000 		.4byte	.LVL20
 2849 01bc B0000000 		.4byte	.LVL21
 2850 01c0 0200     		.2byte	0x2
 2851 01c2 73       		.byte	0x73
 2852 01c3 04       		.sleb128 4
 2853 01c4 C0000000 		.4byte	.LVL23
 2854 01c8 C4000000 		.4byte	.LFE9
 2855 01cc 0100     		.2byte	0x1
 2856 01ce 50       		.byte	0x50
 2857 01cf 00000000 		.4byte	0
 2858 01d3 00000000 		.4byte	0
 2859              	.LLST15:
 2860 01d7 8C000000 		.4byte	.LVL16
 2861 01db 94000000 		.4byte	.LVL17
 2862 01df 0200     		.2byte	0x2
 2863 01e1 70       		.byte	0x70
 2864 01e2 24       		.sleb128 36
 2865 01e3 94000000 		.4byte	.LVL17
 2866 01e7 A0000000 		.4byte	.LVL19
 2867 01eb 0100     		.2byte	0x1
 2868 01ed 53       		.byte	0x53
 2869 01ee C0000000 		.4byte	.LVL23
 2870 01f2 C2000000 		.4byte	.LVL24
 2871 01f6 0100     		.2byte	0x1
 2872 01f8 53       		.byte	0x53
 2873 01f9 00000000 		.4byte	0
 2874 01fd 00000000 		.4byte	0
 2875              	.LLST16:
 2876 0201 00000000 		.4byte	.LFB8
 2877 0205 02000000 		.4byte	.LCFI1
 2878 0209 0200     		.2byte	0x2
 2879 020b 7D       		.byte	0x7d
 2880 020c 00       		.sleb128 0
 2881 020d 02000000 		.4byte	.LCFI1
 2882 0211 14000000 		.4byte	.LFE8
 2883 0215 0200     		.2byte	0x2
 2884 0217 7D       		.byte	0x7d
 2885 0218 08       		.sleb128 8
 2886 0219 00000000 		.4byte	0
 2887 021d 00000000 		.4byte	0
 2888              	.LLST17:
 2889 0221 00000000 		.4byte	.LVL25
 2890 0225 0B000000 		.4byte	.LVL28-1
 2891 0229 0100     		.2byte	0x1
 2892 022b 50       		.byte	0x50
ARM GAS  /tmp/cciKPYbS.s 			page 52


 2893 022c 00000000 		.4byte	0
 2894 0230 00000000 		.4byte	0
 2895              	.LLST18:
 2896 0234 08000000 		.4byte	.LVL27
 2897 0238 0B000000 		.4byte	.LVL28-1
 2898 023c 0100     		.2byte	0x1
 2899 023e 53       		.byte	0x53
 2900 023f 00000000 		.4byte	0
 2901 0243 00000000 		.4byte	0
 2902              	.LLST19:
 2903 0247 12000000 		.4byte	.LVL30
 2904 024b 14000000 		.4byte	.LFE8
 2905 024f 0100     		.2byte	0x1
 2906 0251 53       		.byte	0x53
 2907 0252 00000000 		.4byte	0
 2908 0256 00000000 		.4byte	0
 2909              	.LLST20:
 2910 025a 00000000 		.4byte	.LVL31
 2911 025e 0C000000 		.4byte	.LVL35
 2912 0262 0100     		.2byte	0x1
 2913 0264 50       		.byte	0x50
 2914 0265 26000000 		.4byte	.LVL39
 2915 0269 34000000 		.4byte	.LFE10
 2916 026d 0100     		.2byte	0x1
 2917 026f 52       		.byte	0x52
 2918 0270 00000000 		.4byte	0
 2919 0274 00000000 		.4byte	0
 2920              	.LLST21:
 2921 0278 08000000 		.4byte	.LVL33
 2922 027c 0A000000 		.4byte	.LVL34
 2923 0280 0100     		.2byte	0x1
 2924 0282 53       		.byte	0x53
 2925 0283 00000000 		.4byte	0
 2926 0287 00000000 		.4byte	0
 2927              	.LLST22:
 2928 028b 08000000 		.4byte	.LVL33
 2929 028f 0C000000 		.4byte	.LVL35
 2930 0293 0100     		.2byte	0x1
 2931 0295 50       		.byte	0x50
 2932 0296 0C000000 		.4byte	.LVL35
 2933 029a 34000000 		.4byte	.LFE10
 2934 029e 0100     		.2byte	0x1
 2935 02a0 52       		.byte	0x52
 2936 02a1 00000000 		.4byte	0
 2937 02a5 00000000 		.4byte	0
 2938              	.LLST23:
 2939 02a9 14000000 		.4byte	.LVL37
 2940 02ad 16000000 		.4byte	.LVL38
 2941 02b1 0100     		.2byte	0x1
 2942 02b3 53       		.byte	0x53
 2943 02b4 32000000 		.4byte	.LVL40
 2944 02b8 34000000 		.4byte	.LFE10
 2945 02bc 0100     		.2byte	0x1
 2946 02be 53       		.byte	0x53
 2947 02bf 00000000 		.4byte	0
 2948 02c3 00000000 		.4byte	0
 2949              	.LLST24:
ARM GAS  /tmp/cciKPYbS.s 			page 53


 2950 02c7 00000000 		.4byte	.LVL41
 2951 02cb 08000000 		.4byte	.LVL42
 2952 02cf 0100     		.2byte	0x1
 2953 02d1 50       		.byte	0x50
 2954 02d2 08000000 		.4byte	.LVL42
 2955 02d6 22000000 		.4byte	.LFE11
 2956 02da 0100     		.2byte	0x1
 2957 02dc 53       		.byte	0x53
 2958 02dd 00000000 		.4byte	0
 2959 02e1 00000000 		.4byte	0
 2960              	.LLST25:
 2961 02e5 00000000 		.4byte	.LFB12
 2962 02e9 0A000000 		.4byte	.LCFI2
 2963 02ed 0200     		.2byte	0x2
 2964 02ef 7D       		.byte	0x7d
 2965 02f0 00       		.sleb128 0
 2966 02f1 0A000000 		.4byte	.LCFI2
 2967 02f5 66000000 		.4byte	.LFE12
 2968 02f9 0200     		.2byte	0x2
 2969 02fb 7D       		.byte	0x7d
 2970 02fc 18       		.sleb128 24
 2971 02fd 00000000 		.4byte	0
 2972 0301 00000000 		.4byte	0
 2973              	.LLST26:
 2974 0305 58000000 		.4byte	.LVL57
 2975 0309 66000000 		.4byte	.LFE12
 2976 030d 0100     		.2byte	0x1
 2977 030f 52       		.byte	0x52
 2978 0310 00000000 		.4byte	0
 2979 0314 00000000 		.4byte	0
 2980              	.LLST27:
 2981 0318 4D000000 		.4byte	.LVL54-1
 2982 031c 66000000 		.4byte	.LFE12
 2983 0320 0100     		.2byte	0x1
 2984 0322 54       		.byte	0x54
 2985 0323 00000000 		.4byte	0
 2986 0327 00000000 		.4byte	0
 2987              	.LLST28:
 2988 032b 22000000 		.4byte	.LVL49
 2989 032f 42000000 		.4byte	.LVL53
 2990 0333 0100     		.2byte	0x1
 2991 0335 51       		.byte	0x51
 2992 0336 00000000 		.4byte	0
 2993 033a 00000000 		.4byte	0
 2994              	.LLST29:
 2995 033e 12000000 		.4byte	.LVL45
 2996 0342 16000000 		.4byte	.LVL47
 2997 0346 0100     		.2byte	0x1
 2998 0348 53       		.byte	0x53
 2999 0349 00000000 		.4byte	0
 3000 034d 00000000 		.4byte	0
 3001              	.LLST30:
 3002 0351 22000000 		.4byte	.LVL49
 3003 0355 58000000 		.4byte	.LVL57
 3004 0359 0100     		.2byte	0x1
 3005 035b 57       		.byte	0x57
 3006 035c 00000000 		.4byte	0
ARM GAS  /tmp/cciKPYbS.s 			page 54


 3007 0360 00000000 		.4byte	0
 3008              	.LLST31:
 3009 0364 4D000000 		.4byte	.LVL54-1
 3010 0368 58000000 		.4byte	.LVL57
 3011 036c 0100     		.2byte	0x1
 3012 036e 54       		.byte	0x54
 3013 036f 00000000 		.4byte	0
 3014 0373 00000000 		.4byte	0
 3015              	.LLST32:
 3016 0377 54000000 		.4byte	.LVL56
 3017 037b 58000000 		.4byte	.LVL57
 3018 037f 0100     		.2byte	0x1
 3019 0381 53       		.byte	0x53
 3020 0382 62000000 		.4byte	.LVL58
 3021 0386 66000000 		.4byte	.LFE12
 3022 038a 0100     		.2byte	0x1
 3023 038c 53       		.byte	0x53
 3024 038d 00000000 		.4byte	0
 3025 0391 00000000 		.4byte	0
 3026              	.LLST33:
 3027 0395 00000000 		.4byte	.LFB13
 3028 0399 0A000000 		.4byte	.LCFI3
 3029 039d 0200     		.2byte	0x2
 3030 039f 7D       		.byte	0x7d
 3031 03a0 00       		.sleb128 0
 3032 03a1 0A000000 		.4byte	.LCFI3
 3033 03a5 52000000 		.4byte	.LFE13
 3034 03a9 0200     		.2byte	0x2
 3035 03ab 7D       		.byte	0x7d
 3036 03ac 10       		.sleb128 16
 3037 03ad 00000000 		.4byte	0
 3038 03b1 00000000 		.4byte	0
 3039              	.LLST34:
 3040 03b5 0C000000 		.4byte	.LVL59
 3041 03b9 10000000 		.4byte	.LVL61
 3042 03bd 0200     		.2byte	0x2
 3043 03bf 73       		.byte	0x73
 3044 03c0 1C       		.sleb128 28
 3045 03c1 4A000000 		.4byte	.LVL69
 3046 03c5 4C000000 		.4byte	.LVL70
 3047 03c9 0100     		.2byte	0x1
 3048 03cb 51       		.byte	0x51
 3049 03cc 00000000 		.4byte	0
 3050 03d0 00000000 		.4byte	0
 3051              	.LLST35:
 3052 03d4 0E000000 		.4byte	.LVL60
 3053 03d8 10000000 		.4byte	.LVL61
 3054 03dc 0500     		.2byte	0x5
 3055 03de 73       		.byte	0x73
 3056 03df 1C       		.sleb128 28
 3057 03e0 06       		.byte	0x6
 3058 03e1 23       		.byte	0x23
 3059 03e2 3C       		.uleb128 0x3c
 3060 03e3 45000000 		.4byte	.LVL68-1
 3061 03e7 52000000 		.4byte	.LFE13
 3062 03eb 0100     		.2byte	0x1
 3063 03ed 54       		.byte	0x54
ARM GAS  /tmp/cciKPYbS.s 			page 55


 3064 03ee 00000000 		.4byte	0
 3065 03f2 00000000 		.4byte	0
 3066              	.LLST36:
 3067 03f6 1C000000 		.4byte	.LVL63
 3068 03fa 32000000 		.4byte	.LVL66
 3069 03fe 0100     		.2byte	0x1
 3070 0400 52       		.byte	0x52
 3071 0401 00000000 		.4byte	0
 3072 0405 00000000 		.4byte	0
 3073              	.LLST37:
 3074 0409 1C000000 		.4byte	.LVL63
 3075 040d 4A000000 		.4byte	.LVL69
 3076 0411 0100     		.2byte	0x1
 3077 0413 56       		.byte	0x56
 3078 0414 00000000 		.4byte	0
 3079 0418 00000000 		.4byte	0
 3080              	.LLST38:
 3081 041c 45000000 		.4byte	.LVL68-1
 3082 0420 4A000000 		.4byte	.LVL69
 3083 0424 0100     		.2byte	0x1
 3084 0426 54       		.byte	0x54
 3085 0427 00000000 		.4byte	0
 3086 042b 00000000 		.4byte	0
 3087              	.LLST39:
 3088 042f 00000000 		.4byte	.LFB14
 3089 0433 0A000000 		.4byte	.LCFI4
 3090 0437 0200     		.2byte	0x2
 3091 0439 7D       		.byte	0x7d
 3092 043a 00       		.sleb128 0
 3093 043b 0A000000 		.4byte	.LCFI4
 3094 043f 50000000 		.4byte	.LFE14
 3095 0443 0200     		.2byte	0x2
 3096 0445 7D       		.byte	0x7d
 3097 0446 10       		.sleb128 16
 3098 0447 00000000 		.4byte	0
 3099 044b 00000000 		.4byte	0
 3100              	.LLST40:
 3101 044f 0E000000 		.4byte	.LVL72
 3102 0453 18000000 		.4byte	.LVL75
 3103 0457 0200     		.2byte	0x2
 3104 0459 72       		.byte	0x72
 3105 045a 1C       		.sleb128 28
 3106 045b 18000000 		.4byte	.LVL75
 3107 045f 50000000 		.4byte	.LFE14
 3108 0463 0100     		.2byte	0x1
 3109 0465 54       		.byte	0x54
 3110 0466 00000000 		.4byte	0
 3111 046a 00000000 		.4byte	0
 3112              	.LLST41:
 3113 046e 12000000 		.4byte	.LVL73
 3114 0472 14000000 		.4byte	.LVL74
 3115 0476 0100     		.2byte	0x1
 3116 0478 53       		.byte	0x53
 3117 0479 00000000 		.4byte	0
 3118 047d 00000000 		.4byte	0
 3119              	.LLST42:
 3120 0481 18000000 		.4byte	.LVL75
ARM GAS  /tmp/cciKPYbS.s 			page 56


 3121 0485 39000000 		.4byte	.LVL77-1
 3122 0489 0100     		.2byte	0x1
 3123 048b 53       		.byte	0x53
 3124 048c 00000000 		.4byte	0
 3125 0490 00000000 		.4byte	0
 3126              	.LLST43:
 3127 0494 26000000 		.4byte	.LVL76
 3128 0498 39000000 		.4byte	.LVL77-1
 3129 049c 0100     		.2byte	0x1
 3130 049e 53       		.byte	0x53
 3131 049f 00000000 		.4byte	0
 3132 04a3 00000000 		.4byte	0
 3133              	.LLST44:
 3134 04a7 26000000 		.4byte	.LVL76
 3135 04ab 39000000 		.4byte	.LVL77-1
 3136 04af 0200     		.2byte	0x2
 3137 04b1 73       		.byte	0x73
 3138 04b2 00       		.sleb128 0
 3139 04b3 00000000 		.4byte	0
 3140 04b7 00000000 		.4byte	0
 3141              	.LLST45:
 3142 04bb 4E000000 		.4byte	.LVL79
 3143 04bf 50000000 		.4byte	.LFE14
 3144 04c3 0100     		.2byte	0x1
 3145 04c5 53       		.byte	0x53
 3146 04c6 00000000 		.4byte	0
 3147 04ca 00000000 		.4byte	0
 3148              		.section	.debug_aranges,"",%progbits
 3149 0000 54000000 		.4byte	0x54
 3150 0004 0200     		.2byte	0x2
 3151 0006 00000000 		.4byte	.Ldebug_info0
 3152 000a 04       		.byte	0x4
 3153 000b 00       		.byte	0
 3154 000c 0000     		.2byte	0
 3155 000e 0000     		.2byte	0
 3156 0010 00000000 		.4byte	.LFB7
 3157 0014 0A000000 		.4byte	.LFE7-.LFB7
 3158 0018 00000000 		.4byte	.LFB9
 3159 001c C4000000 		.4byte	.LFE9-.LFB9
 3160 0020 00000000 		.4byte	.LFB8
 3161 0024 14000000 		.4byte	.LFE8-.LFB8
 3162 0028 00000000 		.4byte	.LFB10
 3163 002c 34000000 		.4byte	.LFE10-.LFB10
 3164 0030 00000000 		.4byte	.LFB11
 3165 0034 22000000 		.4byte	.LFE11-.LFB11
 3166 0038 00000000 		.4byte	.LFB12
 3167 003c 66000000 		.4byte	.LFE12-.LFB12
 3168 0040 00000000 		.4byte	.LFB13
 3169 0044 52000000 		.4byte	.LFE13-.LFB13
 3170 0048 00000000 		.4byte	.LFB14
 3171 004c 50000000 		.4byte	.LFE14-.LFB14
 3172 0050 00000000 		.4byte	0
 3173 0054 00000000 		.4byte	0
 3174              		.section	.debug_ranges,"",%progbits
 3175              	.Ldebug_ranges0:
 3176 0000 14000000 		.4byte	.LBB33
 3177 0004 48000000 		.4byte	.LBE33
ARM GAS  /tmp/cciKPYbS.s 			page 57


 3178 0008 4C000000 		.4byte	.LBB58
 3179 000c B6000000 		.4byte	.LBE58
 3180 0010 C0000000 		.4byte	.LBB59
 3181 0014 C4000000 		.4byte	.LBE59
 3182 0018 00000000 		.4byte	0
 3183 001c 00000000 		.4byte	0
 3184 0020 2C000000 		.4byte	.LBB34
 3185 0024 3E000000 		.4byte	.LBE34
 3186 0028 40000000 		.4byte	.LBB37
 3187 002c 46000000 		.4byte	.LBE37
 3188 0030 00000000 		.4byte	0
 3189 0034 00000000 		.4byte	0
 3190 0038 2C000000 		.4byte	.LBB35
 3191 003c 3E000000 		.4byte	.LBE35
 3192 0040 40000000 		.4byte	.LBB36
 3193 0044 46000000 		.4byte	.LBE36
 3194 0048 00000000 		.4byte	0
 3195 004c 00000000 		.4byte	0
 3196 0050 60000000 		.4byte	.LBB40
 3197 0054 64000000 		.4byte	.LBE40
 3198 0058 66000000 		.4byte	.LBB44
 3199 005c 6A000000 		.4byte	.LBE44
 3200 0060 6C000000 		.4byte	.LBB45
 3201 0064 6E000000 		.4byte	.LBE45
 3202 0068 00000000 		.4byte	0
 3203 006c 00000000 		.4byte	0
 3204 0070 86000000 		.4byte	.LBB48
 3205 0074 8A000000 		.4byte	.LBE48
 3206 0078 8C000000 		.4byte	.LBB52
 3207 007c 90000000 		.4byte	.LBE52
 3208 0080 92000000 		.4byte	.LBB53
 3209 0084 94000000 		.4byte	.LBE53
 3210 0088 00000000 		.4byte	0
 3211 008c 00000000 		.4byte	0
 3212 0090 94000000 		.4byte	.LBB54
 3213 0094 AA000000 		.4byte	.LBE54
 3214 0098 C0000000 		.4byte	.LBB57
 3215 009c C4000000 		.4byte	.LBE57
 3216 00a0 00000000 		.4byte	0
 3217 00a4 00000000 		.4byte	0
 3218 00a8 94000000 		.4byte	.LBB55
 3219 00ac AA000000 		.4byte	.LBE55
 3220 00b0 C0000000 		.4byte	.LBB56
 3221 00b4 C4000000 		.4byte	.LBE56
 3222 00b8 00000000 		.4byte	0
 3223 00bc 00000000 		.4byte	0
 3224 00c0 08000000 		.4byte	.LBB63
 3225 00c4 0E000000 		.4byte	.LBE63
 3226 00c8 16000000 		.4byte	.LBB67
 3227 00cc 2C000000 		.4byte	.LBE67
 3228 00d0 00000000 		.4byte	0
 3229 00d4 00000000 		.4byte	0
 3230 00d8 0E000000 		.4byte	.LBB66
 3231 00dc 14000000 		.4byte	.LBE66
 3232 00e0 2C000000 		.4byte	.LBB68
 3233 00e4 32000000 		.4byte	.LBE68
 3234 00e8 00000000 		.4byte	0
ARM GAS  /tmp/cciKPYbS.s 			page 58


 3235 00ec 00000000 		.4byte	0
 3236 00f0 36000000 		.4byte	.LBB71
 3237 00f4 38000000 		.4byte	.LBE71
 3238 00f8 3E000000 		.4byte	.LBB75
 3239 00fc 40000000 		.4byte	.LBE75
 3240 0100 42000000 		.4byte	.LBB76
 3241 0104 44000000 		.4byte	.LBE76
 3242 0108 00000000 		.4byte	0
 3243 010c 00000000 		.4byte	0
 3244 0110 36000000 		.4byte	.LBB72
 3245 0114 38000000 		.4byte	.LBE72
 3246 0118 3E000000 		.4byte	.LBB73
 3247 011c 40000000 		.4byte	.LBE73
 3248 0120 42000000 		.4byte	.LBB74
 3249 0124 44000000 		.4byte	.LBE74
 3250 0128 00000000 		.4byte	0
 3251 012c 00000000 		.4byte	0
 3252 0130 4E000000 		.4byte	.LBB77
 3253 0134 54000000 		.4byte	.LBE77
 3254 0138 5C000000 		.4byte	.LBB78
 3255 013c 62000000 		.4byte	.LBE78
 3256 0140 00000000 		.4byte	0
 3257 0144 00000000 		.4byte	0
 3258 0148 30000000 		.4byte	.LBB80
 3259 014c 32000000 		.4byte	.LBE80
 3260 0150 38000000 		.4byte	.LBB83
 3261 0154 3C000000 		.4byte	.LBE83
 3262 0158 00000000 		.4byte	0
 3263 015c 00000000 		.4byte	0
 3264 0160 30000000 		.4byte	.LBB81
 3265 0164 32000000 		.4byte	.LBE81
 3266 0168 38000000 		.4byte	.LBB82
 3267 016c 3C000000 		.4byte	.LBE82
 3268 0170 00000000 		.4byte	0
 3269 0174 00000000 		.4byte	0
 3270 0178 0A000000 		.4byte	.LBB84
 3271 017c 0C000000 		.4byte	.LBE84
 3272 0180 0E000000 		.4byte	.LBB85
 3273 0184 12000000 		.4byte	.LBE85
 3274 0188 00000000 		.4byte	0
 3275 018c 00000000 		.4byte	0
 3276 0190 26000000 		.4byte	.LBB88
 3277 0194 28000000 		.4byte	.LBE88
 3278 0198 2A000000 		.4byte	.LBB92
 3279 019c 2C000000 		.4byte	.LBE92
 3280 01a0 2E000000 		.4byte	.LBB93
 3281 01a4 30000000 		.4byte	.LBE93
 3282 01a8 00000000 		.4byte	0
 3283 01ac 00000000 		.4byte	0
 3284 01b0 26000000 		.4byte	.LBB89
 3285 01b4 28000000 		.4byte	.LBE89
 3286 01b8 2A000000 		.4byte	.LBB90
 3287 01bc 2C000000 		.4byte	.LBE90
 3288 01c0 2E000000 		.4byte	.LBB91
 3289 01c4 30000000 		.4byte	.LBE91
 3290 01c8 00000000 		.4byte	0
 3291 01cc 00000000 		.4byte	0
ARM GAS  /tmp/cciKPYbS.s 			page 59


 3292 01d0 00000000 		.4byte	.LFB7
 3293 01d4 0A000000 		.4byte	.LFE7
 3294 01d8 00000000 		.4byte	.LFB9
 3295 01dc C4000000 		.4byte	.LFE9
 3296 01e0 00000000 		.4byte	.LFB8
 3297 01e4 14000000 		.4byte	.LFE8
 3298 01e8 00000000 		.4byte	.LFB10
 3299 01ec 34000000 		.4byte	.LFE10
 3300 01f0 00000000 		.4byte	.LFB11
 3301 01f4 22000000 		.4byte	.LFE11
 3302 01f8 00000000 		.4byte	.LFB12
 3303 01fc 66000000 		.4byte	.LFE12
 3304 0200 00000000 		.4byte	.LFB13
 3305 0204 52000000 		.4byte	.LFE13
 3306 0208 00000000 		.4byte	.LFB14
 3307 020c 50000000 		.4byte	.LFE14
 3308 0210 00000000 		.4byte	0
 3309 0214 00000000 		.4byte	0
 3310              		.section	.debug_line,"",%progbits
 3311              	.Ldebug_line0:
 3312 0000 6C030000 		.section	.debug_str,"MS",%progbits,1
 3312      02005B01 
 3312      00000201 
 3312      FB0E0D00 
 3312      01010101 
 3313              	.LASF35:
 3314 0000 705F6D73 		.ascii	"p_msg\000"
 3314      6700
 3315              	.LASF57:
 3316 0006 7264796D 		.ascii	"rdymsg\000"
 3316      736700
 3317              	.LASF11:
 3318 000d 6C6F6E67 		.ascii	"long long unsigned int\000"
 3318      206C6F6E 
 3318      6720756E 
 3318      7369676E 
 3318      65642069 
 3319              	.LASF58:
 3320 0024 65786974 		.ascii	"exitcode\000"
 3320      636F6465 
 3320      00
 3321              	.LASF68:
 3322 002d 63684D74 		.ascii	"chMtxUnlock\000"
 3322      78556E6C 
 3322      6F636B00 
 3323              	.LASF24:
 3324 0039 705F7072 		.ascii	"p_prio\000"
 3324      696F00
 3325              	.LASF10:
 3326 0040 6C6F6E67 		.ascii	"long long int\000"
 3326      206C6F6E 
 3326      6720696E 
 3326      7400
 3327              	.LASF1:
 3328 004e 7369676E 		.ascii	"signed char\000"
 3328      65642063 
 3328      68617200 
ARM GAS  /tmp/cciKPYbS.s 			page 60


 3329              	.LASF39:
 3330 005a 705F6D70 		.ascii	"p_mpool\000"
 3330      6F6F6C00 
 3331              	.LASF12:
 3332 0062 626F6F6C 		.ascii	"bool_t\000"
 3332      5F7400
 3333              	.LASF54:
 3334 0069 6D5F7175 		.ascii	"m_queue\000"
 3334      65756500 
 3335              	.LASF7:
 3336 0071 6C6F6E67 		.ascii	"long int\000"
 3336      20696E74 
 3336      00
 3337              	.LASF14:
 3338 007a 74737461 		.ascii	"tstate_t\000"
 3338      74655F74 
 3338      00
 3339              	.LASF73:
 3340 0083 2F6F7074 		.ascii	"/opt/ChibiOS/ChibiOS_2.4.4/os/kernel/src/chmtx.c\000"
 3340      2F436869 
 3340      62694F53 
 3340      2F436869 
 3340      62694F53 
 3341              	.LASF65:
 3342 00b4 63684D74 		.ascii	"chMtxLockS\000"
 3342      784C6F63 
 3342      6B5300
 3343              	.LASF75:
 3344 00bf 63684D74 		.ascii	"chMtxTryLockS\000"
 3344      78547279 
 3344      4C6F636B 
 3344      5300
 3345              	.LASF26:
 3346 00cd 705F6E65 		.ascii	"p_newer\000"
 3346      77657200 
 3347              	.LASF48:
 3348 00d5 725F6E65 		.ascii	"r_newer\000"
 3348      77657200 
 3349              	.LASF42:
 3350 00dd 72656761 		.ascii	"regarm_t\000"
 3350      726D5F74 
 3350      00
 3351              	.LASF20:
 3352 00e6 636E745F 		.ascii	"cnt_t\000"
 3352      7400
 3353              	.LASF70:
 3354 00ec 63684D74 		.ascii	"chMtxUnlockS\000"
 3354      78556E6C 
 3354      6F636B53 
 3354      00
 3355              	.LASF0:
 3356 00f9 756E7369 		.ascii	"unsigned int\000"
 3356      676E6564 
 3356      20696E74 
 3356      00
 3357              	.LASF9:
 3358 0106 6C6F6E67 		.ascii	"long unsigned int\000"
ARM GAS  /tmp/cciKPYbS.s 			page 61


 3358      20756E73 
 3358      69676E65 
 3358      6420696E 
 3358      7400
 3359              	.LASF44:
 3360 0118 636F6E74 		.ascii	"context\000"
 3360      65787400 
 3361              	.LASF4:
 3362 0120 73686F72 		.ascii	"short unsigned int\000"
 3362      7420756E 
 3362      7369676E 
 3362      65642069 
 3362      6E7400
 3363              	.LASF17:
 3364 0133 6D73675F 		.ascii	"msg_t\000"
 3364      7400
 3365              	.LASF74:
 3366 0139 7072696F 		.ascii	"prio_insert\000"
 3366      5F696E73 
 3366      65727400 
 3367              	.LASF71:
 3368 0145 63684D74 		.ascii	"chMtxUnlockAll\000"
 3368      78556E6C 
 3368      6F636B41 
 3368      6C6C00
 3369              	.LASF69:
 3370 0154 6E657770 		.ascii	"newprio\000"
 3370      72696F00 
 3371              	.LASF13:
 3372 015c 746D6F64 		.ascii	"tmode_t\000"
 3372      655F7400 
 3373              	.LASF41:
 3374 0164 54687265 		.ascii	"ThreadsList\000"
 3374      6164734C 
 3374      69737400 
 3375              	.LASF18:
 3376 0170 6576656E 		.ascii	"eventmask_t\000"
 3376      746D6173 
 3376      6B5F7400 
 3377              	.LASF67:
 3378 017c 63684D74 		.ascii	"chMtxTryLock\000"
 3378      78547279 
 3378      4C6F636B 
 3378      00
 3379              	.LASF53:
 3380 0189 4D757465 		.ascii	"Mutex\000"
 3380      7800
 3381              	.LASF66:
 3382 018f 63684D74 		.ascii	"chMtxLock\000"
 3382      784C6F63 
 3382      6B00
 3383              	.LASF27:
 3384 0199 705F6F6C 		.ascii	"p_older\000"
 3384      64657200 
 3385              	.LASF47:
 3386 01a1 725F6374 		.ascii	"r_ctx\000"
 3386      7800
ARM GAS  /tmp/cciKPYbS.s 			page 62


 3387              	.LASF40:
 3388 01a7 54687265 		.ascii	"ThreadsQueue\000"
 3388      61647351 
 3388      75657565 
 3388      00
 3389              	.LASF62:
 3390 01b4 64657175 		.ascii	"dequeue\000"
 3390      65756500 
 3391              	.LASF51:
 3392 01bc 725F6375 		.ascii	"r_current\000"
 3392      7272656E 
 3392      7400
 3393              	.LASF49:
 3394 01c6 725F6F6C 		.ascii	"r_older\000"
 3394      64657200 
 3395              	.LASF15:
 3396 01ce 74726566 		.ascii	"trefs_t\000"
 3396      735F7400 
 3397              	.LASF23:
 3398 01d6 705F7072 		.ascii	"p_prev\000"
 3398      657600
 3399              	.LASF16:
 3400 01dd 74707269 		.ascii	"tprio_t\000"
 3400      6F5F7400 
 3401              	.LASF6:
 3402 01e5 696E7433 		.ascii	"int32_t\000"
 3402      325F7400 
 3403              	.LASF2:
 3404 01ed 756E7369 		.ascii	"unsigned char\000"
 3404      676E6564 
 3404      20636861 
 3404      7200
 3405              	.LASF37:
 3406 01fb 705F6D74 		.ascii	"p_mtxlist\000"
 3406      786C6973 
 3406      7400
 3407              	.LASF3:
 3408 0205 73686F72 		.ascii	"short int\000"
 3408      7420696E 
 3408      7400
 3409              	.LASF29:
 3410 020f 705F7374 		.ascii	"p_state\000"
 3410      61746500 
 3411              	.LASF46:
 3412 0217 725F7072 		.ascii	"r_prio\000"
 3412      696F00
 3413              	.LASF60:
 3414 021e 65776D61 		.ascii	"ewmask\000"
 3414      736B00
 3415              	.LASF22:
 3416 0225 705F6E65 		.ascii	"p_next\000"
 3416      787400
 3417              	.LASF30:
 3418 022c 705F666C 		.ascii	"p_flags\000"
 3418      61677300 
 3419              	.LASF21:
 3420 0234 54687265 		.ascii	"Thread\000"
ARM GAS  /tmp/cciKPYbS.s 			page 63


 3420      616400
 3421              	.LASF36:
 3422 023b 705F6570 		.ascii	"p_epending\000"
 3422      656E6469 
 3422      6E6700
 3423              	.LASF8:
 3424 0246 75696E74 		.ascii	"uint32_t\000"
 3424      33325F74 
 3424      00
 3425              	.LASF45:
 3426 024f 725F7175 		.ascii	"r_queue\000"
 3426      65756500 
 3427              	.LASF72:
 3428 0257 474E5520 		.ascii	"GNU C 4.6.3\000"
 3428      4320342E 
 3428      362E3300 
 3429              	.LASF61:
 3430 0263 63686172 		.ascii	"char\000"
 3430      00
 3431              	.LASF63:
 3432 0268 6669666F 		.ascii	"fifo_remove\000"
 3432      5F72656D 
 3432      6F766500 
 3433              	.LASF56:
 3434 0274 6D5F6E65 		.ascii	"m_next\000"
 3434      787400
 3435              	.LASF19:
 3436 027b 73797374 		.ascii	"systime_t\000"
 3436      696D655F 
 3436      7400
 3437              	.LASF38:
 3438 0285 705F7265 		.ascii	"p_realprio\000"
 3438      616C7072 
 3438      696F00
 3439              	.LASF32:
 3440 0290 705F7469 		.ascii	"p_time\000"
 3440      6D6500
 3441              	.LASF43:
 3442 0297 696E7463 		.ascii	"intctx\000"
 3442      747800
 3443              	.LASF34:
 3444 029e 705F6D73 		.ascii	"p_msgqueue\000"
 3444      67717565 
 3444      756500
 3445              	.LASF64:
 3446 02a9 63684D74 		.ascii	"chMtxInit\000"
 3446      78496E69 
 3446      7400
 3447              	.LASF31:
 3448 02b3 705F7265 		.ascii	"p_refs\000"
 3448      667300
 3449              	.LASF52:
 3450 02ba 52656164 		.ascii	"ReadyList\000"
 3450      794C6973 
 3450      7400
 3451              	.LASF76:
 3452 02c4 726C6973 		.ascii	"rlist\000"
ARM GAS  /tmp/cciKPYbS.s 			page 64


 3452      7400
 3453              	.LASF5:
 3454 02ca 75696E74 		.ascii	"uint8_t\000"
 3454      385F7400 
 3455              	.LASF59:
 3456 02d2 77746F62 		.ascii	"wtobjp\000"
 3456      6A7000
 3457              	.LASF28:
 3458 02d9 705F6E61 		.ascii	"p_name\000"
 3458      6D6500
 3459              	.LASF50:
 3460 02e0 725F7072 		.ascii	"r_preempt\000"
 3460      65656D70 
 3460      7400
 3461              	.LASF55:
 3462 02ea 6D5F6F77 		.ascii	"m_owner\000"
 3462      6E657200 
 3463              	.LASF25:
 3464 02f2 705F6374 		.ascii	"p_ctx\000"
 3464      7800
 3465              	.LASF33:
 3466 02f8 705F7761 		.ascii	"p_waiting\000"
 3466      6974696E 
 3466      6700
 3467              		.ident	"GCC: (Sourcery CodeBench Lite 2012.03-56) 4.6.3"
ARM GAS  /tmp/cciKPYbS.s 			page 65


DEFINED SYMBOLS
                            *ABS*:00000000 chmtx.c
     /tmp/cciKPYbS.s:21     .text.chMtxInit:00000000 $t
     /tmp/cciKPYbS.s:27     .text.chMtxInit:00000000 chMtxInit
     /tmp/cciKPYbS.s:49     .text.chMtxLockS:00000000 $t
     /tmp/cciKPYbS.s:55     .text.chMtxLockS:00000000 chMtxLockS
     /tmp/cciKPYbS.s:314    .text.chMtxLock:00000000 $t
     /tmp/cciKPYbS.s:320    .text.chMtxLock:00000000 chMtxLock
     /tmp/cciKPYbS.s:361    .text.chMtxTryLock:00000000 $t
     /tmp/cciKPYbS.s:367    .text.chMtxTryLock:00000000 chMtxTryLock
     /tmp/cciKPYbS.s:448    .text.chMtxTryLockS:00000000 $t
     /tmp/cciKPYbS.s:454    .text.chMtxTryLockS:00000000 chMtxTryLockS
     /tmp/cciKPYbS.s:495    .text.chMtxUnlock:00000000 $t
     /tmp/cciKPYbS.s:501    .text.chMtxUnlock:00000000 chMtxUnlock
     /tmp/cciKPYbS.s:645    .text.chMtxUnlockS:00000000 $t
     /tmp/cciKPYbS.s:651    .text.chMtxUnlockS:00000000 chMtxUnlockS
     /tmp/cciKPYbS.s:758    .text.chMtxUnlockAll:00000000 $t
     /tmp/cciKPYbS.s:764    .text.chMtxUnlockAll:00000000 chMtxUnlockAll
                     .debug_frame:00000010 $d

UNDEFINED SYMBOLS
rlist
chSchGoSleepS
chSchReadyI
chSchWakeupS
chSchRescheduleS
