ARM GAS  /tmp/ccT5b0ge.s 			page 1


   1              		.syntax unified
   2              		.cpu cortex-m4
   3              		.eabi_attribute 27, 3
   4              		.eabi_attribute 28, 1
   5              		.fpu fpv4-sp-d16
   6              		.eabi_attribute 20, 1
   7              		.eabi_attribute 21, 1
   8              		.eabi_attribute 23, 3
   9              		.eabi_attribute 24, 1
  10              		.eabi_attribute 25, 1
  11              		.eabi_attribute 26, 1
  12              		.eabi_attribute 30, 2
  13              		.eabi_attribute 34, 1
  14              		.eabi_attribute 18, 4
  15              		.thumb
  16              		.file	"chqueues.c"
  17              		.text
  18              	.Ltext0:
  19              		.cfi_sections	.debug_frame
  20              		.section	.text.qwait,"ax",%progbits
  21              		.align	2
  22              		.p2align 4,,15
  23              		.thumb
  24              		.thumb_func
  25              		.type	qwait, %function
  26              	qwait:
  27              	.LFB7:
  28              		.file 1 "/opt/ChibiOS/ChibiOS_2.4.4/os/kernel/src/chqueues.c"
  29              		.loc 1 72 0
  30              		.cfi_startproc
  31              		@ args = 0, pretend = 0, frame = 0
  32              		@ frame_needed = 0, uses_anonymous_args = 0
  33              		@ link register save eliminated.
  34              	.LVL0:
  35 0000 10B4     		push	{r4}
  36              	.LCFI0:
  37              		.cfi_def_cfa_offset 4
  38              		.cfi_offset 4, -4
  39              		.loc 1 72 0
  40 0002 0246     		mov	r2, r0
  41              		.loc 1 74 0
  42 0004 71B1     		cbz	r1, .L2
  43              		.loc 1 76 0
  44 0006 40F20004 		movw	r4, #:lower16:rlist
  45 000a C0F20004 		movt	r4, #:upper16:rlist
  46              		.loc 1 78 0
  47 000e 0D20     		movs	r0, #13
  48              	.LVL1:
  49              		.loc 1 76 0
  50 0010 E369     		ldr	r3, [r4, #28]
  51 0012 5A62     		str	r2, [r3, #36]
  52              	.LVL2:
  53              	.LBB12:
  54              	.LBB13:
  55              		.file 2 "/opt/ChibiOS/ChibiOS_2.4.4/os/kernel/include/chinline.h"
  56              		.loc 2 55 0
  57 0014 5468     		ldr	r4, [r2, #4]
ARM GAS  /tmp/ccT5b0ge.s 			page 2


  58              	.LVL3:
  59 0016 83E81400 		stmia	r3, {r2, r4}
  60              		.loc 2 56 0
  61 001a 5360     		str	r3, [r2, #4]
  62 001c 2360     		str	r3, [r4, #0]
  63              	.LBE13:
  64              	.LBE12:
  65              		.loc 1 79 0
  66 001e 10BC     		pop	{r4}
  67              		.loc 1 78 0
  68 0020 FFF7FEBF 		b	chSchGoSleepTimeoutS
  69              	.LVL4:
  70              	.L2:
  71              		.loc 1 79 0
  72 0024 4FF0FF30 		mov	r0, #-1
  73              	.LVL5:
  74 0028 10BC     		pop	{r4}
  75 002a 7047     		bx	lr
  76              		.cfi_endproc
  77              	.LFE7:
  78              		.size	qwait, .-qwait
  79 002c AFF30080 		.section	.text.chIQInit,"ax",%progbits
  80              		.align	2
  81              		.p2align 4,,15
  82              		.global	chIQInit
  83              		.thumb
  84              		.thumb_func
  85              		.type	chIQInit, %function
  86              	chIQInit:
  87              	.LFB8:
  88              		.loc 1 96 0
  89              		.cfi_startproc
  90              		@ args = 0, pretend = 0, frame = 0
  91              		@ frame_needed = 0, uses_anonymous_args = 0
  92              		@ link register save eliminated.
  93              	.LVL6:
  94 0000 10B4     		push	{r4}
  95              	.LCFI1:
  96              		.cfi_def_cfa_offset 4
  97              		.cfi_offset 4, -4
  98              		.loc 1 101 0
  99 0002 8A18     		adds	r2, r1, r2
 100              	.LVL7:
 101              		.loc 1 99 0
 102 0004 0024     		movs	r4, #0
 103              		.loc 1 98 0
 104 0006 4060     		str	r0, [r0, #4]
 105 0008 0060     		str	r0, [r0, #0]
 106              		.loc 1 99 0
 107 000a 8460     		str	r4, [r0, #8]
 108              		.loc 1 100 0
 109 000c 4161     		str	r1, [r0, #20]
 110 000e 8161     		str	r1, [r0, #24]
 111 0010 C160     		str	r1, [r0, #12]
 112              		.loc 1 101 0
 113 0012 0261     		str	r2, [r0, #16]
 114              		.loc 1 102 0
ARM GAS  /tmp/ccT5b0ge.s 			page 3


 115 0014 C361     		str	r3, [r0, #28]
 116              		.loc 1 103 0
 117 0016 10BC     		pop	{r4}
 118 0018 7047     		bx	lr
 119              		.cfi_endproc
 120              	.LFE8:
 121              		.size	chIQInit, .-chIQInit
 122              		.section	.text.chIQResetI,"ax",%progbits
 123              		.align	2
 124              		.p2align 4,,15
 125              		.global	chIQResetI
 126              		.thumb
 127              		.thumb_func
 128              		.type	chIQResetI, %function
 129              	chIQResetI:
 130              	.LFB9:
 131              		.loc 1 116 0
 132              		.cfi_startproc
 133              		@ args = 0, pretend = 0, frame = 0
 134              		@ frame_needed = 0, uses_anonymous_args = 0
 135              	.LVL8:
 136 0000 38B5     		push	{r3, r4, r5, lr}
 137              	.LCFI2:
 138              		.cfi_def_cfa_offset 16
 139              		.cfi_offset 14, -4
 140              		.cfi_offset 5, -8
 141              		.cfi_offset 4, -12
 142              		.cfi_offset 3, -16
 143              		.loc 1 120 0
 144 0002 C168     		ldr	r1, [r0, #12]
 145              		.loc 1 116 0
 146 0004 0446     		mov	r4, r0
 147              		.loc 1 122 0
 148 0006 0068     		ldr	r0, [r0, #0]
 149              	.LVL9:
 150              		.loc 1 120 0
 151 0008 6161     		str	r1, [r4, #20]
 152              		.loc 1 121 0
 153 000a 0023     		movs	r3, #0
 154              		.loc 1 122 0
 155 000c A042     		cmp	r0, r4
 156              		.loc 1 120 0
 157 000e A161     		str	r1, [r4, #24]
 158              		.loc 1 121 0
 159 0010 A360     		str	r3, [r4, #8]
 160              		.loc 1 122 0
 161 0012 0AD0     		beq	.L5
 162              		.loc 1 123 0
 163 0014 6FF00105 		mvn	r5, #1
 164              	.L8:
 165              	.LVL10:
 166              	.LBB14:
 167              	.LBB15:
 168              		.loc 2 62 0
 169 0018 0268     		ldr	r2, [r0, #0]
 170 001a 2260     		str	r2, [r4, #0]
 171 001c 5460     		str	r4, [r2, #4]
ARM GAS  /tmp/ccT5b0ge.s 			page 4


 172              	.LBE15:
 173              	.LBE14:
 174              		.loc 1 123 0
 175 001e FFF7FEFF 		bl	chSchReadyI
 176              	.LVL11:
 177 0022 4562     		str	r5, [r0, #36]
 178              		.loc 1 122 0
 179 0024 2068     		ldr	r0, [r4, #0]
 180 0026 8442     		cmp	r4, r0
 181 0028 F6D1     		bne	.L8
 182              	.LVL12:
 183              	.L5:
 184 002a 38BD     		pop	{r3, r4, r5, pc}
 185              		.cfi_endproc
 186              	.LFE9:
 187              		.size	chIQResetI, .-chIQResetI
 188 002c AFF30080 		.section	.text.chIQPutI,"ax",%progbits
 189              		.align	2
 190              		.p2align 4,,15
 191              		.global	chIQPutI
 192              		.thumb
 193              		.thumb_func
 194              		.type	chIQPutI, %function
 195              	chIQPutI:
 196              	.LFB10:
 197              		.loc 1 139 0
 198              		.cfi_startproc
 199              		@ args = 0, pretend = 0, frame = 0
 200              		@ frame_needed = 0, uses_anonymous_args = 0
 201              	.LVL13:
 202              		.loc 1 143 0
 203 0000 4269     		ldr	r2, [r0, #20]
 204              		.loc 1 139 0
 205 0002 08B5     		push	{r3, lr}
 206              	.LCFI3:
 207              		.cfi_def_cfa_offset 8
 208              		.cfi_offset 14, -4
 209              		.cfi_offset 3, -8
 210              		.loc 1 139 0
 211 0004 0346     		mov	r3, r0
 212              		.loc 1 143 0
 213 0006 8069     		ldr	r0, [r0, #24]
 214              	.LVL14:
 215 0008 8242     		cmp	r2, r0
 216 000a 9868     		ldr	r0, [r3, #8]
 217 000c 18D0     		beq	.L11
 218              	.L12:
 219              		.loc 1 146 0
 220 000e 0130     		adds	r0, r0, #1
 221 0010 9860     		str	r0, [r3, #8]
 222              		.loc 1 147 0
 223 0012 02F8011B 		strb	r1, [r2], #1
 224              		.loc 1 148 0
 225 0016 1969     		ldr	r1, [r3, #16]
 226              	.LVL15:
 227              		.loc 1 147 0
 228 0018 5A61     		str	r2, [r3, #20]
ARM GAS  /tmp/ccT5b0ge.s 			page 5


 229              		.loc 1 148 0
 230 001a 8A42     		cmp	r2, r1
 231              		.loc 1 149 0
 232 001c 28BF     		it	cs
 233 001e DA68     		ldrcs	r2, [r3, #12]
 234              		.loc 1 151 0
 235 0020 1868     		ldr	r0, [r3, #0]
 236              		.loc 1 149 0
 237 0022 28BF     		it	cs
 238 0024 5A61     		strcs	r2, [r3, #20]
 239              		.loc 1 151 0
 240 0026 9842     		cmp	r0, r3
 241 0028 08D0     		beq	.L16
 242              	.LVL16:
 243              	.LBB16:
 244              	.LBB17:
 245              		.loc 2 62 0
 246 002a 0268     		ldr	r2, [r0, #0]
 247 002c 1A60     		str	r2, [r3, #0]
 248 002e 5360     		str	r3, [r2, #4]
 249              	.LBE17:
 250              	.LBE16:
 251              		.loc 1 152 0
 252 0030 FFF7FEFF 		bl	chSchReadyI
 253              	.LVL17:
 254 0034 0023     		movs	r3, #0
 255 0036 4362     		str	r3, [r0, #36]
 256              		.loc 1 154 0
 257 0038 1846     		mov	r0, r3
 258 003a 08BD     		pop	{r3, pc}
 259              	.LVL18:
 260              	.L16:
 261 003c 0020     		movs	r0, #0
 262              		.loc 1 155 0
 263 003e 08BD     		pop	{r3, pc}
 264              	.LVL19:
 265              	.L11:
 266              		.loc 1 143 0 discriminator 1
 267 0040 0028     		cmp	r0, #0
 268 0042 E4D0     		beq	.L12
 269              		.loc 1 144 0
 270 0044 6FF00300 		mvn	r0, #3
 271 0048 08BD     		pop	{r3, pc}
 272              		.cfi_endproc
 273              	.LFE10:
 274              		.size	chIQPutI, .-chIQPutI
 275 004a 00BFAFF3 		.section	.text.chIQGetTimeout,"ax",%progbits
 275      0080
 276              		.align	2
 277              		.p2align 4,,15
 278              		.global	chIQGetTimeout
 279              		.thumb
 280              		.thumb_func
 281              		.type	chIQGetTimeout, %function
 282              	chIQGetTimeout:
 283              	.LFB11:
 284              		.loc 1 177 0
ARM GAS  /tmp/ccT5b0ge.s 			page 6


 285              		.cfi_startproc
 286              		@ args = 0, pretend = 0, frame = 0
 287              		@ frame_needed = 0, uses_anonymous_args = 0
 288              	.LVL20:
 289 0000 70B5     		push	{r4, r5, r6, lr}
 290              	.LCFI4:
 291              		.cfi_def_cfa_offset 16
 292              		.cfi_offset 14, -4
 293              		.cfi_offset 6, -8
 294              		.cfi_offset 5, -12
 295              		.cfi_offset 4, -16
 296              	.LBB18:
 297              		.loc 1 180 0
 298 0002 2023     		movs	r3, #32
 299              	.LVL21:
 300              	.LBE18:
 301              		.loc 1 177 0
 302 0004 0446     		mov	r4, r0
 303 0006 0D46     		mov	r5, r1
 304              	.LBB19:
 305              		.loc 1 180 0
 306              	@ 180 "/opt/ChibiOS/ChibiOS_2.4.4/os/kernel/src/chqueues.c" 1
 307 0008 83F31188 		msr     BASEPRI, r3
 308              	@ 0 "" 2
 309              	.LVL22:
 310              		.thumb
 311              	.LBE19:
 312              		.loc 1 181 0
 313 000c C369     		ldr	r3, [r0, #28]
 314              	.LVL23:
 315 000e 03B1     		cbz	r3, .L23
 316              		.loc 1 182 0
 317 0010 9847     		blx	r3
 318              	.LVL24:
 319              	.L23:
 320              		.loc 1 184 0 discriminator 1
 321 0012 A668     		ldr	r6, [r4, #8]
 322 0014 4EB9     		cbnz	r6, .L25
 323              	.LBB20:
 324              		.loc 1 186 0
 325 0016 2046     		mov	r0, r4
 326 0018 2946     		mov	r1, r5
 327 001a FFF7FEFF 		bl	qwait
 328              	.LVL25:
 329 001e 0028     		cmp	r0, #0
 330 0020 F7DA     		bge	.L23
 331              	.LBB21:
 332              		.loc 1 187 0
 333 0022 3346     		mov	r3, r6
 334              	.LVL26:
 335              	@ 187 "/opt/ChibiOS/ChibiOS_2.4.4/os/kernel/src/chqueues.c" 1
 336 0024 83F31188 		msr     BASEPRI, r3
 337              	@ 0 "" 2
 338              	.LVL27:
 339              		.thumb
 340              	.LBE21:
 341              		.loc 1 188 0
ARM GAS  /tmp/ccT5b0ge.s 			page 7


 342 0028 70BD     		pop	{r4, r5, r6, pc}
 343              	.LVL28:
 344              	.L25:
 345              	.LBE20:
 346              		.loc 1 193 0
 347 002a A369     		ldr	r3, [r4, #24]
 348              		.loc 1 194 0
 349 002c 2269     		ldr	r2, [r4, #16]
 350              		.loc 1 192 0
 351 002e 013E     		subs	r6, r6, #1
 352 0030 A660     		str	r6, [r4, #8]
 353              		.loc 1 193 0
 354 0032 13F8010B 		ldrb	r0, [r3], #1	@ zero_extendqisi2
 355              	.LVL29:
 356              		.loc 1 194 0
 357 0036 9342     		cmp	r3, r2
 358              		.loc 1 193 0
 359 0038 A361     		str	r3, [r4, #24]
 360              		.loc 1 195 0
 361 003a 24BF     		itt	cs
 362 003c E368     		ldrcs	r3, [r4, #12]
 363 003e A361     		strcs	r3, [r4, #24]
 364              	.LBB22:
 365              		.loc 1 197 0
 366 0040 0023     		movs	r3, #0
 367              	.LVL30:
 368              	@ 197 "/opt/ChibiOS/ChibiOS_2.4.4/os/kernel/src/chqueues.c" 1
 369 0042 83F31188 		msr     BASEPRI, r3
 370              	@ 0 "" 2
 371              	.LVL31:
 372              		.thumb
 373              	.LBE22:
 374              		.loc 1 199 0
 375 0046 70BD     		pop	{r4, r5, r6, pc}
 376              		.cfi_endproc
 377              	.LFE11:
 378              		.size	chIQGetTimeout, .-chIQGetTimeout
 379 0048 AFF30080 		.section	.text.chIQReadTimeout,"ax",%progbits
 379      AFF30080 
 380              		.align	2
 381              		.p2align 4,,15
 382              		.global	chIQReadTimeout
 383              		.thumb
 384              		.thumb_func
 385              		.type	chIQReadTimeout, %function
 386              	chIQReadTimeout:
 387              	.LFB12:
 388              		.loc 1 226 0
 389              		.cfi_startproc
 390              		@ args = 0, pretend = 0, frame = 0
 391              		@ frame_needed = 0, uses_anonymous_args = 0
 392              	.LVL32:
 393 0000 2DE9F047 		push	{r4, r5, r6, r7, r8, r9, sl, lr}
 394              	.LCFI5:
 395              		.cfi_def_cfa_offset 32
 396              		.cfi_offset 14, -4
 397              		.cfi_offset 10, -8
ARM GAS  /tmp/ccT5b0ge.s 			page 8


 398              		.cfi_offset 9, -12
 399              		.cfi_offset 8, -16
 400              		.cfi_offset 7, -20
 401              		.cfi_offset 6, -24
 402              		.cfi_offset 5, -28
 403              		.cfi_offset 4, -32
 404              		.loc 1 226 0
 405 0004 1D46     		mov	r5, r3
 406 0006 0446     		mov	r4, r0
 407 0008 0E46     		mov	r6, r1
 408 000a 9146     		mov	r9, r2
 409              		.loc 1 227 0
 410 000c D0F81C80 		ldr	r8, [r0, #28]
 411              	.LVL33:
 412              	.LBB23:
 413              		.loc 1 232 0
 414 0010 2023     		movs	r3, #32
 415              	.LVL34:
 416              	@ 232 "/opt/ChibiOS/ChibiOS_2.4.4/os/kernel/src/chqueues.c" 1
 417 0012 83F31188 		msr     BASEPRI, r3
 418              	@ 0 "" 2
 419              	.LVL35:
 420              		.loc 1 228 0
 421              		.thumb
 422 0016 0027     		movs	r7, #0
 423              	.LVL36:
 424              	.L32:
 425              	.LBE23:
 426              		.loc 1 234 0
 427 0018 B8F1000F 		cmp	r8, #0
 428 001c 01D0     		beq	.L33
 429              		.loc 1 235 0
 430 001e 2046     		mov	r0, r4
 431 0020 C047     		blx	r8
 432              	.LVL37:
 433              	.L33:
 434              		.loc 1 237 0 discriminator 1
 435 0022 D4F808A0 		ldr	sl, [r4, #8]
 436 0026 BAF1000F 		cmp	sl, #0
 437 002a 0BD1     		bne	.L35
 438              		.loc 1 238 0
 439 002c 2046     		mov	r0, r4
 440 002e 2946     		mov	r1, r5
 441 0030 FFF7FEFF 		bl	qwait
 442              	.LVL38:
 443 0034 0028     		cmp	r0, #0
 444 0036 F4D0     		beq	.L33
 445              	.LBB24:
 446              		.loc 1 239 0
 447 0038 5346     		mov	r3, sl
 448              	.LVL39:
 449              	@ 239 "/opt/ChibiOS/ChibiOS_2.4.4/os/kernel/src/chqueues.c" 1
 450 003a 83F31188 		msr     BASEPRI, r3
 451              	@ 0 "" 2
 452              	.LVL40:
 453              		.thumb
 454              	.L29:
ARM GAS  /tmp/ccT5b0ge.s 			page 9


 455              	.LBE24:
 456              		.loc 1 256 0
 457 003e 3846     		mov	r0, r7
 458 0040 BDE8F087 		pop	{r4, r5, r6, r7, r8, r9, sl, pc}
 459              	.LVL41:
 460              	.L35:
 461              		.loc 1 245 0
 462 0044 A369     		ldr	r3, [r4, #24]
 463              	.LVL42:
 464              		.loc 1 244 0
 465 0046 0AF1FF31 		add	r1, sl, #-1
 466 004a A160     		str	r1, [r4, #8]
 467              		.loc 1 245 0
 468 004c 13F8010B 		ldrb	r0, [r3], #1	@ zero_extendqisi2
 469 0050 F055     		strb	r0, [r6, r7]
 470              		.loc 1 246 0
 471 0052 2269     		ldr	r2, [r4, #16]
 472              		.loc 1 245 0
 473 0054 A361     		str	r3, [r4, #24]
 474              		.loc 1 246 0
 475 0056 9342     		cmp	r3, r2
 476              		.loc 1 247 0
 477 0058 24BF     		itt	cs
 478 005a E368     		ldrcs	r3, [r4, #12]
 479 005c A361     		strcs	r3, [r4, #24]
 480              	.LBB25:
 481              		.loc 1 249 0
 482 005e 0023     		movs	r3, #0
 483              	@ 249 "/opt/ChibiOS/ChibiOS_2.4.4/os/kernel/src/chqueues.c" 1
 484 0060 83F31188 		msr     BASEPRI, r3
 485              	@ 0 "" 2
 486              	.LVL43:
 487              		.thumb
 488              	.LBE25:
 489              		.loc 1 250 0
 490 0064 0137     		adds	r7, r7, #1
 491              	.LVL44:
 492              		.loc 1 251 0
 493 0066 4F45     		cmp	r7, r9
 494 0068 E9D0     		beq	.L29
 495              	.LBB26:
 496              		.loc 1 254 0
 497 006a 2023     		movs	r3, #32
 498              	.LVL45:
 499              	@ 254 "/opt/ChibiOS/ChibiOS_2.4.4/os/kernel/src/chqueues.c" 1
 500 006c 83F31188 		msr     BASEPRI, r3
 501              	@ 0 "" 2
 502              	.LVL46:
 503              		.thumb
 504              	.LBE26:
 505              		.loc 1 255 0
 506 0070 D2E7     		b	.L32
 507              		.cfi_endproc
 508              	.LFE12:
 509              		.size	chIQReadTimeout, .-chIQReadTimeout
 510 0072 00BFAFF3 		.section	.text.chOQInit,"ax",%progbits
 510      0080AFF3 
ARM GAS  /tmp/ccT5b0ge.s 			page 10


 510      0080AFF3 
 510      0080
 511              		.align	2
 512              		.p2align 4,,15
 513              		.global	chOQInit
 514              		.thumb
 515              		.thumb_func
 516              		.type	chOQInit, %function
 517              	chOQInit:
 518              	.LFB13:
 519              		.loc 1 273 0
 520              		.cfi_startproc
 521              		@ args = 0, pretend = 0, frame = 0
 522              		@ frame_needed = 0, uses_anonymous_args = 0
 523              		@ link register save eliminated.
 524              	.LVL47:
 525 0000 10B4     		push	{r4}
 526              	.LCFI6:
 527              		.cfi_def_cfa_offset 4
 528              		.cfi_offset 4, -4
 529              		.loc 1 278 0
 530 0002 8C18     		adds	r4, r1, r2
 531              		.loc 1 275 0
 532 0004 4060     		str	r0, [r0, #4]
 533 0006 0060     		str	r0, [r0, #0]
 534              		.loc 1 276 0
 535 0008 8260     		str	r2, [r0, #8]
 536              		.loc 1 277 0
 537 000a 4161     		str	r1, [r0, #20]
 538 000c 8161     		str	r1, [r0, #24]
 539 000e C160     		str	r1, [r0, #12]
 540              		.loc 1 278 0
 541 0010 0461     		str	r4, [r0, #16]
 542              		.loc 1 279 0
 543 0012 C361     		str	r3, [r0, #28]
 544              		.loc 1 280 0
 545 0014 10BC     		pop	{r4}
 546 0016 7047     		bx	lr
 547              		.cfi_endproc
 548              	.LFE13:
 549              		.size	chOQInit, .-chOQInit
 550 0018 AFF30080 		.section	.text.chOQResetI,"ax",%progbits
 550      AFF30080 
 551              		.align	2
 552              		.p2align 4,,15
 553              		.global	chOQResetI
 554              		.thumb
 555              		.thumb_func
 556              		.type	chOQResetI, %function
 557              	chOQResetI:
 558              	.LFB14:
 559              		.loc 1 293 0
 560              		.cfi_startproc
 561              		@ args = 0, pretend = 0, frame = 0
 562              		@ frame_needed = 0, uses_anonymous_args = 0
 563              	.LVL48:
 564 0000 38B5     		push	{r3, r4, r5, lr}
ARM GAS  /tmp/ccT5b0ge.s 			page 11


 565              	.LCFI7:
 566              		.cfi_def_cfa_offset 16
 567              		.cfi_offset 14, -4
 568              		.cfi_offset 5, -8
 569              		.cfi_offset 4, -12
 570              		.cfi_offset 3, -16
 571              		.loc 1 298 0
 572 0002 0169     		ldr	r1, [r0, #16]
 573              		.loc 1 297 0
 574 0004 C368     		ldr	r3, [r0, #12]
 575              		.loc 1 293 0
 576 0006 0446     		mov	r4, r0
 577              		.loc 1 299 0
 578 0008 0068     		ldr	r0, [r0, #0]
 579              	.LVL49:
 580              		.loc 1 297 0
 581 000a 6361     		str	r3, [r4, #20]
 582              		.loc 1 298 0
 583 000c CA1A     		subs	r2, r1, r3
 584              		.loc 1 299 0
 585 000e A042     		cmp	r0, r4
 586              		.loc 1 297 0
 587 0010 A361     		str	r3, [r4, #24]
 588              		.loc 1 298 0
 589 0012 A260     		str	r2, [r4, #8]
 590              		.loc 1 299 0
 591 0014 0AD0     		beq	.L37
 592              		.loc 1 300 0
 593 0016 6FF00105 		mvn	r5, #1
 594              	.L40:
 595              	.LVL50:
 596              	.LBB27:
 597              	.LBB28:
 598              		.loc 2 62 0
 599 001a 0268     		ldr	r2, [r0, #0]
 600 001c 2260     		str	r2, [r4, #0]
 601 001e 5460     		str	r4, [r2, #4]
 602              	.LBE28:
 603              	.LBE27:
 604              		.loc 1 300 0
 605 0020 FFF7FEFF 		bl	chSchReadyI
 606              	.LVL51:
 607 0024 4562     		str	r5, [r0, #36]
 608              		.loc 1 299 0
 609 0026 2068     		ldr	r0, [r4, #0]
 610 0028 8442     		cmp	r4, r0
 611 002a F6D1     		bne	.L40
 612              	.LVL52:
 613              	.L37:
 614 002c 38BD     		pop	{r3, r4, r5, pc}
 615              		.cfi_endproc
 616              	.LFE14:
 617              		.size	chOQResetI, .-chOQResetI
 618 002e 00BF     		.section	.text.chOQPutTimeout,"ax",%progbits
 619              		.align	2
 620              		.p2align 4,,15
 621              		.global	chOQPutTimeout
ARM GAS  /tmp/ccT5b0ge.s 			page 12


 622              		.thumb
 623              		.thumb_func
 624              		.type	chOQPutTimeout, %function
 625              	chOQPutTimeout:
 626              	.LFB15:
 627              		.loc 1 325 0
 628              		.cfi_startproc
 629              		@ args = 0, pretend = 0, frame = 0
 630              		@ frame_needed = 0, uses_anonymous_args = 0
 631              	.LVL53:
 632 0000 F8B5     		push	{r3, r4, r5, r6, r7, lr}
 633              	.LCFI8:
 634              		.cfi_def_cfa_offset 24
 635              		.cfi_offset 14, -4
 636              		.cfi_offset 7, -8
 637              		.cfi_offset 6, -12
 638              		.cfi_offset 5, -16
 639              		.cfi_offset 4, -20
 640              		.cfi_offset 3, -24
 641              		.loc 1 325 0
 642 0002 0446     		mov	r4, r0
 643 0004 0D46     		mov	r5, r1
 644 0006 1646     		mov	r6, r2
 645              	.LBB29:
 646              		.loc 1 327 0
 647 0008 2023     		movs	r3, #32
 648              	.LVL54:
 649              	@ 327 "/opt/ChibiOS/ChibiOS_2.4.4/os/kernel/src/chqueues.c" 1
 650 000a 83F31188 		msr     BASEPRI, r3
 651              	@ 0 "" 2
 652              	.LVL55:
 653              		.thumb
 654              	.L43:
 655              	.LBE29:
 656              		.loc 1 328 0 discriminator 1
 657 000e A768     		ldr	r7, [r4, #8]
 658 0010 4FB9     		cbnz	r7, .L49
 659              	.LBB30:
 660              		.loc 1 331 0
 661 0012 2046     		mov	r0, r4
 662 0014 3146     		mov	r1, r6
 663 0016 FFF7FEFF 		bl	qwait
 664              	.LVL56:
 665 001a 0028     		cmp	r0, #0
 666 001c F7DA     		bge	.L43
 667              	.LBB31:
 668              		.loc 1 332 0
 669 001e 3B46     		mov	r3, r7
 670              	.LVL57:
 671              	@ 332 "/opt/ChibiOS/ChibiOS_2.4.4/os/kernel/src/chqueues.c" 1
 672 0020 83F31188 		msr     BASEPRI, r3
 673              	@ 0 "" 2
 674              	.LVL58:
 675              		.thumb
 676              	.LBE31:
 677              		.loc 1 333 0
 678 0024 F8BD     		pop	{r3, r4, r5, r6, r7, pc}
ARM GAS  /tmp/ccT5b0ge.s 			page 13


 679              	.LVL59:
 680              	.L49:
 681              	.LBE30:
 682              		.loc 1 338 0
 683 0026 6369     		ldr	r3, [r4, #20]
 684              	.LVL60:
 685              		.loc 1 337 0
 686 0028 013F     		subs	r7, r7, #1
 687 002a A760     		str	r7, [r4, #8]
 688              		.loc 1 338 0
 689 002c 03F8015B 		strb	r5, [r3], #1
 690              		.loc 1 339 0
 691 0030 2269     		ldr	r2, [r4, #16]
 692              		.loc 1 338 0
 693 0032 6361     		str	r3, [r4, #20]
 694              		.loc 1 339 0
 695 0034 9342     		cmp	r3, r2
 696              		.loc 1 340 0
 697 0036 24BF     		itt	cs
 698 0038 E368     		ldrcs	r3, [r4, #12]
 699 003a 6361     		strcs	r3, [r4, #20]
 700              		.loc 1 342 0
 701 003c E369     		ldr	r3, [r4, #28]
 702 003e 0BB1     		cbz	r3, .L47
 703              		.loc 1 343 0
 704 0040 2046     		mov	r0, r4
 705 0042 9847     		blx	r3
 706              	.L47:
 707              	.LBB32:
 708              		.loc 1 345 0
 709 0044 0023     		movs	r3, #0
 710              	.LVL61:
 711              	@ 345 "/opt/ChibiOS/ChibiOS_2.4.4/os/kernel/src/chqueues.c" 1
 712 0046 83F31188 		msr     BASEPRI, r3
 713              	@ 0 "" 2
 714              	.LVL62:
 715              		.thumb
 716              	.LBE32:
 717              		.loc 1 346 0
 718 004a 1846     		mov	r0, r3
 719              		.loc 1 347 0
 720 004c F8BD     		pop	{r3, r4, r5, r6, r7, pc}
 721              		.cfi_endproc
 722              	.LFE15:
 723              		.size	chOQPutTimeout, .-chOQPutTimeout
 724 004e 00BF     		.section	.text.chOQGetI,"ax",%progbits
 725              		.align	2
 726              		.p2align 4,,15
 727              		.global	chOQGetI
 728              		.thumb
 729              		.thumb_func
 730              		.type	chOQGetI, %function
 731              	chOQGetI:
 732              	.LFB16:
 733              		.loc 1 359 0
 734              		.cfi_startproc
 735              		@ args = 0, pretend = 0, frame = 0
ARM GAS  /tmp/ccT5b0ge.s 			page 14


 736              		@ frame_needed = 0, uses_anonymous_args = 0
 737              	.LVL63:
 738              		.loc 1 364 0
 739 0000 4169     		ldr	r1, [r0, #20]
 740 0002 8269     		ldr	r2, [r0, #24]
 741 0004 9142     		cmp	r1, r2
 742              		.loc 1 359 0
 743 0006 10B5     		push	{r4, lr}
 744              	.LCFI9:
 745              		.cfi_def_cfa_offset 8
 746              		.cfi_offset 14, -4
 747              		.cfi_offset 4, -8
 748              		.loc 1 359 0
 749 0008 0346     		mov	r3, r0
 750              		.loc 1 364 0
 751 000a 8168     		ldr	r1, [r0, #8]
 752 000c 16D0     		beq	.L51
 753              	.L52:
 754              		.loc 1 367 0
 755 000e 4C1C     		adds	r4, r1, #1
 756 0010 9C60     		str	r4, [r3, #8]
 757              		.loc 1 368 0
 758 0012 12F8014B 		ldrb	r4, [r2], #1	@ zero_extendqisi2
 759              	.LVL64:
 760              		.loc 1 369 0
 761 0016 1869     		ldr	r0, [r3, #16]
 762              	.LVL65:
 763              		.loc 1 368 0
 764 0018 9A61     		str	r2, [r3, #24]
 765              		.loc 1 369 0
 766 001a 8242     		cmp	r2, r0
 767              		.loc 1 370 0
 768 001c 28BF     		it	cs
 769 001e DA68     		ldrcs	r2, [r3, #12]
 770              		.loc 1 372 0
 771 0020 1868     		ldr	r0, [r3, #0]
 772              		.loc 1 370 0
 773 0022 28BF     		it	cs
 774 0024 9A61     		strcs	r2, [r3, #24]
 775              		.loc 1 372 0
 776 0026 9842     		cmp	r0, r3
 777 0028 06D0     		beq	.L55
 778              	.LVL66:
 779              	.LBB33:
 780              	.LBB34:
 781              		.loc 2 62 0
 782 002a 0268     		ldr	r2, [r0, #0]
 783 002c 1A60     		str	r2, [r3, #0]
 784 002e 5360     		str	r3, [r2, #4]
 785              	.LBE34:
 786              	.LBE33:
 787              		.loc 1 373 0
 788 0030 FFF7FEFF 		bl	chSchReadyI
 789              	.LVL67:
 790 0034 0023     		movs	r3, #0
 791 0036 4362     		str	r3, [r0, #36]
 792              	.L55:
ARM GAS  /tmp/ccT5b0ge.s 			page 15


 793              		.loc 1 375 0
 794 0038 2046     		mov	r0, r4
 795 003a 10BD     		pop	{r4, pc}
 796              	.LVL68:
 797              	.L51:
 798              		.loc 1 364 0 discriminator 1
 799 003c 0029     		cmp	r1, #0
 800 003e E6D0     		beq	.L52
 801              		.loc 1 365 0
 802 0040 6FF00200 		mvn	r0, #2
 803              	.LVL69:
 804              		.loc 1 376 0
 805 0044 10BD     		pop	{r4, pc}
 806              		.cfi_endproc
 807              	.LFE16:
 808              		.size	chOQGetI, .-chOQGetI
 809 0046 00BFAFF3 		.section	.text.chOQWriteTimeout,"ax",%progbits
 809      0080AFF3 
 809      0080
 810              		.align	2
 811              		.p2align 4,,15
 812              		.global	chOQWriteTimeout
 813              		.thumb
 814              		.thumb_func
 815              		.type	chOQWriteTimeout, %function
 816              	chOQWriteTimeout:
 817              	.LFB17:
 818              		.loc 1 403 0
 819              		.cfi_startproc
 820              		@ args = 0, pretend = 0, frame = 0
 821              		@ frame_needed = 0, uses_anonymous_args = 0
 822              	.LVL70:
 823 0000 2DE9F047 		push	{r4, r5, r6, r7, r8, r9, sl, lr}
 824              	.LCFI10:
 825              		.cfi_def_cfa_offset 32
 826              		.cfi_offset 14, -4
 827              		.cfi_offset 10, -8
 828              		.cfi_offset 9, -12
 829              		.cfi_offset 8, -16
 830              		.cfi_offset 7, -20
 831              		.cfi_offset 6, -24
 832              		.cfi_offset 5, -28
 833              		.cfi_offset 4, -32
 834              		.loc 1 403 0
 835 0004 1E46     		mov	r6, r3
 836 0006 0446     		mov	r4, r0
 837 0008 0D46     		mov	r5, r1
 838 000a 1746     		mov	r7, r2
 839              		.loc 1 404 0
 840 000c D0F81C90 		ldr	r9, [r0, #28]
 841              	.LVL71:
 842              	.LBB35:
 843              		.loc 1 409 0
 844 0010 2023     		movs	r3, #32
 845              	.LVL72:
 846              	@ 409 "/opt/ChibiOS/ChibiOS_2.4.4/os/kernel/src/chqueues.c" 1
 847 0012 83F31188 		msr     BASEPRI, r3
ARM GAS  /tmp/ccT5b0ge.s 			page 16


 848              	@ 0 "" 2
 849              	.LVL73:
 850              		.loc 1 405 0
 851              		.thumb
 852 0016 4FF00008 		mov	r8, #0
 853              	.LVL74:
 854              	.L66:
 855              	.LBE35:
 856              		.loc 1 411 0 discriminator 1
 857 001a D4F808A0 		ldr	sl, [r4, #8]
 858 001e BAF1000F 		cmp	sl, #0
 859 0022 21D0     		beq	.L61
 860              	.LVL75:
 861              	.L67:
 862              		.loc 1 417 0
 863 0024 0AF1FF31 		add	r1, sl, #-1
 864 0028 A160     		str	r1, [r4, #8]
 865              		.loc 1 418 0
 866 002a 6369     		ldr	r3, [r4, #20]
 867              	.LVL76:
 868 002c 2878     		ldrb	r0, [r5, #0]	@ zero_extendqisi2
 869 002e 03F8010B 		strb	r0, [r3], #1
 870              		.loc 1 419 0
 871 0032 2269     		ldr	r2, [r4, #16]
 872              		.loc 1 418 0
 873 0034 6361     		str	r3, [r4, #20]
 874              	.LVL77:
 875              		.loc 1 419 0
 876 0036 9342     		cmp	r3, r2
 877              		.loc 1 420 0
 878 0038 24BF     		itt	cs
 879 003a E368     		ldrcs	r3, [r4, #12]
 880 003c 6361     		strcs	r3, [r4, #20]
 881              		.loc 1 422 0
 882 003e B9F1000F 		cmp	r9, #0
 883 0042 01D0     		beq	.L63
 884              		.loc 1 423 0
 885 0044 2046     		mov	r0, r4
 886 0046 C847     		blx	r9
 887              	.L63:
 888              	.LBB36:
 889              		.loc 1 425 0
 890 0048 0023     		movs	r3, #0
 891              	.LVL78:
 892              	@ 425 "/opt/ChibiOS/ChibiOS_2.4.4/os/kernel/src/chqueues.c" 1
 893 004a 83F31188 		msr     BASEPRI, r3
 894              	@ 0 "" 2
 895              	.LVL79:
 896              		.thumb
 897              	.LBE36:
 898              		.loc 1 427 0
 899 004e 013F     		subs	r7, r7, #1
 900              	.LVL80:
 901              		.loc 1 426 0
 902 0050 08F10108 		add	r8, r8, #1
 903              	.LVL81:
 904              		.loc 1 427 0
ARM GAS  /tmp/ccT5b0ge.s 			page 17


 905 0054 11D0     		beq	.L60
 906              		.loc 1 418 0
 907 0056 0135     		adds	r5, r5, #1
 908              	.LVL82:
 909              	.LBB37:
 910              		.loc 1 429 0
 911 0058 2023     		movs	r3, #32
 912              	.LVL83:
 913              	@ 429 "/opt/ChibiOS/ChibiOS_2.4.4/os/kernel/src/chqueues.c" 1
 914 005a 83F31188 		msr     BASEPRI, r3
 915              	@ 0 "" 2
 916              	.LVL84:
 917              		.thumb
 918              	.LBE37:
 919              		.loc 1 411 0
 920 005e D4F808A0 		ldr	sl, [r4, #8]
 921 0062 BAF1000F 		cmp	sl, #0
 922 0066 DDD1     		bne	.L67
 923              	.LVL85:
 924              	.L61:
 925              		.loc 1 412 0
 926 0068 2046     		mov	r0, r4
 927 006a 3146     		mov	r1, r6
 928 006c FFF7FEFF 		bl	qwait
 929              	.LVL86:
 930 0070 0028     		cmp	r0, #0
 931 0072 D2D0     		beq	.L66
 932              	.LBB38:
 933              		.loc 1 413 0
 934 0074 5346     		mov	r3, sl
 935              	.LVL87:
 936              	@ 413 "/opt/ChibiOS/ChibiOS_2.4.4/os/kernel/src/chqueues.c" 1
 937 0076 83F31188 		msr     BASEPRI, r3
 938              	@ 0 "" 2
 939              	.LVL88:
 940              		.thumb
 941              	.L60:
 942              	.LBE38:
 943              		.loc 1 431 0
 944 007a 4046     		mov	r0, r8
 945 007c BDE8F087 		pop	{r4, r5, r6, r7, r8, r9, sl, pc}
 946              		.cfi_endproc
 947              	.LFE17:
 948              		.size	chOQWriteTimeout, .-chOQWriteTimeout
 949              		.text
 950              	.Letext0:
 951              		.file 3 "/opt/arm/bin/../lib/gcc/arm-none-eabi/4.6.3/include/stddef.h"
 952              		.file 4 "/opt/arm/bin/../lib/gcc/arm-none-eabi/4.6.3/../../../../arm-none-eabi/include/stdint.h"
 953              		.file 5 "/opt/ChibiOS/ChibiOS_2.4.4/os/ports/GCC/ARMCMx/chtypes.h"
 954              		.file 6 "/opt/ChibiOS/ChibiOS_2.4.4/os/kernel/include/chlists.h"
 955              		.file 7 "/opt/ChibiOS/ChibiOS_2.4.4/os/kernel/include/chthreads.h"
 956              		.file 8 "/opt/ChibiOS/ChibiOS_2.4.4/os/ports/GCC/ARMCMx/chcore_v7m.h"
 957              		.file 9 "/opt/ChibiOS/ChibiOS_2.4.4/os/kernel/include/chschd.h"
 958              		.file 10 "/opt/ChibiOS/ChibiOS_2.4.4/os/kernel/include/chmtx.h"
 959              		.file 11 "/opt/ChibiOS/ChibiOS_2.4.4/os/kernel/include/chqueues.h"