ARM GAS  /tmp/ccaEtz0w.s 			page 1


   1              		.syntax unified
   2              		.cpu cortex-m4
   3              		.eabi_attribute 27, 3
   4              		.eabi_attribute 28, 1
   5              		.fpu fpv4-sp-d16
   6              		.eabi_attribute 20, 1
   7              		.eabi_attribute 21, 1
   8              		.eabi_attribute 23, 3
   9              		.eabi_attribute 24, 1
  10              		.eabi_attribute 25, 1
  11              		.eabi_attribute 26, 1
  12              		.eabi_attribute 30, 2
  13              		.eabi_attribute 34, 1
  14              		.eabi_attribute 18, 4
  15              		.thumb
  16              		.file	"chschd.c"
  17              		.text
  18              	.Ltext0:
  19              		.cfi_sections	.debug_frame
  20              		.section	.text.wakeup,"ax",%progbits
  21              		.align	2
  22              		.p2align 4,,15
  23              		.thumb
  24              		.thumb_func
  25              		.type	wakeup, %function
  26              	wakeup:
  27              	.LFB10:
  28              		.file 1 "/opt/ChibiOS/ChibiOS_2.4.4/os/kernel/src/chschd.c"
  29              		.loc 1 133 0
  30              		.cfi_startproc
  31              		@ args = 0, pretend = 0, frame = 0
  32              		@ frame_needed = 0, uses_anonymous_args = 0
  33              		@ link register save eliminated.
  34              	.LVL0:
  35              		.loc 1 136 0
  36 0000 037F     		ldrb	r3, [r0, #28]	@ zero_extendqisi2
  37 0002 0D2B     		cmp	r3, #13
  38 0004 11D8     		bhi	.L2
  39 0006 DFE803F0 		tbb	[pc, r3]
  40              	.L6:
  41 000a 23       		.byte	(.L1-.L6)/2
  42 000b 10       		.byte	(.L2-.L6)/2
  43 000c 10       		.byte	(.L2-.L6)/2
  44 000d 07       		.byte	(.L4-.L6)/2
  45 000e 10       		.byte	(.L2-.L6)/2
  46 000f 0B       		.byte	(.L5-.L6)/2
  47 0010 10       		.byte	(.L2-.L6)/2
  48 0011 10       		.byte	(.L2-.L6)/2
  49 0012 10       		.byte	(.L2-.L6)/2
  50 0013 10       		.byte	(.L2-.L6)/2
  51 0014 10       		.byte	(.L2-.L6)/2
  52 0015 10       		.byte	(.L2-.L6)/2
  53 0016 10       		.byte	(.L2-.L6)/2
  54 0017 0B       		.byte	(.L5-.L6)/2
  55              		.align	1
  56              	.L4:
  57              		.loc 1 145 0
ARM GAS  /tmp/ccaEtz0w.s 			page 2


  58 0018 416A     		ldr	r1, [r0, #36]
  59 001a 8B68     		ldr	r3, [r1, #8]
  60 001c 5A1C     		adds	r2, r3, #1
  61 001e 8A60     		str	r2, [r1, #8]
  62              	.L5:
  63              	.LVL1:
  64              	.LBB17:
  65              	.LBB18:
  66              		.file 2 "/opt/ChibiOS/ChibiOS_2.4.4/os/kernel/include/chinline.h"
  67              		.loc 2 75 0
  68 0020 90E80C00 		ldmia	r0, {r2, r3}
  69 0024 1A60     		str	r2, [r3, #0]
  70              		.loc 2 76 0
  71 0026 0268     		ldr	r2, [r0, #0]
  72 0028 5360     		str	r3, [r2, #4]
  73              	.LVL2:
  74              	.L2:
  75              	.LBE18:
  76              	.LBE17:
  77              		.loc 1 158 0
  78 002a 4FF0FF32 		mov	r2, #-1
  79              	.LBB19:
  80              	.LBB20:
  81              		.loc 1 92 0
  82 002e 40F20003 		movw	r3, #:lower16:.LANCHOR0
  83              	.LBE20:
  84              	.LBE19:
  85              		.loc 1 158 0
  86 0032 4262     		str	r2, [r0, #36]
  87              	.LVL3:
  88              	.LBB22:
  89              	.LBB21:
  90              		.loc 1 91 0
  91 0034 8168     		ldr	r1, [r0, #8]
  92 0036 0022     		movs	r2, #0
  93 0038 0277     		strb	r2, [r0, #28]
  94              	.LVL4:
  95              		.loc 1 92 0
  96 003a C0F20003 		movt	r3, #:upper16:.LANCHOR0
  97              	.LVL5:
  98              	.L7:
  99              		.loc 1 94 0
 100 003e 1B68     		ldr	r3, [r3, #0]
 101              	.LVL6:
 102              		.loc 1 95 0
 103 0040 9A68     		ldr	r2, [r3, #8]
 104 0042 8A42     		cmp	r2, r1
 105 0044 FBD2     		bcs	.L7
 106              		.loc 1 98 0
 107 0046 5968     		ldr	r1, [r3, #4]
 108              		.loc 1 97 0
 109 0048 0360     		str	r3, [r0, #0]
 110              		.loc 1 98 0
 111 004a 4160     		str	r1, [r0, #4]
 112              		.loc 1 99 0
 113 004c 0860     		str	r0, [r1, #0]
 114 004e 5860     		str	r0, [r3, #4]
ARM GAS  /tmp/ccaEtz0w.s 			page 3


 115              	.LVL7:
 116              	.L1:
 117 0050 7047     		bx	lr
 118              	.LBE21:
 119              	.LBE22:
 120              		.cfi_endproc
 121              	.LFE10:
 122              		.size	wakeup, .-wakeup
 123 0052 00BFAFF3 		.section	.text._scheduler_init,"ax",%progbits
 123      0080AFF3 
 123      0080AFF3 
 123      0080
 124              		.align	2
 125              		.p2align 4,,15
 126              		.global	_scheduler_init
 127              		.thumb
 128              		.thumb_func
 129              		.type	_scheduler_init, %function
 130              	_scheduler_init:
 131              	.LFB7:
 132              		.loc 1 55 0
 133              		.cfi_startproc
 134              		@ args = 0, pretend = 0, frame = 0
 135              		@ frame_needed = 0, uses_anonymous_args = 0
 136              		@ link register save eliminated.
 137              		.loc 1 57 0
 138 0000 40F20003 		movw	r3, #:lower16:.LANCHOR0
 139 0004 C0F20003 		movt	r3, #:upper16:.LANCHOR0
 140              		.loc 1 58 0
 141 0008 0020     		movs	r0, #0
 142              		.loc 1 60 0
 143 000a 1422     		movs	r2, #20
 144              		.loc 1 57 0
 145 000c 5B60     		str	r3, [r3, #4]
 146 000e 1B60     		str	r3, [r3, #0]
 147              		.loc 1 58 0
 148 0010 9860     		str	r0, [r3, #8]
 149              		.loc 1 60 0
 150 0012 9A61     		str	r2, [r3, #24]
 151              		.loc 1 63 0
 152 0014 5B61     		str	r3, [r3, #20]
 153 0016 1B61     		str	r3, [r3, #16]
 154              		.loc 1 65 0
 155 0018 7047     		bx	lr
 156              		.cfi_endproc
 157              	.LFE7:
 158              		.size	_scheduler_init, .-_scheduler_init
 159 001a 00BFAFF3 		.section	.text.chSchReadyI,"ax",%progbits
 159      0080
 160              		.align	2
 161              		.p2align 4,,15
 162              		.global	chSchReadyI
 163              		.thumb
 164              		.thumb_func
 165              		.type	chSchReadyI, %function
 166              	chSchReadyI:
 167              	.LFB8:
ARM GAS  /tmp/ccaEtz0w.s 			page 4


 168              		.loc 1 82 0
 169              		.cfi_startproc
 170              		@ args = 0, pretend = 0, frame = 0
 171              		@ frame_needed = 0, uses_anonymous_args = 0
 172              		@ link register save eliminated.
 173              	.LVL8:
 174              		.loc 1 92 0
 175 0000 40F20003 		movw	r3, #:lower16:.LANCHOR0
 176              		.loc 1 91 0
 177 0004 0022     		movs	r2, #0
 178 0006 8168     		ldr	r1, [r0, #8]
 179 0008 0277     		strb	r2, [r0, #28]
 180              	.LVL9:
 181              		.loc 1 92 0
 182 000a C0F20003 		movt	r3, #:upper16:.LANCHOR0
 183              	.LVL10:
 184              	.L12:
 185              		.loc 1 94 0 discriminator 1
 186 000e 1B68     		ldr	r3, [r3, #0]
 187              	.LVL11:
 188              		.loc 1 95 0 discriminator 1
 189 0010 9A68     		ldr	r2, [r3, #8]
 190 0012 8A42     		cmp	r2, r1
 191 0014 FBD2     		bcs	.L12
 192              		.loc 1 98 0
 193 0016 5968     		ldr	r1, [r3, #4]
 194              		.loc 1 97 0
 195 0018 0360     		str	r3, [r0, #0]
 196              		.loc 1 98 0
 197 001a 4160     		str	r1, [r0, #4]
 198              		.loc 1 99 0
 199 001c 0860     		str	r0, [r1, #0]
 200 001e 5860     		str	r0, [r3, #4]
 201              		.loc 1 101 0
 202 0020 7047     		bx	lr
 203              		.cfi_endproc
 204              	.LFE8:
 205              		.size	chSchReadyI, .-chSchReadyI
 206 0022 00BFAFF3 		.section	.text.chSchGoSleepS,"ax",%progbits
 206      0080AFF3 
 206      0080AFF3 
 206      0080
 207              		.align	2
 208              		.p2align 4,,15
 209              		.global	chSchGoSleepS
 210              		.thumb
 211              		.thumb_func
 212              		.type	chSchGoSleepS, %function
 213              	chSchGoSleepS:
 214              	.LFB9:
 215              		.loc 1 114 0
 216              		.cfi_startproc
 217              		@ args = 0, pretend = 0, frame = 0
 218              		@ frame_needed = 0, uses_anonymous_args = 0
 219              		@ link register save eliminated.
 220              	.LVL12:
 221              		.loc 1 119 0
ARM GAS  /tmp/ccaEtz0w.s 			page 5


 222 0000 40F20003 		movw	r3, #:lower16:.LANCHOR0
 223 0004 C0F20003 		movt	r3, #:upper16:.LANCHOR0
 224              		.loc 1 114 0
 225 0008 30B4     		push	{r4, r5}
 226              	.LCFI0:
 227              		.cfi_def_cfa_offset 8
 228              		.cfi_offset 5, -4
 229              		.cfi_offset 4, -8
 230              	.LBB23:
 231              	.LBB24:
 232              		.loc 2 60 0
 233 000a 1A68     		ldr	r2, [r3, #0]
 234              	.LBE24:
 235              	.LBE23:
 236              		.loc 1 119 0
 237 000c D969     		ldr	r1, [r3, #28]
 238              	.LVL13:
 239              	.LBB27:
 240              	.LBB25:
 241              		.loc 2 62 0
 242 000e 1468     		ldr	r4, [r2, #0]
 243              	.LBE25:
 244              	.LBE27:
 245              		.loc 1 119 0
 246 0010 0877     		strb	r0, [r1, #28]
 247              		.loc 1 121 0
 248 0012 1420     		movs	r0, #20
 249              	.LVL14:
 250 0014 9861     		str	r0, [r3, #24]
 251              	.LVL15:
 252              		.loc 1 124 0
 253 0016 0125     		movs	r5, #1
 254              		.loc 1 125 0
 255 0018 1046     		mov	r0, r2
 256              	.LBB28:
 257              	.LBB26:
 258              		.loc 2 62 0
 259 001a 6360     		str	r3, [r4, #4]
 260 001c 1C60     		str	r4, [r3, #0]
 261              	.LBE26:
 262              	.LBE28:
 263              		.loc 1 123 0
 264 001e DA61     		str	r2, [r3, #28]
 265              		.loc 1 124 0
 266 0020 1577     		strb	r5, [r2, #28]
 267              		.loc 1 126 0
 268 0022 30BC     		pop	{r4, r5}
 269              		.loc 1 125 0
 270 0024 FFF7FEBF 		b	_port_switch
 271              	.LVL16:
 272              	.LVL17:
 273              	.LVL18:
 274              		.cfi_endproc
 275              	.LFE9:
 276              		.size	chSchGoSleepS, .-chSchGoSleepS
 277 0028 AFF30080 		.section	.text.chSchGoSleepTimeoutS,"ax",%progbits
 277      AFF30080 
ARM GAS  /tmp/ccaEtz0w.s 			page 6


 278              		.align	2
 279              		.p2align 4,,15
 280              		.global	chSchGoSleepTimeoutS
 281              		.thumb
 282              		.thumb_func
 283              		.type	chSchGoSleepTimeoutS, %function
 284              	chSchGoSleepTimeoutS:
 285              	.LFB11:
 286              		.loc 1 183 0
 287              		.cfi_startproc
 288              		@ args = 0, pretend = 0, frame = 24
 289              		@ frame_needed = 0, uses_anonymous_args = 0
 290              	.LVL19:
 291 0000 30B5     		push	{r4, r5, lr}
 292              	.LCFI1:
 293              		.cfi_def_cfa_offset 12
 294              		.cfi_offset 14, -4
 295              		.cfi_offset 5, -8
 296              		.cfi_offset 4, -12
 297              		.loc 1 187 0
 298 0002 4B1C     		adds	r3, r1, #1
 299              		.loc 1 183 0
 300 0004 87B0     		sub	sp, sp, #28
 301              	.LCFI2:
 302              		.cfi_def_cfa_offset 40
 303              		.loc 1 183 0
 304 0006 0546     		mov	r5, r0
 305              		.loc 1 187 0
 306 0008 17D0     		beq	.L16
 307              	.LBB29:
 308              		.loc 1 190 0
 309 000a 40F20004 		movw	r4, #:lower16:.LANCHOR0
 310 000e C0F20004 		movt	r4, #:upper16:.LANCHOR0
 311 0012 40F20002 		movw	r2, #:lower16:wakeup
 312 0016 E369     		ldr	r3, [r4, #28]
 313 0018 C0F20002 		movt	r2, #:upper16:wakeup
 314 001c 01A8     		add	r0, sp, #4
 315              	.LVL20:
 316 001e FFF7FEFF 		bl	chVTSetI
 317              	.LVL21:
 318              		.loc 1 191 0
 319 0022 2846     		mov	r0, r5
 320 0024 FFF7FEFF 		bl	chSchGoSleepS
 321              		.loc 1 192 0
 322 0028 049B     		ldr	r3, [sp, #16]
 323 002a 13B1     		cbz	r3, .L17
 324              		.loc 1 193 0
 325 002c 01A8     		add	r0, sp, #4
 326 002e FFF7FEFF 		bl	chVTResetI
 327              	.L17:
 328              	.LBE29:
 329              		.loc 1 197 0
 330 0032 E069     		ldr	r0, [r4, #28]
 331              		.loc 1 198 0
 332 0034 406A     		ldr	r0, [r0, #36]
 333 0036 07B0     		add	sp, sp, #28
 334 0038 30BD     		pop	{r4, r5, pc}
ARM GAS  /tmp/ccaEtz0w.s 			page 7


 335              	.LVL22:
 336              	.L16:
 337 003a 40F20004 		movw	r4, #:lower16:.LANCHOR0
 338              		.loc 1 196 0
 339 003e FFF7FEFF 		bl	chSchGoSleepS
 340              	.LVL23:
 341 0042 C0F20004 		movt	r4, #:upper16:.LANCHOR0
 342 0046 F4E7     		b	.L17
 343              		.cfi_endproc
 344              	.LFE11:
 345              		.size	chSchGoSleepTimeoutS, .-chSchGoSleepTimeoutS
 346 0048 AFF30080 		.section	.text.chSchWakeupS,"ax",%progbits
 346      AFF30080 
 347              		.align	2
 348              		.p2align 4,,15
 349              		.global	chSchWakeupS
 350              		.thumb
 351              		.thumb_func
 352              		.type	chSchWakeupS, %function
 353              	chSchWakeupS:
 354              	.LFB12:
 355              		.loc 1 219 0
 356              		.cfi_startproc
 357              		@ args = 0, pretend = 0, frame = 0
 358              		@ frame_needed = 0, uses_anonymous_args = 0
 359              		@ link register save eliminated.
 360              	.LVL24:
 361              		.loc 1 228 0
 362 0000 40F20002 		movw	r2, #:lower16:.LANCHOR0
 363 0004 C0F20002 		movt	r2, #:upper16:.LANCHOR0
 364              		.loc 1 219 0
 365 0008 30B4     		push	{r4, r5}
 366              	.LCFI3:
 367              		.cfi_def_cfa_offset 8
 368              		.cfi_offset 5, -4
 369              		.cfi_offset 4, -8
 370              		.loc 1 228 0
 371 000a D469     		ldr	r4, [r2, #28]
 372 000c 8568     		ldr	r5, [r0, #8]
 373              		.loc 1 219 0
 374 000e 0346     		mov	r3, r0
 375              		.loc 1 228 0
 376 0010 A068     		ldr	r0, [r4, #8]
 377              	.LVL25:
 378              		.loc 1 223 0
 379 0012 5962     		str	r1, [r3, #36]
 380              	.LBB30:
 381              	.LBB31:
 382              		.loc 1 91 0
 383 0014 0021     		movs	r1, #0
 384              	.LVL26:
 385              	.LBE31:
 386              	.LBE30:
 387              		.loc 1 228 0
 388 0016 8542     		cmp	r5, r0
 389              	.LBB33:
 390              	.LBB34:
ARM GAS  /tmp/ccaEtz0w.s 			page 8


 391              	.LBB35:
 392              		.loc 1 91 0
 393 0018 84BF     		itt	hi
 394 001a 2177     		strbhi	r1, [r4, #28]
 395              	.LVL27:
 396              		.loc 1 92 0
 397 001c 1146     		movhi	r1, r2
 398              	.LBE35:
 399              	.LBE34:
 400              	.LBE33:
 401              		.loc 1 228 0
 402 001e 0BD8     		bhi	.L22
 403              	.LVL28:
 404              	.LBB40:
 405              	.LBB32:
 406              		.loc 1 91 0
 407 0020 1977     		strb	r1, [r3, #28]
 408              	.LVL29:
 409              	.L20:
 410              		.loc 1 94 0
 411 0022 1268     		ldr	r2, [r2, #0]
 412              	.LVL30:
 413              		.loc 1 95 0
 414 0024 9168     		ldr	r1, [r2, #8]
 415 0026 8D42     		cmp	r5, r1
 416 0028 FBD9     		bls	.L20
 417              		.loc 1 98 0
 418 002a 5068     		ldr	r0, [r2, #4]
 419              		.loc 1 97 0
 420 002c 1A60     		str	r2, [r3, #0]
 421              		.loc 1 98 0
 422 002e 5860     		str	r0, [r3, #4]
 423              		.loc 1 99 0
 424 0030 0360     		str	r3, [r0, #0]
 425 0032 5360     		str	r3, [r2, #4]
 426              	.LBE32:
 427              	.LBE40:
 428              		.loc 1 239 0
 429 0034 30BC     		pop	{r4, r5}
 430 0036 7047     		bx	lr
 431              	.LVL31:
 432              	.L22:
 433              	.LBB41:
 434              	.LBB38:
 435              	.LBB36:
 436              		.loc 1 94 0
 437 0038 0968     		ldr	r1, [r1, #0]
 438              	.LVL32:
 439              		.loc 1 95 0
 440 003a 8D68     		ldr	r5, [r1, #8]
 441 003c A842     		cmp	r0, r5
 442 003e FBD9     		bls	.L22
 443              		.loc 1 98 0
 444 0040 4868     		ldr	r0, [r1, #4]
 445              		.loc 1 97 0
 446 0042 2160     		str	r1, [r4, #0]
 447              		.loc 1 98 0
ARM GAS  /tmp/ccaEtz0w.s 			page 9


 448 0044 6060     		str	r0, [r4, #4]
 449              		.loc 1 99 0
 450 0046 4C60     		str	r4, [r1, #4]
 451              	.LBE36:
 452              	.LBE38:
 453              		.loc 1 236 0
 454 0048 0121     		movs	r1, #1
 455              	.LVL33:
 456              	.LBB39:
 457              	.LBB37:
 458              		.loc 1 99 0
 459 004a 0460     		str	r4, [r0, #0]
 460              	.LBE37:
 461              	.LBE39:
 462              		.loc 1 235 0
 463 004c D361     		str	r3, [r2, #28]
 464              		.loc 1 237 0
 465 004e 1846     		mov	r0, r3
 466              		.loc 1 236 0
 467 0050 1977     		strb	r1, [r3, #28]
 468              		.loc 1 233 0
 469 0052 1423     		movs	r3, #20
 470              	.LVL34:
 471              		.loc 1 237 0
 472 0054 2146     		mov	r1, r4
 473              		.loc 1 233 0
 474 0056 9361     		str	r3, [r2, #24]
 475              	.LBE41:
 476              		.loc 1 239 0
 477 0058 30BC     		pop	{r4, r5}
 478              	.LBB42:
 479              		.loc 1 237 0
 480 005a FFF7FEBF 		b	_port_switch
 481              	.LVL35:
 482              	.LVL36:
 483              	.LVL37:
 484              	.LBE42:
 485              		.cfi_endproc
 486              	.LFE12:
 487              		.size	chSchWakeupS, .-chSchWakeupS
 488 005e 00BF     		.section	.text.chSchDoReschedule,"ax",%progbits
 489              		.align	2
 490              		.p2align 4,,15
 491              		.global	chSchDoReschedule
 492              		.thumb
 493              		.thumb_func
 494              		.type	chSchDoReschedule, %function
 495              	chSchDoReschedule:
 496              	.LFB14:
 497              		.loc 1 298 0
 498              		.cfi_startproc
 499              		@ args = 0, pretend = 0, frame = 0
 500              		@ frame_needed = 0, uses_anonymous_args = 0
 501              		@ link register save eliminated.
 502              		.loc 1 302 0
 503 0000 40F20003 		movw	r3, #:lower16:.LANCHOR0
 504 0004 C0F20003 		movt	r3, #:upper16:.LANCHOR0
ARM GAS  /tmp/ccaEtz0w.s 			page 10


 505              		.loc 1 298 0
 506 0008 30B4     		push	{r4, r5}
 507              	.LCFI4:
 508              		.cfi_def_cfa_offset 8
 509              		.cfi_offset 5, -4
 510              		.cfi_offset 4, -8
 511              	.LBB43:
 512              	.LBB44:
 513              		.loc 2 60 0
 514 000a 1868     		ldr	r0, [r3, #0]
 515              	.LBE44:
 516              	.LBE43:
 517              		.loc 1 304 0
 518 000c D969     		ldr	r1, [r3, #28]
 519              	.LVL38:
 520              	.LBB48:
 521              	.LBB45:
 522              		.loc 2 62 0
 523 000e 0268     		ldr	r2, [r0, #0]
 524              	.LBE45:
 525              	.LBE48:
 526              	.LBB49:
 527              	.LBB50:
 528              		.loc 1 91 0
 529 0010 8C68     		ldr	r4, [r1, #8]
 530              	.LBE50:
 531              	.LBE49:
 532              	.LBB52:
 533              	.LBB46:
 534              		.loc 2 62 0
 535 0012 1A60     		str	r2, [r3, #0]
 536              	.LBE46:
 537              	.LBE52:
 538              		.loc 1 302 0
 539 0014 1425     		movs	r5, #20
 540 0016 9D61     		str	r5, [r3, #24]
 541              	.LBB53:
 542              	.LBB47:
 543              		.loc 2 62 0
 544 0018 5360     		str	r3, [r2, #4]
 545              	.LBE47:
 546              	.LBE53:
 547              		.loc 1 307 0
 548 001a 0122     		movs	r2, #1
 549              		.loc 1 306 0
 550 001c D861     		str	r0, [r3, #28]
 551              		.loc 1 307 0
 552 001e 0277     		strb	r2, [r0, #28]
 553              	.LVL39:
 554              	.LBB54:
 555              	.LBB51:
 556              		.loc 1 91 0
 557 0020 0022     		movs	r2, #0
 558 0022 0346     		mov	r3, r0
 559 0024 0A77     		strb	r2, [r1, #28]
 560              	.LVL40:
 561 0026 00E0     		b	.L27
ARM GAS  /tmp/ccaEtz0w.s 			page 11


 562              	.LVL41:
 563              	.L28:
 564              		.loc 1 95 0
 565 0028 1B68     		ldr	r3, [r3, #0]
 566              	.LVL42:
 567              	.L27:
 568 002a 9A68     		ldr	r2, [r3, #8]
 569 002c A242     		cmp	r2, r4
 570 002e FBD2     		bcs	.L28
 571              		.loc 1 98 0
 572 0030 5A68     		ldr	r2, [r3, #4]
 573              		.loc 1 97 0
 574 0032 0B60     		str	r3, [r1, #0]
 575              		.loc 1 98 0
 576 0034 4A60     		str	r2, [r1, #4]
 577              		.loc 1 99 0
 578 0036 1160     		str	r1, [r2, #0]
 579 0038 5960     		str	r1, [r3, #4]
 580              	.LBE51:
 581              	.LBE54:
 582              		.loc 1 310 0
 583 003a 30BC     		pop	{r4, r5}
 584              		.loc 1 309 0
 585 003c FFF7FEBF 		b	_port_switch
 586              	.LVL43:
 587              	.LVL44:
 588              	.LVL45:
 589              	.LVL46:
 590              		.cfi_endproc
 591              	.LFE14:
 592              		.size	chSchDoReschedule, .-chSchDoReschedule
 593              		.section	.text.chSchRescheduleS,"ax",%progbits
 594              		.align	2
 595              		.p2align 4,,15
 596              		.global	chSchRescheduleS
 597              		.thumb
 598              		.thumb_func
 599              		.type	chSchRescheduleS, %function
 600              	chSchRescheduleS:
 601              	.LFB13:
 602              		.loc 1 250 0
 603              		.cfi_startproc
 604              		@ args = 0, pretend = 0, frame = 0
 605              		@ frame_needed = 0, uses_anonymous_args = 0
 606              		@ link register save eliminated.
 607              		.loc 1 254 0
 608 0000 40F2000C 		movw	ip, #:lower16:.LANCHOR0
 609 0004 C0F2000C 		movt	ip, #:upper16:.LANCHOR0
 610 0008 DCF80010 		ldr	r1, [ip, #0]
 611 000c DCF81C00 		ldr	r0, [ip, #28]
 612 0010 8A68     		ldr	r2, [r1, #8]
 613 0012 8368     		ldr	r3, [r0, #8]
 614 0014 9A42     		cmp	r2, r3
 615 0016 00D8     		bhi	.L31
 616 0018 7047     		bx	lr
 617              	.L31:
 618              		.loc 1 256 0
ARM GAS  /tmp/ccaEtz0w.s 			page 12


 619              		.loc 1 255 0
 620 001a FFF7FEBF 		b	chSchDoReschedule
 621              		.cfi_endproc
 622              	.LFE13:
 623              		.size	chSchRescheduleS, .-chSchRescheduleS
 624              		.global	rlist
 625 001e 00BF     		.section	.bss.rlist,"aw",%nobits
 626              		.align	2
 627              		.set	.LANCHOR0,. + 0
 628              		.type	rlist, %object
 629              		.size	rlist, 32
 630              	rlist:
 631 0000 00000000 		.space	32
 631      00000000 
 631      00000000 
 631      00000000 
 631      00000000 
 632              		.text
 633              	.Letext0:
 634              		.file 3 "/opt/arm/bin/../lib/gcc/arm-none-eabi/4.6.3/../../../../arm-none-eabi/include/stdint.h"
 635              		.file 4 "/opt/ChibiOS/ChibiOS_2.4.4/os/ports/GCC/ARMCMx/chtypes.h"
 636              		.file 5 "/opt/ChibiOS/ChibiOS_2.4.4/os/kernel/include/chlists.h"
 637              		.file 6 "/opt/ChibiOS/ChibiOS_2.4.4/os/kernel/include/chthreads.h"
 638              		.file 7 "/opt/ChibiOS/ChibiOS_2.4.4/os/ports/GCC/ARMCMx/chcore_v7m.h"
 639              		.file 8 "/opt/ChibiOS/ChibiOS_2.4.4/os/kernel/include/chvt.h"
 640              		.file 9 "/opt/ChibiOS/ChibiOS_2.4.4/os/kernel/include/chschd.h"
 641              		.file 10 "/opt/ChibiOS/ChibiOS_2.4.4/os/kernel/include/chsem.h"
 642              		.file 11 "/opt/ChibiOS/ChibiOS_2.4.4/os/kernel/include/chmtx.h"
 643              		.section	.debug_info,"",%progbits
 644              	.Ldebug_info0:
 645 0000 F3070000 		.4byte	0x7f3
 646 0004 0200     		.2byte	0x2
 647 0006 00000000 		.4byte	.Ldebug_abbrev0
 648 000a 04       		.byte	0x4
 649 000b 01       		.uleb128 0x1
 650 000c 7E020000 		.4byte	.LASF80
 651 0010 01       		.byte	0x1
 652 0011 00010000 		.4byte	.LASF81
 653 0015 00000000 		.4byte	0
 654 0019 00000000 		.4byte	0
 655 001d 80010000 		.4byte	.Ldebug_ranges0+0x180
 656 0021 00000000 		.4byte	.Ldebug_line0
 657 0025 02       		.uleb128 0x2
 658 0026 04       		.byte	0x4
 659 0027 05       		.byte	0x5
 660 0028 696E7400 		.ascii	"int\000"
 661 002c 03       		.uleb128 0x3
 662 002d 04       		.byte	0x4
 663 002e 07       		.byte	0x7
 664 002f D2000000 		.4byte	.LASF0
 665 0033 03       		.uleb128 0x3
 666 0034 01       		.byte	0x1
 667 0035 06       		.byte	0x6
 668 0036 52000000 		.4byte	.LASF1
 669 003a 04       		.uleb128 0x4
 670 003b 12030000 		.4byte	.LASF5
 671 003f 03       		.byte	0x3
ARM GAS  /tmp/ccaEtz0w.s 			page 13


 672 0040 2A       		.byte	0x2a
 673 0041 45000000 		.4byte	0x45
 674 0045 03       		.uleb128 0x3
 675 0046 01       		.byte	0x1
 676 0047 08       		.byte	0x8
 677 0048 F0010000 		.4byte	.LASF2
 678 004c 03       		.uleb128 0x3
 679 004d 02       		.byte	0x2
 680 004e 05       		.byte	0x5
 681 004f 11020000 		.4byte	.LASF3
 682 0053 03       		.uleb128 0x3
 683 0054 02       		.byte	0x2
 684 0055 07       		.byte	0x7
 685 0056 40010000 		.4byte	.LASF4
 686 005a 04       		.uleb128 0x4
 687 005b E8010000 		.4byte	.LASF6
 688 005f 03       		.byte	0x3
 689 0060 4F       		.byte	0x4f
 690 0061 65000000 		.4byte	0x65
 691 0065 03       		.uleb128 0x3
 692 0066 04       		.byte	0x4
 693 0067 05       		.byte	0x5
 694 0068 6E000000 		.4byte	.LASF7
 695 006c 04       		.uleb128 0x4
 696 006d 60020000 		.4byte	.LASF8
 697 0071 03       		.byte	0x3
 698 0072 50       		.byte	0x50
 699 0073 77000000 		.4byte	0x77
 700 0077 03       		.uleb128 0x3
 701 0078 04       		.byte	0x4
 702 0079 07       		.byte	0x7
 703 007a EE000000 		.4byte	.LASF9
 704 007e 03       		.uleb128 0x3
 705 007f 08       		.byte	0x8
 706 0080 05       		.byte	0x5
 707 0081 44000000 		.4byte	.LASF10
 708 0085 03       		.uleb128 0x3
 709 0086 08       		.byte	0x8
 710 0087 07       		.byte	0x7
 711 0088 0D000000 		.4byte	.LASF11
 712 008c 04       		.uleb128 0x4
 713 008d 66010000 		.4byte	.LASF12
 714 0091 04       		.byte	0x4
 715 0092 2F       		.byte	0x2f
 716 0093 3A000000 		.4byte	0x3a
 717 0097 04       		.uleb128 0x4
 718 0098 77000000 		.4byte	.LASF13
 719 009c 04       		.byte	0x4
 720 009d 30       		.byte	0x30
 721 009e 3A000000 		.4byte	0x3a
 722 00a2 04       		.uleb128 0x4
 723 00a3 D1010000 		.4byte	.LASF14
 724 00a7 04       		.byte	0x4
 725 00a8 31       		.byte	0x31
 726 00a9 3A000000 		.4byte	0x3a
 727 00ad 04       		.uleb128 0x4
 728 00ae E0010000 		.4byte	.LASF15
ARM GAS  /tmp/ccaEtz0w.s 			page 14


 729 00b2 04       		.byte	0x4
 730 00b3 32       		.byte	0x32
 731 00b4 6C000000 		.4byte	0x6c
 732 00b8 04       		.uleb128 0x4
 733 00b9 60010000 		.4byte	.LASF16
 734 00bd 04       		.byte	0x4
 735 00be 33       		.byte	0x33
 736 00bf 5A000000 		.4byte	0x5a
 737 00c3 04       		.uleb128 0x4
 738 00c4 7A010000 		.4byte	.LASF17
 739 00c8 04       		.byte	0x4
 740 00c9 35       		.byte	0x35
 741 00ca 6C000000 		.4byte	0x6c
 742 00ce 04       		.uleb128 0x4
 743 00cf AE020000 		.4byte	.LASF18
 744 00d3 04       		.byte	0x4
 745 00d4 36       		.byte	0x36
 746 00d5 6C000000 		.4byte	0x6c
 747 00d9 04       		.uleb128 0x4
 748 00da CC000000 		.4byte	.LASF19
 749 00de 04       		.byte	0x4
 750 00df 37       		.byte	0x37
 751 00e0 5A000000 		.4byte	0x5a
 752 00e4 04       		.uleb128 0x4
 753 00e5 40020000 		.4byte	.LASF20
 754 00e9 05       		.byte	0x5
 755 00ea 2A       		.byte	0x2a
 756 00eb EF000000 		.4byte	0xef
 757 00ef 05       		.uleb128 0x5
 758 00f0 40020000 		.4byte	.LASF20
 759 00f4 48       		.byte	0x48
 760 00f5 06       		.byte	0x6
 761 00f6 5E       		.byte	0x5e
 762 00f7 06020000 		.4byte	0x206
 763 00fb 06       		.uleb128 0x6
 764 00fc 31020000 		.4byte	.LASF21
 765 0100 06       		.byte	0x6
 766 0101 5F       		.byte	0x5f
 767 0102 2B020000 		.4byte	0x22b
 768 0106 02       		.byte	0x2
 769 0107 23       		.byte	0x23
 770 0108 00       		.uleb128 0
 771 0109 06       		.uleb128 0x6
 772 010a D9010000 		.4byte	.LASF22
 773 010e 06       		.byte	0x6
 774 010f 61       		.byte	0x61
 775 0110 2B020000 		.4byte	0x22b
 776 0114 02       		.byte	0x2
 777 0115 23       		.byte	0x23
 778 0116 04       		.uleb128 0x4
 779 0117 06       		.uleb128 0x6
 780 0118 2D000000 		.4byte	.LASF23
 781 011c 06       		.byte	0x6
 782 011d 63       		.byte	0x63
 783 011e AD000000 		.4byte	0xad
 784 0122 02       		.byte	0x2
 785 0123 23       		.byte	0x23
ARM GAS  /tmp/ccaEtz0w.s 			page 15


 786 0124 08       		.uleb128 0x8
 787 0125 06       		.uleb128 0x6
 788 0126 4F030000 		.4byte	.LASF24
 789 012a 06       		.byte	0x6
 790 012b 64       		.byte	0x64
 791 012c F8020000 		.4byte	0x2f8
 792 0130 02       		.byte	0x2
 793 0131 23       		.byte	0x23
 794 0132 0C       		.uleb128 0xc
 795 0133 06       		.uleb128 0x6
 796 0134 80000000 		.4byte	.LASF25
 797 0138 06       		.byte	0x6
 798 0139 66       		.byte	0x66
 799 013a 2B020000 		.4byte	0x22b
 800 013e 02       		.byte	0x2
 801 013f 23       		.byte	0x23
 802 0140 10       		.uleb128 0x10
 803 0141 06       		.uleb128 0x6
 804 0142 9C010000 		.4byte	.LASF26
 805 0146 06       		.byte	0x6
 806 0147 67       		.byte	0x67
 807 0148 2B020000 		.4byte	0x22b
 808 014c 02       		.byte	0x2
 809 014d 23       		.byte	0x23
 810 014e 14       		.uleb128 0x14
 811 014f 06       		.uleb128 0x6
 812 0150 21030000 		.4byte	.LASF27
 813 0154 06       		.byte	0x6
 814 0155 6E       		.byte	0x6e
 815 0156 C8040000 		.4byte	0x4c8
 816 015a 02       		.byte	0x2
 817 015b 23       		.byte	0x23
 818 015c 18       		.uleb128 0x18
 819 015d 06       		.uleb128 0x6
 820 015e 1B020000 		.4byte	.LASF28
 821 0162 06       		.byte	0x6
 822 0163 79       		.byte	0x79
 823 0164 97000000 		.4byte	0x97
 824 0168 02       		.byte	0x2
 825 0169 23       		.byte	0x23
 826 016a 1C       		.uleb128 0x1c
 827 016b 06       		.uleb128 0x6
 828 016c 38020000 		.4byte	.LASF29
 829 0170 06       		.byte	0x6
 830 0171 7D       		.byte	0x7d
 831 0172 8C000000 		.4byte	0x8c
 832 0176 02       		.byte	0x2
 833 0177 23       		.byte	0x23
 834 0178 1D       		.uleb128 0x1d
 835 0179 06       		.uleb128 0x6
 836 017a FB020000 		.4byte	.LASF30
 837 017e 06       		.byte	0x6
 838 017f 82       		.byte	0x82
 839 0180 A2000000 		.4byte	0xa2
 840 0184 02       		.byte	0x2
 841 0185 23       		.byte	0x23
 842 0186 1E       		.uleb128 0x1e
ARM GAS  /tmp/ccaEtz0w.s 			page 16


 843 0187 06       		.uleb128 0x6
 844 0188 CC020000 		.4byte	.LASF31
 845 018c 06       		.byte	0x6
 846 018d 89       		.byte	0x89
 847 018e 9C030000 		.4byte	0x39c
 848 0192 02       		.byte	0x2
 849 0193 23       		.byte	0x23
 850 0194 20       		.uleb128 0x20
 851 0195 07       		.uleb128 0x7
 852 0196 705F7500 		.ascii	"p_u\000"
 853 019a 06       		.byte	0x6
 854 019b AE       		.byte	0xae
 855 019c 93040000 		.4byte	0x493
 856 01a0 02       		.byte	0x2
 857 01a1 23       		.byte	0x23
 858 01a2 24       		.uleb128 0x24
 859 01a3 06       		.uleb128 0x6
 860 01a4 55030000 		.4byte	.LASF32
 861 01a8 06       		.byte	0x6
 862 01a9 B3       		.byte	0xb3
 863 01aa 53020000 		.4byte	0x253
 864 01ae 02       		.byte	0x2
 865 01af 23       		.byte	0x23
 866 01b0 28       		.uleb128 0x28
 867 01b1 06       		.uleb128 0x6
 868 01b2 DA020000 		.4byte	.LASF33
 869 01b6 06       		.byte	0x6
 870 01b7 B9       		.byte	0xb9
 871 01b8 31020000 		.4byte	0x231
 872 01bc 02       		.byte	0x2
 873 01bd 23       		.byte	0x23
 874 01be 2C       		.uleb128 0x2c
 875 01bf 06       		.uleb128 0x6
 876 01c0 00000000 		.4byte	.LASF34
 877 01c4 06       		.byte	0x6
 878 01c5 BD       		.byte	0xbd
 879 01c6 B8000000 		.4byte	0xb8
 880 01ca 02       		.byte	0x2
 881 01cb 23       		.byte	0x23
 882 01cc 34       		.uleb128 0x34
 883 01cd 06       		.uleb128 0x6
 884 01ce 55020000 		.4byte	.LASF35
 885 01d2 06       		.byte	0x6
 886 01d3 C3       		.byte	0xc3
 887 01d4 C3000000 		.4byte	0xc3
 888 01d8 02       		.byte	0x2
 889 01d9 23       		.byte	0x23
 890 01da 38       		.uleb128 0x38
 891 01db 06       		.uleb128 0x6
 892 01dc 07020000 		.4byte	.LASF36
 893 01e0 06       		.byte	0x6
 894 01e1 CA       		.byte	0xca
 895 01e2 DA040000 		.4byte	0x4da
 896 01e6 02       		.byte	0x2
 897 01e7 23       		.byte	0x23
 898 01e8 3C       		.uleb128 0x3c
 899 01e9 06       		.uleb128 0x6
ARM GAS  /tmp/ccaEtz0w.s 			page 17


 900 01ea B8020000 		.4byte	.LASF37
 901 01ee 06       		.byte	0x6
 902 01ef CE       		.byte	0xce
 903 01f0 AD000000 		.4byte	0xad
 904 01f4 02       		.byte	0x2
 905 01f5 23       		.byte	0x23
 906 01f6 40       		.uleb128 0x40
 907 01f7 06       		.uleb128 0x6
 908 01f8 5E000000 		.4byte	.LASF38
 909 01fc 06       		.byte	0x6
 910 01fd D4       		.byte	0xd4
 911 01fe 69020000 		.4byte	0x269
 912 0202 02       		.byte	0x2
 913 0203 23       		.byte	0x23
 914 0204 44       		.uleb128 0x44
 915 0205 00       		.byte	0
 916 0206 08       		.uleb128 0x8
 917 0207 08       		.byte	0x8
 918 0208 05       		.byte	0x5
 919 0209 61       		.byte	0x61
 920 020a 2B020000 		.4byte	0x22b
 921 020e 06       		.uleb128 0x6
 922 020f 31020000 		.4byte	.LASF21
 923 0213 05       		.byte	0x5
 924 0214 62       		.byte	0x62
 925 0215 2B020000 		.4byte	0x22b
 926 0219 02       		.byte	0x2
 927 021a 23       		.byte	0x23
 928 021b 00       		.uleb128 0
 929 021c 06       		.uleb128 0x6
 930 021d D9010000 		.4byte	.LASF22
 931 0221 05       		.byte	0x5
 932 0222 64       		.byte	0x64
 933 0223 2B020000 		.4byte	0x22b
 934 0227 02       		.byte	0x2
 935 0228 23       		.byte	0x23
 936 0229 04       		.uleb128 0x4
 937 022a 00       		.byte	0
 938 022b 09       		.uleb128 0x9
 939 022c 04       		.byte	0x4
 940 022d E4000000 		.4byte	0xe4
 941 0231 04       		.uleb128 0x4
 942 0232 AA010000 		.4byte	.LASF39
 943 0236 05       		.byte	0x5
 944 0237 66       		.byte	0x66
 945 0238 06020000 		.4byte	0x206
 946 023c 08       		.uleb128 0x8
 947 023d 04       		.byte	0x4
 948 023e 05       		.byte	0x5
 949 023f 6B       		.byte	0x6b
 950 0240 53020000 		.4byte	0x253
 951 0244 06       		.uleb128 0x6
 952 0245 31020000 		.4byte	.LASF21
 953 0249 05       		.byte	0x5
 954 024a 6D       		.byte	0x6d
 955 024b 2B020000 		.4byte	0x22b
 956 024f 02       		.byte	0x2
ARM GAS  /tmp/ccaEtz0w.s 			page 18


 957 0250 23       		.byte	0x23
 958 0251 00       		.uleb128 0
 959 0252 00       		.byte	0
 960 0253 04       		.uleb128 0x4
 961 0254 6E010000 		.4byte	.LASF40
 962 0258 05       		.byte	0x5
 963 0259 70       		.byte	0x70
 964 025a 3C020000 		.4byte	0x23c
 965 025e 04       		.uleb128 0x4
 966 025f A9000000 		.4byte	.LASF41
 967 0263 07       		.byte	0x7
 968 0264 D7       		.byte	0xd7
 969 0265 69020000 		.4byte	0x269
 970 0269 0A       		.uleb128 0xa
 971 026a 04       		.byte	0x4
 972 026b 05       		.uleb128 0x5
 973 026c D3020000 		.4byte	.LASF42
 974 0270 24       		.byte	0x24
 975 0271 07       		.byte	0x7
 976 0272 FE       		.byte	0xfe
 977 0273 F8020000 		.4byte	0x2f8
 978 0277 0B       		.uleb128 0xb
 979 0278 723400   		.ascii	"r4\000"
 980 027b 07       		.byte	0x7
 981 027c 1101     		.2byte	0x111
 982 027e 5E020000 		.4byte	0x25e
 983 0282 02       		.byte	0x2
 984 0283 23       		.byte	0x23
 985 0284 00       		.uleb128 0
 986 0285 0B       		.uleb128 0xb
 987 0286 723500   		.ascii	"r5\000"
 988 0289 07       		.byte	0x7
 989 028a 1201     		.2byte	0x112
 990 028c 5E020000 		.4byte	0x25e
 991 0290 02       		.byte	0x2
 992 0291 23       		.byte	0x23
 993 0292 04       		.uleb128 0x4
 994 0293 0B       		.uleb128 0xb
 995 0294 723600   		.ascii	"r6\000"
 996 0297 07       		.byte	0x7
 997 0298 1301     		.2byte	0x113
 998 029a 5E020000 		.4byte	0x25e
 999 029e 02       		.byte	0x2
 1000 029f 23       		.byte	0x23
 1001 02a0 08       		.uleb128 0x8
 1002 02a1 0B       		.uleb128 0xb
 1003 02a2 723700   		.ascii	"r7\000"
 1004 02a5 07       		.byte	0x7
 1005 02a6 1401     		.2byte	0x114
 1006 02a8 5E020000 		.4byte	0x25e
 1007 02ac 02       		.byte	0x2
 1008 02ad 23       		.byte	0x23
 1009 02ae 0C       		.uleb128 0xc
 1010 02af 0B       		.uleb128 0xb
 1011 02b0 723800   		.ascii	"r8\000"
 1012 02b3 07       		.byte	0x7
 1013 02b4 1501     		.2byte	0x115
ARM GAS  /tmp/ccaEtz0w.s 			page 19


 1014 02b6 5E020000 		.4byte	0x25e
 1015 02ba 02       		.byte	0x2
 1016 02bb 23       		.byte	0x23
 1017 02bc 10       		.uleb128 0x10
 1018 02bd 0B       		.uleb128 0xb
 1019 02be 723900   		.ascii	"r9\000"
 1020 02c1 07       		.byte	0x7
 1021 02c2 1601     		.2byte	0x116
 1022 02c4 5E020000 		.4byte	0x25e
 1023 02c8 02       		.byte	0x2
 1024 02c9 23       		.byte	0x23
 1025 02ca 14       		.uleb128 0x14
 1026 02cb 0B       		.uleb128 0xb
 1027 02cc 72313000 		.ascii	"r10\000"
 1028 02d0 07       		.byte	0x7
 1029 02d1 1701     		.2byte	0x117
 1030 02d3 5E020000 		.4byte	0x25e
 1031 02d7 02       		.byte	0x2
 1032 02d8 23       		.byte	0x23
 1033 02d9 18       		.uleb128 0x18
 1034 02da 0B       		.uleb128 0xb
 1035 02db 72313100 		.ascii	"r11\000"
 1036 02df 07       		.byte	0x7
 1037 02e0 1801     		.2byte	0x118
 1038 02e2 5E020000 		.4byte	0x25e
 1039 02e6 02       		.byte	0x2
 1040 02e7 23       		.byte	0x23
 1041 02e8 1C       		.uleb128 0x1c
 1042 02e9 0B       		.uleb128 0xb
 1043 02ea 6C7200   		.ascii	"lr\000"
 1044 02ed 07       		.byte	0x7
 1045 02ee 1901     		.2byte	0x119
 1046 02f0 5E020000 		.4byte	0x25e
 1047 02f4 02       		.byte	0x2
 1048 02f5 23       		.byte	0x23
 1049 02f6 20       		.uleb128 0x20
 1050 02f7 00       		.byte	0
 1051 02f8 0C       		.uleb128 0xc
 1052 02f9 38010000 		.4byte	.LASF43
 1053 02fd 04       		.byte	0x4
 1054 02fe 07       		.byte	0x7
 1055 02ff 2301     		.2byte	0x123
 1056 0301 15030000 		.4byte	0x315
 1057 0305 0B       		.uleb128 0xb
 1058 0306 72313300 		.ascii	"r13\000"
 1059 030a 07       		.byte	0x7
 1060 030b 2401     		.2byte	0x124
 1061 030d 15030000 		.4byte	0x315
 1062 0311 02       		.byte	0x2
 1063 0312 23       		.byte	0x23
 1064 0313 00       		.uleb128 0
 1065 0314 00       		.byte	0
 1066 0315 09       		.uleb128 0x9
 1067 0316 04       		.byte	0x4
 1068 0317 6B020000 		.4byte	0x26b
 1069 031b 04       		.uleb128 0x4
 1070 031c C3020000 		.4byte	.LASF44
ARM GAS  /tmp/ccaEtz0w.s 			page 20


 1071 0320 08       		.byte	0x8
 1072 0321 58       		.byte	0x58
 1073 0322 26030000 		.4byte	0x326
 1074 0326 09       		.uleb128 0x9
 1075 0327 04       		.byte	0x4
 1076 0328 2C030000 		.4byte	0x32c
 1077 032c 0D       		.uleb128 0xd
 1078 032d 01       		.byte	0x1
 1079 032e 38030000 		.4byte	0x338
 1080 0332 0E       		.uleb128 0xe
 1081 0333 69020000 		.4byte	0x269
 1082 0337 00       		.byte	0
 1083 0338 04       		.uleb128 0x4
 1084 0339 71020000 		.4byte	.LASF45
 1085 033d 08       		.byte	0x8
 1086 033e 5D       		.byte	0x5d
 1087 033f 43030000 		.4byte	0x343
 1088 0343 05       		.uleb128 0x5
 1089 0344 71020000 		.4byte	.LASF45
 1090 0348 14       		.byte	0x14
 1091 0349 08       		.byte	0x8
 1092 034a 64       		.byte	0x64
 1093 034b 96030000 		.4byte	0x396
 1094 034f 06       		.uleb128 0x6
 1095 0350 E6000000 		.4byte	.LASF46
 1096 0354 08       		.byte	0x8
 1097 0355 65       		.byte	0x65
 1098 0356 96030000 		.4byte	0x396
 1099 035a 02       		.byte	0x2
 1100 035b 23       		.byte	0x23
 1101 035c 00       		.uleb128 0
 1102 035d 06       		.uleb128 0x6
 1103 035e B2000000 		.4byte	.LASF47
 1104 0362 08       		.byte	0x8
 1105 0363 67       		.byte	0x67
 1106 0364 96030000 		.4byte	0x396
 1107 0368 02       		.byte	0x2
 1108 0369 23       		.byte	0x23
 1109 036a 04       		.uleb128 0x4
 1110 036b 06       		.uleb128 0x6
 1111 036c 8C010000 		.4byte	.LASF48
 1112 0370 08       		.byte	0x8
 1113 0371 69       		.byte	0x69
 1114 0372 CE000000 		.4byte	0xce
 1115 0376 02       		.byte	0x2
 1116 0377 23       		.byte	0x23
 1117 0378 08       		.uleb128 0x8
 1118 0379 06       		.uleb128 0x6
 1119 037a 94010000 		.4byte	.LASF49
 1120 037e 08       		.byte	0x8
 1121 037f 6A       		.byte	0x6a
 1122 0380 1B030000 		.4byte	0x31b
 1123 0384 02       		.byte	0x2
 1124 0385 23       		.byte	0x23
 1125 0386 0C       		.uleb128 0xc
 1126 0387 06       		.uleb128 0x6
 1127 0388 EA020000 		.4byte	.LASF50
ARM GAS  /tmp/ccaEtz0w.s 			page 21


 1128 038c 08       		.byte	0x8
 1129 038d 6C       		.byte	0x6c
 1130 038e 69020000 		.4byte	0x269
 1131 0392 02       		.byte	0x2
 1132 0393 23       		.byte	0x23
 1133 0394 10       		.uleb128 0x10
 1134 0395 00       		.byte	0
 1135 0396 09       		.uleb128 0x9
 1136 0397 04       		.byte	0x4
 1137 0398 38030000 		.4byte	0x338
 1138 039c 0F       		.uleb128 0xf
 1139 039d CE000000 		.4byte	0xce
 1140 03a1 08       		.uleb128 0x8
 1141 03a2 20       		.byte	0x20
 1142 03a3 09       		.byte	0x9
 1143 03a4 5E       		.byte	0x5e
 1144 03a5 0C040000 		.4byte	0x40c
 1145 03a9 06       		.uleb128 0x6
 1146 03aa 69020000 		.4byte	.LASF51
 1147 03ae 09       		.byte	0x9
 1148 03af 5F       		.byte	0x5f
 1149 03b0 31020000 		.4byte	0x231
 1150 03b4 02       		.byte	0x2
 1151 03b5 23       		.byte	0x23
 1152 03b6 00       		.uleb128 0
 1153 03b7 06       		.uleb128 0x6
 1154 03b8 23020000 		.4byte	.LASF52
 1155 03bc 09       		.byte	0x9
 1156 03bd 60       		.byte	0x60
 1157 03be AD000000 		.4byte	0xad
 1158 03c2 02       		.byte	0x2
 1159 03c3 23       		.byte	0x23
 1160 03c4 08       		.uleb128 0x8
 1161 03c5 06       		.uleb128 0x6
 1162 03c6 A4010000 		.4byte	.LASF53
 1163 03ca 09       		.byte	0x9
 1164 03cb 62       		.byte	0x62
 1165 03cc F8020000 		.4byte	0x2f8
 1166 03d0 02       		.byte	0x2
 1167 03d1 23       		.byte	0x23
 1168 03d2 0C       		.uleb128 0xc
 1169 03d3 06       		.uleb128 0x6
 1170 03d4 A1000000 		.4byte	.LASF54
 1171 03d8 09       		.byte	0x9
 1172 03d9 65       		.byte	0x65
 1173 03da 2B020000 		.4byte	0x22b
 1174 03de 02       		.byte	0x2
 1175 03df 23       		.byte	0x23
 1176 03e0 10       		.uleb128 0x10
 1177 03e1 06       		.uleb128 0x6
 1178 03e2 C9010000 		.4byte	.LASF55
 1179 03e6 09       		.byte	0x9
 1180 03e7 66       		.byte	0x66
 1181 03e8 2B020000 		.4byte	0x22b
 1182 03ec 02       		.byte	0x2
 1183 03ed 23       		.byte	0x23
 1184 03ee 14       		.uleb128 0x14
ARM GAS  /tmp/ccaEtz0w.s 			page 22


 1185 03ef 06       		.uleb128 0x6
 1186 03f0 3D030000 		.4byte	.LASF56
 1187 03f4 09       		.byte	0x9
 1188 03f5 6A       		.byte	0x6a
 1189 03f6 D9000000 		.4byte	0xd9
 1190 03fa 02       		.byte	0x2
 1191 03fb 23       		.byte	0x23
 1192 03fc 18       		.uleb128 0x18
 1193 03fd 06       		.uleb128 0x6
 1194 03fe BF010000 		.4byte	.LASF57
 1195 0402 09       		.byte	0x9
 1196 0403 6C       		.byte	0x6c
 1197 0404 2B020000 		.4byte	0x22b
 1198 0408 02       		.byte	0x2
 1199 0409 23       		.byte	0x23
 1200 040a 1C       		.uleb128 0x1c
 1201 040b 00       		.byte	0
 1202 040c 04       		.uleb128 0x4
 1203 040d 02030000 		.4byte	.LASF58
 1204 0411 09       		.byte	0x9
 1205 0412 6E       		.byte	0x6e
 1206 0413 A1030000 		.4byte	0x3a1
 1207 0417 05       		.uleb128 0x5
 1208 0418 F1020000 		.4byte	.LASF59
 1209 041c 0C       		.byte	0xc
 1210 041d 0A       		.byte	0xa
 1211 041e 2C       		.byte	0x2c
 1212 041f 40040000 		.4byte	0x440
 1213 0423 06       		.uleb128 0x6
 1214 0424 88000000 		.4byte	.LASF60
 1215 0428 0A       		.byte	0xa
 1216 0429 2D       		.byte	0x2d
 1217 042a 31020000 		.4byte	0x231
 1218 042e 02       		.byte	0x2
 1219 042f 23       		.byte	0x23
 1220 0430 00       		.uleb128 0
 1221 0431 06       		.uleb128 0x6
 1222 0432 32010000 		.4byte	.LASF61
 1223 0436 0A       		.byte	0xa
 1224 0437 2F       		.byte	0x2f
 1225 0438 D9000000 		.4byte	0xd9
 1226 043c 02       		.byte	0x2
 1227 043d 23       		.byte	0x23
 1228 043e 08       		.uleb128 0x8
 1229 043f 00       		.byte	0
 1230 0440 04       		.uleb128 0x4
 1231 0441 F1020000 		.4byte	.LASF59
 1232 0445 0A       		.byte	0xa
 1233 0446 30       		.byte	0x30
 1234 0447 17040000 		.4byte	0x417
 1235 044b 05       		.uleb128 0x5
 1236 044c 86010000 		.4byte	.LASF62
 1237 0450 10       		.byte	0x10
 1238 0451 0B       		.byte	0xb
 1239 0452 2C       		.byte	0x2c
 1240 0453 82040000 		.4byte	0x482
 1241 0457 06       		.uleb128 0x6
ARM GAS  /tmp/ccaEtz0w.s 			page 23


 1242 0458 66000000 		.4byte	.LASF63
 1243 045c 0B       		.byte	0xb
 1244 045d 2D       		.byte	0x2d
 1245 045e 31020000 		.4byte	0x231
 1246 0462 02       		.byte	0x2
 1247 0463 23       		.byte	0x23
 1248 0464 00       		.uleb128 0
 1249 0465 06       		.uleb128 0x6
 1250 0466 47030000 		.4byte	.LASF64
 1251 046a 0B       		.byte	0xb
 1252 046b 2F       		.byte	0x2f
 1253 046c 2B020000 		.4byte	0x22b
 1254 0470 02       		.byte	0x2
 1255 0471 23       		.byte	0x23
 1256 0472 08       		.uleb128 0x8
 1257 0473 06       		.uleb128 0x6
 1258 0474 A7020000 		.4byte	.LASF65
 1259 0478 0B       		.byte	0xb
 1260 0479 31       		.byte	0x31
 1261 047a 82040000 		.4byte	0x482
 1262 047e 02       		.byte	0x2
 1263 047f 23       		.byte	0x23
 1264 0480 0C       		.uleb128 0xc
 1265 0481 00       		.byte	0
 1266 0482 09       		.uleb128 0x9
 1267 0483 04       		.byte	0x4
 1268 0484 4B040000 		.4byte	0x44b
 1269 0488 04       		.uleb128 0x4
 1270 0489 86010000 		.4byte	.LASF62
 1271 048d 0B       		.byte	0xb
 1272 048e 33       		.byte	0x33
 1273 048f 4B040000 		.4byte	0x44b
 1274 0493 10       		.uleb128 0x10
 1275 0494 04       		.byte	0x4
 1276 0495 06       		.byte	0x6
 1277 0496 90       		.byte	0x90
 1278 0497 C8040000 		.4byte	0x4c8
 1279 049b 11       		.uleb128 0x11
 1280 049c 06000000 		.4byte	.LASF66
 1281 04a0 06       		.byte	0x6
 1282 04a1 97       		.byte	0x97
 1283 04a2 B8000000 		.4byte	0xb8
 1284 04a6 11       		.uleb128 0x11
 1285 04a7 24000000 		.4byte	.LASF67
 1286 04ab 06       		.byte	0x6
 1287 04ac 9E       		.byte	0x9e
 1288 04ad B8000000 		.4byte	0xb8
 1289 04b1 11       		.uleb128 0x11
 1290 04b2 1A030000 		.4byte	.LASF68
 1291 04b6 06       		.byte	0x6
 1292 04b7 A5       		.byte	0xa5
 1293 04b8 69020000 		.4byte	0x269
 1294 04bc 11       		.uleb128 0x11
 1295 04bd 2A020000 		.4byte	.LASF69
 1296 04c1 06       		.byte	0x6
 1297 04c2 AC       		.byte	0xac
 1298 04c3 C3000000 		.4byte	0xc3
ARM GAS  /tmp/ccaEtz0w.s 			page 24


 1299 04c7 00       		.byte	0
 1300 04c8 09       		.uleb128 0x9
 1301 04c9 04       		.byte	0x4
 1302 04ca CE040000 		.4byte	0x4ce
 1303 04ce 12       		.uleb128 0x12
 1304 04cf D3040000 		.4byte	0x4d3
 1305 04d3 03       		.uleb128 0x3
 1306 04d4 01       		.byte	0x1
 1307 04d5 08       		.byte	0x8
 1308 04d6 8A020000 		.4byte	.LASF70
 1309 04da 09       		.uleb128 0x9
 1310 04db 04       		.byte	0x4
 1311 04dc 88040000 		.4byte	0x488
 1312 04e0 13       		.uleb128 0x13
 1313 04e1 B7010000 		.4byte	.LASF71
 1314 04e5 02       		.byte	0x2
 1315 04e6 49       		.byte	0x49
 1316 04e7 01       		.byte	0x1
 1317 04e8 2B020000 		.4byte	0x22b
 1318 04ec 03       		.byte	0x3
 1319 04ed FC040000 		.4byte	0x4fc
 1320 04f1 14       		.uleb128 0x14
 1321 04f2 747000   		.ascii	"tp\000"
 1322 04f5 02       		.byte	0x2
 1323 04f6 49       		.byte	0x49
 1324 04f7 2B020000 		.4byte	0x22b
 1325 04fb 00       		.byte	0
 1326 04fc 15       		.uleb128 0x15
 1327 04fd 01       		.byte	0x1
 1328 04fe 9B020000 		.4byte	.LASF82
 1329 0502 01       		.byte	0x1
 1330 0503 52       		.byte	0x52
 1331 0504 01       		.byte	0x1
 1332 0505 2B020000 		.4byte	0x22b
 1333 0509 01       		.byte	0x1
 1334 050a 23050000 		.4byte	0x523
 1335 050e 14       		.uleb128 0x14
 1336 050f 747000   		.ascii	"tp\000"
 1337 0512 01       		.byte	0x1
 1338 0513 52       		.byte	0x52
 1339 0514 2B020000 		.4byte	0x22b
 1340 0518 16       		.uleb128 0x16
 1341 0519 637000   		.ascii	"cp\000"
 1342 051c 01       		.byte	0x1
 1343 051d 53       		.byte	0x53
 1344 051e 2B020000 		.4byte	0x22b
 1345 0522 00       		.byte	0
 1346 0523 13       		.uleb128 0x13
 1347 0524 8F020000 		.4byte	.LASF72
 1348 0528 02       		.byte	0x2
 1349 0529 3B       		.byte	0x3b
 1350 052a 01       		.byte	0x1
 1351 052b 2B020000 		.4byte	0x22b
 1352 052f 03       		.byte	0x3
 1353 0530 4A050000 		.4byte	0x54a
 1354 0534 14       		.uleb128 0x14
 1355 0535 74717000 		.ascii	"tqp\000"
ARM GAS  /tmp/ccaEtz0w.s 			page 25


 1356 0539 02       		.byte	0x2
 1357 053a 3B       		.byte	0x3b
 1358 053b 4A050000 		.4byte	0x54a
 1359 053f 16       		.uleb128 0x16
 1360 0540 747000   		.ascii	"tp\000"
 1361 0543 02       		.byte	0x2
 1362 0544 3C       		.byte	0x3c
 1363 0545 2B020000 		.4byte	0x22b
 1364 0549 00       		.byte	0
 1365 054a 09       		.uleb128 0x9
 1366 054b 04       		.byte	0x4
 1367 054c 31020000 		.4byte	0x231
 1368 0550 17       		.uleb128 0x17
 1369 0551 DF000000 		.4byte	.LASF83
 1370 0555 01       		.byte	0x1
 1371 0556 85       		.byte	0x85
 1372 0557 01       		.byte	0x1
 1373 0558 00000000 		.4byte	.LFB10
 1374 055c 52000000 		.4byte	.LFE10
 1375 0560 02       		.byte	0x2
 1376 0561 7D       		.byte	0x7d
 1377 0562 00       		.sleb128 0
 1378 0563 C4050000 		.4byte	0x5c4
 1379 0567 18       		.uleb128 0x18
 1380 0568 7000     		.ascii	"p\000"
 1381 056a 01       		.byte	0x1
 1382 056b 85       		.byte	0x85
 1383 056c 69020000 		.4byte	0x269
 1384 0570 01       		.byte	0x1
 1385 0571 50       		.byte	0x50
 1386 0572 19       		.uleb128 0x19
 1387 0573 747000   		.ascii	"tp\000"
 1388 0576 01       		.byte	0x1
 1389 0577 86       		.byte	0x86
 1390 0578 2B020000 		.4byte	0x22b
 1391 057c 01       		.byte	0x1
 1392 057d 50       		.byte	0x50
 1393 057e 1A       		.uleb128 0x1a
 1394 057f E0040000 		.4byte	0x4e0
 1395 0583 20000000 		.4byte	.LBB17
 1396 0587 2A000000 		.4byte	.LBE17
 1397 058b 01       		.byte	0x1
 1398 058c 9B       		.byte	0x9b
 1399 058d 9B050000 		.4byte	0x59b
 1400 0591 1B       		.uleb128 0x1b
 1401 0592 F1040000 		.4byte	0x4f1
 1402 0596 00000000 		.4byte	.LLST0
 1403 059a 00       		.byte	0
 1404 059b 1C       		.uleb128 0x1c
 1405 059c FC040000 		.4byte	0x4fc
 1406 05a0 2E000000 		.4byte	.LBB19
 1407 05a4 00000000 		.4byte	.Ldebug_ranges0+0
 1408 05a8 01       		.byte	0x1
 1409 05a9 9F       		.byte	0x9f
 1410 05aa 1B       		.uleb128 0x1b
 1411 05ab 0E050000 		.4byte	0x50e
 1412 05af 13000000 		.4byte	.LLST1
ARM GAS  /tmp/ccaEtz0w.s 			page 26


 1413 05b3 1D       		.uleb128 0x1d
 1414 05b4 18000000 		.4byte	.Ldebug_ranges0+0x18
 1415 05b8 1E       		.uleb128 0x1e
 1416 05b9 18050000 		.4byte	0x518
 1417 05bd 26000000 		.4byte	.LLST2
 1418 05c1 00       		.byte	0
 1419 05c2 00       		.byte	0
 1420 05c3 00       		.byte	0
 1421 05c4 1F       		.uleb128 0x1f
 1422 05c5 01       		.byte	0x1
 1423 05c6 34000000 		.4byte	.LASF78
 1424 05ca 01       		.byte	0x1
 1425 05cb 37       		.byte	0x37
 1426 05cc 01       		.byte	0x1
 1427 05cd 00000000 		.4byte	.LFB7
 1428 05d1 1A000000 		.4byte	.LFE7
 1429 05d5 02       		.byte	0x2
 1430 05d6 7D       		.byte	0x7d
 1431 05d7 00       		.sleb128 0
 1432 05d8 20       		.uleb128 0x20
 1433 05d9 FC040000 		.4byte	0x4fc
 1434 05dd 00000000 		.4byte	.LFB8
 1435 05e1 22000000 		.4byte	.LFE8
 1436 05e5 02       		.byte	0x2
 1437 05e6 7D       		.byte	0x7d
 1438 05e7 00       		.sleb128 0
 1439 05e8 FD050000 		.4byte	0x5fd
 1440 05ec 21       		.uleb128 0x21
 1441 05ed 0E050000 		.4byte	0x50e
 1442 05f1 01       		.byte	0x1
 1443 05f2 50       		.byte	0x50
 1444 05f3 1E       		.uleb128 0x1e
 1445 05f4 18050000 		.4byte	0x518
 1446 05f8 49000000 		.4byte	.LLST3
 1447 05fc 00       		.byte	0
 1448 05fd 22       		.uleb128 0x22
 1449 05fe 01       		.byte	0x1
 1450 05ff 47020000 		.4byte	.LASF75
 1451 0603 01       		.byte	0x1
 1452 0604 72       		.byte	0x72
 1453 0605 01       		.byte	0x1
 1454 0606 00000000 		.4byte	.LFB9
 1455 060a 28000000 		.4byte	.LFE9
 1456 060e 6C000000 		.4byte	.LLST4
 1457 0612 60060000 		.4byte	0x660
 1458 0616 23       		.uleb128 0x23
 1459 0617 FE010000 		.4byte	.LASF73
 1460 061b 01       		.byte	0x1
 1461 061c 72       		.byte	0x72
 1462 061d 97000000 		.4byte	0x97
 1463 0621 8C000000 		.4byte	.LLST5
 1464 0625 24       		.uleb128 0x24
 1465 0626 6F747000 		.ascii	"otp\000"
 1466 062a 01       		.byte	0x1
 1467 062b 73       		.byte	0x73
 1468 062c 2B020000 		.4byte	0x22b
 1469 0630 B1000000 		.4byte	.LLST6
ARM GAS  /tmp/ccaEtz0w.s 			page 27


 1470 0634 1C       		.uleb128 0x1c
 1471 0635 23050000 		.4byte	0x523
 1472 0639 0A000000 		.4byte	.LBB23
 1473 063d 30000000 		.4byte	.Ldebug_ranges0+0x30
 1474 0641 01       		.byte	0x1
 1475 0642 7B       		.byte	0x7b
 1476 0643 21       		.uleb128 0x21
 1477 0644 34050000 		.4byte	0x534
 1478 0648 06       		.byte	0x6
 1479 0649 03       		.byte	0x3
 1480 064a 00000000 		.4byte	rlist
 1481 064e 9F       		.byte	0x9f
 1482 064f 1D       		.uleb128 0x1d
 1483 0650 50000000 		.4byte	.Ldebug_ranges0+0x50
 1484 0654 1E       		.uleb128 0x1e
 1485 0655 3F050000 		.4byte	0x53f
 1486 0659 C8000000 		.4byte	.LLST7
 1487 065d 00       		.byte	0
 1488 065e 00       		.byte	0
 1489 065f 00       		.byte	0
 1490 0660 25       		.uleb128 0x25
 1491 0661 01       		.byte	0x1
 1492 0662 28030000 		.4byte	.LASF84
 1493 0666 01       		.byte	0x1
 1494 0667 B7       		.byte	0xb7
 1495 0668 01       		.byte	0x1
 1496 0669 B8000000 		.4byte	0xb8
 1497 066d 00000000 		.4byte	.LFB11
 1498 0671 48000000 		.4byte	.LFE11
 1499 0675 DF000000 		.4byte	.LLST8
 1500 0679 B3060000 		.4byte	0x6b3
 1501 067d 23       		.uleb128 0x23
 1502 067e FE010000 		.4byte	.LASF73
 1503 0682 01       		.byte	0x1
 1504 0683 B7       		.byte	0xb7
 1505 0684 97000000 		.4byte	0x97
 1506 0688 0B010000 		.4byte	.LLST9
 1507 068c 23       		.uleb128 0x23
 1508 068d E5020000 		.4byte	.LASF74
 1509 0691 01       		.byte	0x1
 1510 0692 B7       		.byte	0xb7
 1511 0693 CE000000 		.4byte	0xce
 1512 0697 29010000 		.4byte	.LLST10
 1513 069b 26       		.uleb128 0x26
 1514 069c 0A000000 		.4byte	.LBB29
 1515 06a0 32000000 		.4byte	.LBE29
 1516 06a4 19       		.uleb128 0x19
 1517 06a5 767400   		.ascii	"vt\000"
 1518 06a8 01       		.byte	0x1
 1519 06a9 BC       		.byte	0xbc
 1520 06aa 38030000 		.4byte	0x338
 1521 06ae 02       		.byte	0x2
 1522 06af 91       		.byte	0x91
 1523 06b0 5C       		.sleb128 -36
 1524 06b1 00       		.byte	0
 1525 06b2 00       		.byte	0
 1526 06b3 22       		.uleb128 0x22
ARM GAS  /tmp/ccaEtz0w.s 			page 28


 1527 06b4 01       		.byte	0x1
 1528 06b5 53010000 		.4byte	.LASF76
 1529 06b9 01       		.byte	0x1
 1530 06ba DB       		.byte	0xdb
 1531 06bb 01       		.byte	0x1
 1532 06bc 00000000 		.4byte	.LFB12
 1533 06c0 5E000000 		.4byte	.LFE12
 1534 06c4 47010000 		.4byte	.LLST11
 1535 06c8 4C070000 		.4byte	0x74c
 1536 06cc 27       		.uleb128 0x27
 1537 06cd 6E747000 		.ascii	"ntp\000"
 1538 06d1 01       		.byte	0x1
 1539 06d2 DB       		.byte	0xdb
 1540 06d3 2B020000 		.4byte	0x22b
 1541 06d7 67010000 		.4byte	.LLST12
 1542 06db 27       		.uleb128 0x27
 1543 06dc 6D736700 		.ascii	"msg\000"
 1544 06e0 01       		.byte	0x1
 1545 06e1 DB       		.byte	0xdb
 1546 06e2 B8000000 		.4byte	0xb8
 1547 06e6 90010000 		.4byte	.LLST13
 1548 06ea 28       		.uleb128 0x28
 1549 06eb FC040000 		.4byte	0x4fc
 1550 06ef 14000000 		.4byte	.LBB30
 1551 06f3 70000000 		.4byte	.Ldebug_ranges0+0x70
 1552 06f7 01       		.byte	0x1
 1553 06f8 E5       		.byte	0xe5
 1554 06f9 16070000 		.4byte	0x716
 1555 06fd 1B       		.uleb128 0x1b
 1556 06fe 0E050000 		.4byte	0x50e
 1557 0702 BB010000 		.4byte	.LLST14
 1558 0706 1D       		.uleb128 0x1d
 1559 0707 88000000 		.4byte	.Ldebug_ranges0+0x88
 1560 070b 1E       		.uleb128 0x1e
 1561 070c 18050000 		.4byte	0x518
 1562 0710 CE010000 		.4byte	.LLST15
 1563 0714 00       		.byte	0
 1564 0715 00       		.byte	0
 1565 0716 1D       		.uleb128 0x1d
 1566 0717 A0000000 		.4byte	.Ldebug_ranges0+0xa0
 1567 071b 16       		.uleb128 0x16
 1568 071c 6F747000 		.ascii	"otp\000"
 1569 0720 01       		.byte	0x1
 1570 0721 E7       		.byte	0xe7
 1571 0722 2B020000 		.4byte	0x22b
 1572 0726 1C       		.uleb128 0x1c
 1573 0727 FC040000 		.4byte	0x4fc
 1574 072b 18000000 		.4byte	.LBB34
 1575 072f C0000000 		.4byte	.Ldebug_ranges0+0xc0
 1576 0733 01       		.byte	0x1
 1577 0734 E7       		.byte	0xe7
 1578 0735 29       		.uleb128 0x29
 1579 0736 0E050000 		.4byte	0x50e
 1580 073a 1D       		.uleb128 0x1d
 1581 073b E0000000 		.4byte	.Ldebug_ranges0+0xe0
 1582 073f 1E       		.uleb128 0x1e
 1583 0740 18050000 		.4byte	0x518
ARM GAS  /tmp/ccaEtz0w.s 			page 29


 1584 0744 E1010000 		.4byte	.LLST16
 1585 0748 00       		.byte	0
 1586 0749 00       		.byte	0
 1587 074a 00       		.byte	0
 1588 074b 00       		.byte	0
 1589 074c 2A       		.uleb128 0x2a
 1590 074d 01       		.byte	0x1
 1591 074e BA000000 		.4byte	.LASF77
 1592 0752 01       		.byte	0x1
 1593 0753 2A01     		.2byte	0x12a
 1594 0755 01       		.byte	0x1
 1595 0756 00000000 		.4byte	.LFB14
 1596 075a 40000000 		.4byte	.LFE14
 1597 075e 14020000 		.4byte	.LLST17
 1598 0762 D0070000 		.4byte	0x7d0
 1599 0766 2B       		.uleb128 0x2b
 1600 0767 6F747000 		.ascii	"otp\000"
 1601 076b 01       		.byte	0x1
 1602 076c 2B01     		.2byte	0x12b
 1603 076e 2B020000 		.4byte	0x22b
 1604 0772 34020000 		.4byte	.LLST18
 1605 0776 2C       		.uleb128 0x2c
 1606 0777 23050000 		.4byte	0x523
 1607 077b 0A000000 		.4byte	.LBB43
 1608 077f 00010000 		.4byte	.Ldebug_ranges0+0x100
 1609 0783 01       		.byte	0x1
 1610 0784 3201     		.2byte	0x132
 1611 0786 A6070000 		.4byte	0x7a6
 1612 078a 21       		.uleb128 0x21
 1613 078b 34050000 		.4byte	0x534
 1614 078f 06       		.byte	0x6
 1615 0790 03       		.byte	0x3
 1616 0791 00000000 		.4byte	rlist
 1617 0795 9F       		.byte	0x9f
 1618 0796 1D       		.uleb128 0x1d
 1619 0797 28010000 		.4byte	.Ldebug_ranges0+0x128
 1620 079b 1E       		.uleb128 0x1e
 1621 079c 3F050000 		.4byte	0x53f
 1622 07a0 4B020000 		.4byte	.LLST19
 1623 07a4 00       		.byte	0
 1624 07a5 00       		.byte	0
 1625 07a6 2D       		.uleb128 0x2d
 1626 07a7 FC040000 		.4byte	0x4fc
 1627 07ab 10000000 		.4byte	.LBB49
 1628 07af 50010000 		.4byte	.Ldebug_ranges0+0x150
 1629 07b3 01       		.byte	0x1
 1630 07b4 3401     		.2byte	0x134
 1631 07b6 1B       		.uleb128 0x1b
 1632 07b7 0E050000 		.4byte	0x50e
 1633 07bb 62020000 		.4byte	.LLST20
 1634 07bf 1D       		.uleb128 0x1d
 1635 07c0 68010000 		.4byte	.Ldebug_ranges0+0x168
 1636 07c4 1E       		.uleb128 0x1e
 1637 07c5 18050000 		.4byte	0x518
 1638 07c9 79020000 		.4byte	.LLST21
 1639 07cd 00       		.byte	0
 1640 07ce 00       		.byte	0
ARM GAS  /tmp/ccaEtz0w.s 			page 30


 1641 07cf 00       		.byte	0
 1642 07d0 1F       		.uleb128 0x1f
 1643 07d1 01       		.byte	0x1
 1644 07d2 90000000 		.4byte	.LASF79
 1645 07d6 01       		.byte	0x1
 1646 07d7 FA       		.byte	0xfa
 1647 07d8 01       		.byte	0x1
 1648 07d9 00000000 		.4byte	.LFB13
 1649 07dd 1E000000 		.4byte	.LFE13
 1650 07e1 02       		.byte	0x2
 1651 07e2 7D       		.byte	0x7d
 1652 07e3 00       		.sleb128 0
 1653 07e4 2E       		.uleb128 0x2e
 1654 07e5 0C030000 		.4byte	.LASF85
 1655 07e9 01       		.byte	0x1
 1656 07ea 2F       		.byte	0x2f
 1657 07eb 0C040000 		.4byte	0x40c
 1658 07ef 01       		.byte	0x1
 1659 07f0 05       		.byte	0x5
 1660 07f1 03       		.byte	0x3
 1661 07f2 00000000 		.4byte	rlist
 1662 07f6 00       		.byte	0
 1663              		.section	.debug_abbrev,"",%progbits
 1664              	.Ldebug_abbrev0:
 1665 0000 01       		.uleb128 0x1
 1666 0001 11       		.uleb128 0x11
 1667 0002 01       		.byte	0x1
 1668 0003 25       		.uleb128 0x25
 1669 0004 0E       		.uleb128 0xe
 1670 0005 13       		.uleb128 0x13
 1671 0006 0B       		.uleb128 0xb
 1672 0007 03       		.uleb128 0x3
 1673 0008 0E       		.uleb128 0xe
 1674 0009 11       		.uleb128 0x11
 1675 000a 01       		.uleb128 0x1
 1676 000b 52       		.uleb128 0x52
 1677 000c 01       		.uleb128 0x1
 1678 000d 55       		.uleb128 0x55
 1679 000e 06       		.uleb128 0x6
 1680 000f 10       		.uleb128 0x10
 1681 0010 06       		.uleb128 0x6
 1682 0011 00       		.byte	0
 1683 0012 00       		.byte	0
 1684 0013 02       		.uleb128 0x2
 1685 0014 24       		.uleb128 0x24
 1686 0015 00       		.byte	0
 1687 0016 0B       		.uleb128 0xb
 1688 0017 0B       		.uleb128 0xb
 1689 0018 3E       		.uleb128 0x3e
 1690 0019 0B       		.uleb128 0xb
 1691 001a 03       		.uleb128 0x3
 1692 001b 08       		.uleb128 0x8
 1693 001c 00       		.byte	0
 1694 001d 00       		.byte	0
 1695 001e 03       		.uleb128 0x3
 1696 001f 24       		.uleb128 0x24
 1697 0020 00       		.byte	0
ARM GAS  /tmp/ccaEtz0w.s 			page 31


 1698 0021 0B       		.uleb128 0xb
 1699 0022 0B       		.uleb128 0xb
 1700 0023 3E       		.uleb128 0x3e
 1701 0024 0B       		.uleb128 0xb
 1702 0025 03       		.uleb128 0x3
 1703 0026 0E       		.uleb128 0xe
 1704 0027 00       		.byte	0
 1705 0028 00       		.byte	0
 1706 0029 04       		.uleb128 0x4
 1707 002a 16       		.uleb128 0x16
 1708 002b 00       		.byte	0
 1709 002c 03       		.uleb128 0x3
 1710 002d 0E       		.uleb128 0xe
 1711 002e 3A       		.uleb128 0x3a
 1712 002f 0B       		.uleb128 0xb
 1713 0030 3B       		.uleb128 0x3b
 1714 0031 0B       		.uleb128 0xb
 1715 0032 49       		.uleb128 0x49
 1716 0033 13       		.uleb128 0x13
 1717 0034 00       		.byte	0
 1718 0035 00       		.byte	0
 1719 0036 05       		.uleb128 0x5
 1720 0037 13       		.uleb128 0x13
 1721 0038 01       		.byte	0x1
 1722 0039 03       		.uleb128 0x3
 1723 003a 0E       		.uleb128 0xe
 1724 003b 0B       		.uleb128 0xb
 1725 003c 0B       		.uleb128 0xb
 1726 003d 3A       		.uleb128 0x3a
 1727 003e 0B       		.uleb128 0xb
 1728 003f 3B       		.uleb128 0x3b
 1729 0040 0B       		.uleb128 0xb
 1730 0041 01       		.uleb128 0x1
 1731 0042 13       		.uleb128 0x13
 1732 0043 00       		.byte	0
 1733 0044 00       		.byte	0
 1734 0045 06       		.uleb128 0x6
 1735 0046 0D       		.uleb128 0xd
 1736 0047 00       		.byte	0
 1737 0048 03       		.uleb128 0x3
 1738 0049 0E       		.uleb128 0xe
 1739 004a 3A       		.uleb128 0x3a
 1740 004b 0B       		.uleb128 0xb
 1741 004c 3B       		.uleb128 0x3b
 1742 004d 0B       		.uleb128 0xb
 1743 004e 49       		.uleb128 0x49
 1744 004f 13       		.uleb128 0x13
 1745 0050 38       		.uleb128 0x38
 1746 0051 0A       		.uleb128 0xa
 1747 0052 00       		.byte	0
 1748 0053 00       		.byte	0
 1749 0054 07       		.uleb128 0x7
 1750 0055 0D       		.uleb128 0xd
 1751 0056 00       		.byte	0
 1752 0057 03       		.uleb128 0x3
 1753 0058 08       		.uleb128 0x8
 1754 0059 3A       		.uleb128 0x3a
ARM GAS  /tmp/ccaEtz0w.s 			page 32


 1755 005a 0B       		.uleb128 0xb
 1756 005b 3B       		.uleb128 0x3b
 1757 005c 0B       		.uleb128 0xb
 1758 005d 49       		.uleb128 0x49
 1759 005e 13       		.uleb128 0x13
 1760 005f 38       		.uleb128 0x38
 1761 0060 0A       		.uleb128 0xa
 1762 0061 00       		.byte	0
 1763 0062 00       		.byte	0
 1764 0063 08       		.uleb128 0x8
 1765 0064 13       		.uleb128 0x13
 1766 0065 01       		.byte	0x1
 1767 0066 0B       		.uleb128 0xb
 1768 0067 0B       		.uleb128 0xb
 1769 0068 3A       		.uleb128 0x3a
 1770 0069 0B       		.uleb128 0xb
 1771 006a 3B       		.uleb128 0x3b
 1772 006b 0B       		.uleb128 0xb
 1773 006c 01       		.uleb128 0x1
 1774 006d 13       		.uleb128 0x13
 1775 006e 00       		.byte	0
 1776 006f 00       		.byte	0
 1777 0070 09       		.uleb128 0x9
 1778 0071 0F       		.uleb128 0xf
 1779 0072 00       		.byte	0
 1780 0073 0B       		.uleb128 0xb
 1781 0074 0B       		.uleb128 0xb
 1782 0075 49       		.uleb128 0x49
 1783 0076 13       		.uleb128 0x13
 1784 0077 00       		.byte	0
 1785 0078 00       		.byte	0
 1786 0079 0A       		.uleb128 0xa
 1787 007a 0F       		.uleb128 0xf
 1788 007b 00       		.byte	0
 1789 007c 0B       		.uleb128 0xb
 1790 007d 0B       		.uleb128 0xb
 1791 007e 00       		.byte	0
 1792 007f 00       		.byte	0
 1793 0080 0B       		.uleb128 0xb
 1794 0081 0D       		.uleb128 0xd
 1795 0082 00       		.byte	0
 1796 0083 03       		.uleb128 0x3
 1797 0084 08       		.uleb128 0x8
 1798 0085 3A       		.uleb128 0x3a
 1799 0086 0B       		.uleb128 0xb
 1800 0087 3B       		.uleb128 0x3b
 1801 0088 05       		.uleb128 0x5
 1802 0089 49       		.uleb128 0x49
 1803 008a 13       		.uleb128 0x13
 1804 008b 38       		.uleb128 0x38
 1805 008c 0A       		.uleb128 0xa
 1806 008d 00       		.byte	0
 1807 008e 00       		.byte	0
 1808 008f 0C       		.uleb128 0xc
 1809 0090 13       		.uleb128 0x13
 1810 0091 01       		.byte	0x1
 1811 0092 03       		.uleb128 0x3
ARM GAS  /tmp/ccaEtz0w.s 			page 33


 1812 0093 0E       		.uleb128 0xe
 1813 0094 0B       		.uleb128 0xb
 1814 0095 0B       		.uleb128 0xb
 1815 0096 3A       		.uleb128 0x3a
 1816 0097 0B       		.uleb128 0xb
 1817 0098 3B       		.uleb128 0x3b
 1818 0099 05       		.uleb128 0x5
 1819 009a 01       		.uleb128 0x1
 1820 009b 13       		.uleb128 0x13
 1821 009c 00       		.byte	0
 1822 009d 00       		.byte	0
 1823 009e 0D       		.uleb128 0xd
 1824 009f 15       		.uleb128 0x15
 1825 00a0 01       		.byte	0x1
 1826 00a1 27       		.uleb128 0x27
 1827 00a2 0C       		.uleb128 0xc
 1828 00a3 01       		.uleb128 0x1
 1829 00a4 13       		.uleb128 0x13
 1830 00a5 00       		.byte	0
 1831 00a6 00       		.byte	0
 1832 00a7 0E       		.uleb128 0xe
 1833 00a8 05       		.uleb128 0x5
 1834 00a9 00       		.byte	0
 1835 00aa 49       		.uleb128 0x49
 1836 00ab 13       		.uleb128 0x13
 1837 00ac 00       		.byte	0
 1838 00ad 00       		.byte	0
 1839 00ae 0F       		.uleb128 0xf
 1840 00af 35       		.uleb128 0x35
 1841 00b0 00       		.byte	0
 1842 00b1 49       		.uleb128 0x49
 1843 00b2 13       		.uleb128 0x13
 1844 00b3 00       		.byte	0
 1845 00b4 00       		.byte	0
 1846 00b5 10       		.uleb128 0x10
 1847 00b6 17       		.uleb128 0x17
 1848 00b7 01       		.byte	0x1
 1849 00b8 0B       		.uleb128 0xb
 1850 00b9 0B       		.uleb128 0xb
 1851 00ba 3A       		.uleb128 0x3a
 1852 00bb 0B       		.uleb128 0xb
 1853 00bc 3B       		.uleb128 0x3b
 1854 00bd 0B       		.uleb128 0xb
 1855 00be 01       		.uleb128 0x1
 1856 00bf 13       		.uleb128 0x13
 1857 00c0 00       		.byte	0
 1858 00c1 00       		.byte	0
 1859 00c2 11       		.uleb128 0x11
 1860 00c3 0D       		.uleb128 0xd
 1861 00c4 00       		.byte	0
 1862 00c5 03       		.uleb128 0x3
 1863 00c6 0E       		.uleb128 0xe
 1864 00c7 3A       		.uleb128 0x3a
 1865 00c8 0B       		.uleb128 0xb
 1866 00c9 3B       		.uleb128 0x3b
 1867 00ca 0B       		.uleb128 0xb
 1868 00cb 49       		.uleb128 0x49
ARM GAS  /tmp/ccaEtz0w.s 			page 34


 1869 00cc 13       		.uleb128 0x13
 1870 00cd 00       		.byte	0
 1871 00ce 00       		.byte	0
 1872 00cf 12       		.uleb128 0x12
 1873 00d0 26       		.uleb128 0x26
 1874 00d1 00       		.byte	0
 1875 00d2 49       		.uleb128 0x49
 1876 00d3 13       		.uleb128 0x13
 1877 00d4 00       		.byte	0
 1878 00d5 00       		.byte	0
 1879 00d6 13       		.uleb128 0x13
 1880 00d7 2E       		.uleb128 0x2e
 1881 00d8 01       		.byte	0x1
 1882 00d9 03       		.uleb128 0x3
 1883 00da 0E       		.uleb128 0xe
 1884 00db 3A       		.uleb128 0x3a
 1885 00dc 0B       		.uleb128 0xb
 1886 00dd 3B       		.uleb128 0x3b
 1887 00de 0B       		.uleb128 0xb
 1888 00df 27       		.uleb128 0x27
 1889 00e0 0C       		.uleb128 0xc
 1890 00e1 49       		.uleb128 0x49
 1891 00e2 13       		.uleb128 0x13
 1892 00e3 20       		.uleb128 0x20
 1893 00e4 0B       		.uleb128 0xb
 1894 00e5 01       		.uleb128 0x1
 1895 00e6 13       		.uleb128 0x13
 1896 00e7 00       		.byte	0
 1897 00e8 00       		.byte	0
 1898 00e9 14       		.uleb128 0x14
 1899 00ea 05       		.uleb128 0x5
 1900 00eb 00       		.byte	0
 1901 00ec 03       		.uleb128 0x3
 1902 00ed 08       		.uleb128 0x8
 1903 00ee 3A       		.uleb128 0x3a
 1904 00ef 0B       		.uleb128 0xb
 1905 00f0 3B       		.uleb128 0x3b
 1906 00f1 0B       		.uleb128 0xb
 1907 00f2 49       		.uleb128 0x49
 1908 00f3 13       		.uleb128 0x13
 1909 00f4 00       		.byte	0
 1910 00f5 00       		.byte	0
 1911 00f6 15       		.uleb128 0x15
 1912 00f7 2E       		.uleb128 0x2e
 1913 00f8 01       		.byte	0x1
 1914 00f9 3F       		.uleb128 0x3f
 1915 00fa 0C       		.uleb128 0xc
 1916 00fb 03       		.uleb128 0x3
 1917 00fc 0E       		.uleb128 0xe
 1918 00fd 3A       		.uleb128 0x3a
 1919 00fe 0B       		.uleb128 0xb
 1920 00ff 3B       		.uleb128 0x3b
 1921 0100 0B       		.uleb128 0xb
 1922 0101 27       		.uleb128 0x27
 1923 0102 0C       		.uleb128 0xc
 1924 0103 49       		.uleb128 0x49
 1925 0104 13       		.uleb128 0x13
ARM GAS  /tmp/ccaEtz0w.s 			page 35


 1926 0105 20       		.uleb128 0x20
 1927 0106 0B       		.uleb128 0xb
 1928 0107 01       		.uleb128 0x1
 1929 0108 13       		.uleb128 0x13
 1930 0109 00       		.byte	0
 1931 010a 00       		.byte	0
 1932 010b 16       		.uleb128 0x16
 1933 010c 34       		.uleb128 0x34
 1934 010d 00       		.byte	0
 1935 010e 03       		.uleb128 0x3
 1936 010f 08       		.uleb128 0x8
 1937 0110 3A       		.uleb128 0x3a
 1938 0111 0B       		.uleb128 0xb
 1939 0112 3B       		.uleb128 0x3b
 1940 0113 0B       		.uleb128 0xb
 1941 0114 49       		.uleb128 0x49
 1942 0115 13       		.uleb128 0x13
 1943 0116 00       		.byte	0
 1944 0117 00       		.byte	0
 1945 0118 17       		.uleb128 0x17
 1946 0119 2E       		.uleb128 0x2e
 1947 011a 01       		.byte	0x1
 1948 011b 03       		.uleb128 0x3
 1949 011c 0E       		.uleb128 0xe
 1950 011d 3A       		.uleb128 0x3a
 1951 011e 0B       		.uleb128 0xb
 1952 011f 3B       		.uleb128 0x3b
 1953 0120 0B       		.uleb128 0xb
 1954 0121 27       		.uleb128 0x27
 1955 0122 0C       		.uleb128 0xc
 1956 0123 11       		.uleb128 0x11
 1957 0124 01       		.uleb128 0x1
 1958 0125 12       		.uleb128 0x12
 1959 0126 01       		.uleb128 0x1
 1960 0127 40       		.uleb128 0x40
 1961 0128 0A       		.uleb128 0xa
 1962 0129 01       		.uleb128 0x1
 1963 012a 13       		.uleb128 0x13
 1964 012b 00       		.byte	0
 1965 012c 00       		.byte	0
 1966 012d 18       		.uleb128 0x18
 1967 012e 05       		.uleb128 0x5
 1968 012f 00       		.byte	0
 1969 0130 03       		.uleb128 0x3
 1970 0131 08       		.uleb128 0x8
 1971 0132 3A       		.uleb128 0x3a
 1972 0133 0B       		.uleb128 0xb
 1973 0134 3B       		.uleb128 0x3b
 1974 0135 0B       		.uleb128 0xb
 1975 0136 49       		.uleb128 0x49
 1976 0137 13       		.uleb128 0x13
 1977 0138 02       		.uleb128 0x2
 1978 0139 0A       		.uleb128 0xa
 1979 013a 00       		.byte	0
 1980 013b 00       		.byte	0
 1981 013c 19       		.uleb128 0x19
 1982 013d 34       		.uleb128 0x34
ARM GAS  /tmp/ccaEtz0w.s 			page 36


 1983 013e 00       		.byte	0
 1984 013f 03       		.uleb128 0x3
 1985 0140 08       		.uleb128 0x8
 1986 0141 3A       		.uleb128 0x3a
 1987 0142 0B       		.uleb128 0xb
 1988 0143 3B       		.uleb128 0x3b
 1989 0144 0B       		.uleb128 0xb
 1990 0145 49       		.uleb128 0x49
 1991 0146 13       		.uleb128 0x13
 1992 0147 02       		.uleb128 0x2
 1993 0148 0A       		.uleb128 0xa
 1994 0149 00       		.byte	0
 1995 014a 00       		.byte	0
 1996 014b 1A       		.uleb128 0x1a
 1997 014c 1D       		.uleb128 0x1d
 1998 014d 01       		.byte	0x1
 1999 014e 31       		.uleb128 0x31
 2000 014f 13       		.uleb128 0x13
 2001 0150 11       		.uleb128 0x11
 2002 0151 01       		.uleb128 0x1
 2003 0152 12       		.uleb128 0x12
 2004 0153 01       		.uleb128 0x1
 2005 0154 58       		.uleb128 0x58
 2006 0155 0B       		.uleb128 0xb
 2007 0156 59       		.uleb128 0x59
 2008 0157 0B       		.uleb128 0xb
 2009 0158 01       		.uleb128 0x1
 2010 0159 13       		.uleb128 0x13
 2011 015a 00       		.byte	0
 2012 015b 00       		.byte	0
 2013 015c 1B       		.uleb128 0x1b
 2014 015d 05       		.uleb128 0x5
 2015 015e 00       		.byte	0
 2016 015f 31       		.uleb128 0x31
 2017 0160 13       		.uleb128 0x13
 2018 0161 02       		.uleb128 0x2
 2019 0162 06       		.uleb128 0x6
 2020 0163 00       		.byte	0
 2021 0164 00       		.byte	0
 2022 0165 1C       		.uleb128 0x1c
 2023 0166 1D       		.uleb128 0x1d
 2024 0167 01       		.byte	0x1
 2025 0168 31       		.uleb128 0x31
 2026 0169 13       		.uleb128 0x13
 2027 016a 52       		.uleb128 0x52
 2028 016b 01       		.uleb128 0x1
 2029 016c 55       		.uleb128 0x55
 2030 016d 06       		.uleb128 0x6
 2031 016e 58       		.uleb128 0x58
 2032 016f 0B       		.uleb128 0xb
 2033 0170 59       		.uleb128 0x59
 2034 0171 0B       		.uleb128 0xb
 2035 0172 00       		.byte	0
 2036 0173 00       		.byte	0
 2037 0174 1D       		.uleb128 0x1d
 2038 0175 0B       		.uleb128 0xb
 2039 0176 01       		.byte	0x1
ARM GAS  /tmp/ccaEtz0w.s 			page 37


 2040 0177 55       		.uleb128 0x55
 2041 0178 06       		.uleb128 0x6
 2042 0179 00       		.byte	0
 2043 017a 00       		.byte	0
 2044 017b 1E       		.uleb128 0x1e
 2045 017c 34       		.uleb128 0x34
 2046 017d 00       		.byte	0
 2047 017e 31       		.uleb128 0x31
 2048 017f 13       		.uleb128 0x13
 2049 0180 02       		.uleb128 0x2
 2050 0181 06       		.uleb128 0x6
 2051 0182 00       		.byte	0
 2052 0183 00       		.byte	0
 2053 0184 1F       		.uleb128 0x1f
 2054 0185 2E       		.uleb128 0x2e
 2055 0186 00       		.byte	0
 2056 0187 3F       		.uleb128 0x3f
 2057 0188 0C       		.uleb128 0xc
 2058 0189 03       		.uleb128 0x3
 2059 018a 0E       		.uleb128 0xe
 2060 018b 3A       		.uleb128 0x3a
 2061 018c 0B       		.uleb128 0xb
 2062 018d 3B       		.uleb128 0x3b
 2063 018e 0B       		.uleb128 0xb
 2064 018f 27       		.uleb128 0x27
 2065 0190 0C       		.uleb128 0xc
 2066 0191 11       		.uleb128 0x11
 2067 0192 01       		.uleb128 0x1
 2068 0193 12       		.uleb128 0x12
 2069 0194 01       		.uleb128 0x1
 2070 0195 40       		.uleb128 0x40
 2071 0196 0A       		.uleb128 0xa
 2072 0197 00       		.byte	0
 2073 0198 00       		.byte	0
 2074 0199 20       		.uleb128 0x20
 2075 019a 2E       		.uleb128 0x2e
 2076 019b 01       		.byte	0x1
 2077 019c 31       		.uleb128 0x31
 2078 019d 13       		.uleb128 0x13
 2079 019e 11       		.uleb128 0x11
 2080 019f 01       		.uleb128 0x1
 2081 01a0 12       		.uleb128 0x12
 2082 01a1 01       		.uleb128 0x1
 2083 01a2 40       		.uleb128 0x40
 2084 01a3 0A       		.uleb128 0xa
 2085 01a4 01       		.uleb128 0x1
 2086 01a5 13       		.uleb128 0x13
 2087 01a6 00       		.byte	0
 2088 01a7 00       		.byte	0
 2089 01a8 21       		.uleb128 0x21
 2090 01a9 05       		.uleb128 0x5
 2091 01aa 00       		.byte	0
 2092 01ab 31       		.uleb128 0x31
 2093 01ac 13       		.uleb128 0x13
 2094 01ad 02       		.uleb128 0x2
 2095 01ae 0A       		.uleb128 0xa
 2096 01af 00       		.byte	0
ARM GAS  /tmp/ccaEtz0w.s 			page 38


 2097 01b0 00       		.byte	0
 2098 01b1 22       		.uleb128 0x22
 2099 01b2 2E       		.uleb128 0x2e
 2100 01b3 01       		.byte	0x1
 2101 01b4 3F       		.uleb128 0x3f
 2102 01b5 0C       		.uleb128 0xc
 2103 01b6 03       		.uleb128 0x3
 2104 01b7 0E       		.uleb128 0xe
 2105 01b8 3A       		.uleb128 0x3a
 2106 01b9 0B       		.uleb128 0xb
 2107 01ba 3B       		.uleb128 0x3b
 2108 01bb 0B       		.uleb128 0xb
 2109 01bc 27       		.uleb128 0x27
 2110 01bd 0C       		.uleb128 0xc
 2111 01be 11       		.uleb128 0x11
 2112 01bf 01       		.uleb128 0x1
 2113 01c0 12       		.uleb128 0x12
 2114 01c1 01       		.uleb128 0x1
 2115 01c2 40       		.uleb128 0x40
 2116 01c3 06       		.uleb128 0x6
 2117 01c4 01       		.uleb128 0x1
 2118 01c5 13       		.uleb128 0x13
 2119 01c6 00       		.byte	0
 2120 01c7 00       		.byte	0
 2121 01c8 23       		.uleb128 0x23
 2122 01c9 05       		.uleb128 0x5
 2123 01ca 00       		.byte	0
 2124 01cb 03       		.uleb128 0x3
 2125 01cc 0E       		.uleb128 0xe
 2126 01cd 3A       		.uleb128 0x3a
 2127 01ce 0B       		.uleb128 0xb
 2128 01cf 3B       		.uleb128 0x3b
 2129 01d0 0B       		.uleb128 0xb
 2130 01d1 49       		.uleb128 0x49
 2131 01d2 13       		.uleb128 0x13
 2132 01d3 02       		.uleb128 0x2
 2133 01d4 06       		.uleb128 0x6
 2134 01d5 00       		.byte	0
 2135 01d6 00       		.byte	0
 2136 01d7 24       		.uleb128 0x24
 2137 01d8 34       		.uleb128 0x34
 2138 01d9 00       		.byte	0
 2139 01da 03       		.uleb128 0x3
 2140 01db 08       		.uleb128 0x8
 2141 01dc 3A       		.uleb128 0x3a
 2142 01dd 0B       		.uleb128 0xb
 2143 01de 3B       		.uleb128 0x3b
 2144 01df 0B       		.uleb128 0xb
 2145 01e0 49       		.uleb128 0x49
 2146 01e1 13       		.uleb128 0x13
 2147 01e2 02       		.uleb128 0x2
 2148 01e3 06       		.uleb128 0x6
 2149 01e4 00       		.byte	0
 2150 01e5 00       		.byte	0
 2151 01e6 25       		.uleb128 0x25
 2152 01e7 2E       		.uleb128 0x2e
 2153 01e8 01       		.byte	0x1
ARM GAS  /tmp/ccaEtz0w.s 			page 39


 2154 01e9 3F       		.uleb128 0x3f
 2155 01ea 0C       		.uleb128 0xc
 2156 01eb 03       		.uleb128 0x3
 2157 01ec 0E       		.uleb128 0xe
 2158 01ed 3A       		.uleb128 0x3a
 2159 01ee 0B       		.uleb128 0xb
 2160 01ef 3B       		.uleb128 0x3b
 2161 01f0 0B       		.uleb128 0xb
 2162 01f1 27       		.uleb128 0x27
 2163 01f2 0C       		.uleb128 0xc
 2164 01f3 49       		.uleb128 0x49
 2165 01f4 13       		.uleb128 0x13
 2166 01f5 11       		.uleb128 0x11
 2167 01f6 01       		.uleb128 0x1
 2168 01f7 12       		.uleb128 0x12
 2169 01f8 01       		.uleb128 0x1
 2170 01f9 40       		.uleb128 0x40
 2171 01fa 06       		.uleb128 0x6
 2172 01fb 01       		.uleb128 0x1
 2173 01fc 13       		.uleb128 0x13
 2174 01fd 00       		.byte	0
 2175 01fe 00       		.byte	0
 2176 01ff 26       		.uleb128 0x26
 2177 0200 0B       		.uleb128 0xb
 2178 0201 01       		.byte	0x1
 2179 0202 11       		.uleb128 0x11
 2180 0203 01       		.uleb128 0x1
 2181 0204 12       		.uleb128 0x12
 2182 0205 01       		.uleb128 0x1
 2183 0206 00       		.byte	0
 2184 0207 00       		.byte	0
 2185 0208 27       		.uleb128 0x27
 2186 0209 05       		.uleb128 0x5
 2187 020a 00       		.byte	0
 2188 020b 03       		.uleb128 0x3
 2189 020c 08       		.uleb128 0x8
 2190 020d 3A       		.uleb128 0x3a
 2191 020e 0B       		.uleb128 0xb
 2192 020f 3B       		.uleb128 0x3b
 2193 0210 0B       		.uleb128 0xb
 2194 0211 49       		.uleb128 0x49
 2195 0212 13       		.uleb128 0x13
 2196 0213 02       		.uleb128 0x2
 2197 0214 06       		.uleb128 0x6
 2198 0215 00       		.byte	0
 2199 0216 00       		.byte	0
 2200 0217 28       		.uleb128 0x28
 2201 0218 1D       		.uleb128 0x1d
 2202 0219 01       		.byte	0x1
 2203 021a 31       		.uleb128 0x31
 2204 021b 13       		.uleb128 0x13
 2205 021c 52       		.uleb128 0x52
 2206 021d 01       		.uleb128 0x1
 2207 021e 55       		.uleb128 0x55
 2208 021f 06       		.uleb128 0x6
 2209 0220 58       		.uleb128 0x58
 2210 0221 0B       		.uleb128 0xb
ARM GAS  /tmp/ccaEtz0w.s 			page 40


 2211 0222 59       		.uleb128 0x59
 2212 0223 0B       		.uleb128 0xb
 2213 0224 01       		.uleb128 0x1
 2214 0225 13       		.uleb128 0x13
 2215 0226 00       		.byte	0
 2216 0227 00       		.byte	0
 2217 0228 29       		.uleb128 0x29
 2218 0229 05       		.uleb128 0x5
 2219 022a 00       		.byte	0
 2220 022b 31       		.uleb128 0x31
 2221 022c 13       		.uleb128 0x13
 2222 022d 00       		.byte	0
 2223 022e 00       		.byte	0
 2224 022f 2A       		.uleb128 0x2a
 2225 0230 2E       		.uleb128 0x2e
 2226 0231 01       		.byte	0x1
 2227 0232 3F       		.uleb128 0x3f
 2228 0233 0C       		.uleb128 0xc
 2229 0234 03       		.uleb128 0x3
 2230 0235 0E       		.uleb128 0xe
 2231 0236 3A       		.uleb128 0x3a
 2232 0237 0B       		.uleb128 0xb
 2233 0238 3B       		.uleb128 0x3b
 2234 0239 05       		.uleb128 0x5
 2235 023a 27       		.uleb128 0x27
 2236 023b 0C       		.uleb128 0xc
 2237 023c 11       		.uleb128 0x11
 2238 023d 01       		.uleb128 0x1
 2239 023e 12       		.uleb128 0x12
 2240 023f 01       		.uleb128 0x1
 2241 0240 40       		.uleb128 0x40
 2242 0241 06       		.uleb128 0x6
 2243 0242 01       		.uleb128 0x1
 2244 0243 13       		.uleb128 0x13
 2245 0244 00       		.byte	0
 2246 0245 00       		.byte	0
 2247 0246 2B       		.uleb128 0x2b
 2248 0247 34       		.uleb128 0x34
 2249 0248 00       		.byte	0
 2250 0249 03       		.uleb128 0x3
 2251 024a 08       		.uleb128 0x8
 2252 024b 3A       		.uleb128 0x3a
 2253 024c 0B       		.uleb128 0xb
 2254 024d 3B       		.uleb128 0x3b
 2255 024e 05       		.uleb128 0x5
 2256 024f 49       		.uleb128 0x49
 2257 0250 13       		.uleb128 0x13
 2258 0251 02       		.uleb128 0x2
 2259 0252 06       		.uleb128 0x6
 2260 0253 00       		.byte	0
 2261 0254 00       		.byte	0
 2262 0255 2C       		.uleb128 0x2c
 2263 0256 1D       		.uleb128 0x1d
 2264 0257 01       		.byte	0x1
 2265 0258 31       		.uleb128 0x31
 2266 0259 13       		.uleb128 0x13
 2267 025a 52       		.uleb128 0x52
ARM GAS  /tmp/ccaEtz0w.s 			page 41


 2268 025b 01       		.uleb128 0x1
 2269 025c 55       		.uleb128 0x55
 2270 025d 06       		.uleb128 0x6
 2271 025e 58       		.uleb128 0x58
 2272 025f 0B       		.uleb128 0xb
 2273 0260 59       		.uleb128 0x59
 2274 0261 05       		.uleb128 0x5
 2275 0262 01       		.uleb128 0x1
 2276 0263 13       		.uleb128 0x13
 2277 0264 00       		.byte	0
 2278 0265 00       		.byte	0
 2279 0266 2D       		.uleb128 0x2d
 2280 0267 1D       		.uleb128 0x1d
 2281 0268 01       		.byte	0x1
 2282 0269 31       		.uleb128 0x31
 2283 026a 13       		.uleb128 0x13
 2284 026b 52       		.uleb128 0x52
 2285 026c 01       		.uleb128 0x1
 2286 026d 55       		.uleb128 0x55
 2287 026e 06       		.uleb128 0x6
 2288 026f 58       		.uleb128 0x58
 2289 0270 0B       		.uleb128 0xb
 2290 0271 59       		.uleb128 0x59
 2291 0272 05       		.uleb128 0x5
 2292 0273 00       		.byte	0
 2293 0274 00       		.byte	0
 2294 0275 2E       		.uleb128 0x2e
 2295 0276 34       		.uleb128 0x34
 2296 0277 00       		.byte	0
 2297 0278 03       		.uleb128 0x3
 2298 0279 0E       		.uleb128 0xe
 2299 027a 3A       		.uleb128 0x3a
 2300 027b 0B       		.uleb128 0xb
 2301 027c 3B       		.uleb128 0x3b
 2302 027d 0B       		.uleb128 0xb
 2303 027e 49       		.uleb128 0x49
 2304 027f 13       		.uleb128 0x13
 2305 0280 3F       		.uleb128 0x3f
 2306 0281 0C       		.uleb128 0xc
 2307 0282 02       		.uleb128 0x2
 2308 0283 0A       		.uleb128 0xa
 2309 0284 00       		.byte	0
 2310 0285 00       		.byte	0
 2311 0286 00       		.byte	0
 2312              		.section	.debug_loc,"",%progbits
 2313              	.Ldebug_loc0:
 2314              	.LLST0:
 2315 0000 20000000 		.4byte	.LVL1
 2316 0004 2A000000 		.4byte	.LVL2
 2317 0008 0100     		.2byte	0x1
 2318 000a 50       		.byte	0x50
 2319 000b 00000000 		.4byte	0
 2320 000f 00000000 		.4byte	0
 2321              	.LLST1:
 2322 0013 34000000 		.4byte	.LVL3
 2323 0017 50000000 		.4byte	.LVL7
 2324 001b 0100     		.2byte	0x1
ARM GAS  /tmp/ccaEtz0w.s 			page 42


 2325 001d 50       		.byte	0x50
 2326 001e 00000000 		.4byte	0
 2327 0022 00000000 		.4byte	0
 2328              	.LLST2:
 2329 0026 3A000000 		.4byte	.LVL4
 2330 002a 3E000000 		.4byte	.LVL5
 2331 002e 0600     		.2byte	0x6
 2332 0030 03       		.byte	0x3
 2333 0031 00000000 		.4byte	rlist
 2334 0035 9F       		.byte	0x9f
 2335 0036 3E000000 		.4byte	.LVL5
 2336 003a 50000000 		.4byte	.LVL7
 2337 003e 0100     		.2byte	0x1
 2338 0040 53       		.byte	0x53
 2339 0041 00000000 		.4byte	0
 2340 0045 00000000 		.4byte	0
 2341              	.LLST3:
 2342 0049 0A000000 		.4byte	.LVL9
 2343 004d 0E000000 		.4byte	.LVL10
 2344 0051 0600     		.2byte	0x6
 2345 0053 03       		.byte	0x3
 2346 0054 00000000 		.4byte	rlist
 2347 0058 9F       		.byte	0x9f
 2348 0059 0E000000 		.4byte	.LVL10
 2349 005d 22000000 		.4byte	.LFE8
 2350 0061 0100     		.2byte	0x1
 2351 0063 53       		.byte	0x53
 2352 0064 00000000 		.4byte	0
 2353 0068 00000000 		.4byte	0
 2354              	.LLST4:
 2355 006c 00000000 		.4byte	.LFB9
 2356 0070 0A000000 		.4byte	.LCFI0
 2357 0074 0200     		.2byte	0x2
 2358 0076 7D       		.byte	0x7d
 2359 0077 00       		.sleb128 0
 2360 0078 0A000000 		.4byte	.LCFI0
 2361 007c 28000000 		.4byte	.LFE9
 2362 0080 0200     		.2byte	0x2
 2363 0082 7D       		.byte	0x7d
 2364 0083 08       		.sleb128 8
 2365 0084 00000000 		.4byte	0
 2366 0088 00000000 		.4byte	0
 2367              	.LLST5:
 2368 008c 00000000 		.4byte	.LVL12
 2369 0090 14000000 		.4byte	.LVL14
 2370 0094 0100     		.2byte	0x1
 2371 0096 50       		.byte	0x50
 2372 0097 14000000 		.4byte	.LVL14
 2373 009b 27000000 		.4byte	.LVL18-1
 2374 009f 0800     		.2byte	0x8
 2375 00a1 03       		.byte	0x3
 2376 00a2 1C000000 		.4byte	rlist+28
 2377 00a6 06       		.byte	0x6
 2378 00a7 23       		.byte	0x23
 2379 00a8 1C       		.uleb128 0x1c
 2380 00a9 00000000 		.4byte	0
 2381 00ad 00000000 		.4byte	0
ARM GAS  /tmp/ccaEtz0w.s 			page 43


 2382              	.LLST6:
 2383 00b1 0E000000 		.4byte	.LVL13
 2384 00b5 27000000 		.4byte	.LVL17-1
 2385 00b9 0500     		.2byte	0x5
 2386 00bb 03       		.byte	0x3
 2387 00bc 1C000000 		.4byte	rlist+28
 2388 00c0 00000000 		.4byte	0
 2389 00c4 00000000 		.4byte	0
 2390              	.LLST7:
 2391 00c8 16000000 		.4byte	.LVL15
 2392 00cc 27000000 		.4byte	.LVL16-1
 2393 00d0 0500     		.2byte	0x5
 2394 00d2 03       		.byte	0x3
 2395 00d3 00000000 		.4byte	rlist
 2396 00d7 00000000 		.4byte	0
 2397 00db 00000000 		.4byte	0
 2398              	.LLST8:
 2399 00df 00000000 		.4byte	.LFB11
 2400 00e3 02000000 		.4byte	.LCFI1
 2401 00e7 0200     		.2byte	0x2
 2402 00e9 7D       		.byte	0x7d
 2403 00ea 00       		.sleb128 0
 2404 00eb 02000000 		.4byte	.LCFI1
 2405 00ef 06000000 		.4byte	.LCFI2
 2406 00f3 0200     		.2byte	0x2
 2407 00f5 7D       		.byte	0x7d
 2408 00f6 0C       		.sleb128 12
 2409 00f7 06000000 		.4byte	.LCFI2
 2410 00fb 48000000 		.4byte	.LFE11
 2411 00ff 0200     		.2byte	0x2
 2412 0101 7D       		.byte	0x7d
 2413 0102 28       		.sleb128 40
 2414 0103 00000000 		.4byte	0
 2415 0107 00000000 		.4byte	0
 2416              	.LLST9:
 2417 010b 00000000 		.4byte	.LVL19
 2418 010f 1E000000 		.4byte	.LVL20
 2419 0113 0100     		.2byte	0x1
 2420 0115 50       		.byte	0x50
 2421 0116 3A000000 		.4byte	.LVL22
 2422 011a 41000000 		.4byte	.LVL23-1
 2423 011e 0100     		.2byte	0x1
 2424 0120 50       		.byte	0x50
 2425 0121 00000000 		.4byte	0
 2426 0125 00000000 		.4byte	0
 2427              	.LLST10:
 2428 0129 00000000 		.4byte	.LVL19
 2429 012d 21000000 		.4byte	.LVL21-1
 2430 0131 0100     		.2byte	0x1
 2431 0133 51       		.byte	0x51
 2432 0134 3A000000 		.4byte	.LVL22
 2433 0138 41000000 		.4byte	.LVL23-1
 2434 013c 0100     		.2byte	0x1
 2435 013e 51       		.byte	0x51
 2436 013f 00000000 		.4byte	0
 2437 0143 00000000 		.4byte	0
 2438              	.LLST11:
ARM GAS  /tmp/ccaEtz0w.s 			page 44


 2439 0147 00000000 		.4byte	.LFB12
 2440 014b 0A000000 		.4byte	.LCFI3
 2441 014f 0200     		.2byte	0x2
 2442 0151 7D       		.byte	0x7d
 2443 0152 00       		.sleb128 0
 2444 0153 0A000000 		.4byte	.LCFI3
 2445 0157 5E000000 		.4byte	.LFE12
 2446 015b 0200     		.2byte	0x2
 2447 015d 7D       		.byte	0x7d
 2448 015e 08       		.sleb128 8
 2449 015f 00000000 		.4byte	0
 2450 0163 00000000 		.4byte	0
 2451              	.LLST12:
 2452 0167 00000000 		.4byte	.LVL24
 2453 016b 12000000 		.4byte	.LVL25
 2454 016f 0100     		.2byte	0x1
 2455 0171 50       		.byte	0x50
 2456 0172 12000000 		.4byte	.LVL25
 2457 0176 54000000 		.4byte	.LVL34
 2458 017a 0100     		.2byte	0x1
 2459 017c 53       		.byte	0x53
 2460 017d 54000000 		.4byte	.LVL34
 2461 0181 5D000000 		.4byte	.LVL37-1
 2462 0185 0100     		.2byte	0x1
 2463 0187 50       		.byte	0x50
 2464 0188 00000000 		.4byte	0
 2465 018c 00000000 		.4byte	0
 2466              	.LLST13:
 2467 0190 00000000 		.4byte	.LVL24
 2468 0194 16000000 		.4byte	.LVL26
 2469 0198 0100     		.2byte	0x1
 2470 019a 51       		.byte	0x51
 2471 019b 16000000 		.4byte	.LVL26
 2472 019f 54000000 		.4byte	.LVL34
 2473 01a3 0200     		.2byte	0x2
 2474 01a5 73       		.byte	0x73
 2475 01a6 24       		.sleb128 36
 2476 01a7 54000000 		.4byte	.LVL34
 2477 01ab 5D000000 		.4byte	.LVL36-1
 2478 01af 0200     		.2byte	0x2
 2479 01b1 70       		.byte	0x70
 2480 01b2 24       		.sleb128 36
 2481 01b3 00000000 		.4byte	0
 2482 01b7 00000000 		.4byte	0
 2483              	.LLST14:
 2484 01bb 20000000 		.4byte	.LVL28
 2485 01bf 38000000 		.4byte	.LVL31
 2486 01c3 0100     		.2byte	0x1
 2487 01c5 53       		.byte	0x53
 2488 01c6 00000000 		.4byte	0
 2489 01ca 00000000 		.4byte	0
 2490              	.LLST15:
 2491 01ce 22000000 		.4byte	.LVL29
 2492 01d2 38000000 		.4byte	.LVL31
 2493 01d6 0100     		.2byte	0x1
 2494 01d8 52       		.byte	0x52
 2495 01d9 00000000 		.4byte	0
ARM GAS  /tmp/ccaEtz0w.s 			page 45


 2496 01dd 00000000 		.4byte	0
 2497              	.LLST16:
 2498 01e1 1C000000 		.4byte	.LVL27
 2499 01e5 38000000 		.4byte	.LVL31
 2500 01e9 0600     		.2byte	0x6
 2501 01eb 03       		.byte	0x3
 2502 01ec 00000000 		.4byte	rlist
 2503 01f0 9F       		.byte	0x9f
 2504 01f1 38000000 		.4byte	.LVL31
 2505 01f5 4A000000 		.4byte	.LVL33
 2506 01f9 0100     		.2byte	0x1
 2507 01fb 51       		.byte	0x51
 2508 01fc 4A000000 		.4byte	.LVL33
 2509 0200 5D000000 		.4byte	.LVL35-1
 2510 0204 0600     		.2byte	0x6
 2511 0206 03       		.byte	0x3
 2512 0207 1C000000 		.4byte	rlist+28
 2513 020b 06       		.byte	0x6
 2514 020c 00000000 		.4byte	0
 2515 0210 00000000 		.4byte	0
 2516              	.LLST17:
 2517 0214 00000000 		.4byte	.LFB14
 2518 0218 0A000000 		.4byte	.LCFI4
 2519 021c 0200     		.2byte	0x2
 2520 021e 7D       		.byte	0x7d
 2521 021f 00       		.sleb128 0
 2522 0220 0A000000 		.4byte	.LCFI4
 2523 0224 40000000 		.4byte	.LFE14
 2524 0228 0200     		.2byte	0x2
 2525 022a 7D       		.byte	0x7d
 2526 022b 08       		.sleb128 8
 2527 022c 00000000 		.4byte	0
 2528 0230 00000000 		.4byte	0
 2529              	.LLST18:
 2530 0234 0E000000 		.4byte	.LVL38
 2531 0238 3F000000 		.4byte	.LVL43-1
 2532 023c 0500     		.2byte	0x5
 2533 023e 03       		.byte	0x3
 2534 023f 1C000000 		.4byte	rlist+28
 2535 0243 00000000 		.4byte	0
 2536 0247 00000000 		.4byte	0
 2537              	.LLST19:
 2538 024b 0E000000 		.4byte	.LVL38
 2539 024f 3F000000 		.4byte	.LVL46-1
 2540 0253 0500     		.2byte	0x5
 2541 0255 03       		.byte	0x3
 2542 0256 00000000 		.4byte	rlist
 2543 025a 00000000 		.4byte	0
 2544 025e 00000000 		.4byte	0
 2545              	.LLST20:
 2546 0262 20000000 		.4byte	.LVL39
 2547 0266 3F000000 		.4byte	.LVL45-1
 2548 026a 0500     		.2byte	0x5
 2549 026c 03       		.byte	0x3
 2550 026d 1C000000 		.4byte	rlist+28
 2551 0271 00000000 		.4byte	0
 2552 0275 00000000 		.4byte	0
ARM GAS  /tmp/ccaEtz0w.s 			page 46


 2553              	.LLST21:
 2554 0279 26000000 		.4byte	.LVL40
 2555 027d 28000000 		.4byte	.LVL41
 2556 0281 0600     		.2byte	0x6
 2557 0283 03       		.byte	0x3
 2558 0284 00000000 		.4byte	rlist
 2559 0288 9F       		.byte	0x9f
 2560 0289 28000000 		.4byte	.LVL41
 2561 028d 3F000000 		.4byte	.LVL44-1
 2562 0291 0100     		.2byte	0x1
 2563 0293 53       		.byte	0x53
 2564 0294 00000000 		.4byte	0
 2565 0298 00000000 		.4byte	0
 2566              		.section	.debug_aranges,"",%progbits
 2567 0000 54000000 		.4byte	0x54
 2568 0004 0200     		.2byte	0x2
 2569 0006 00000000 		.4byte	.Ldebug_info0
 2570 000a 04       		.byte	0x4
 2571 000b 00       		.byte	0
 2572 000c 0000     		.2byte	0
 2573 000e 0000     		.2byte	0
 2574 0010 00000000 		.4byte	.LFB10
 2575 0014 52000000 		.4byte	.LFE10-.LFB10
 2576 0018 00000000 		.4byte	.LFB7
 2577 001c 1A000000 		.4byte	.LFE7-.LFB7
 2578 0020 00000000 		.4byte	.LFB8
 2579 0024 22000000 		.4byte	.LFE8-.LFB8
 2580 0028 00000000 		.4byte	.LFB9
 2581 002c 28000000 		.4byte	.LFE9-.LFB9
 2582 0030 00000000 		.4byte	.LFB11
 2583 0034 48000000 		.4byte	.LFE11-.LFB11
 2584 0038 00000000 		.4byte	.LFB12
 2585 003c 5E000000 		.4byte	.LFE12-.LFB12
 2586 0040 00000000 		.4byte	.LFB14
 2587 0044 40000000 		.4byte	.LFE14-.LFB14
 2588 0048 00000000 		.4byte	.LFB13
 2589 004c 1E000000 		.4byte	.LFE13-.LFB13
 2590 0050 00000000 		.4byte	0
 2591 0054 00000000 		.4byte	0
 2592              		.section	.debug_ranges,"",%progbits
 2593              	.Ldebug_ranges0:
 2594 0000 2E000000 		.4byte	.LBB19
 2595 0004 32000000 		.4byte	.LBE19
 2596 0008 34000000 		.4byte	.LBB22
 2597 000c 52000000 		.4byte	.LBE22
 2598 0010 00000000 		.4byte	0
 2599 0014 00000000 		.4byte	0
 2600 0018 2E000000 		.4byte	.LBB20
 2601 001c 32000000 		.4byte	.LBE20
 2602 0020 34000000 		.4byte	.LBB21
 2603 0024 52000000 		.4byte	.LBE21
 2604 0028 00000000 		.4byte	0
 2605 002c 00000000 		.4byte	0
 2606 0030 0A000000 		.4byte	.LBB23
 2607 0034 0C000000 		.4byte	.LBE23
 2608 0038 0E000000 		.4byte	.LBB27
 2609 003c 10000000 		.4byte	.LBE27
ARM GAS  /tmp/ccaEtz0w.s 			page 47


 2610 0040 1A000000 		.4byte	.LBB28
 2611 0044 1E000000 		.4byte	.LBE28
 2612 0048 00000000 		.4byte	0
 2613 004c 00000000 		.4byte	0
 2614 0050 0A000000 		.4byte	.LBB24
 2615 0054 0C000000 		.4byte	.LBE24
 2616 0058 0E000000 		.4byte	.LBB25
 2617 005c 10000000 		.4byte	.LBE25
 2618 0060 1A000000 		.4byte	.LBB26
 2619 0064 1E000000 		.4byte	.LBE26
 2620 0068 00000000 		.4byte	0
 2621 006c 00000000 		.4byte	0
 2622 0070 14000000 		.4byte	.LBB30
 2623 0074 16000000 		.4byte	.LBE30
 2624 0078 20000000 		.4byte	.LBB40
 2625 007c 34000000 		.4byte	.LBE40
 2626 0080 00000000 		.4byte	0
 2627 0084 00000000 		.4byte	0
 2628 0088 14000000 		.4byte	.LBB31
 2629 008c 16000000 		.4byte	.LBE31
 2630 0090 20000000 		.4byte	.LBB32
 2631 0094 34000000 		.4byte	.LBE32
 2632 0098 00000000 		.4byte	0
 2633 009c 00000000 		.4byte	0
 2634 00a0 18000000 		.4byte	.LBB33
 2635 00a4 1E000000 		.4byte	.LBE33
 2636 00a8 38000000 		.4byte	.LBB41
 2637 00ac 58000000 		.4byte	.LBE41
 2638 00b0 5A000000 		.4byte	.LBB42
 2639 00b4 5E000000 		.4byte	.LBE42
 2640 00b8 00000000 		.4byte	0
 2641 00bc 00000000 		.4byte	0
 2642 00c0 18000000 		.4byte	.LBB34
 2643 00c4 1E000000 		.4byte	.LBE34
 2644 00c8 38000000 		.4byte	.LBB38
 2645 00cc 48000000 		.4byte	.LBE38
 2646 00d0 4A000000 		.4byte	.LBB39
 2647 00d4 4C000000 		.4byte	.LBE39
 2648 00d8 00000000 		.4byte	0
 2649 00dc 00000000 		.4byte	0
 2650 00e0 18000000 		.4byte	.LBB35
 2651 00e4 1E000000 		.4byte	.LBE35
 2652 00e8 38000000 		.4byte	.LBB36
 2653 00ec 48000000 		.4byte	.LBE36
 2654 00f0 4A000000 		.4byte	.LBB37
 2655 00f4 4C000000 		.4byte	.LBE37
 2656 00f8 00000000 		.4byte	0
 2657 00fc 00000000 		.4byte	0
 2658 0100 0A000000 		.4byte	.LBB43
 2659 0104 0C000000 		.4byte	.LBE43
 2660 0108 0E000000 		.4byte	.LBB48
 2661 010c 10000000 		.4byte	.LBE48
 2662 0110 12000000 		.4byte	.LBB52
 2663 0114 14000000 		.4byte	.LBE52
 2664 0118 18000000 		.4byte	.LBB53
 2665 011c 1A000000 		.4byte	.LBE53
 2666 0120 00000000 		.4byte	0
ARM GAS  /tmp/ccaEtz0w.s 			page 48


 2667 0124 00000000 		.4byte	0
 2668 0128 0A000000 		.4byte	.LBB44
 2669 012c 0C000000 		.4byte	.LBE44
 2670 0130 0E000000 		.4byte	.LBB45
 2671 0134 10000000 		.4byte	.LBE45
 2672 0138 12000000 		.4byte	.LBB46
 2673 013c 14000000 		.4byte	.LBE46
 2674 0140 18000000 		.4byte	.LBB47
 2675 0144 1A000000 		.4byte	.LBE47
 2676 0148 00000000 		.4byte	0
 2677 014c 00000000 		.4byte	0
 2678 0150 10000000 		.4byte	.LBB49
 2679 0154 12000000 		.4byte	.LBE49
 2680 0158 20000000 		.4byte	.LBB54
 2681 015c 3A000000 		.4byte	.LBE54
 2682 0160 00000000 		.4byte	0
 2683 0164 00000000 		.4byte	0
 2684 0168 10000000 		.4byte	.LBB50
 2685 016c 12000000 		.4byte	.LBE50
 2686 0170 20000000 		.4byte	.LBB51
 2687 0174 3A000000 		.4byte	.LBE51
 2688 0178 00000000 		.4byte	0
 2689 017c 00000000 		.4byte	0
 2690 0180 00000000 		.4byte	.LFB10
 2691 0184 52000000 		.4byte	.LFE10
 2692 0188 00000000 		.4byte	.LFB7
 2693 018c 1A000000 		.4byte	.LFE7
 2694 0190 00000000 		.4byte	.LFB8
 2695 0194 22000000 		.4byte	.LFE8
 2696 0198 00000000 		.4byte	.LFB9
 2697 019c 28000000 		.4byte	.LFE9
 2698 01a0 00000000 		.4byte	.LFB11
 2699 01a4 48000000 		.4byte	.LFE11
 2700 01a8 00000000 		.4byte	.LFB12
 2701 01ac 5E000000 		.4byte	.LFE12
 2702 01b0 00000000 		.4byte	.LFB14
 2703 01b4 40000000 		.4byte	.LFE14
 2704 01b8 00000000 		.4byte	.LFB13
 2705 01bc 1E000000 		.4byte	.LFE13
 2706 01c0 00000000 		.4byte	0
 2707 01c4 00000000 		.4byte	0
 2708              		.section	.debug_line,"",%progbits
 2709              	.Ldebug_line0:
 2710 0000 F5020000 		.section	.debug_str,"MS",%progbits,1
 2710      02007101 
 2710      00000201 
 2710      FB0E0D00 
 2710      01010101 
 2711              	.LASF34:
 2712 0000 705F6D73 		.ascii	"p_msg\000"
 2712      6700
 2713              	.LASF66:
 2714 0006 7264796D 		.ascii	"rdymsg\000"
 2714      736700
 2715              	.LASF11:
 2716 000d 6C6F6E67 		.ascii	"long long unsigned int\000"
 2716      206C6F6E 
ARM GAS  /tmp/ccaEtz0w.s 			page 49


 2716      6720756E 
 2716      7369676E 
 2716      65642069 
 2717              	.LASF67:
 2718 0024 65786974 		.ascii	"exitcode\000"
 2718      636F6465 
 2718      00
 2719              	.LASF23:
 2720 002d 705F7072 		.ascii	"p_prio\000"
 2720      696F00
 2721              	.LASF78:
 2722 0034 5F736368 		.ascii	"_scheduler_init\000"
 2722      6564756C 
 2722      65725F69 
 2722      6E697400 
 2723              	.LASF10:
 2724 0044 6C6F6E67 		.ascii	"long long int\000"
 2724      206C6F6E 
 2724      6720696E 
 2724      7400
 2725              	.LASF1:
 2726 0052 7369676E 		.ascii	"signed char\000"
 2726      65642063 
 2726      68617200 
 2727              	.LASF38:
 2728 005e 705F6D70 		.ascii	"p_mpool\000"
 2728      6F6F6C00 
 2729              	.LASF63:
 2730 0066 6D5F7175 		.ascii	"m_queue\000"
 2730      65756500 
 2731              	.LASF7:
 2732 006e 6C6F6E67 		.ascii	"long int\000"
 2732      20696E74 
 2732      00
 2733              	.LASF13:
 2734 0077 74737461 		.ascii	"tstate_t\000"
 2734      74655F74 
 2734      00
 2735              	.LASF25:
 2736 0080 705F6E65 		.ascii	"p_newer\000"
 2736      77657200 
 2737              	.LASF60:
 2738 0088 735F7175 		.ascii	"s_queue\000"
 2738      65756500 
 2739              	.LASF79:
 2740 0090 63685363 		.ascii	"chSchRescheduleS\000"
 2740      68526573 
 2740      63686564 
 2740      756C6553 
 2740      00
 2741              	.LASF54:
 2742 00a1 725F6E65 		.ascii	"r_newer\000"
 2742      77657200 
 2743              	.LASF41:
 2744 00a9 72656761 		.ascii	"regarm_t\000"
 2744      726D5F74 
 2744      00
ARM GAS  /tmp/ccaEtz0w.s 			page 50


 2745              	.LASF47:
 2746 00b2 76745F70 		.ascii	"vt_prev\000"
 2746      72657600 
 2747              	.LASF77:
 2748 00ba 63685363 		.ascii	"chSchDoReschedule\000"
 2748      68446F52 
 2748      65736368 
 2748      6564756C 
 2748      6500
 2749              	.LASF19:
 2750 00cc 636E745F 		.ascii	"cnt_t\000"
 2750      7400
 2751              	.LASF0:
 2752 00d2 756E7369 		.ascii	"unsigned int\000"
 2752      676E6564 
 2752      20696E74 
 2752      00
 2753              	.LASF83:
 2754 00df 77616B65 		.ascii	"wakeup\000"
 2754      757000
 2755              	.LASF46:
 2756 00e6 76745F6E 		.ascii	"vt_next\000"
 2756      65787400 
 2757              	.LASF9:
 2758 00ee 6C6F6E67 		.ascii	"long unsigned int\000"
 2758      20756E73 
 2758      69676E65 
 2758      6420696E 
 2758      7400
 2759              	.LASF81:
 2760 0100 2F6F7074 		.ascii	"/opt/ChibiOS/ChibiOS_2.4.4/os/kernel/src/chschd.c\000"
 2760      2F436869 
 2760      62694F53 
 2760      2F436869 
 2760      62694F53 
 2761              	.LASF61:
 2762 0132 735F636E 		.ascii	"s_cnt\000"
 2762      7400
 2763              	.LASF43:
 2764 0138 636F6E74 		.ascii	"context\000"
 2764      65787400 
 2765              	.LASF4:
 2766 0140 73686F72 		.ascii	"short unsigned int\000"
 2766      7420756E 
 2766      7369676E 
 2766      65642069 
 2766      6E7400
 2767              	.LASF76:
 2768 0153 63685363 		.ascii	"chSchWakeupS\000"
 2768      6857616B 
 2768      65757053 
 2768      00
 2769              	.LASF16:
 2770 0160 6D73675F 		.ascii	"msg_t\000"
 2770      7400
 2771              	.LASF12:
 2772 0166 746D6F64 		.ascii	"tmode_t\000"
ARM GAS  /tmp/ccaEtz0w.s 			page 51


 2772      655F7400 
 2773              	.LASF40:
 2774 016e 54687265 		.ascii	"ThreadsList\000"
 2774      6164734C 
 2774      69737400 
 2775              	.LASF17:
 2776 017a 6576656E 		.ascii	"eventmask_t\000"
 2776      746D6173 
 2776      6B5F7400 
 2777              	.LASF62:
 2778 0186 4D757465 		.ascii	"Mutex\000"
 2778      7800
 2779              	.LASF48:
 2780 018c 76745F74 		.ascii	"vt_time\000"
 2780      696D6500 
 2781              	.LASF49:
 2782 0194 76745F66 		.ascii	"vt_func\000"
 2782      756E6300 
 2783              	.LASF26:
 2784 019c 705F6F6C 		.ascii	"p_older\000"
 2784      64657200 
 2785              	.LASF53:
 2786 01a4 725F6374 		.ascii	"r_ctx\000"
 2786      7800
 2787              	.LASF39:
 2788 01aa 54687265 		.ascii	"ThreadsQueue\000"
 2788      61647351 
 2788      75657565 
 2788      00
 2789              	.LASF71:
 2790 01b7 64657175 		.ascii	"dequeue\000"
 2790      65756500 
 2791              	.LASF57:
 2792 01bf 725F6375 		.ascii	"r_current\000"
 2792      7272656E 
 2792      7400
 2793              	.LASF55:
 2794 01c9 725F6F6C 		.ascii	"r_older\000"
 2794      64657200 
 2795              	.LASF14:
 2796 01d1 74726566 		.ascii	"trefs_t\000"
 2796      735F7400 
 2797              	.LASF22:
 2798 01d9 705F7072 		.ascii	"p_prev\000"
 2798      657600
 2799              	.LASF15:
 2800 01e0 74707269 		.ascii	"tprio_t\000"
 2800      6F5F7400 
 2801              	.LASF6:
 2802 01e8 696E7433 		.ascii	"int32_t\000"
 2802      325F7400 
 2803              	.LASF2:
 2804 01f0 756E7369 		.ascii	"unsigned char\000"
 2804      676E6564 
 2804      20636861 
 2804      7200
 2805              	.LASF73:
ARM GAS  /tmp/ccaEtz0w.s 			page 52


 2806 01fe 6E657773 		.ascii	"newstate\000"
 2806      74617465 
 2806      00
 2807              	.LASF36:
 2808 0207 705F6D74 		.ascii	"p_mtxlist\000"
 2808      786C6973 
 2808      7400
 2809              	.LASF3:
 2810 0211 73686F72 		.ascii	"short int\000"
 2810      7420696E 
 2810      7400
 2811              	.LASF28:
 2812 021b 705F7374 		.ascii	"p_state\000"
 2812      61746500 
 2813              	.LASF52:
 2814 0223 725F7072 		.ascii	"r_prio\000"
 2814      696F00
 2815              	.LASF69:
 2816 022a 65776D61 		.ascii	"ewmask\000"
 2816      736B00
 2817              	.LASF21:
 2818 0231 705F6E65 		.ascii	"p_next\000"
 2818      787400
 2819              	.LASF29:
 2820 0238 705F666C 		.ascii	"p_flags\000"
 2820      61677300 
 2821              	.LASF20:
 2822 0240 54687265 		.ascii	"Thread\000"
 2822      616400
 2823              	.LASF75:
 2824 0247 63685363 		.ascii	"chSchGoSleepS\000"
 2824      68476F53 
 2824      6C656570 
 2824      5300
 2825              	.LASF35:
 2826 0255 705F6570 		.ascii	"p_epending\000"
 2826      656E6469 
 2826      6E6700
 2827              	.LASF8:
 2828 0260 75696E74 		.ascii	"uint32_t\000"
 2828      33325F74 
 2828      00
 2829              	.LASF51:
 2830 0269 725F7175 		.ascii	"r_queue\000"
 2830      65756500 
 2831              	.LASF45:
 2832 0271 56697274 		.ascii	"VirtualTimer\000"
 2832      75616C54 
 2832      696D6572 
 2832      00
 2833              	.LASF80:
 2834 027e 474E5520 		.ascii	"GNU C 4.6.3\000"
 2834      4320342E 
 2834      362E3300 
 2835              	.LASF70:
 2836 028a 63686172 		.ascii	"char\000"
 2836      00
ARM GAS  /tmp/ccaEtz0w.s 			page 53


 2837              	.LASF72:
 2838 028f 6669666F 		.ascii	"fifo_remove\000"
 2838      5F72656D 
 2838      6F766500 
 2839              	.LASF82:
 2840 029b 63685363 		.ascii	"chSchReadyI\000"
 2840      68526561 
 2840      64794900 
 2841              	.LASF65:
 2842 02a7 6D5F6E65 		.ascii	"m_next\000"
 2842      787400
 2843              	.LASF18:
 2844 02ae 73797374 		.ascii	"systime_t\000"
 2844      696D655F 
 2844      7400
 2845              	.LASF37:
 2846 02b8 705F7265 		.ascii	"p_realprio\000"
 2846      616C7072 
 2846      696F00
 2847              	.LASF44:
 2848 02c3 76746675 		.ascii	"vtfunc_t\000"
 2848      6E635F74 
 2848      00
 2849              	.LASF31:
 2850 02cc 705F7469 		.ascii	"p_time\000"
 2850      6D6500
 2851              	.LASF42:
 2852 02d3 696E7463 		.ascii	"intctx\000"
 2852      747800
 2853              	.LASF33:
 2854 02da 705F6D73 		.ascii	"p_msgqueue\000"
 2854      67717565 
 2854      756500
 2855              	.LASF74:
 2856 02e5 74696D65 		.ascii	"time\000"
 2856      00
 2857              	.LASF50:
 2858 02ea 76745F70 		.ascii	"vt_par\000"
 2858      617200
 2859              	.LASF59:
 2860 02f1 53656D61 		.ascii	"Semaphore\000"
 2860      70686F72 
 2860      6500
 2861              	.LASF30:
 2862 02fb 705F7265 		.ascii	"p_refs\000"
 2862      667300
 2863              	.LASF58:
 2864 0302 52656164 		.ascii	"ReadyList\000"
 2864      794C6973 
 2864      7400
 2865              	.LASF85:
 2866 030c 726C6973 		.ascii	"rlist\000"
 2866      7400
 2867              	.LASF5:
 2868 0312 75696E74 		.ascii	"uint8_t\000"
 2868      385F7400 
 2869              	.LASF68:
ARM GAS  /tmp/ccaEtz0w.s 			page 54


 2870 031a 77746F62 		.ascii	"wtobjp\000"
 2870      6A7000
 2871              	.LASF27:
 2872 0321 705F6E61 		.ascii	"p_name\000"
 2872      6D6500
 2873              	.LASF84:
 2874 0328 63685363 		.ascii	"chSchGoSleepTimeoutS\000"
 2874      68476F53 
 2874      6C656570 
 2874      54696D65 
 2874      6F757453 
 2875              	.LASF56:
 2876 033d 725F7072 		.ascii	"r_preempt\000"
 2876      65656D70 
 2876      7400
 2877              	.LASF64:
 2878 0347 6D5F6F77 		.ascii	"m_owner\000"
 2878      6E657200 
 2879              	.LASF24:
 2880 034f 705F6374 		.ascii	"p_ctx\000"
 2880      7800
 2881              	.LASF32:
 2882 0355 705F7761 		.ascii	"p_waiting\000"
 2882      6974696E 
 2882      6700
 2883              		.ident	"GCC: (Sourcery CodeBench Lite 2012.03-56) 4.6.3"
ARM GAS  /tmp/ccaEtz0w.s 			page 55


DEFINED SYMBOLS
                            *ABS*:00000000 chschd.c
     /tmp/ccaEtz0w.s:21     .text.wakeup:00000000 $t
     /tmp/ccaEtz0w.s:26     .text.wakeup:00000000 wakeup
     /tmp/ccaEtz0w.s:41     .text.wakeup:0000000a $d
     /tmp/ccaEtz0w.s:55     .text.wakeup:00000018 $t
     /tmp/ccaEtz0w.s:627    .bss.rlist:00000000 .LANCHOR0
     /tmp/ccaEtz0w.s:124    .text._scheduler_init:00000000 $t
     /tmp/ccaEtz0w.s:130    .text._scheduler_init:00000000 _scheduler_init
     /tmp/ccaEtz0w.s:160    .text.chSchReadyI:00000000 $t
     /tmp/ccaEtz0w.s:166    .text.chSchReadyI:00000000 chSchReadyI
     /tmp/ccaEtz0w.s:207    .text.chSchGoSleepS:00000000 $t
     /tmp/ccaEtz0w.s:213    .text.chSchGoSleepS:00000000 chSchGoSleepS
     /tmp/ccaEtz0w.s:278    .text.chSchGoSleepTimeoutS:00000000 $t
     /tmp/ccaEtz0w.s:284    .text.chSchGoSleepTimeoutS:00000000 chSchGoSleepTimeoutS
     /tmp/ccaEtz0w.s:347    .text.chSchWakeupS:00000000 $t
     /tmp/ccaEtz0w.s:353    .text.chSchWakeupS:00000000 chSchWakeupS
     /tmp/ccaEtz0w.s:489    .text.chSchDoReschedule:00000000 $t
     /tmp/ccaEtz0w.s:495    .text.chSchDoReschedule:00000000 chSchDoReschedule
     /tmp/ccaEtz0w.s:594    .text.chSchRescheduleS:00000000 $t
     /tmp/ccaEtz0w.s:600    .text.chSchRescheduleS:00000000 chSchRescheduleS
     /tmp/ccaEtz0w.s:630    .bss.rlist:00000000 rlist
     /tmp/ccaEtz0w.s:626    .bss.rlist:00000000 $d
                     .debug_frame:00000010 $d

UNDEFINED SYMBOLS
_port_switch
chVTSetI
chVTResetI
