ARM GAS  /tmp/ccaEtz0w.s 			page 1


   1              		.syntax unified
   2              		.cpu cortex-m4
   3              		.eabi_attribute 27, 3
   4              		.eabi_attribute 28, 1
   5              		.fpu fpv4-sp-d16
   6              		.eabi_attribute 20, 1
   7              		.eabi_attribute 21, 1
   8              		.eabi_attribute 23, 3
   9              		.eabi_attribute 24, 1
  10              		.eabi_attribute 25, 1
  11              		.eabi_attribute 26, 1
  12              		.eabi_attribute 30, 2
  13              		.eabi_attribute 34, 1
  14              		.eabi_attribute 18, 4
  15              		.thumb
  16              		.file	"chschd.c"
  17              		.text
  18              	.Ltext0:
  19              		.cfi_sections	.debug_frame
  20              		.section	.text.wakeup,"ax",%progbits
  21              		.align	2
  22              		.p2align 4,,15
  23              		.thumb
  24              		.thumb_func
  25              		.type	wakeup, %function
  26              	wakeup:
  27              	.LFB10:
  28              		.file 1 "/opt/ChibiOS/ChibiOS_2.4.4/os/kernel/src/chschd.c"
  29              		.loc 1 133 0
  30              		.cfi_startproc
  31              		@ args = 0, pretend = 0, frame = 0
  32              		@ frame_needed = 0, uses_anonymous_args = 0
  33              		@ link register save eliminated.
  34              	.LVL0:
  35              		.loc 1 136 0
  36 0000 037F     		ldrb	r3, [r0, #28]	@ zero_extendqisi2
  37 0002 0D2B     		cmp	r3, #13
  38 0004 11D8     		bhi	.L2
  39 0006 DFE803F0 		tbb	[pc, r3]
  40              	.L6:
  41 000a 23       		.byte	(.L1-.L6)/2
  42 000b 10       		.byte	(.L2-.L6)/2
  43 000c 10       		.byte	(.L2-.L6)/2
  44 000d 07       		.byte	(.L4-.L6)/2
  45 000e 10       		.byte	(.L2-.L6)/2
  46 000f 0B       		.byte	(.L5-.L6)/2
  47 0010 10       		.byte	(.L2-.L6)/2
  48 0011 10       		.byte	(.L2-.L6)/2
  49 0012 10       		.byte	(.L2-.L6)/2
  50 0013 10       		.byte	(.L2-.L6)/2
  51 0014 10       		.byte	(.L2-.L6)/2
  52 0015 10       		.byte	(.L2-.L6)/2
  53 0016 10       		.byte	(.L2-.L6)/2
  54 0017 0B       		.byte	(.L5-.L6)/2
  55              		.align	1
  56              	.L4:
  57              		.loc 1 145 0
ARM GAS  /tmp/ccaEtz0w.s 			page 2


  58 0018 416A     		ldr	r1, [r0, #36]
  59 001a 8B68     		ldr	r3, [r1, #8]
  60 001c 5A1C     		adds	r2, r3, #1
  61 001e 8A60     		str	r2, [r1, #8]
  62              	.L5:
  63              	.LVL1:
  64              	.LBB17:
  65              	.LBB18:
  66              		.file 2 "/opt/ChibiOS/ChibiOS_2.4.4/os/kernel/include/chinline.h"
  67              		.loc 2 75 0
  68 0020 90E80C00 		ldmia	r0, {r2, r3}
  69 0024 1A60     		str	r2, [r3, #0]
  70              		.loc 2 76 0
  71 0026 0268     		ldr	r2, [r0, #0]
  72 0028 5360     		str	r3, [r2, #4]
  73              	.LVL2:
  74              	.L2:
  75              	.LBE18:
  76              	.LBE17:
  77              		.loc 1 158 0
  78 002a 4FF0FF32 		mov	r2, #-1
  79              	.LBB19:
  80              	.LBB20:
  81              		.loc 1 92 0
  82 002e 40F20003 		movw	r3, #:lower16:.LANCHOR0
  83              	.LBE20:
  84              	.LBE19:
  85              		.loc 1 158 0
  86 0032 4262     		str	r2, [r0, #36]
  87              	.LVL3:
  88              	.LBB22:
  89              	.LBB21:
  90              		.loc 1 91 0
  91 0034 8168     		ldr	r1, [r0, #8]
  92 0036 0022     		movs	r2, #0
  93 0038 0277     		strb	r2, [r0, #28]
  94              	.LVL4:
  95              		.loc 1 92 0
  96 003a C0F20003 		movt	r3, #:upper16:.LANCHOR0
  97              	.LVL5:
  98              	.L7:
  99              		.loc 1 94 0
 100 003e 1B68     		ldr	r3, [r3, #0]
 101              	.LVL6:
 102              		.loc 1 95 0
 103 0040 9A68     		ldr	r2, [r3, #8]
 104 0042 8A42     		cmp	r2, r1
 105 0044 FBD2     		bcs	.L7
 106              		.loc 1 98 0
 107 0046 5968     		ldr	r1, [r3, #4]
 108              		.loc 1 97 0
 109 0048 0360     		str	r3, [r0, #0]
 110              		.loc 1 98 0
 111 004a 4160     		str	r1, [r0, #4]
 112              		.loc 1 99 0
 113 004c 0860     		str	r0, [r1, #0]
 114 004e 5860     		str	r0, [r3, #4]
ARM GAS  /tmp/ccaEtz0w.s 			page 3


 115              	.LVL7:
 116              	.L1:
 117 0050 7047     		bx	lr
 118              	.LBE21:
 119              	.LBE22:
 120              		.cfi_endproc
 121              	.LFE10:
 122              		.size	wakeup, .-wakeup
 123 0052 00BFAFF3 		.section	.text._scheduler_init,"ax",%progbits
 123      0080AFF3 
 123      0080AFF3 
 123      0080
 124              		.align	2
 125              		.p2align 4,,15
 126              		.global	_scheduler_init
 127              		.thumb
 128              		.thumb_func
 129              		.type	_scheduler_init, %function
 130              	_scheduler_init:
 131              	.LFB7:
 132              		.loc 1 55 0
 133              		.cfi_startproc
 134              		@ args = 0, pretend = 0, frame = 0
 135              		@ frame_needed = 0, uses_anonymous_args = 0
 136              		@ link register save eliminated.
 137              		.loc 1 57 0
 138 0000 40F20003 		movw	r3, #:lower16:.LANCHOR0
 139 0004 C0F20003 		movt	r3, #:upper16:.LANCHOR0
 140              		.loc 1 58 0
 141 0008 0020     		movs	r0, #0
 142              		.loc 1 60 0
 143 000a 1422     		movs	r2, #20
 144              		.loc 1 57 0
 145 000c 5B60     		str	r3, [r3, #4]
 146 000e 1B60     		str	r3, [r3, #0]
 147              		.loc 1 58 0
 148 0010 9860     		str	r0, [r3, #8]
 149              		.loc 1 60 0
 150 0012 9A61     		str	r2, [r3, #24]
 151              		.loc 1 63 0
 152 0014 5B61     		str	r3, [r3, #20]
 153 0016 1B61     		str	r3, [r3, #16]
 154              		.loc 1 65 0
 155 0018 7047     		bx	lr
 156              		.cfi_endproc
 157              	.LFE7:
 158              		.size	_scheduler_init, .-_scheduler_init
 159 001a 00BFAFF3 		.section	.text.chSchReadyI,"ax",%progbits
 159      0080
 160              		.align	2
 161              		.p2align 4,,15
 162              		.global	chSchReadyI
 163              		.thumb
 164              		.thumb_func
 165              		.type	chSchReadyI, %function
 166              	chSchReadyI:
 167              	.LFB8:
ARM GAS  /tmp/ccaEtz0w.s 			page 4


 168              		.loc 1 82 0
 169              		.cfi_startproc
 170              		@ args = 0, pretend = 0, frame = 0
 171              		@ frame_needed = 0, uses_anonymous_args = 0
 172              		@ link register save eliminated.
 173              	.LVL8:
 174              		.loc 1 92 0
 175 0000 40F20003 		movw	r3, #:lower16:.LANCHOR0
 176              		.loc 1 91 0
 177 0004 0022     		movs	r2, #0
 178 0006 8168     		ldr	r1, [r0, #8]
 179 0008 0277     		strb	r2, [r0, #28]
 180              	.LVL9:
 181              		.loc 1 92 0
 182 000a C0F20003 		movt	r3, #:upper16:.LANCHOR0
 183              	.LVL10:
 184              	.L12:
 185              		.loc 1 94 0 discriminator 1
 186 000e 1B68     		ldr	r3, [r3, #0]
 187              	.LVL11:
 188              		.loc 1 95 0 discriminator 1
 189 0010 9A68     		ldr	r2, [r3, #8]
 190 0012 8A42     		cmp	r2, r1
 191 0014 FBD2     		bcs	.L12
 192              		.loc 1 98 0
 193 0016 5968     		ldr	r1, [r3, #4]
 194              		.loc 1 97 0
 195 0018 0360     		str	r3, [r0, #0]
 196              		.loc 1 98 0
 197 001a 4160     		str	r1, [r0, #4]
 198              		.loc 1 99 0
 199 001c 0860     		str	r0, [r1, #0]
 200 001e 5860     		str	r0, [r3, #4]
 201              		.loc 1 101 0
 202 0020 7047     		bx	lr
 203              		.cfi_endproc
 204              	.LFE8:
 205              		.size	chSchReadyI, .-chSchReadyI
 206 0022 00BFAFF3 		.section	.text.chSchGoSleepS,"ax",%progbits
 206      0080AFF3 
 206      0080AFF3 
 206      0080
 207              		.align	2
 208              		.p2align 4,,15
 209              		.global	chSchGoSleepS
 210              		.thumb
 211              		.thumb_func
 212              		.type	chSchGoSleepS, %function
 213              	chSchGoSleepS:
 214              	.LFB9:
 215              		.loc 1 114 0
 216              		.cfi_startproc
 217              		@ args = 0, pretend = 0, frame = 0
 218              		@ frame_needed = 0, uses_anonymous_args = 0
 219              		@ link register save eliminated.
 220              	.LVL12:
 221              		.loc 1 119 0
ARM GAS  /tmp/ccaEtz0w.s 			page 5


 222 0000 40F20003 		movw	r3, #:lower16:.LANCHOR0
 223 0004 C0F20003 		movt	r3, #:upper16:.LANCHOR0
 224              		.loc 1 114 0
 225 0008 30B4     		push	{r4, r5}
 226              	.LCFI0:
 227              		.cfi_def_cfa_offset 8
 228              		.cfi_offset 5, -4
 229              		.cfi_offset 4, -8
 230              	.LBB23:
 231              	.LBB24:
 232              		.loc 2 60 0
 233 000a 1A68     		ldr	r2, [r3, #0]
 234              	.LBE24:
 235              	.LBE23:
 236              		.loc 1 119 0
 237 000c D969     		ldr	r1, [r3, #28]
 238              	.LVL13:
 239              	.LBB27:
 240              	.LBB25:
 241              		.loc 2 62 0
 242 000e 1468     		ldr	r4, [r2, #0]
 243              	.LBE25:
 244              	.LBE27:
 245              		.loc 1 119 0
 246 0010 0877     		strb	r0, [r1, #28]
 247              		.loc 1 121 0
 248 0012 1420     		movs	r0, #20
 249              	.LVL14:
 250 0014 9861     		str	r0, [r3, #24]
 251              	.LVL15:
 252              		.loc 1 124 0
 253 0016 0125     		movs	r5, #1
 254              		.loc 1 125 0
 255 0018 1046     		mov	r0, r2
 256              	.LBB28:
 257              	.LBB26:
 258              		.loc 2 62 0
 259 001a 6360     		str	r3, [r4, #4]
 260 001c 1C60     		str	r4, [r3, #0]
 261              	.LBE26:
 262              	.LBE28:
 263              		.loc 1 123 0
 264 001e DA61     		str	r2, [r3, #28]
 265              		.loc 1 124 0
 266 0020 1577     		strb	r5, [r2, #28]
 267              		.loc 1 126 0
 268 0022 30BC     		pop	{r4, r5}
 269              		.loc 1 125 0
 270 0024 FFF7FEBF 		b	_port_switch
 271              	.LVL16:
 272              	.LVL17:
 273              	.LVL18:
 274              		.cfi_endproc
 275              	.LFE9:
 276              		.size	chSchGoSleepS, .-chSchGoSleepS
 277 0028 AFF30080 		.section	.text.chSchGoSleepTimeoutS,"ax",%progbits
 277      AFF30080 
ARM GAS  /tmp/ccaEtz0w.s 			page 6


 278              		.align	2
 279              		.p2align 4,,15
 280              		.global	chSchGoSleepTimeoutS
 281              		.thumb
 282              		.thumb_func
 283              		.type	chSchGoSleepTimeoutS, %function
 284              	chSchGoSleepTimeoutS:
 285              	.LFB11:
 286              		.loc 1 183 0
 287              		.cfi_startproc
 288              		@ args = 0, pretend = 0, frame = 24
 289              		@ frame_needed = 0, uses_anonymous_args = 0
 290              	.LVL19:
 291 0000 30B5     		push	{r4, r5, lr}
 292              	.LCFI1:
 293              		.cfi_def_cfa_offset 12
 294              		.cfi_offset 14, -4
 295              		.cfi_offset 5, -8
 296              		.cfi_offset 4, -12
 297              		.loc 1 187 0
 298 0002 4B1C     		adds	r3, r1, #1
 299              		.loc 1 183 0
 300 0004 87B0     		sub	sp, sp, #28
 301              	.LCFI2:
 302              		.cfi_def_cfa_offset 40
 303              		.loc 1 183 0
 304 0006 0546     		mov	r5, r0
 305              		.loc 1 187 0
 306 0008 17D0     		beq	.L16
 307              	.LBB29:
 308              		.loc 1 190 0
 309 000a 40F20004 		movw	r4, #:lower16:.LANCHOR0
 310 000e C0F20004 		movt	r4, #:upper16:.LANCHOR0
 311 0012 40F20002 		movw	r2, #:lower16:wakeup
 312 0016 E369     		ldr	r3, [r4, #28]
 313 0018 C0F20002 		movt	r2, #:upper16:wakeup
 314 001c 01A8     		add	r0, sp, #4
 315              	.LVL20:
 316 001e FFF7FEFF 		bl	chVTSetI
 317              	.LVL21:
 318              		.loc 1 191 0
 319 0022 2846     		mov	r0, r5
 320 0024 FFF7FEFF 		bl	chSchGoSleepS
 321              		.loc 1 192 0
 322 0028 049B     		ldr	r3, [sp, #16]
 323 002a 13B1     		cbz	r3, .L17
 324              		.loc 1 193 0
 325 002c 01A8     		add	r0, sp, #4
 326 002e FFF7FEFF 		bl	chVTResetI
 327              	.L17:
 328              	.LBE29:
 329              		.loc 1 197 0
 330 0032 E069     		ldr	r0, [r4, #28]
 331              		.loc 1 198 0
 332 0034 406A     		ldr	r0, [r0, #36]
 333 0036 07B0     		add	sp, sp, #28
 334 0038 30BD     		pop	{r4, r5, pc}
ARM GAS  /tmp/ccaEtz0w.s 			page 7


 335              	.LVL22:
 336              	.L16:
 337 003a 40F20004 		movw	r4, #:lower16:.LANCHOR0
 338              		.loc 1 196 0
 339 003e FFF7FEFF 		bl	chSchGoSleepS
 340              	.LVL23:
 341 0042 C0F20004 		movt	r4, #:upper16:.LANCHOR0
 342 0046 F4E7     		b	.L17
 343              		.cfi_endproc
 344              	.LFE11:
 345              		.size	chSchGoSleepTimeoutS, .-chSchGoSleepTimeoutS
 346 0048 AFF30080 		.section	.text.chSchWakeupS,"ax",%progbits
 346      AFF30080 
 347              		.align	2
 348              		.p2align 4,,15
 349              		.global	chSchWakeupS
 350              		.thumb
 351              		.thumb_func
 352              		.type	chSchWakeupS, %function
 353              	chSchWakeupS:
 354              	.LFB12:
 355              		.loc 1 219 0
 356              		.cfi_startproc
 357              		@ args = 0, pretend = 0, frame = 0
 358              		@ frame_needed = 0, uses_anonymous_args = 0
 359              		@ link register save eliminated.
 360              	.LVL24:
 361              		.loc 1 228 0
 362 0000 40F20002 		movw	r2, #:lower16:.LANCHOR0
 363 0004 C0F20002 		movt	r2, #:upper16:.LANCHOR0
 364              		.loc 1 219 0
 365 0008 30B4     		push	{r4, r5}
 366              	.LCFI3:
 367              		.cfi_def_cfa_offset 8
 368              		.cfi_offset 5, -4
 369              		.cfi_offset 4, -8
 370              		.loc 1 228 0
 371 000a D469     		ldr	r4, [r2, #28]
 372 000c 8568     		ldr	r5, [r0, #8]
 373              		.loc 1 219 0
 374 000e 0346     		mov	r3, r0
 375              		.loc 1 228 0
 376 0010 A068     		ldr	r0, [r4, #8]
 377              	.LVL25:
 378              		.loc 1 223 0
 379 0012 5962     		str	r1, [r3, #36]
 380              	.LBB30:
 381              	.LBB31:
 382              		.loc 1 91 0
 383 0014 0021     		movs	r1, #0
 384              	.LVL26:
 385              	.LBE31:
 386              	.LBE30:
 387              		.loc 1 228 0
 388 0016 8542     		cmp	r5, r0
 389              	.LBB33:
 390              	.LBB34:
ARM GAS  /tmp/ccaEtz0w.s 			page 8


 391              	.LBB35:
 392              		.loc 1 91 0
 393 0018 84BF     		itt	hi
 394 001a 2177     		strbhi	r1, [r4, #28]
 395              	.LVL27:
 396              		.loc 1 92 0
 397 001c 1146     		movhi	r1, r2
 398              	.LBE35:
 399              	.LBE34:
 400              	.LBE33:
 401              		.loc 1 228 0
 402 001e 0BD8     		bhi	.L22
 403              	.LVL28:
 404              	.LBB40:
 405              	.LBB32:
 406              		.loc 1 91 0
 407 0020 1977     		strb	r1, [r3, #28]
 408              	.LVL29:
 409              	.L20:
 410              		.loc 1 94 0
 411 0022 1268     		ldr	r2, [r2, #0]
 412              	.LVL30:
 413              		.loc 1 95 0
 414 0024 9168     		ldr	r1, [r2, #8]
 415 0026 8D42     		cmp	r5, r1
 416 0028 FBD9     		bls	.L20
 417              		.loc 1 98 0
 418 002a 5068     		ldr	r0, [r2, #4]
 419              		.loc 1 97 0
 420 002c 1A60     		str	r2, [r3, #0]
 421              		.loc 1 98 0
 422 002e 5860     		str	r0, [r3, #4]
 423              		.loc 1 99 0
 424 0030 0360     		str	r3, [r0, #0]
 425 0032 5360     		str	r3, [r2, #4]
 426              	.LBE32:
 427              	.LBE40:
 428              		.loc 1 239 0
 429 0034 30BC     		pop	{r4, r5}
 430 0036 7047     		bx	lr
 431              	.LVL31:
 432              	.L22:
 433              	.LBB41:
 434              	.LBB38:
 435              	.LBB36:
 436              		.loc 1 94 0
 437 0038 0968     		ldr	r1, [r1, #0]
 438              	.LVL32:
 439              		.loc 1 95 0
 440 003a 8D68     		ldr	r5, [r1, #8]
 441 003c A842     		cmp	r0, r5
 442 003e FBD9     		bls	.L22
 443              		.loc 1 98 0
 444 0040 4868     		ldr	r0, [r1, #4]
 445              		.loc 1 97 0
 446 0042 2160     		str	r1, [r4, #0]
 447              		.loc 1 98 0
ARM GAS  /tmp/ccaEtz0w.s 			page 9


 448 0044 6060     		str	r0, [r4, #4]
 449              		.loc 1 99 0
 450 0046 4C60     		str	r4, [r1, #4]
 451              	.LBE36:
 452              	.LBE38:
 453              		.loc 1 236 0
 454 0048 0121     		movs	r1, #1
 455              	.LVL33:
 456              	.LBB39:
 457              	.LBB37:
 458              		.loc 1 99 0
 459 004a 0460     		str	r4, [r0, #0]
 460              	.LBE37:
 461              	.LBE39:
 462              		.loc 1 235 0
 463 004c D361     		str	r3, [r2, #28]
 464              		.loc 1 237 0
 465 004e 1846     		mov	r0, r3
 466              		.loc 1 236 0
 467 0050 1977     		strb	r1, [r3, #28]
 468              		.loc 1 233 0
 469 0052 1423     		movs	r3, #20
 470              	.LVL34:
 471              		.loc 1 237 0
 472 0054 2146     		mov	r1, r4
 473              		.loc 1 233 0
 474 0056 9361     		str	r3, [r2, #24]
 475              	.LBE41:
 476              		.loc 1 239 0
 477 0058 30BC     		pop	{r4, r5}
 478              	.LBB42:
 479              		.loc 1 237 0
 480 005a FFF7FEBF 		b	_port_switch
 481              	.LVL35:
 482              	.LVL36:
 483              	.LVL37:
 484              	.LBE42:
 485              		.cfi_endproc
 486              	.LFE12:
 487              		.size	chSchWakeupS, .-chSchWakeupS
 488 005e 00BF     		.section	.text.chSchDoReschedule,"ax",%progbits
 489              		.align	2
 490              		.p2align 4,,15
 491              		.global	chSchDoReschedule
 492              		.thumb
 493              		.thumb_func
 494              		.type	chSchDoReschedule, %function
 495              	chSchDoReschedule:
 496              	.LFB14:
 497              		.loc 1 298 0
 498              		.cfi_startproc
 499              		@ args = 0, pretend = 0, frame = 0
 500              		@ frame_needed = 0, uses_anonymous_args = 0
 501              		@ link register save eliminated.
 502              		.loc 1 302 0
 503 0000 40F20003 		movw	r3, #:lower16:.LANCHOR0
 504 0004 C0F20003 		movt	r3, #:upper16:.LANCHOR0
ARM GAS  /tmp/ccaEtz0w.s 			page 10


 505              		.loc 1 298 0
 506 0008 30B4     		push	{r4, r5}
 507              	.LCFI4:
 508              		.cfi_def_cfa_offset 8
 509              		.cfi_offset 5, -4
 510              		.cfi_offset 4, -8
 511              	.LBB43:
 512              	.LBB44:
 513              		.loc 2 60 0
 514 000a 1868     		ldr	r0, [r3, #0]
 515              	.LBE44:
 516              	.LBE43:
 517              		.loc 1 304 0
 518 000c D969     		ldr	r1, [r3, #28]
 519              	.LVL38:
 520              	.LBB48:
 521              	.LBB45:
 522              		.loc 2 62 0
 523 000e 0268     		ldr	r2, [r0, #0]
 524              	.LBE45:
 525              	.LBE48:
 526              	.LBB49:
 527              	.LBB50:
 528              		.loc 1 91 0
 529 0010 8C68     		ldr	r4, [r1, #8]
 530              	.LBE50:
 531              	.LBE49:
 532              	.LBB52:
 533              	.LBB46:
 534              		.loc 2 62 0
 535 0012 1A60     		str	r2, [r3, #0]
 536              	.LBE46:
 537              	.LBE52:
 538              		.loc 1 302 0
 539 0014 1425     		movs	r5, #20
 540 0016 9D61     		str	r5, [r3, #24]
 541              	.LBB53:
 542              	.LBB47:
 543              		.loc 2 62 0
 544 0018 5360     		str	r3, [r2, #4]
 545              	.LBE47:
 546              	.LBE53:
 547              		.loc 1 307 0
 548 001a 0122     		movs	r2, #1
 549              		.loc 1 306 0
 550 001c D861     		str	r0, [r3, #28]
 551              		.loc 1 307 0
 552 001e 0277     		strb	r2, [r0, #28]
 553              	.LVL39:
 554              	.LBB54:
 555              	.LBB51:
 556              		.loc 1 91 0
 557 0020 0022     		movs	r2, #0
 558 0022 0346     		mov	r3, r0
 559 0024 0A77     		strb	r2, [r1, #28]
 560              	.LVL40:
 561 0026 00E0     		b	.L27
ARM GAS  /tmp/ccaEtz0w.s 			page 11


 562              	.LVL41:
 563              	.L28:
 564              		.loc 1 95 0
 565 0028 1B68     		ldr	r3, [r3, #0]
 566              	.LVL42:
 567              	.L27:
 568 002a 9A68     		ldr	r2, [r3, #8]
 569 002c A242     		cmp	r2, r4
 570 002e FBD2     		bcs	.L28
 571              		.loc 1 98 0
 572 0030 5A68     		ldr	r2, [r3, #4]
 573              		.loc 1 97 0
 574 0032 0B60     		str	r3, [r1, #0]
 575              		.loc 1 98 0
 576 0034 4A60     		str	r2, [r1, #4]
 577              		.loc 1 99 0
 578 0036 1160     		str	r1, [r2, #0]
 579 0038 5960     		str	r1, [r3, #4]
 580              	.LBE51:
 581              	.LBE54:
 582              		.loc 1 310 0
 583 003a 30BC     		pop	{r4, r5}
 584              		.loc 1 309 0
 585 003c FFF7FEBF 		b	_port_switch
 586              	.LVL43:
 587              	.LVL44:
 588              	.LVL45:
 589              	.LVL46:
 590              		.cfi_endproc
 591              	.LFE14:
 592              		.size	chSchDoReschedule, .-chSchDoReschedule
 593              		.section	.text.chSchRescheduleS,"ax",%progbits
 594              		.align	2
 595              		.p2align 4,,15
 596              		.global	chSchRescheduleS
 597              		.thumb
 598              		.thumb_func
 599              		.type	chSchRescheduleS, %function
 600              	chSchRescheduleS:
 601              	.LFB13:
 602              		.loc 1 250 0
 603              		.cfi_startproc
 604              		@ args = 0, pretend = 0, frame = 0
 605              		@ frame_needed = 0, uses_anonymous_args = 0
 606              		@ link register save eliminated.
 607              		.loc 1 254 0
 608 0000 40F2000C 		movw	ip, #:lower16:.LANCHOR0
 609 0004 C0F2000C 		movt	ip, #:upper16:.LANCHOR0
 610 0008 DCF80010 		ldr	r1, [ip, #0]
 611 000c DCF81C00 		ldr	r0, [ip, #28]
 612 0010 8A68     		ldr	r2, [r1, #8]
 613 0012 8368     		ldr	r3, [r0, #8]
 614 0014 9A42     		cmp	r2, r3
 615 0016 00D8     		bhi	.L31
 616 0018 7047     		bx	lr
 617              	.L31:
 618              		.loc 1 256 0
ARM GAS  /tmp/ccaEtz0w.s 			page 12


 619              		.loc 1 255 0
 620 001a FFF7FEBF 		b	chSchDoReschedule
 621              		.cfi_endproc
 622              	.LFE13:
 623              		.size	chSchRescheduleS, .-chSchRescheduleS
 624              		.global	rlist
 625 001e 00BF     		.section	.bss.rlist,"aw",%nobits
 626              		.align	2
 627              		.set	.LANCHOR0,. + 0
 628              		.type	rlist, %object
 629              		.size	rlist, 32
 630              	rlist:
 631 0000 00000000 		.space	32
 631      00000000 
 631      00000000 
 631      00000000 
 631      00000000 
 632              		.text
 633              	.Letext0:
 634              		.file 3 "/opt/arm/bin/../lib/gcc/arm-none-eabi/4.6.3/../../../../arm-none-eabi/include/stdint.h"
 635              		.file 4 "/opt/ChibiOS/ChibiOS_2.4.4/os/ports/GCC/ARMCMx/chtypes.h"
 636              		.file 5 "/opt/ChibiOS/ChibiOS_2.4.4/os/kernel/include/chlists.h"
 637              		.file 6 "/opt/ChibiOS/ChibiOS_2.4.4/os/kernel/include/chthreads.h"
 638              		.file 7 "/opt/ChibiOS/ChibiOS_2.4.4/os/ports/GCC/ARMCMx/chcore_v7m.h"
 639              		.file 8 "/opt/ChibiOS/ChibiOS_2.4.4/os/kernel/include/chvt.h"
 640              		.file 9 "/opt/ChibiOS/ChibiOS_2.4.4/os/kernel/include/chschd.h"
 641              		.file 10 "/opt/ChibiOS/ChibiOS_2.4.4/os/kernel/include/chsem.h"
 642              		.file 11 "/opt/ChibiOS/ChibiOS_2.4.4/os/kernel/include/chmtx.h"