ARM GAS  /tmp/cc6vCl3j.s 			page 1


   1              		.syntax unified
   2              		.cpu cortex-m4
   3              		.eabi_attribute 27, 3
   4              		.eabi_attribute 28, 1
   5              		.fpu fpv4-sp-d16
   6              		.eabi_attribute 20, 1
   7              		.eabi_attribute 21, 1
   8              		.eabi_attribute 23, 3
   9              		.eabi_attribute 24, 1
  10              		.eabi_attribute 25, 1
  11              		.eabi_attribute 26, 1
  12              		.eabi_attribute 30, 2
  13              		.eabi_attribute 34, 1
  14              		.eabi_attribute 18, 4
  15              		.thumb
  16              		.file	"chsys.c"
  17              		.text
  18              	.Ltext0:
  19              		.cfi_sections	.debug_frame
  20              		.section	.text._idle_thread,"ax",%progbits
  21              		.align	2
  22              		.p2align 4,,15
  23              		.global	_idle_thread
  24              		.thumb
  25              		.thumb_func
  26              		.type	_idle_thread, %function
  27              	_idle_thread:
  28              	.LFB7:
  29              		.file 1 "/opt/ChibiOS/ChibiOS_2.4.4/os/kernel/src/chsys.c"
  30              		.loc 1 61 0
  31              		.cfi_startproc
  32              		@ args = 0, pretend = 0, frame = 0
  33              		@ frame_needed = 0, uses_anonymous_args = 0
  34              		@ link register save eliminated.
  35              	.LVL0:
  36              		.loc 1 64 0
  37 0000 40F20000 		movw	r0, #:lower16:rlist
  38              	.LVL1:
  39 0004 C0F20000 		movt	r0, #:upper16:rlist
  40 0008 40F20003 		movw	r3, #:lower16:.LC0
  41 000c C269     		ldr	r2, [r0, #28]
  42 000e C0F20003 		movt	r3, #:upper16:.LC0
  43 0012 9361     		str	r3, [r2, #24]
  44              	.L2:
  45 0014 FEE7     		b	.L2
  46              		.cfi_endproc
  47              	.LFE7:
  48              		.size	_idle_thread, .-_idle_thread
  49 0016 00BFAFF3 		.section	.text.chSysInit,"ax",%progbits
  49      0080AFF3 
  49      0080
  50              		.align	2
  51              		.p2align 4,,15
  52              		.global	chSysInit
  53              		.thumb
  54              		.thumb_func
  55              		.type	chSysInit, %function
ARM GAS  /tmp/cc6vCl3j.s 			page 2


  56              	chSysInit:
  57              	.LFB8:
  58              		.loc 1 84 0
  59              		.cfi_startproc
  60              		@ args = 0, pretend = 0, frame = 0
  61              		@ frame_needed = 0, uses_anonymous_args = 0
  62 0000 30B5     		push	{r4, r5, lr}
  63              	.LCFI0:
  64              		.cfi_def_cfa_offset 12
  65              		.cfi_offset 14, -4
  66              		.cfi_offset 5, -8
  67              		.cfi_offset 4, -12
  68 0002 83B0     		sub	sp, sp, #12
  69              	.LCFI1:
  70              		.cfi_def_cfa_offset 24
  71              		.loc 1 90 0
  72 0004 FFF7FEFF 		bl	_port_init
  73              		.loc 1 91 0
  74 0008 FFF7FEFF 		bl	_scheduler_init
  75              		.loc 1 92 0
  76 000c FFF7FEFF 		bl	_vt_init
  77              		.loc 1 94 0
  78 0010 FFF7FEFF 		bl	_core_init
  79              		.loc 1 97 0
  80 0014 FFF7FEFF 		bl	_heap_init
  81              		.loc 1 104 0
  82 0018 40F20000 		movw	r0, #:lower16:.LANCHOR0
  83 001c 4021     		movs	r1, #64
  84 001e C0F20000 		movt	r0, #:upper16:.LANCHOR0
  85 0022 FFF7FEFF 		bl	_thread_init
  86 0026 40F20004 		movw	r4, #:lower16:rlist
  87 002a C0F20004 		movt	r4, #:upper16:rlist
  88              		.loc 1 105 0
  89 002e 0122     		movs	r2, #1
  90              		.loc 1 104 0
  91 0030 E061     		str	r0, [r4, #28]
  92              		.loc 1 105 0
  93 0032 0277     		strb	r2, [r0, #28]
  94              	.LBB2:
  95              		.loc 1 111 0
  96 0034 0023     		movs	r3, #0
  97              	.LVL2:
  98              	@ 111 "/opt/ChibiOS/ChibiOS_2.4.4/os/kernel/src/chsys.c" 1
  99 0036 83F31188 		msr     BASEPRI, r3                    
 100 003a 62B6     		cpsie   i
 101              	@ 0 "" 2
 102              	.LVL3:
 103              		.thumb
 104              	.LBE2:
 105              		.loc 1 115 0
 106 003c 40F20001 		movw	r1, #:lower16:ch_debug
 107 0040 E569     		ldr	r5, [r4, #28]
 108 0042 C0F20001 		movt	r1, #:upper16:ch_debug
 109              		.loc 1 121 0
 110 0046 1C46     		mov	r4, r3
 111 0048 40F20000 		movw	r0, #:lower16:.LANCHOR1
 112 004c 40F20003 		movw	r3, #:lower16:_idle_thread
ARM GAS  /tmp/cc6vCl3j.s 			page 3


 113              	.LVL4:
 114              		.loc 1 115 0
 115 0050 A961     		str	r1, [r5, #24]
 116              		.loc 1 121 0
 117 0052 C0F20003 		movt	r3, #:upper16:_idle_thread
 118 0056 C021     		movs	r1, #192
 119 0058 C0F20000 		movt	r0, #:upper16:.LANCHOR1
 120 005c 0094     		str	r4, [sp, #0]
 121              	.LVL5:
 122 005e FFF7FEFF 		bl	chThdCreateStatic
 123              		.loc 1 124 0
 124 0062 03B0     		add	sp, sp, #12
 125 0064 30BD     		pop	{r4, r5, pc}
 126              		.cfi_endproc
 127              	.LFE8:
 128              		.size	chSysInit, .-chSysInit
 129 0066 00BFAFF3 		.section	.text.chSysTimerHandlerI,"ax",%progbits
 129      0080AFF3 
 129      0080
 130              		.align	2
 131              		.p2align 4,,15
 132              		.global	chSysTimerHandlerI
 133              		.thumb
 134              		.thumb_func
 135              		.type	chSysTimerHandlerI, %function
 136              	chSysTimerHandlerI:
 137              	.LFB9:
 138              		.loc 1 137 0
 139              		.cfi_startproc
 140              		@ args = 0, pretend = 0, frame = 0
 141              		@ frame_needed = 0, uses_anonymous_args = 0
 142 0000 38B5     		push	{r3, r4, r5, lr}
 143              	.LCFI2:
 144              		.cfi_def_cfa_offset 16
 145              		.cfi_offset 14, -4
 146              		.cfi_offset 5, -8
 147              		.cfi_offset 4, -12
 148              		.cfi_offset 3, -16
 149              		.loc 1 143 0
 150 0002 40F20003 		movw	r3, #:lower16:rlist
 151 0006 C0F20003 		movt	r3, #:upper16:rlist
 152 000a 9A69     		ldr	r2, [r3, #24]
 153 000c 002A     		cmp	r2, #0
 154 000e 01DD     		ble	.L6
 155              		.loc 1 145 0
 156 0010 013A     		subs	r2, r2, #1
 157 0012 9A61     		str	r2, [r3, #24]
 158              	.L6:
 159              		.loc 1 148 0
 160 0014 DB69     		ldr	r3, [r3, #28]
 161 0016 186A     		ldr	r0, [r3, #32]
 162              		.loc 1 150 0
 163 0018 40F20004 		movw	r4, #:lower16:vtlist
 164 001c C0F20004 		movt	r4, #:upper16:vtlist
 165              		.loc 1 148 0
 166 0020 421C     		adds	r2, r0, #1
 167 0022 1A62     		str	r2, [r3, #32]
ARM GAS  /tmp/cc6vCl3j.s 			page 4


 168              		.loc 1 150 0
 169 0024 E168     		ldr	r1, [r4, #12]
 170 0026 2368     		ldr	r3, [r4, #0]
 171 0028 481C     		adds	r0, r1, #1
 172 002a A342     		cmp	r3, r4
 173 002c E060     		str	r0, [r4, #12]
 174 002e 0ED0     		beq	.L5
 175              	.LBB3:
 176              		.loc 1 150 0 is_stmt 0 discriminator 1
 177 0030 9D68     		ldr	r5, [r3, #8]
 178 0032 013D     		subs	r5, r5, #1
 179 0034 9D60     		str	r5, [r3, #8]
 180              	.LVL6:
 181 0036 55B9     		cbnz	r5, .L5
 182              	.LVL7:
 183              	.L9:
 184              	.LBB4:
 185              		.loc 1 150 0 discriminator 3
 186 0038 1968     		ldr	r1, [r3, #0]
 187 003a DA68     		ldr	r2, [r3, #12]
 188              	.LVL8:
 189 003c 1869     		ldr	r0, [r3, #16]
 190 003e DD60     		str	r5, [r3, #12]
 191 0040 4C60     		str	r4, [r1, #4]
 192 0042 2160     		str	r1, [r4, #0]
 193 0044 9047     		blx	r2
 194              	.LVL9:
 195              	.LBE4:
 196 0046 2368     		ldr	r3, [r4, #0]
 197              	.LVL10:
 198 0048 9968     		ldr	r1, [r3, #8]
 199 004a 0029     		cmp	r1, #0
 200 004c F4D0     		beq	.L9
 201              	.LVL11:
 202              	.L5:
 203 004e 38BD     		pop	{r3, r4, r5, pc}
 204              	.LBE3:
 205              		.cfi_endproc
 206              	.LFE9:
 207              		.size	chSysTimerHandlerI, .-chSysTimerHandlerI
 208              		.global	_idle_thread_wa
 209              		.section	.rodata.str1.4,"aMS",%progbits,1
 210              		.align	2
 211              	.LC0:
 212 0000 69646C65 		.ascii	"idle\000"
 212      00
 213 0005 000000   		.section	.bss.mainthread.4693,"aw",%nobits
 214              		.align	2
 215              		.set	.LANCHOR0,. + 0
 216              		.type	mainthread.4693, %object
 217              		.size	mainthread.4693, 72
 218              	mainthread.4693:
 219 0000 00000000 		.space	72
 219      00000000 
 219      00000000 
 219      00000000 
 219      00000000 
ARM GAS  /tmp/cc6vCl3j.s 			page 5


 220              		.section	.bss._idle_thread_wa,"aw",%nobits
 221              		.align	3
 222              		.set	.LANCHOR1,. + 0
 223              		.type	_idle_thread_wa, %object
 224              		.size	_idle_thread_wa, 192
 225              	_idle_thread_wa:
 226 0000 00000000 		.space	192
 226      00000000 
 226      00000000 
 226      00000000 
 226      00000000 
 227              		.text
 228              	.Letext0:
 229              		.file 2 "/opt/arm/bin/../lib/gcc/arm-none-eabi/4.6.3/../../../../arm-none-eabi/include/stdint.h"
 230              		.file 3 "/opt/ChibiOS/ChibiOS_2.4.4/os/ports/GCC/ARMCMx/chtypes.h"
 231              		.file 4 "/opt/ChibiOS/ChibiOS_2.4.4/os/kernel/include/chlists.h"
 232              		.file 5 "/opt/ChibiOS/ChibiOS_2.4.4/os/kernel/include/chthreads.h"
 233              		.file 6 "/opt/ChibiOS/ChibiOS_2.4.4/os/ports/GCC/ARMCMx/chcore_v7m.h"
 234              		.file 7 "/opt/ChibiOS/ChibiOS_2.4.4/os/kernel/include/chvt.h"
 235              		.file 8 "/opt/ChibiOS/ChibiOS_2.4.4/os/kernel/include/chschd.h"
 236              		.file 9 "/opt/ChibiOS/ChibiOS_2.4.4/os/kernel/include/chmtx.h"
 237              		.file 10 "/opt/ChibiOS/ChibiOS_2.4.4/os/kernel/include/chregistry.h"