ARM GAS  /tmp/ccus1AuB.s 			page 1


   1              		.syntax unified
   2              		.cpu cortex-m4
   3              		.eabi_attribute 27, 3
   4              		.eabi_attribute 28, 1
   5              		.fpu fpv4-sp-d16
   6              		.eabi_attribute 20, 1
   7              		.eabi_attribute 21, 1
   8              		.eabi_attribute 23, 3
   9              		.eabi_attribute 24, 1
  10              		.eabi_attribute 25, 1
  11              		.eabi_attribute 26, 1
  12              		.eabi_attribute 30, 2
  13              		.eabi_attribute 34, 1
  14              		.eabi_attribute 18, 4
  15              		.thumb
  16              		.file	"chthreads.c"
  17              		.text
  18              	.Ltext0:
  19              		.cfi_sections	.debug_frame
  20              		.section	.text._thread_init,"ax",%progbits
  21              		.align	2
  22              		.p2align 4,,15
  23              		.global	_thread_init
  24              		.thumb
  25              		.thumb_func
  26              		.type	_thread_init, %function
  27              	_thread_init:
  28              	.LFB7:
  29              		.file 1 "/opt/ChibiOS/ChibiOS_2.4.4/os/kernel/src/chthreads.c"
  30              		.loc 1 76 0
  31              		.cfi_startproc
  32              		@ args = 0, pretend = 0, frame = 0
  33              		@ frame_needed = 0, uses_anonymous_args = 0
  34              		@ link register save eliminated.
  35              	.LVL0:
  36 0000 F0B4     		push	{r4, r5, r6, r7}
  37              	.LCFI0:
  38              		.cfi_def_cfa_offset 16
  39              		.cfi_offset 7, -4
  40              		.cfi_offset 6, -8
  41              		.cfi_offset 5, -12
  42              		.cfi_offset 4, -16
  43              		.loc 1 96 0
  44 0002 40F20004 		movw	r4, #:lower16:rlist
  45 0006 C0F20004 		movt	r4, #:upper16:rlist
  46              		.loc 1 80 0
  47 000a 0022     		movs	r2, #0
  48              		.loc 1 96 0
  49 000c 6569     		ldr	r5, [r4, #20]
  50              		.loc 1 82 0
  51 000e 0164     		str	r1, [r0, #64]
  52              		.loc 1 102 0
  53 0010 00F12C06 		add	r6, r0, #44
  54              		.loc 1 78 0
  55 0014 8160     		str	r1, [r0, #8]
  56              		.loc 1 99 0
  57 0016 00F12807 		add	r7, r0, #40
ARM GAS  /tmp/ccus1AuB.s 			page 2


  58              		.loc 1 79 0
  59 001a 0223     		movs	r3, #2
  60              		.loc 1 92 0
  61 001c 0121     		movs	r1, #1
  62              	.LVL1:
  63              		.loc 1 96 0
  64 001e 0461     		str	r4, [r0, #16]
  65 0020 4561     		str	r5, [r0, #20]
  66              		.loc 1 79 0
  67 0022 0377     		strb	r3, [r0, #28]
  68              		.loc 1 96 0
  69 0024 6061     		str	r0, [r4, #20]
  70              		.loc 1 80 0
  71 0026 4277     		strb	r2, [r0, #29]
  72              		.loc 1 83 0
  73 0028 C263     		str	r2, [r0, #60]
  74              		.loc 1 86 0
  75 002a 8263     		str	r2, [r0, #56]
  76              		.loc 1 89 0
  77 002c 0262     		str	r2, [r0, #32]
  78              		.loc 1 92 0
  79 002e 8177     		strb	r1, [r0, #30]
  80              		.loc 1 95 0
  81 0030 8261     		str	r2, [r0, #24]
  82              		.loc 1 96 0
  83 0032 2861     		str	r0, [r5, #16]
  84              		.loc 1 99 0
  85 0034 8762     		str	r7, [r0, #40]
  86              		.loc 1 102 0
  87 0036 0663     		str	r6, [r0, #48]
  88 0038 C662     		str	r6, [r0, #44]
  89              		.loc 1 111 0
  90 003a F0BC     		pop	{r4, r5, r6, r7}
  91 003c 7047     		bx	lr
  92              		.cfi_endproc
  93              	.LFE7:
  94              		.size	_thread_init, .-_thread_init
  95 003e 00BF     		.section	.text.chThdCreateI,"ax",%progbits
  96              		.align	2
  97              		.p2align 4,,15
  98              		.global	chThdCreateI
  99              		.thumb
 100              		.thumb_func
 101              		.type	chThdCreateI, %function
 102              	chThdCreateI:
 103              	.LFB8:
 104              		.loc 1 155 0
 105              		.cfi_startproc
 106              		@ args = 4, pretend = 0, frame = 0
 107              		@ frame_needed = 0, uses_anonymous_args = 0
 108              		@ link register save eliminated.
 109              	.LVL2:
 110 0000 2DE9F007 		push	{r4, r5, r6, r7, r8, r9, sl}
 111              	.LCFI1:
 112              		.cfi_def_cfa_offset 28
 113              		.cfi_offset 10, -4
 114              		.cfi_offset 9, -8
ARM GAS  /tmp/ccus1AuB.s 			page 3


 115              		.cfi_offset 8, -12
 116              		.cfi_offset 7, -16
 117              		.cfi_offset 6, -20
 118              		.cfi_offset 5, -24
 119              		.cfi_offset 4, -28
 120              	.LBB10:
 121              	.LBB11:
 122              		.loc 1 96 0
 123 0004 40F20005 		movw	r5, #:lower16:rlist
 124 0008 C0F20005 		movt	r5, #:upper16:rlist
 125              	.LVL3:
 126              	.LBE11:
 127              	.LBE10:
 128              		.loc 1 164 0
 129 000c A1F1240C 		sub	ip, r1, #36
 130 0010 00EB0C07 		add	r7, r0, ip
 131              	.LBB15:
 132              	.LBB12:
 133              		.loc 1 96 0
 134 0014 D5F81490 		ldr	r9, [r5, #20]
 135              	.LBE12:
 136              	.LBE15:
 137              		.loc 1 164 0
 138 0018 C760     		str	r7, [r0, #12]
 139 001a 40F20001 		movw	r1, #:lower16:_port_thread_start
 140              	.LVL4:
 141 001e 40F80C30 		str	r3, [r0, ip]
 142 0022 079B     		ldr	r3, [sp, #28]
 143              	.LVL5:
 144 0024 C0F20001 		movt	r1, #:upper16:_port_thread_start
 145 0028 7B60     		str	r3, [r7, #4]
 146 002a 3962     		str	r1, [r7, #32]
 147              	.LVL6:
 148              	.LBB16:
 149              	.LBB13:
 150              		.loc 1 80 0
 151 002c 0026     		movs	r6, #0
 152              	.LBE13:
 153              	.LBE16:
 154              		.loc 1 155 0
 155 002e 9046     		mov	r8, r2
 156              	.LVL7:
 157              	.LBB17:
 158              	.LBB14:
 159              		.loc 1 99 0
 160 0030 00F1280A 		add	sl, r0, #40
 161              		.loc 1 102 0
 162 0034 00F12C02 		add	r2, r0, #44
 163              	.LVL8:
 164              		.loc 1 79 0
 165 0038 0221     		movs	r1, #2
 166              		.loc 1 92 0
 167 003a 0123     		movs	r3, #1
 168              		.loc 1 96 0
 169 003c 0561     		str	r5, [r0, #16]
 170              		.loc 1 78 0
 171 003e C0F80880 		str	r8, [r0, #8]
ARM GAS  /tmp/ccus1AuB.s 			page 4


 172              		.loc 1 96 0
 173 0042 C0F81490 		str	r9, [r0, #20]
 174              		.loc 1 79 0
 175 0046 0177     		strb	r1, [r0, #28]
 176              		.loc 1 96 0
 177 0048 6861     		str	r0, [r5, #20]
 178              		.loc 1 80 0
 179 004a 4677     		strb	r6, [r0, #29]
 180              		.loc 1 82 0
 181 004c C0F84080 		str	r8, [r0, #64]
 182              		.loc 1 83 0
 183 0050 C663     		str	r6, [r0, #60]
 184              		.loc 1 86 0
 185 0052 8663     		str	r6, [r0, #56]
 186              		.loc 1 89 0
 187 0054 0662     		str	r6, [r0, #32]
 188              		.loc 1 92 0
 189 0056 8377     		strb	r3, [r0, #30]
 190              		.loc 1 95 0
 191 0058 8661     		str	r6, [r0, #24]
 192              		.loc 1 96 0
 193 005a C9F81000 		str	r0, [r9, #16]
 194              		.loc 1 99 0
 195 005e C0F828A0 		str	sl, [r0, #40]
 196              		.loc 1 102 0
 197 0062 0263     		str	r2, [r0, #48]
 198 0064 C262     		str	r2, [r0, #44]
 199              	.LBE14:
 200              	.LBE17:
 201              		.loc 1 166 0
 202 0066 BDE8F007 		pop	{r4, r5, r6, r7, r8, r9, sl}
 203 006a 7047     		bx	lr
 204              		.cfi_endproc
 205              	.LFE8:
 206              		.size	chThdCreateI, .-chThdCreateI
 207 006c AFF30080 		.section	.text.chThdCreateStatic,"ax",%progbits
 208              		.align	2
 209              		.p2align 4,,15
 210              		.global	chThdCreateStatic
 211              		.thumb
 212              		.thumb_func
 213              		.type	chThdCreateStatic, %function
 214              	chThdCreateStatic:
 215              	.LFB9:
 216              		.loc 1 185 0
 217              		.cfi_startproc
 218              		@ args = 4, pretend = 0, frame = 0
 219              		@ frame_needed = 0, uses_anonymous_args = 0
 220              	.LVL9:
 221 0000 10B5     		push	{r4, lr}
 222              	.LCFI2:
 223              		.cfi_def_cfa_offset 8
 224              		.cfi_offset 14, -4
 225              		.cfi_offset 4, -8
 226 0002 9C46     		mov	ip, r3
 227 0004 82B0     		sub	sp, sp, #8
 228              	.LCFI3:
ARM GAS  /tmp/ccus1AuB.s 			page 5


 229              		.cfi_def_cfa_offset 16
 230              	.LBB18:
 231              		.loc 1 196 0
 232 0006 2023     		movs	r3, #32
 233              	.LVL10:
 234              	@ 196 "/opt/ChibiOS/ChibiOS_2.4.4/os/kernel/src/chthreads.c" 1
 235 0008 83F31188 		msr     BASEPRI, r3
 236              	@ 0 "" 2
 237              	.LVL11:
 238              		.thumb
 239              	.LBE18:
 240              		.loc 1 197 0
 241 000c 049C     		ldr	r4, [sp, #16]
 242 000e 6346     		mov	r3, ip
 243              	.LVL12:
 244 0010 0094     		str	r4, [sp, #0]
 245 0012 FFF7FEFF 		bl	chThdCreateI
 246              	.LVL13:
 247 0016 0021     		movs	r1, #0
 248 0018 0446     		mov	r4, r0
 249              	.LVL14:
 250 001a FFF7FEFF 		bl	chSchWakeupS
 251              	.LVL15:
 252              	.LBB19:
 253              		.loc 1 198 0
 254 001e 0023     		movs	r3, #0
 255              	.LVL16:
 256              	@ 198 "/opt/ChibiOS/ChibiOS_2.4.4/os/kernel/src/chthreads.c" 1
 257 0020 83F31188 		msr     BASEPRI, r3
 258              	@ 0 "" 2
 259              	.LVL17:
 260              		.thumb
 261              	.LBE19:
 262              		.loc 1 200 0
 263 0024 2046     		mov	r0, r4
 264 0026 02B0     		add	sp, sp, #8
 265 0028 10BD     		pop	{r4, pc}
 266              		.cfi_endproc
 267              	.LFE9:
 268              		.size	chThdCreateStatic, .-chThdCreateStatic
 269 002a 00BFAFF3 		.section	.text.chThdSetPriority,"ax",%progbits
 269      0080
 270              		.align	2
 271              		.p2align 4,,15
 272              		.global	chThdSetPriority
 273              		.thumb
 274              		.thumb_func
 275              		.type	chThdSetPriority, %function
 276              	chThdSetPriority:
 277              	.LFB10:
 278              		.loc 1 214 0
 279              		.cfi_startproc
 280              		@ args = 0, pretend = 0, frame = 0
 281              		@ frame_needed = 0, uses_anonymous_args = 0
 282              	.LVL18:
 283 0000 10B5     		push	{r4, lr}
 284              	.LCFI4:
ARM GAS  /tmp/ccus1AuB.s 			page 6


 285              		.cfi_def_cfa_offset 8
 286              		.cfi_offset 14, -4
 287              		.cfi_offset 4, -8
 288              	.LBB20:
 289              		.loc 1 219 0
 290 0002 2023     		movs	r3, #32
 291              	.LVL19:
 292              	@ 219 "/opt/ChibiOS/ChibiOS_2.4.4/os/kernel/src/chthreads.c" 1
 293 0004 83F31188 		msr     BASEPRI, r3
 294              	@ 0 "" 2
 295              	.LVL20:
 296              		.thumb
 297              	.LBE20:
 298              		.loc 1 221 0
 299 0008 40F20003 		movw	r3, #:lower16:rlist
 300              	.LVL21:
 301 000c C0F20003 		movt	r3, #:upper16:rlist
 302 0010 DB69     		ldr	r3, [r3, #28]
 303 0012 1C6C     		ldr	r4, [r3, #64]
 304              	.LVL22:
 305              		.loc 1 222 0
 306 0014 9A68     		ldr	r2, [r3, #8]
 307 0016 9442     		cmp	r4, r2
 308 0018 01D0     		beq	.L5
 309              		.loc 1 222 0 is_stmt 0 discriminator 1
 310 001a 8242     		cmp	r2, r0
 311 001c 00D2     		bcs	.L6
 312              	.L5:
 313              		.loc 1 223 0 is_stmt 1
 314 001e 9860     		str	r0, [r3, #8]
 315              	.L6:
 316              		.loc 1 224 0
 317 0020 1864     		str	r0, [r3, #64]
 318              		.loc 1 229 0
 319 0022 FFF7FEFF 		bl	chSchRescheduleS
 320              	.LVL23:
 321              	.LBB21:
 322              		.loc 1 230 0
 323 0026 0023     		movs	r3, #0
 324              	.LVL24:
 325              	@ 230 "/opt/ChibiOS/ChibiOS_2.4.4/os/kernel/src/chthreads.c" 1
 326 0028 83F31188 		msr     BASEPRI, r3
 327              	@ 0 "" 2
 328              	.LVL25:
 329              		.thumb
 330              	.LBE21:
 331              		.loc 1 232 0
 332 002c 2046     		mov	r0, r4
 333 002e 10BD     		pop	{r4, pc}
 334              		.cfi_endproc
 335              	.LFE10:
 336              		.size	chThdSetPriority, .-chThdSetPriority
 337              		.section	.text.chThdResume,"ax",%progbits
 338              		.align	2
 339              		.p2align 4,,15
 340              		.global	chThdResume
 341              		.thumb
ARM GAS  /tmp/ccus1AuB.s 			page 7


 342              		.thumb_func
 343              		.type	chThdResume, %function
 344              	chThdResume:
 345              	.LFB11:
 346              		.loc 1 247 0
 347              		.cfi_startproc
 348              		@ args = 0, pretend = 0, frame = 0
 349              		@ frame_needed = 0, uses_anonymous_args = 0
 350              	.LVL26:
 351 0000 10B5     		push	{r4, lr}
 352              	.LCFI5:
 353              		.cfi_def_cfa_offset 8
 354              		.cfi_offset 14, -4
 355              		.cfi_offset 4, -8
 356              	.LBB22:
 357              		.loc 1 249 0
 358 0002 2023     		movs	r3, #32
 359              	.LVL27:
 360              	.LBE22:
 361              		.loc 1 247 0
 362 0004 0446     		mov	r4, r0
 363              	.LBB23:
 364              		.loc 1 249 0
 365              	@ 249 "/opt/ChibiOS/ChibiOS_2.4.4/os/kernel/src/chthreads.c" 1
 366 0006 83F31188 		msr     BASEPRI, r3
 367              	@ 0 "" 2
 368              	.LVL28:
 369              		.thumb
 370              	.LBE23:
 371              		.loc 1 253 0
 372 000a 0021     		movs	r1, #0
 373 000c FFF7FEFF 		bl	chSchWakeupS
 374              	.LVL29:
 375              	.LBB24:
 376              		.loc 1 254 0
 377 0010 0023     		movs	r3, #0
 378              	.LVL30:
 379              	@ 254 "/opt/ChibiOS/ChibiOS_2.4.4/os/kernel/src/chthreads.c" 1
 380 0012 83F31188 		msr     BASEPRI, r3
 381              	@ 0 "" 2
 382              	.LVL31:
 383              		.thumb
 384              	.LBE24:
 385              		.loc 1 256 0
 386 0016 2046     		mov	r0, r4
 387 0018 10BD     		pop	{r4, pc}
 388              		.cfi_endproc
 389              	.LFE11:
 390              		.size	chThdResume, .-chThdResume
 391 001a 00BFAFF3 		.section	.text.chThdTerminate,"ax",%progbits
 391      0080
 392              		.align	2
 393              		.p2align 4,,15
 394              		.global	chThdTerminate
 395              		.thumb
 396              		.thumb_func
 397              		.type	chThdTerminate, %function
ARM GAS  /tmp/ccus1AuB.s 			page 8


 398              	chThdTerminate:
 399              	.LFB12:
 400              		.loc 1 270 0
 401              		.cfi_startproc
 402              		@ args = 0, pretend = 0, frame = 0
 403              		@ frame_needed = 0, uses_anonymous_args = 0
 404              		@ link register save eliminated.
 405              	.LVL32:
 406              	.LBB25:
 407              		.loc 1 272 0
 408 0000 2023     		movs	r3, #32
 409              	.LVL33:
 410              	@ 272 "/opt/ChibiOS/ChibiOS_2.4.4/os/kernel/src/chthreads.c" 1
 411 0002 83F31188 		msr     BASEPRI, r3
 412              	@ 0 "" 2
 413              	.LVL34:
 414              		.thumb
 415              	.LBE25:
 416              		.loc 1 273 0
 417 0006 417F     		ldrb	r1, [r0, #29]	@ zero_extendqisi2
 418 0008 41F00403 		orr	r3, r1, #4
 419              	.LVL35:
 420 000c 4377     		strb	r3, [r0, #29]
 421              	.LBB26:
 422              		.loc 1 274 0
 423 000e 0023     		movs	r3, #0
 424              	.LVL36:
 425              	@ 274 "/opt/ChibiOS/ChibiOS_2.4.4/os/kernel/src/chthreads.c" 1
 426 0010 83F31188 		msr     BASEPRI, r3
 427              	@ 0 "" 2
 428              	.LVL37:
 429              		.thumb
 430              	.LBE26:
 431              		.loc 1 275 0
 432 0014 7047     		bx	lr
 433              		.cfi_endproc
 434              	.LFE12:
 435              		.size	chThdTerminate, .-chThdTerminate
 436 0016 00BFAFF3 		.section	.text.chThdSleep,"ax",%progbits
 436      0080AFF3 
 436      0080
 437              		.align	2
 438              		.p2align 4,,15
 439              		.global	chThdSleep
 440              		.thumb
 441              		.thumb_func
 442              		.type	chThdSleep, %function
 443              	chThdSleep:
 444              	.LFB13:
 445              		.loc 1 289 0
 446              		.cfi_startproc
 447              		@ args = 0, pretend = 0, frame = 0
 448              		@ frame_needed = 0, uses_anonymous_args = 0
 449              	.LVL38:
 450 0000 08B5     		push	{r3, lr}
 451              	.LCFI6:
 452              		.cfi_def_cfa_offset 8
ARM GAS  /tmp/ccus1AuB.s 			page 9


 453              		.cfi_offset 14, -4
 454              		.cfi_offset 3, -8
 455              		.loc 1 289 0
 456 0002 0146     		mov	r1, r0
 457              	.LBB27:
 458              		.loc 1 293 0
 459 0004 2023     		movs	r3, #32
 460              	.LVL39:
 461              	@ 293 "/opt/ChibiOS/ChibiOS_2.4.4/os/kernel/src/chthreads.c" 1
 462 0006 83F31188 		msr     BASEPRI, r3
 463              	@ 0 "" 2
 464              	.LVL40:
 465              		.thumb
 466              	.LBE27:
 467              		.loc 1 294 0
 468 000a 0620     		movs	r0, #6
 469              	.LVL41:
 470 000c FFF7FEFF 		bl	chSchGoSleepTimeoutS
 471              	.LVL42:
 472              	.LBB28:
 473              		.loc 1 295 0
 474 0010 0023     		movs	r3, #0
 475              	.LVL43:
 476              	@ 295 "/opt/ChibiOS/ChibiOS_2.4.4/os/kernel/src/chthreads.c" 1
 477 0012 83F31188 		msr     BASEPRI, r3
 478              	@ 0 "" 2
 479              	.LVL44:
 480              		.thumb
 481              	.LBE28:
 482              		.loc 1 296 0
 483 0016 08BD     		pop	{r3, pc}
 484              		.cfi_endproc
 485              	.LFE13:
 486              		.size	chThdSleep, .-chThdSleep
 487 0018 AFF30080 		.section	.text.chThdSleepUntil,"ax",%progbits
 487      AFF30080 
 488              		.align	2
 489              		.p2align 4,,15
 490              		.global	chThdSleepUntil
 491              		.thumb
 492              		.thumb_func
 493              		.type	chThdSleepUntil, %function
 494              	chThdSleepUntil:
 495              	.LFB14:
 496              		.loc 1 306 0
 497              		.cfi_startproc
 498              		@ args = 0, pretend = 0, frame = 0
 499              		@ frame_needed = 0, uses_anonymous_args = 0
 500              	.LVL45:
 501 0000 08B5     		push	{r3, lr}
 502              	.LCFI7:
 503              		.cfi_def_cfa_offset 8
 504              		.cfi_offset 14, -4
 505              		.cfi_offset 3, -8
 506              	.LBB29:
 507              		.loc 1 308 0
 508 0002 2023     		movs	r3, #32
ARM GAS  /tmp/ccus1AuB.s 			page 10


 509              	.LVL46:
 510              	@ 308 "/opt/ChibiOS/ChibiOS_2.4.4/os/kernel/src/chthreads.c" 1
 511 0004 83F31188 		msr     BASEPRI, r3
 512              	@ 0 "" 2
 513              	.LVL47:
 514              		.thumb
 515              	.LBE29:
 516              		.loc 1 309 0
 517 0008 40F20003 		movw	r3, #:lower16:vtlist
 518              	.LVL48:
 519 000c C0F20003 		movt	r3, #:upper16:vtlist
 520 0010 D968     		ldr	r1, [r3, #12]
 521              	.LVL49:
 522 0012 411A     		subs	r1, r0, r1
 523              	.LVL50:
 524 0014 02D0     		beq	.L12
 525              		.loc 1 310 0
 526 0016 0620     		movs	r0, #6
 527 0018 FFF7FEFF 		bl	chSchGoSleepTimeoutS
 528              	.LVL51:
 529              	.L12:
 530              	.LBB30:
 531              		.loc 1 311 0
 532 001c 0023     		movs	r3, #0
 533              	.LVL52:
 534              	@ 311 "/opt/ChibiOS/ChibiOS_2.4.4/os/kernel/src/chthreads.c" 1
 535 001e 83F31188 		msr     BASEPRI, r3
 536              	@ 0 "" 2
 537              	.LVL53:
 538              		.thumb
 539              	.LBE30:
 540              		.loc 1 312 0
 541 0022 08BD     		pop	{r3, pc}
 542              		.cfi_endproc
 543              	.LFE14:
 544              		.size	chThdSleepUntil, .-chThdSleepUntil
 545 0024 AFF30080 		.section	.text.chThdYield,"ax",%progbits
 545      AFF30080 
 545      AFF30080 
 546              		.align	2
 547              		.p2align 4,,15
 548              		.global	chThdYield
 549              		.thumb
 550              		.thumb_func
 551              		.type	chThdYield, %function
 552              	chThdYield:
 553              	.LFB15:
 554              		.loc 1 321 0
 555              		.cfi_startproc
 556              		@ args = 0, pretend = 0, frame = 0
 557              		@ frame_needed = 0, uses_anonymous_args = 0
 558 0000 08B5     		push	{r3, lr}
 559              	.LCFI8:
 560              		.cfi_def_cfa_offset 8
 561              		.cfi_offset 14, -4
 562              		.cfi_offset 3, -8
 563              	.LBB31:
ARM GAS  /tmp/ccus1AuB.s 			page 11


 564              		.loc 1 323 0
 565 0002 2023     		movs	r3, #32
 566              	.LVL54:
 567              	@ 323 "/opt/ChibiOS/ChibiOS_2.4.4/os/kernel/src/chthreads.c" 1
 568 0004 83F31188 		msr     BASEPRI, r3
 569              	@ 0 "" 2
 570              	.LVL55:
 571              		.thumb
 572              	.LBE31:
 573              		.loc 1 324 0
 574 0008 40F2000C 		movw	ip, #:lower16:rlist
 575 000c C0F2000C 		movt	ip, #:upper16:rlist
 576 0010 DCF80010 		ldr	r1, [ip, #0]
 577 0014 DCF81C00 		ldr	r0, [ip, #28]
 578 0018 8A68     		ldr	r2, [r1, #8]
 579 001a 8368     		ldr	r3, [r0, #8]
 580              	.LVL56:
 581 001c 9A42     		cmp	r2, r3
 582 001e 01D3     		bcc	.L14
 583              		.loc 1 324 0 is_stmt 0 discriminator 1
 584 0020 FFF7FEFF 		bl	chSchDoReschedule
 585              	.L14:
 586              	.LBB32:
 587              		.loc 1 325 0 is_stmt 1
 588 0024 0023     		movs	r3, #0
 589              	.LVL57:
 590              	@ 325 "/opt/ChibiOS/ChibiOS_2.4.4/os/kernel/src/chthreads.c" 1
 591 0026 83F31188 		msr     BASEPRI, r3
 592              	@ 0 "" 2
 593              	.LVL58:
 594              		.thumb
 595              	.LBE32:
 596              		.loc 1 326 0
 597 002a 08BD     		pop	{r3, pc}
 598              		.cfi_endproc
 599              	.LFE15:
 600              		.size	chThdYield, .-chThdYield
 601 002c AFF30080 		.section	.text.chThdExitS,"ax",%progbits
 602              		.align	2
 603              		.p2align 4,,15
 604              		.global	chThdExitS
 605              		.thumb
 606              		.thumb_func
 607              		.type	chThdExitS, %function
 608              	chThdExitS:
 609              	.LFB17:
 610              		.loc 1 363 0
 611              		.cfi_startproc
 612              		@ args = 0, pretend = 0, frame = 0
 613              		@ frame_needed = 0, uses_anonymous_args = 0
 614              	.LVL59:
 615 0000 38B5     		push	{r3, r4, r5, lr}
 616              	.LCFI9:
 617              		.cfi_def_cfa_offset 16
 618              		.cfi_offset 14, -4
 619              		.cfi_offset 5, -8
 620              		.cfi_offset 4, -12
ARM GAS  /tmp/ccus1AuB.s 			page 12


 621              		.cfi_offset 3, -16
 622              		.loc 1 364 0
 623 0002 40F20003 		movw	r3, #:lower16:rlist
 624 0006 C0F20003 		movt	r3, #:upper16:rlist
 625 000a DC69     		ldr	r4, [r3, #28]
 626              	.LVL60:
 627              		.loc 1 371 0
 628 000c 2546     		mov	r5, r4
 629              		.loc 1 366 0
 630 000e 6062     		str	r0, [r4, #36]
 631              		.loc 1 371 0
 632 0010 55F8280F 		ldr	r0, [r5, #40]!
 633              	.LVL61:
 634 0014 A842     		cmp	r0, r5
 635 0016 06D0     		beq	.L16
 636              	.LVL62:
 637              	.L19:
 638              	.LBB33:
 639              	.LBB34:
 640              		.file 2 "/opt/ChibiOS/ChibiOS_2.4.4/os/kernel/include/chinline.h"
 641              		.loc 2 89 0
 642 0018 0168     		ldr	r1, [r0, #0]
 643 001a A162     		str	r1, [r4, #40]
 644              	.LBE34:
 645              	.LBE33:
 646              		.loc 1 372 0
 647 001c FFF7FEFF 		bl	chSchReadyI
 648              	.LVL63:
 649              		.loc 1 371 0
 650 0020 A06A     		ldr	r0, [r4, #40]
 651 0022 A842     		cmp	r0, r5
 652 0024 F8D1     		bne	.L19
 653              	.LVL64:
 654              	.L16:
 655              		.loc 1 377 0
 656 0026 94F81DC0 		ldrb	ip, [r4, #29]	@ zero_extendqisi2
 657 002a 5FEA8C70 		lsls	r0, ip, #30
 658              		.loc 1 378 0
 659 002e 01BF     		itttt	eq
 660 0030 2269     		ldreq	r2, [r4, #16]
 661 0032 6069     		ldreq	r0, [r4, #20]
 662 0034 0261     		streq	r2, [r0, #16]
 663 0036 2269     		ldreq	r2, [r4, #16]
 664 0038 08BF     		it	eq
 665 003a 5061     		streq	r0, [r2, #20]
 666              		.loc 1 380 0
 667 003c 0E20     		movs	r0, #14
 668              		.loc 1 383 0
 669 003e BDE83840 		pop	{r3, r4, r5, lr}
 670              		.loc 1 380 0
 671 0042 FFF7FEBF 		b	chSchGoSleepS
 672              		.cfi_endproc
 673              	.LFE17:
 674              		.size	chThdExitS, .-chThdExitS
 675 0046 00BFAFF3 		.section	.text.chThdExit,"ax",%progbits
 675      0080AFF3 
 675      0080
ARM GAS  /tmp/ccus1AuB.s 			page 13


 676              		.align	2
 677              		.p2align 4,,15
 678              		.global	chThdExit
 679              		.thumb
 680              		.thumb_func
 681              		.type	chThdExit, %function
 682              	chThdExit:
 683              	.LFB16:
 684              		.loc 1 342 0
 685              		.cfi_startproc
 686              		@ args = 0, pretend = 0, frame = 0
 687              		@ frame_needed = 0, uses_anonymous_args = 0
 688              		@ link register save eliminated.
 689              	.LVL65:
 690              	.LBB35:
 691              		.loc 1 344 0
 692 0000 2023     		movs	r3, #32
 693              	.LVL66:
 694              	@ 344 "/opt/ChibiOS/ChibiOS_2.4.4/os/kernel/src/chthreads.c" 1
 695 0002 83F31188 		msr     BASEPRI, r3
 696              	@ 0 "" 2
 697              	.LVL67:
 698              		.thumb
 699              	.LBE35:
 700              		.loc 1 347 0
 701              		.loc 1 345 0
 702 0006 FFF7FEBF 		b	chThdExitS
 703              	.LVL68:
 704              	.LVL69:
 705              		.cfi_endproc
 706              	.LFE16:
 707              		.size	chThdExit, .-chThdExit
 708 000a 00BFAFF3 		.section	.text.chThdWait,"ax",%progbits
 708      0080
 709              		.align	2
 710              		.p2align 4,,15
 711              		.global	chThdWait
 712              		.thumb
 713              		.thumb_func
 714              		.type	chThdWait, %function
 715              	chThdWait:
 716              	.LFB18:
 717              		.loc 1 417 0
 718              		.cfi_startproc
 719              		@ args = 0, pretend = 0, frame = 0
 720              		@ frame_needed = 0, uses_anonymous_args = 0
 721              	.LVL70:
 722 0000 38B5     		push	{r3, r4, r5, lr}
 723              	.LCFI10:
 724              		.cfi_def_cfa_offset 16
 725              		.cfi_offset 14, -4
 726              		.cfi_offset 5, -8
 727              		.cfi_offset 4, -12
 728              		.cfi_offset 3, -16
 729              		.loc 1 417 0
 730 0002 0446     		mov	r4, r0
 731              	.LBB36:
ARM GAS  /tmp/ccus1AuB.s 			page 14


 732              		.loc 1 422 0
 733 0004 2023     		movs	r3, #32
 734              	.LVL71:
 735              	@ 422 "/opt/ChibiOS/ChibiOS_2.4.4/os/kernel/src/chthreads.c" 1
 736 0006 83F31188 		msr     BASEPRI, r3
 737              	@ 0 "" 2
 738              	.LVL72:
 739              		.thumb
 740              	.LBE36:
 741              		.loc 1 427 0
 742 000a 037F     		ldrb	r3, [r0, #28]	@ zero_extendqisi2
 743              	.LVL73:
 744 000c 0E2B     		cmp	r3, #14
 745 000e 0AD0     		beq	.L23
 746              		.loc 1 428 0
 747 0010 40F20005 		movw	r5, #:lower16:rlist
 748 0014 C0F20005 		movt	r5, #:upper16:rlist
 749              	.LBB37:
 750              	.LBB38:
 751              		.loc 2 82 0
 752 0018 826A     		ldr	r2, [r0, #40]
 753              	.LBE38:
 754              	.LBE37:
 755              		.loc 1 428 0
 756 001a E969     		ldr	r1, [r5, #28]
 757              	.LVL74:
 758              		.loc 1 429 0
 759 001c 0720     		movs	r0, #7
 760              	.LVL75:
 761              	.LBB40:
 762              	.LBB39:
 763              		.loc 2 82 0
 764 001e 0A60     		str	r2, [r1, #0]
 765              		.loc 2 83 0
 766 0020 A162     		str	r1, [r4, #40]
 767              	.LBE39:
 768              	.LBE40:
 769              		.loc 1 429 0
 770 0022 FFF7FEFF 		bl	chSchGoSleepS
 771              	.LVL76:
 772              	.L23:
 773              		.loc 1 431 0
 774 0026 656A     		ldr	r5, [r4, #36]
 775              	.LVL77:
 776              	.LBB41:
 777              		.loc 1 432 0
 778 0028 0023     		movs	r3, #0
 779              	.LVL78:
 780              	@ 432 "/opt/ChibiOS/ChibiOS_2.4.4/os/kernel/src/chthreads.c" 1
 781 002a 83F31188 		msr     BASEPRI, r3
 782              	@ 0 "" 2
 783              	.LVL79:
 784              		.thumb
 785              	.LBE41:
 786              		.loc 1 434 0
 787 002e 2046     		mov	r0, r4
 788 0030 FFF7FEFF 		bl	chThdRelease
ARM GAS  /tmp/ccus1AuB.s 			page 15


 789              	.LVL80:
 790              		.loc 1 437 0
 791 0034 2846     		mov	r0, r5
 792 0036 38BD     		pop	{r3, r4, r5, pc}
 793              		.cfi_endproc
 794              	.LFE18:
 795              		.size	chThdWait, .-chThdWait
 796 0038 AFF30080 		.text
 796      AFF30080 
 797              	.Letext0:
 798              		.file 3 "/opt/arm/bin/../lib/gcc/arm-none-eabi/4.6.3/include/stddef.h"
 799              		.file 4 "/opt/arm/bin/../lib/gcc/arm-none-eabi/4.6.3/../../../../arm-none-eabi/include/stdint.h"
 800              		.file 5 "/opt/ChibiOS/ChibiOS_2.4.4/os/ports/GCC/ARMCMx/chtypes.h"
 801              		.file 6 "/opt/ChibiOS/ChibiOS_2.4.4/os/kernel/include/chlists.h"
 802              		.file 7 "/opt/ChibiOS/ChibiOS_2.4.4/os/kernel/include/chthreads.h"
 803              		.file 8 "/opt/ChibiOS/ChibiOS_2.4.4/os/ports/GCC/ARMCMx/chcore_v7m.h"
 804              		.file 9 "/opt/ChibiOS/ChibiOS_2.4.4/os/kernel/include/chvt.h"
 805              		.file 10 "/opt/ChibiOS/ChibiOS_2.4.4/os/kernel/include/chschd.h"
 806              		.file 11 "/opt/ChibiOS/ChibiOS_2.4.4/os/kernel/include/chmtx.h"