ARM GAS  /tmp/cckRaxPq.s 			page 1


   1              		.syntax unified
   2              		.cpu cortex-m4
   3              		.eabi_attribute 27, 3
   4              		.eabi_attribute 28, 1
   5              		.fpu fpv4-sp-d16
   6              		.eabi_attribute 20, 1
   7              		.eabi_attribute 21, 1
   8              		.eabi_attribute 23, 3
   9              		.eabi_attribute 24, 1
  10              		.eabi_attribute 25, 1
  11              		.eabi_attribute 26, 1
  12              		.eabi_attribute 30, 2
  13              		.eabi_attribute 34, 1
  14              		.eabi_attribute 18, 4
  15              		.thumb
  16              		.file	"chvt.c"
  17              		.text
  18              	.Ltext0:
  19              		.cfi_sections	.debug_frame
  20              		.section	.text._vt_init,"ax",%progbits
  21              		.align	2
  22              		.p2align 4,,15
  23              		.global	_vt_init
  24              		.thumb
  25              		.thumb_func
  26              		.type	_vt_init, %function
  27              	_vt_init:
  28              	.LFB7:
  29              		.file 1 "/opt/ChibiOS/ChibiOS_2.4.4/os/kernel/src/chvt.c"
  30              		.loc 1 50 0
  31              		.cfi_startproc
  32              		@ args = 0, pretend = 0, frame = 0
  33              		@ frame_needed = 0, uses_anonymous_args = 0
  34              		@ link register save eliminated.
  35              		.loc 1 52 0
  36 0000 40F20003 		movw	r3, #:lower16:.LANCHOR0
  37 0004 C0F20003 		movt	r3, #:upper16:.LANCHOR0
  38              		.loc 1 53 0
  39 0008 4FF0FF30 		mov	r0, #-1
  40              		.loc 1 54 0
  41 000c 0022     		movs	r2, #0
  42              		.loc 1 52 0
  43 000e 5B60     		str	r3, [r3, #4]
  44 0010 1B60     		str	r3, [r3, #0]
  45              		.loc 1 53 0
  46 0012 9860     		str	r0, [r3, #8]
  47              		.loc 1 54 0
  48 0014 DA60     		str	r2, [r3, #12]
  49              		.loc 1 55 0
  50 0016 7047     		bx	lr
  51              		.cfi_endproc
  52              	.LFE7:
  53              		.size	_vt_init, .-_vt_init
  54 0018 AFF30080 		.section	.text.chVTSetI,"ax",%progbits
  54      AFF30080 
  55              		.align	2
  56              		.p2align 4,,15
ARM GAS  /tmp/cckRaxPq.s 			page 2


  57              		.global	chVTSetI
  58              		.thumb
  59              		.thumb_func
  60              		.type	chVTSetI, %function
  61              	chVTSetI:
  62              	.LFB8:
  63              		.loc 1 77 0
  64              		.cfi_startproc
  65              		@ args = 0, pretend = 0, frame = 0
  66              		@ frame_needed = 0, uses_anonymous_args = 0
  67              		@ link register save eliminated.
  68              	.LVL0:
  69 0000 30B4     		push	{r4, r5}
  70              	.LCFI0:
  71              		.cfi_def_cfa_offset 8
  72              		.cfi_offset 5, -4
  73              		.cfi_offset 4, -8
  74              		.loc 1 86 0
  75 0002 40F20004 		movw	r4, #:lower16:.LANCHOR0
  76 0006 C0F20004 		movt	r4, #:upper16:.LANCHOR0
  77              		.loc 1 84 0
  78 000a 0361     		str	r3, [r0, #16]
  79              		.loc 1 86 0
  80 000c 2568     		ldr	r5, [r4, #0]
  81              	.LVL1:
  82              		.loc 1 85 0
  83 000e C260     		str	r2, [r0, #12]
  84              		.loc 1 87 0
  85 0010 AB68     		ldr	r3, [r5, #8]
  86              	.LVL2:
  87 0012 9942     		cmp	r1, r3
  88 0014 04D9     		bls	.L3
  89              	.LVL3:
  90              	.L6:
  91              		.loc 1 89 0
  92 0016 2D68     		ldr	r5, [r5, #0]
  93              	.LVL4:
  94              		.loc 1 88 0
  95 0018 C91A     		subs	r1, r1, r3
  96              	.LVL5:
  97              		.loc 1 87 0
  98 001a AB68     		ldr	r3, [r5, #8]
  99 001c 8B42     		cmp	r3, r1
 100 001e FAD3     		bcc	.L6
 101              	.L3:
 102              		.loc 1 92 0
 103 0020 6B68     		ldr	r3, [r5, #4]
 104              		.loc 1 94 0
 105 0022 8160     		str	r1, [r0, #8]
 106              		.loc 1 95 0
 107 0024 A542     		cmp	r5, r4
 108              		.loc 1 92 0
 109 0026 4360     		str	r3, [r0, #4]
 110 0028 0560     		str	r5, [r0, #0]
 111              		.loc 1 93 0
 112 002a 1860     		str	r0, [r3, #0]
 113              		.loc 1 96 0
ARM GAS  /tmp/cckRaxPq.s 			page 3


 114 002c 18BF     		it	ne
 115 002e AB68     		ldrne	r3, [r5, #8]
 116              		.loc 1 93 0
 117 0030 6860     		str	r0, [r5, #4]
 118              		.loc 1 96 0
 119 0032 1CBF     		itt	ne
 120 0034 C1EB0301 		rsbne	r1, r1, r3
 121              	.LVL6:
 122 0038 A960     		strne	r1, [r5, #8]
 123              		.loc 1 97 0
 124 003a 30BC     		pop	{r4, r5}
 125 003c 7047     		bx	lr
 126              		.cfi_endproc
 127              	.LFE8:
 128              		.size	chVTSetI, .-chVTSetI
 129 003e 00BF     		.section	.text.chVTResetI,"ax",%progbits
 130              		.align	2
 131              		.p2align 4,,15
 132              		.global	chVTResetI
 133              		.thumb
 134              		.thumb_func
 135              		.type	chVTResetI, %function
 136              	chVTResetI:
 137              	.LFB9:
 138              		.loc 1 107 0
 139              		.cfi_startproc
 140              		@ args = 0, pretend = 0, frame = 0
 141              		@ frame_needed = 0, uses_anonymous_args = 0
 142              		@ link register save eliminated.
 143              	.LVL7:
 144              		.loc 1 115 0
 145 0000 0368     		ldr	r3, [r0, #0]
 146 0002 40F20002 		movw	r2, #:lower16:.LANCHOR0
 147 0006 C0F20002 		movt	r2, #:upper16:.LANCHOR0
 148 000a 9342     		cmp	r3, r2
 149              		.loc 1 116 0
 150 000c 1FBF     		itttt	ne
 151 000e 9968     		ldrne	r1, [r3, #8]
 152 0010 8268     		ldrne	r2, [r0, #8]
 153 0012 8A18     		addne	r2, r1, r2
 154 0014 9A60     		strne	r2, [r3, #8]
 155              		.loc 1 117 0
 156 0016 4268     		ldr	r2, [r0, #4]
 157 0018 1360     		str	r3, [r2, #0]
 158              		.loc 1 118 0
 159 001a 0168     		ldr	r1, [r0, #0]
 160              		.loc 1 119 0
 161 001c 0023     		movs	r3, #0
 162              		.loc 1 118 0
 163 001e 4A60     		str	r2, [r1, #4]
 164              		.loc 1 119 0
 165 0020 C360     		str	r3, [r0, #12]
 166              		.loc 1 120 0
 167 0022 7047     		bx	lr
 168              		.cfi_endproc
 169              	.LFE9:
 170              		.size	chVTResetI, .-chVTResetI
ARM GAS  /tmp/cckRaxPq.s 			page 4


 171 0024 AFF30080 		.section	.text.chTimeIsWithin,"ax",%progbits
 171      AFF30080 
 171      AFF30080 
 172              		.align	2
 173              		.p2align 4,,15
 174              		.global	chTimeIsWithin
 175              		.thumb
 176              		.thumb_func
 177              		.type	chTimeIsWithin, %function
 178              	chTimeIsWithin:
 179              	.LFB10:
 180              		.loc 1 135 0
 181              		.cfi_startproc
 182              		@ args = 0, pretend = 0, frame = 0
 183              		@ frame_needed = 0, uses_anonymous_args = 0
 184              		@ link register save eliminated.
 185              	.LVL8:
 186              		.loc 1 137 0
 187 0000 40F20003 		movw	r3, #:lower16:.LANCHOR0
 188 0004 C0F20003 		movt	r3, #:upper16:.LANCHOR0
 189              		.loc 1 138 0
 190 0008 8142     		cmp	r1, r0
 191              		.loc 1 137 0
 192 000a DB68     		ldr	r3, [r3, #12]
 193              	.LVL9:
 194              		.loc 1 138 0
 195 000c 08D8     		bhi	.L14
 196              		.loc 1 139 0 discriminator 2
 197 000e 8342     		cmp	r3, r0
 198 0010 34BF     		ite	cc
 199 0012 0020     		movcc	r0, #0
 200              	.LVL10:
 201 0014 0120     		movcs	r0, #1
 202              		.loc 1 138 0 discriminator 2
 203 0016 8B42     		cmp	r3, r1
 204 0018 38BF     		it	cc
 205 001a 40F00100 		orrcc	r0, r0, #1
 206              		.loc 1 140 0 discriminator 2
 207 001e 7047     		bx	lr
 208              	.LVL11:
 209              	.L14:
 210              		.loc 1 138 0 discriminator 1
 211 0020 8342     		cmp	r3, r0
 212 0022 34BF     		ite	cc
 213 0024 0020     		movcc	r0, #0
 214              	.LVL12:
 215 0026 0120     		movcs	r0, #1
 216 0028 8B42     		cmp	r3, r1
 217 002a 2CBF     		ite	cs
 218 002c 0020     		movcs	r0, #0
 219 002e 00F00100 		andcc	r0, r0, #1
 220 0032 7047     		bx	lr
 221              		.cfi_endproc
 222              	.LFE10:
 223              		.size	chTimeIsWithin, .-chTimeIsWithin
 224              		.global	vtlist
 225 0034 AFF30080 		.section	.bss.vtlist,"aw",%nobits
ARM GAS  /tmp/cckRaxPq.s 			page 5


 225      AFF30080 
 225      AFF30080 
 226              		.align	2
 227              		.set	.LANCHOR0,. + 0
 228              		.type	vtlist, %object
 229              		.size	vtlist, 16
 230              	vtlist:
 231 0000 00000000 		.space	16
 231      00000000 
 231      00000000 
 231      00000000 
 232              		.text
 233              	.Letext0:
 234              		.file 2 "/opt/arm/bin/../lib/gcc/arm-none-eabi/4.6.3/../../../../arm-none-eabi/include/stdint.h"
 235              		.file 3 "/opt/ChibiOS/ChibiOS_2.4.4/os/ports/GCC/ARMCMx/chtypes.h"
 236              		.file 4 "/opt/ChibiOS/ChibiOS_2.4.4/os/kernel/include/chvt.h"