ARM GAS  /tmp/ccV7N3tb.s 			page 1


   1              		.syntax unified
   2              		.cpu cortex-m4
   3              		.eabi_attribute 27, 3
   4              		.eabi_attribute 28, 1
   5              		.fpu fpv4-sp-d16
   6              		.eabi_attribute 20, 1
   7              		.eabi_attribute 21, 1
   8              		.eabi_attribute 23, 3
   9              		.eabi_attribute 24, 1
  10              		.eabi_attribute 25, 1
  11              		.eabi_attribute 26, 1
  12              		.eabi_attribute 30, 2
  13              		.eabi_attribute 34, 1
  14              		.eabi_attribute 18, 4
  15              		.thumb
  16              		.file	"crt0.c"
  17              		.text
  18              	.Ltext0:
  19              		.cfi_sections	.debug_frame
  20              		.section	.text.__early_init,"ax",%progbits
  21              		.align	2
  22              		.p2align 4,,15
  23              		.weak	__early_init
  24              		.thumb
  25              		.thumb_func
  26              		.type	__early_init, %function
  27              	__early_init:
  28              	.LFB7:
  29              		.file 1 "/opt/ChibiOS/ChibiOS_2.4.4/os/ports/GCC/ARMCMx/crt0.c"
  30              		.loc 1 220 0
  31              		.cfi_startproc
  32              		@ args = 0, pretend = 0, frame = 0
  33              		@ frame_needed = 0, uses_anonymous_args = 0
  34              		@ link register save eliminated.
  35              		.loc 1 220 0
  36 0000 7047     		bx	lr
  37              		.cfi_endproc
  38              	.LFE7:
  39              		.size	__early_init, .-__early_init
  40 0002 00BFAFF3 		.section	.text.__late_init,"ax",%progbits
  40      0080AFF3 
  40      0080AFF3 
  40      0080
  41              		.align	2
  42              		.p2align 4,,15
  43              		.weak	__late_init
  44              		.thumb
  45              		.thumb_func
  46              		.type	__late_init, %function
  47              	__late_init:
  48              	.LFB8:
  49              		.loc 1 232 0
  50              		.cfi_startproc
  51              		@ args = 0, pretend = 0, frame = 0
  52              		@ frame_needed = 0, uses_anonymous_args = 0
  53              		@ link register save eliminated.
  54              		.loc 1 232 0
ARM GAS  /tmp/ccV7N3tb.s 			page 2


  55 0000 7047     		bx	lr
  56              		.cfi_endproc
  57              	.LFE8:
  58              		.size	__late_init, .-__late_init
  59 0002 00BFAFF3 		.section	.text._default_exit,"ax",%progbits
  59      0080AFF3 
  59      0080AFF3 
  59      0080
  60              		.align	2
  61              		.p2align 4,,15
  62              		.weak	_default_exit
  63              		.thumb
  64              		.thumb_func
  65              		.type	_default_exit, %function
  66              	_default_exit:
  67              	.LFB9:
  68              		.loc 1 243 0
  69              		.cfi_startproc
  70              		@ Naked Function: prologue and epilogue provided by programmer.
  71              		@ args = 0, pretend = 0, frame = 0
  72              		@ frame_needed = 0, uses_anonymous_args = 0
  73              	.L4:
  74 0000 FEE7     		b	.L4
  75              		.cfi_endproc
  76              	.LFE9:
  77              		.size	_default_exit, .-_default_exit
  78 0002 00BFAFF3 		.section	.text.ResetHandler,"ax",%progbits
  78      0080AFF3 
  78      0080AFF3 
  78      0080
  79              		.align	2
  80              		.p2align 4,,15
  81              		.global	ResetHandler
  82              		.thumb
  83              		.thumb_func
  84              		.type	ResetHandler, %function
  85              	ResetHandler:
  86              	.LFB10:
  87              		.loc 1 254 0
  88              		.cfi_startproc
  89              		@ Naked Function: prologue and epilogue provided by programmer.
  90              		@ args = 0, pretend = 0, frame = 0
  91              		@ frame_needed = 0, uses_anonymous_args = 0
  92              		.loc 1 260 0
  93              	@ 260 "/opt/ChibiOS/ChibiOS_2.4.4/os/ports/GCC/ARMCMx/crt0.c" 1
  94 0000 72B6     		cpsid   i
  95              	@ 0 "" 2
  96              	.LVL0:
  97              		.loc 1 262 0
  98              		.thumb
  99 0002 40F20001 		movw	r1, #:lower16:__process_stack_end__
 100 0006 C0F20001 		movt	r1, #:upper16:__process_stack_end__
 101              	@ 262 "/opt/ChibiOS/ChibiOS_2.4.4/os/ports/GCC/ARMCMx/crt0.c" 1
 102 000a 81F30988 		msr     PSP, r1
 103              	@ 0 "" 2
 104              	.LVL1:
 105              		.loc 1 282 0
ARM GAS  /tmp/ccV7N3tb.s 			page 3


 106              		.thumb
 107 000e 0223     		movs	r3, #2
 108              	@ 282 "/opt/ChibiOS/ChibiOS_2.4.4/os/ports/GCC/ARMCMx/crt0.c" 1
 109 0010 83F31488 		msr     CONTROL, r3
 110              	@ 0 "" 2
 111              		.loc 1 283 0
 112              	@ 283 "/opt/ChibiOS/ChibiOS_2.4.4/os/ports/GCC/ARMCMx/crt0.c" 1
 113 0014 BFF36F8F 		isb
 114              	@ 0 "" 2
 115              	.LVL2:
 116              		.thumb
 117              	.LBB2:
 118              		.loc 1 287 0
 119 0018 40F20002 		movw	r2, #:lower16:__main_stack_base__
 120 001c 40F20004 		movw	r4, #:lower16:__main_stack_end__
 121 0020 C0F20002 		movt	r2, #:upper16:__main_stack_base__
 122 0024 C0F20004 		movt	r4, #:upper16:__main_stack_end__
 123 0028 A242     		cmp	r2, r4
 124 002a 17D2     		bcs	.L6
 125 002c 1346     		mov	r3, r2
 126 002e 4FF05530 		mov	r0, #1431655765
 127 0032 43F8040B 		str	r0, [r3], #4
 128              	.LVL3:
 129 0036 D643     		mvns	r6, r2
 130 0038 A519     		adds	r5, r4, r6
 131 003a A342     		cmp	r3, r4
 132 003c C5F38005 		ubfx	r5, r5, #2, #1
 133 0040 0CD2     		bcs	.L6
 134 0042 25B1     		cbz	r5, .L7
 135 0044 1860     		str	r0, [r3, #0]
 136 0046 02F10803 		add	r3, r2, #8
 137 004a A342     		cmp	r3, r4
 138 004c 06D2     		bcs	.L6
 139              	.LVL4:
 140              	.L7:
 141              		.loc 1 287 0 is_stmt 0 discriminator 2
 142 004e 1A46     		mov	r2, r3
 143 0050 42F8040B 		str	r0, [r2], #4
 144              	.LVL5:
 145 0054 5860     		str	r0, [r3, #4]
 146 0056 131D     		adds	r3, r2, #4
 147 0058 A342     		cmp	r3, r4
 148 005a F8D3     		bcc	.L7
 149              	.LVL6:
 150              	.L6:
 151              	.LBE2:
 152              	.LBB3:
 153              		.loc 1 290 0 is_stmt 1 discriminator 1
 154 005c 40F20002 		movw	r2, #:lower16:__process_stack_base__
 155 0060 C0F20002 		movt	r2, #:upper16:__process_stack_base__
 156 0064 8A42     		cmp	r2, r1
 157 0066 17D2     		bcs	.L8
 158              		.loc 1 290 0 is_stmt 0
 159 0068 1346     		mov	r3, r2
 160 006a 4FF05530 		mov	r0, #1431655765
 161 006e 43F8040B 		str	r0, [r3], #4
 162              	.LVL7:
ARM GAS  /tmp/ccV7N3tb.s 			page 4


 163 0072 D543     		mvns	r5, r2
 164 0074 4C19     		adds	r4, r1, r5
 165 0076 8B42     		cmp	r3, r1
 166 0078 C4F38004 		ubfx	r4, r4, #2, #1
 167 007c 0CD2     		bcs	.L8
 168 007e 24B1     		cbz	r4, .L9
 169 0080 1860     		str	r0, [r3, #0]
 170 0082 02F10803 		add	r3, r2, #8
 171 0086 8B42     		cmp	r3, r1
 172 0088 06D2     		bcs	.L8
 173              	.LVL8:
 174              	.L9:
 175              		.loc 1 290 0 discriminator 2
 176 008a 1E46     		mov	r6, r3
 177 008c 46F8040B 		str	r0, [r6], #4
 178              	.LVL9:
 179 0090 5860     		str	r0, [r3, #4]
 180 0092 331D     		adds	r3, r6, #4
 181 0094 8B42     		cmp	r3, r1
 182 0096 F8D3     		bcc	.L9
 183              	.LVL10:
 184              	.L8:
 185              	.LBE3:
 186              		.loc 1 296 0 is_stmt 1
 187 0098 FFF7FEFF 		bl	__early_init
 188              	.LVL11:
 189              	.LBB4:
 190              		.loc 1 305 0
 191 009c 40F20004 		movw	r4, #:lower16:_edata
 192 00a0 40F20001 		movw	r1, #:lower16:_data
 193 00a4 C0F20001 		movt	r1, #:upper16:_data
 194 00a8 C0F20004 		movt	r4, #:upper16:_edata
 195 00ac A142     		cmp	r1, r4
 196 00ae 25D2     		bcs	.L10
 197 00b0 40F20000 		movw	r0, #:lower16:_textdata
 198 00b4 C0F20000 		movt	r0, #:upper16:_textdata
 199              		.loc 1 306 0
 200 00b8 0246     		mov	r2, r0
 201 00ba 0B46     		mov	r3, r1
 202 00bc 52F8046B 		ldr	r6, [r2], #4
 203 00c0 43F8046B 		str	r6, [r3], #4
 204              	.LVL12:
 205 00c4 CD43     		mvns	r5, r1
 206 00c6 04EB050C 		add	ip, r4, r5
 207              		.loc 1 305 0
 208 00ca A342     		cmp	r3, r4
 209 00cc CCF38005 		ubfx	r5, ip, #2, #1
 210 00d0 14D2     		bcs	.L10
 211 00d2 3DB1     		cbz	r5, .L11
 212              		.loc 1 306 0
 213 00d4 1668     		ldr	r6, [r2, #0]
 214 00d6 1E60     		str	r6, [r3, #0]
 215 00d8 01F10803 		add	r3, r1, #8
 216              		.loc 1 305 0
 217 00dc A342     		cmp	r3, r4
 218              		.loc 1 306 0
 219 00de 00F10802 		add	r2, r0, #8
ARM GAS  /tmp/ccV7N3tb.s 			page 5


 220              		.loc 1 305 0
 221 00e2 0BD2     		bcs	.L10
 222              	.LVL13:
 223              	.L11:
 224              		.loc 1 306 0
 225 00e4 1146     		mov	r1, r2
 226 00e6 1846     		mov	r0, r3
 227 00e8 51F8045B 		ldr	r5, [r1], #4
 228 00ec 5268     		ldr	r2, [r2, #4]
 229 00ee 40F8045B 		str	r5, [r0], #4
 230              	.LVL14:
 231 00f2 5A60     		str	r2, [r3, #4]
 232 00f4 031D     		adds	r3, r0, #4
 233 00f6 0A1D     		adds	r2, r1, #4
 234              		.loc 1 305 0
 235 00f8 A342     		cmp	r3, r4
 236 00fa F3D3     		bcc	.L11
 237              	.LVL15:
 238              	.L10:
 239              	.LBE4:
 240              	.LBB5:
 241              		.loc 1 312 0 discriminator 1
 242 00fc 40F20002 		movw	r2, #:lower16:_bss_start
 243 0100 40F20000 		movw	r0, #:lower16:_bss_end
 244 0104 C0F20002 		movt	r2, #:upper16:_bss_start
 245 0108 C0F20000 		movt	r0, #:upper16:_bss_end
 246 010c 8242     		cmp	r2, r0
 247 010e 17D2     		bcs	.L12
 248              		.loc 1 312 0 is_stmt 0
 249 0110 1346     		mov	r3, r2
 250 0112 0021     		movs	r1, #0
 251 0114 43F8041B 		str	r1, [r3], #4
 252              	.LVL16:
 253 0118 D443     		mvns	r4, r2
 254 011a 00EB040E 		add	lr, r0, r4
 255 011e 8342     		cmp	r3, r0
 256 0120 CEF38004 		ubfx	r4, lr, #2, #1
 257 0124 0CD2     		bcs	.L12
 258 0126 24B1     		cbz	r4, .L13
 259 0128 1960     		str	r1, [r3, #0]
 260 012a 02F10803 		add	r3, r2, #8
 261 012e 8342     		cmp	r3, r0
 262 0130 06D2     		bcs	.L12
 263              	.LVL17:
 264              	.L13:
 265              		.loc 1 312 0 discriminator 2
 266 0132 1E46     		mov	r6, r3
 267 0134 46F8041B 		str	r1, [r6], #4
 268              	.LVL18:
 269 0138 5960     		str	r1, [r3, #4]
 270 013a 331D     		adds	r3, r6, #4
 271 013c 8342     		cmp	r3, r0
 272 013e F8D3     		bcc	.L13
 273              	.LVL19:
 274              	.L12:
 275              	.LBE5:
 276              	.LBB6:
ARM GAS  /tmp/ccV7N3tb.s 			page 6


 277              		.loc 1 322 0 is_stmt 1
 278 0140 40F20005 		movw	r5, #:lower16:__init_array_start
 279 0144 40F20006 		movw	r6, #:lower16:__init_array_end
 280 0148 C0F20005 		movt	r5, #:upper16:__init_array_start
 281 014c C0F20006 		movt	r6, #:upper16:__init_array_end
 282              	.LBE6:
 283              		.loc 1 316 0
 284 0150 FFF7FEFF 		bl	__late_init
 285              	.LVL20:
 286              	.LBB7:
 287              		.loc 1 322 0
 288 0154 B542     		cmp	r5, r6
 289 0156 19D2     		bcs	.L14
 290              		.loc 1 323 0
 291 0158 2C46     		mov	r4, r5
 292 015a E943     		mvns	r1, r5
 293 015c 54F8043B 		ldr	r3, [r4], #4
 294 0160 7718     		adds	r7, r6, r1
 295 0162 9847     		blx	r3
 296              	.LVL21:
 297              		.loc 1 322 0
 298 0164 B442     		cmp	r4, r6
 299 0166 C7F38007 		ubfx	r7, r7, #2, #1
 300 016a 0FD2     		bcs	.L14
 301 016c 2FB1     		cbz	r7, .L15
 302              		.loc 1 323 0
 303 016e 2368     		ldr	r3, [r4, #0]
 304              		.loc 1 324 0
 305 0170 05F10804 		add	r4, r5, #8
 306              		.loc 1 323 0
 307 0174 9847     		blx	r3
 308              		.loc 1 322 0
 309 0176 B442     		cmp	r4, r6
 310 0178 08D2     		bcs	.L14
 311              	.LVL22:
 312              	.L15:
 313              		.loc 1 323 0
 314 017a 2546     		mov	r5, r4
 315 017c 55F8042B 		ldr	r2, [r5], #4
 316 0180 9047     		blx	r2
 317              	.LVL23:
 318 0182 6068     		ldr	r0, [r4, #4]
 319              		.loc 1 324 0
 320 0184 2C1D     		adds	r4, r5, #4
 321              		.loc 1 323 0
 322 0186 8047     		blx	r0
 323              		.loc 1 322 0
 324 0188 B442     		cmp	r4, r6
 325 018a F6D3     		bcc	.L15
 326              	.LVL24:
 327              	.L14:
 328              	.LBE7:
 329              	.LBB8:
 330              		.loc 1 336 0
 331 018c 40F20005 		movw	r5, #:lower16:__fini_array_start
 332 0190 40F20006 		movw	r6, #:lower16:__fini_array_end
 333 0194 C0F20005 		movt	r5, #:upper16:__fini_array_start
ARM GAS  /tmp/ccV7N3tb.s 			page 7


 334 0198 C0F20006 		movt	r6, #:upper16:__fini_array_end
 335              	.LBE8:
 336              		.loc 1 330 0
 337 019c FFF7FEFF 		bl	main
 338              	.LVL25:
 339              	.LBB9:
 340              		.loc 1 336 0
 341 01a0 B542     		cmp	r5, r6
 342 01a2 1AD2     		bcs	.L16
 343              		.loc 1 337 0
 344 01a4 2C46     		mov	r4, r5
 345 01a6 EF43     		mvns	r7, r5
 346 01a8 54F8043B 		ldr	r3, [r4], #4
 347 01ac 06EB070C 		add	ip, r6, r7
 348 01b0 CCF38007 		ubfx	r7, ip, #2, #1
 349 01b4 9847     		blx	r3
 350              	.LVL26:
 351              		.loc 1 336 0
 352 01b6 B442     		cmp	r4, r6
 353 01b8 0FD2     		bcs	.L16
 354 01ba 2FB1     		cbz	r7, .L17
 355              		.loc 1 337 0
 356 01bc 2268     		ldr	r2, [r4, #0]
 357              		.loc 1 338 0
 358 01be 05F10804 		add	r4, r5, #8
 359              		.loc 1 337 0
 360 01c2 9047     		blx	r2
 361              		.loc 1 336 0
 362 01c4 B442     		cmp	r4, r6
 363 01c6 08D2     		bcs	.L16
 364              	.LVL27:
 365              	.L17:
 366              		.loc 1 337 0
 367 01c8 2546     		mov	r5, r4
 368 01ca 55F8040B 		ldr	r0, [r5], #4
 369 01ce 8047     		blx	r0
 370              	.LVL28:
 371 01d0 6168     		ldr	r1, [r4, #4]
 372              		.loc 1 338 0
 373 01d2 2C1D     		adds	r4, r5, #4
 374              		.loc 1 337 0
 375 01d4 8847     		blx	r1
 376              		.loc 1 336 0
 377 01d6 B442     		cmp	r4, r6
 378 01d8 F6D3     		bcc	.L17
 379              	.LVL29:
 380              	.L16:
 381              	.LBE9:
 382              		.loc 1 344 0
 383 01da FFF7FEFF 		bl	_default_exit
 384              		.loc 1 345 0
 385              		.cfi_endproc
 386              	.LFE10:
 387              		.size	ResetHandler, .-ResetHandler
 388 01de 00BF     		.text
 389              	.Letext0:
 390              		.file 2 "/opt/arm/bin/../lib/gcc/arm-none-eabi/4.6.3/../../../../arm-none-eabi/include/stdint.h"
ARM GAS  /tmp/ccV7N3tb.s 			page 8

