ARM GAS  /tmp/ccBDqgqy.s 			page 1


   1              		.syntax unified
   2              		.cpu cortex-m4
   3              		.eabi_attribute 27, 3
   4              		.eabi_attribute 28, 1
   5              		.fpu fpv4-sp-d16
   6              		.eabi_attribute 20, 1
   7              		.eabi_attribute 21, 1
   8              		.eabi_attribute 23, 3
   9              		.eabi_attribute 24, 1
  10              		.eabi_attribute 25, 1
  11              		.eabi_attribute 26, 1
  12              		.eabi_attribute 30, 2
  13              		.eabi_attribute 34, 1
  14              		.eabi_attribute 18, 4
  15              		.thumb
  16              		.file	"hal.c"
  17              		.text
  18              	.Ltext0:
  19              		.cfi_sections	.debug_frame
  20              		.section	.text.halInit,"ax",%progbits
  21              		.align	2
  22              		.p2align 4,,15
  23              		.global	halInit
  24              		.thumb
  25              		.thumb_func
  26              		.type	halInit, %function
  27              	halInit:
  28              	.LFB117:
  29              		.file 1 "/opt/ChibiOS/ChibiOS_2.4.4/os/hal/src/hal.c"
  30              		.loc 1 68 0
  31              		.cfi_startproc
  32              		@ args = 0, pretend = 0, frame = 0
  33              		@ frame_needed = 0, uses_anonymous_args = 0
  34 0000 08B5     		push	{r3, lr}
  35              	.LCFI0:
  36              		.cfi_def_cfa_offset 8
  37              		.cfi_offset 14, -4
  38              		.cfi_offset 3, -8
  39              		.loc 1 70 0
  40 0002 FFF7FEFF 		bl	hal_lld_init
  41              		.loc 1 76 0
  42 0006 40F20000 		movw	r0, #:lower16:pal_default_config
  43 000a C0F20000 		movt	r0, #:upper16:pal_default_config
  44 000e FFF7FEFF 		bl	_pal_lld_init
  45              		.loc 1 79 0
  46 0012 FFF7FEFF 		bl	adcInit
  47              		.loc 1 94 0
  48 0016 FFF7FEFF 		bl	icuInit
  49              		.loc 1 103 0
  50 001a FFF7FEFF 		bl	sdInit
  51              		.loc 1 109 0
  52 001e FFF7FEFF 		bl	spiInit
  53              		.loc 1 128 0
  54 0022 BDE80840 		pop	{r3, lr}
  55              		.loc 1 127 0
  56 0026 FFF7FEBF 		b	boardInit
  57              		.cfi_endproc
ARM GAS  /tmp/ccBDqgqy.s 			page 2


  58              	.LFE117:
  59              		.size	halInit, .-halInit
  60 002a 00BFAFF3 		.section	.text.halIsCounterWithin,"ax",%progbits
  60      0080
  61              		.align	2
  62              		.p2align 4,,15
  63              		.global	halIsCounterWithin
  64              		.thumb
  65              		.thumb_func
  66              		.type	halIsCounterWithin, %function
  67              	halIsCounterWithin:
  68              	.LFB118:
  69              		.loc 1 174 0
  70              		.cfi_startproc
  71              		@ args = 0, pretend = 0, frame = 0
  72              		@ frame_needed = 0, uses_anonymous_args = 0
  73              		@ link register save eliminated.
  74              	.LVL0:
  75              		.loc 1 175 0
  76 0000 4FF48053 		mov	r3, #4096
  77 0004 CEF20003 		movt	r3, 57344
  78              		.loc 1 177 0
  79 0008 8142     		cmp	r1, r0
  80              		.loc 1 175 0
  81 000a 5B68     		ldr	r3, [r3, #4]
  82              	.LVL1:
  83              		.loc 1 177 0
  84 000c 08D8     		bhi	.L6
  85              		.loc 1 178 0 discriminator 2
  86 000e 8342     		cmp	r3, r0
  87 0010 34BF     		ite	cc
  88 0012 0020     		movcc	r0, #0
  89              	.LVL2:
  90 0014 0120     		movcs	r0, #1
  91              		.loc 1 177 0 discriminator 2
  92 0016 8B42     		cmp	r3, r1
  93 0018 38BF     		it	cc
  94 001a 40F00100 		orrcc	r0, r0, #1
  95              		.loc 1 179 0 discriminator 2
  96 001e 7047     		bx	lr
  97              	.LVL3:
  98              	.L6:
  99              		.loc 1 177 0 discriminator 1
 100 0020 8342     		cmp	r3, r0
 101 0022 34BF     		ite	cc
 102 0024 0020     		movcc	r0, #0
 103              	.LVL4:
 104 0026 0120     		movcs	r0, #1
 105 0028 8B42     		cmp	r3, r1
 106 002a 2CBF     		ite	cs
 107 002c 0020     		movcs	r0, #0
 108 002e 00F00100 		andcc	r0, r0, #1
 109 0032 7047     		bx	lr
 110              		.cfi_endproc
 111              	.LFE118:
 112              		.size	halIsCounterWithin, .-halIsCounterWithin
 113 0034 AFF30080 		.section	.text.halPolledDelay,"ax",%progbits
ARM GAS  /tmp/ccBDqgqy.s 			page 3


 113      AFF30080 
 113      AFF30080 
 114              		.align	2
 115              		.p2align 4,,15
 116              		.global	halPolledDelay
 117              		.thumb
 118              		.thumb_func
 119              		.type	halPolledDelay, %function
 120              	halPolledDelay:
 121              	.LFB119:
 122              		.loc 1 193 0
 123              		.cfi_startproc
 124              		@ args = 0, pretend = 0, frame = 0
 125              		@ frame_needed = 0, uses_anonymous_args = 0
 126              		@ link register save eliminated.
 127              	.LVL5:
 128              		.loc 1 194 0
 129 0000 4FF48053 		mov	r3, #4096
 130 0004 CEF20003 		movt	r3, 57344
 131              		.loc 1 193 0
 132 0008 10B4     		push	{r4}
 133              	.LCFI1:
 134              		.cfi_def_cfa_offset 4
 135              		.cfi_offset 4, -4
 136              	.LBB4:
 137              	.LBB5:
 138              		.loc 1 175 0
 139 000a 1A46     		mov	r2, r3
 140              	.LBE5:
 141              	.LBE4:
 142              		.loc 1 194 0
 143 000c 5B68     		ldr	r3, [r3, #4]
 144              	.LVL6:
 145              		.loc 1 195 0
 146 000e C018     		adds	r0, r0, r3
 147              	.LVL7:
 148              	.L10:
 149              	.LBB8:
 150              	.LBB6:
 151              		.loc 1 175 0 discriminator 1
 152 0010 5168     		ldr	r1, [r2, #4]
 153              	.LVL8:
 154              		.loc 1 177 0 discriminator 1
 155 0012 8B42     		cmp	r3, r1
 156 0014 8CBF     		ite	hi
 157 0016 0024     		movhi	r4, #0
 158 0018 0124     		movls	r4, #1
 159 001a 8342     		cmp	r3, r0
 160 001c 08D2     		bcs	.L8
 161              		.loc 1 177 0 is_stmt 0
 162 001e 8842     		cmp	r0, r1
 163 0020 94BF     		ite	ls
 164 0022 0021     		movls	r1, #0
 165 0024 04F00101 		andhi	r1, r4, #1
 166              	.LVL9:
 167              	.LBE6:
 168              	.LBE8:
ARM GAS  /tmp/ccBDqgqy.s 			page 4


 169              		.loc 1 196 0 is_stmt 1
 170 0028 0029     		cmp	r1, #0
 171 002a F1D1     		bne	.L10
 172              	.L12:
 173              		.loc 1 198 0
 174 002c 10BC     		pop	{r4}
 175 002e 7047     		bx	lr
 176              	.LVL10:
 177              	.L8:
 178              	.LBB9:
 179              	.LBB7:
 180              		.loc 1 177 0
 181 0030 8842     		cmp	r0, r1
 182 0032 94BF     		ite	ls
 183 0034 2146     		movls	r1, r4
 184 0036 44F00101 		orrhi	r1, r4, #1
 185              	.LVL11:
 186              	.LBE7:
 187              	.LBE9:
 188              		.loc 1 196 0
 189 003a 0029     		cmp	r1, #0
 190 003c E8D1     		bne	.L10
 191 003e F5E7     		b	.L12
 192              		.cfi_endproc
 193              	.LFE119:
 194              		.size	halPolledDelay, .-halPolledDelay
 195              		.text
 196              	.Letext0:
 197              		.file 2 "/opt/arm/bin/../lib/gcc/arm-none-eabi/4.6.3/../../../../arm-none-eabi/include/stdint.h"
 198              		.file 3 "/opt/ChibiOS/ChibiOS_2.4.4/os/ports/GCC/ARMCMx/chtypes.h"
 199              		.file 4 "/opt/ChibiOS/ChibiOS_2.4.4/os/ports/common/ARMCMx/nvic.h"
 200              		.file 5 "/opt/ChibiOS/ChibiOS_2.4.4/os/hal/platforms/STM32F4xx/hal_lld.h"
 201              		.file 6 "/opt/ChibiOS/ChibiOS_2.4.4/os/hal/platforms/STM32/GPIOv2/pal_lld.h"
 202              		.file 7 "/opt/ChibiOS/ChibiOS_2.4.4/os/ports/common/ARMCMx/CMSIS/include/core_cm4.h"