ARM GAS  /tmp/ccHi0dFV.s 			page 1


   1              		.syntax unified
   2              		.cpu cortex-m4
   3              		.eabi_attribute 27, 3
   4              		.eabi_attribute 28, 1
   5              		.fpu fpv4-sp-d16
   6              		.eabi_attribute 20, 1
   7              		.eabi_attribute 21, 1
   8              		.eabi_attribute 23, 3
   9              		.eabi_attribute 24, 1
  10              		.eabi_attribute 25, 1
  11              		.eabi_attribute 26, 1
  12              		.eabi_attribute 30, 2
  13              		.eabi_attribute 34, 1
  14              		.eabi_attribute 18, 4
  15              		.thumb
  16              		.file	"icu.c"
  17              		.text
  18              	.Ltext0:
  19              		.cfi_sections	.debug_frame
  20              		.section	.text.icuInit,"ax",%progbits
  21              		.align	2
  22              		.p2align 4,,15
  23              		.global	icuInit
  24              		.thumb
  25              		.thumb_func
  26              		.type	icuInit, %function
  27              	icuInit:
  28              	.LFB117:
  29              		.file 1 "/opt/ChibiOS/ChibiOS_2.4.4/os/hal/src/icu.c"
  30              		.loc 1 68 0
  31              		.cfi_startproc
  32              		@ args = 0, pretend = 0, frame = 0
  33              		@ frame_needed = 0, uses_anonymous_args = 0
  34              		@ link register save eliminated.
  35              		.loc 1 71 0
  36              		.loc 1 70 0
  37 0000 FFF7FEBF 		b	icu_lld_init
  38              		.cfi_endproc
  39              	.LFE117:
  40              		.size	icuInit, .-icuInit
  41 0004 AFF30080 		.section	.text.icuObjectInit,"ax",%progbits
  41      AFF30080 
  41      AFF30080 
  42              		.align	2
  43              		.p2align 4,,15
  44              		.global	icuObjectInit
  45              		.thumb
  46              		.thumb_func
  47              		.type	icuObjectInit, %function
  48              	icuObjectInit:
  49              	.LFB118:
  50              		.loc 1 80 0
  51              		.cfi_startproc
  52              		@ args = 0, pretend = 0, frame = 0
  53              		@ frame_needed = 0, uses_anonymous_args = 0
  54              		@ link register save eliminated.
  55              	.LVL0:
ARM GAS  /tmp/ccHi0dFV.s 			page 2


  56              		.loc 1 82 0
  57 0000 0121     		movs	r1, #1
  58              		.loc 1 83 0
  59 0002 0023     		movs	r3, #0
  60              		.loc 1 82 0
  61 0004 0170     		strb	r1, [r0, #0]
  62              		.loc 1 83 0
  63 0006 4360     		str	r3, [r0, #4]
  64              		.loc 1 84 0
  65 0008 7047     		bx	lr
  66              		.cfi_endproc
  67              	.LFE118:
  68              		.size	icuObjectInit, .-icuObjectInit
  69 000a 00BFAFF3 		.section	.text.icuStart,"ax",%progbits
  69      0080
  70              		.align	2
  71              		.p2align 4,,15
  72              		.global	icuStart
  73              		.thumb
  74              		.thumb_func
  75              		.type	icuStart, %function
  76              	icuStart:
  77              	.LFB119:
  78              		.loc 1 94 0
  79              		.cfi_startproc
  80              		@ args = 0, pretend = 0, frame = 0
  81              		@ frame_needed = 0, uses_anonymous_args = 0
  82              	.LVL1:
  83 0000 10B5     		push	{r4, lr}
  84              	.LCFI0:
  85              		.cfi_def_cfa_offset 8
  86              		.cfi_offset 14, -4
  87              		.cfi_offset 4, -8
  88              	.LBB2:
  89              		.loc 1 98 0
  90 0002 2023     		movs	r3, #32
  91              	.LVL2:
  92              	.LBE2:
  93              		.loc 1 94 0
  94 0004 0446     		mov	r4, r0
  95              	.LBB3:
  96              		.loc 1 98 0
  97              	@ 98 "/opt/ChibiOS/ChibiOS_2.4.4/os/hal/src/icu.c" 1
  98 0006 83F31188 		msr     BASEPRI, r3
  99              	@ 0 "" 2
 100              	.LVL3:
 101              		.thumb
 102              	.LBE3:
 103              		.loc 1 101 0
 104 000a 4160     		str	r1, [r0, #4]
 105              		.loc 1 102 0
 106 000c FFF7FEFF 		bl	icu_lld_start
 107              	.LVL4:
 108              		.loc 1 103 0
 109 0010 0223     		movs	r3, #2
 110 0012 2370     		strb	r3, [r4, #0]
 111              	.LBB4:
ARM GAS  /tmp/ccHi0dFV.s 			page 3


 112              		.loc 1 104 0
 113 0014 0023     		movs	r3, #0
 114              	.LVL5:
 115              	@ 104 "/opt/ChibiOS/ChibiOS_2.4.4/os/hal/src/icu.c" 1
 116 0016 83F31188 		msr     BASEPRI, r3
 117              	@ 0 "" 2
 118              	.LVL6:
 119              		.thumb
 120              	.LBE4:
 121              		.loc 1 105 0
 122 001a 10BD     		pop	{r4, pc}
 123              		.cfi_endproc
 124              	.LFE119:
 125              		.size	icuStart, .-icuStart
 126 001c AFF30080 		.section	.text.icuStop,"ax",%progbits
 127              		.align	2
 128              		.p2align 4,,15
 129              		.global	icuStop
 130              		.thumb
 131              		.thumb_func
 132              		.type	icuStop, %function
 133              	icuStop:
 134              	.LFB120:
 135              		.loc 1 114 0
 136              		.cfi_startproc
 137              		@ args = 0, pretend = 0, frame = 0
 138              		@ frame_needed = 0, uses_anonymous_args = 0
 139              	.LVL7:
 140 0000 10B5     		push	{r4, lr}
 141              	.LCFI1:
 142              		.cfi_def_cfa_offset 8
 143              		.cfi_offset 14, -4
 144              		.cfi_offset 4, -8
 145              	.LBB5:
 146              		.loc 1 118 0
 147 0002 2023     		movs	r3, #32
 148              	.LVL8:
 149              	.LBE5:
 150              		.loc 1 114 0
 151 0004 0446     		mov	r4, r0
 152              	.LBB6:
 153              		.loc 1 118 0
 154              	@ 118 "/opt/ChibiOS/ChibiOS_2.4.4/os/hal/src/icu.c" 1
 155 0006 83F31188 		msr     BASEPRI, r3
 156              	@ 0 "" 2
 157              	.LVL9:
 158              		.thumb
 159              	.LBE6:
 160              		.loc 1 121 0
 161 000a FFF7FEFF 		bl	icu_lld_stop
 162              	.LVL10:
 163              		.loc 1 122 0
 164 000e 0123     		movs	r3, #1
 165 0010 2370     		strb	r3, [r4, #0]
 166              	.LBB7:
 167              		.loc 1 123 0
 168 0012 0023     		movs	r3, #0
ARM GAS  /tmp/ccHi0dFV.s 			page 4


 169              	.LVL11:
 170              	@ 123 "/opt/ChibiOS/ChibiOS_2.4.4/os/hal/src/icu.c" 1
 171 0014 83F31188 		msr     BASEPRI, r3
 172              	@ 0 "" 2
 173              	.LVL12:
 174              		.thumb
 175              	.LBE7:
 176              		.loc 1 124 0
 177 0018 10BD     		pop	{r4, pc}
 178              		.cfi_endproc
 179              	.LFE120:
 180              		.size	icuStop, .-icuStop
 181 001a 00BFAFF3 		.section	.text.icuEnable,"ax",%progbits
 181      0080
 182              		.align	2
 183              		.p2align 4,,15
 184              		.global	icuEnable
 185              		.thumb
 186              		.thumb_func
 187              		.type	icuEnable, %function
 188              	icuEnable:
 189              	.LFB121:
 190              		.loc 1 133 0
 191              		.cfi_startproc
 192              		@ args = 0, pretend = 0, frame = 0
 193              		@ frame_needed = 0, uses_anonymous_args = 0
 194              	.LVL13:
 195 0000 10B5     		push	{r4, lr}
 196              	.LCFI2:
 197              		.cfi_def_cfa_offset 8
 198              		.cfi_offset 14, -4
 199              		.cfi_offset 4, -8
 200              	.LBB8:
 201              		.loc 1 137 0
 202 0002 2023     		movs	r3, #32
 203              	.LVL14:
 204              	.LBE8:
 205              		.loc 1 133 0
 206 0004 0446     		mov	r4, r0
 207              	.LBB9:
 208              		.loc 1 137 0
 209              	@ 137 "/opt/ChibiOS/ChibiOS_2.4.4/os/hal/src/icu.c" 1
 210 0006 83F31188 		msr     BASEPRI, r3
 211              	@ 0 "" 2
 212              	.LVL15:
 213              		.thumb
 214              	.LBE9:
 215              		.loc 1 139 0
 216 000a FFF7FEFF 		bl	icu_lld_enable
 217              	.LVL16:
 218              		.loc 1 140 0
 219 000e 0323     		movs	r3, #3
 220 0010 2370     		strb	r3, [r4, #0]
 221              	.LBB10:
 222              		.loc 1 141 0
 223 0012 0023     		movs	r3, #0
 224              	.LVL17:
ARM GAS  /tmp/ccHi0dFV.s 			page 5


 225              	@ 141 "/opt/ChibiOS/ChibiOS_2.4.4/os/hal/src/icu.c" 1
 226 0014 83F31188 		msr     BASEPRI, r3
 227              	@ 0 "" 2
 228              	.LVL18:
 229              		.thumb
 230              	.LBE10:
 231              		.loc 1 142 0
 232 0018 10BD     		pop	{r4, pc}
 233              		.cfi_endproc
 234              	.LFE121:
 235              		.size	icuEnable, .-icuEnable
 236 001a 00BFAFF3 		.section	.text.icuDisable,"ax",%progbits
 236      0080
 237              		.align	2
 238              		.p2align 4,,15
 239              		.global	icuDisable
 240              		.thumb
 241              		.thumb_func
 242              		.type	icuDisable, %function
 243              	icuDisable:
 244              	.LFB122:
 245              		.loc 1 151 0
 246              		.cfi_startproc
 247              		@ args = 0, pretend = 0, frame = 0
 248              		@ frame_needed = 0, uses_anonymous_args = 0
 249              	.LVL19:
 250 0000 10B5     		push	{r4, lr}
 251              	.LCFI3:
 252              		.cfi_def_cfa_offset 8
 253              		.cfi_offset 14, -4
 254              		.cfi_offset 4, -8
 255              	.LBB11:
 256              		.loc 1 155 0
 257 0002 2023     		movs	r3, #32
 258              	.LVL20:
 259              	.LBE11:
 260              		.loc 1 151 0
 261 0004 0446     		mov	r4, r0
 262              	.LBB12:
 263              		.loc 1 155 0
 264              	@ 155 "/opt/ChibiOS/ChibiOS_2.4.4/os/hal/src/icu.c" 1
 265 0006 83F31188 		msr     BASEPRI, r3
 266              	@ 0 "" 2
 267              	.LVL21:
 268              		.thumb
 269              	.LBE12:
 270              		.loc 1 159 0
 271 000a FFF7FEFF 		bl	icu_lld_disable
 272              	.LVL22:
 273              		.loc 1 160 0
 274 000e 0223     		movs	r3, #2
 275 0010 2370     		strb	r3, [r4, #0]
 276              	.LBB13:
 277              		.loc 1 161 0
 278 0012 0023     		movs	r3, #0
 279              	.LVL23:
 280              	@ 161 "/opt/ChibiOS/ChibiOS_2.4.4/os/hal/src/icu.c" 1
ARM GAS  /tmp/ccHi0dFV.s 			page 6


 281 0014 83F31188 		msr     BASEPRI, r3
 282              	@ 0 "" 2
 283              	.LVL24:
 284              		.thumb
 285              	.LBE13:
 286              		.loc 1 162 0
 287 0018 10BD     		pop	{r4, pc}
 288              		.cfi_endproc
 289              	.LFE122:
 290              		.size	icuDisable, .-icuDisable
 291 001a 00BFAFF3 		.text
 291      0080
 292              	.Letext0:
 293              		.file 2 "/opt/arm/bin/../lib/gcc/arm-none-eabi/4.6.3/../../../../arm-none-eabi/include/stdint.h"
 294              		.file 3 "/opt/ChibiOS/ChibiOS_2.4.4/os/hal/platforms/STM32/stm32.h"
 295              		.file 4 "/opt/ChibiOS/ChibiOS_2.4.4/os/hal/include/icu.h"
 296              		.file 5 "/opt/ChibiOS/ChibiOS_2.4.4/os/hal/platforms/STM32/icu_lld.h"
 297              		.file 6 "/opt/ChibiOS/ChibiOS_2.4.4/os/ports/common/ARMCMx/CMSIS/include/core_cm4.h"
 298              		.section	.debug_info,"",%progbits
 299              	.Ldebug_info0:
 300 0000 8A050000 		.4byte	0x58a
 301 0004 0200     		.2byte	0x2
 302 0006 00000000 		.4byte	.Ldebug_abbrev0
 303 000a 04       		.byte	0x4
 304 000b 01       		.uleb128 0x1
 305 000c 78020000 		.4byte	.LASF63
 306 0010 01       		.byte	0x1
 307 0011 5A010000 		.4byte	.LASF64
 308 0015 00000000 		.4byte	0
 309 0019 00000000 		.4byte	0
 310 001d 60000000 		.4byte	.Ldebug_ranges0+0x60
 311 0021 00000000 		.4byte	.Ldebug_line0
 312 0025 02       		.uleb128 0x2
 313 0026 04       		.byte	0x4
 314 0027 05       		.byte	0x5
 315 0028 696E7400 		.ascii	"int\000"
 316 002c 03       		.uleb128 0x3
 317 002d 04       		.byte	0x4
 318 002e 07       		.byte	0x7
 319 002f 44010000 		.4byte	.LASF0
 320 0033 03       		.uleb128 0x3
 321 0034 01       		.byte	0x1
 322 0035 06       		.byte	0x6
 323 0036 18010000 		.4byte	.LASF1
 324 003a 03       		.uleb128 0x3
 325 003b 01       		.byte	0x1
 326 003c 08       		.byte	0x8
 327 003d ED000000 		.4byte	.LASF2
 328 0041 03       		.uleb128 0x3
 329 0042 02       		.byte	0x2
 330 0043 05       		.byte	0x5
 331 0044 27000000 		.4byte	.LASF3
 332 0048 04       		.uleb128 0x4
 333 0049 51010000 		.4byte	.LASF5
 334 004d 02       		.byte	0x2
 335 004e 36       		.byte	0x36
 336 004f 53000000 		.4byte	0x53
ARM GAS  /tmp/ccHi0dFV.s 			page 7


 337 0053 03       		.uleb128 0x3
 338 0054 02       		.byte	0x2
 339 0055 07       		.byte	0x7
 340 0056 B0010000 		.4byte	.LASF4
 341 005a 04       		.uleb128 0x4
 342 005b F1010000 		.4byte	.LASF6
 343 005f 02       		.byte	0x2
 344 0060 4F       		.byte	0x4f
 345 0061 65000000 		.4byte	0x65
 346 0065 03       		.uleb128 0x3
 347 0066 04       		.byte	0x4
 348 0067 05       		.byte	0x5
 349 0068 D0000000 		.4byte	.LASF7
 350 006c 04       		.uleb128 0x4
 351 006d 3B010000 		.4byte	.LASF8
 352 0071 02       		.byte	0x2
 353 0072 50       		.byte	0x50
 354 0073 77000000 		.4byte	0x77
 355 0077 03       		.uleb128 0x3
 356 0078 04       		.byte	0x4
 357 0079 07       		.byte	0x7
 358 007a 3A020000 		.4byte	.LASF9
 359 007e 03       		.uleb128 0x3
 360 007f 08       		.byte	0x8
 361 0080 05       		.byte	0x5
 362 0081 B8000000 		.4byte	.LASF10
 363 0085 03       		.uleb128 0x3
 364 0086 08       		.byte	0x8
 365 0087 07       		.byte	0x7
 366 0088 24010000 		.4byte	.LASF11
 367 008c 05       		.uleb128 0x5
 368 008d 6C000000 		.4byte	0x6c
 369 0091 03       		.uleb128 0x3
 370 0092 01       		.byte	0x1
 371 0093 08       		.byte	0x8
 372 0094 C3010000 		.4byte	.LASF12
 373 0098 06       		.uleb128 0x6
 374 0099 6C000000 		.4byte	0x6c
 375 009d A8000000 		.4byte	0xa8
 376 00a1 07       		.uleb128 0x7
 377 00a2 2C000000 		.4byte	0x2c
 378 00a6 03       		.byte	0x3
 379 00a7 00       		.byte	0
 380 00a8 05       		.uleb128 0x5
 381 00a9 48000000 		.4byte	0x48
 382 00ad 05       		.uleb128 0x5
 383 00ae 5A000000 		.4byte	0x5a
 384 00b2 08       		.uleb128 0x8
 385 00b3 54       		.byte	0x54
 386 00b4 03       		.byte	0x3
 387 00b5 72       		.byte	0x72
 388 00b6 87020000 		.4byte	0x287
 389 00ba 09       		.uleb128 0x9
 390 00bb 43523100 		.ascii	"CR1\000"
 391 00bf 03       		.byte	0x3
 392 00c0 73       		.byte	0x73
 393 00c1 A8000000 		.4byte	0xa8
ARM GAS  /tmp/ccHi0dFV.s 			page 8


 394 00c5 02       		.byte	0x2
 395 00c6 23       		.byte	0x23
 396 00c7 00       		.uleb128 0
 397 00c8 0A       		.uleb128 0xa
 398 00c9 4C000000 		.4byte	.LASF13
 399 00cd 03       		.byte	0x3
 400 00ce 74       		.byte	0x74
 401 00cf 48000000 		.4byte	0x48
 402 00d3 02       		.byte	0x2
 403 00d4 23       		.byte	0x23
 404 00d5 02       		.uleb128 0x2
 405 00d6 09       		.uleb128 0x9
 406 00d7 43523200 		.ascii	"CR2\000"
 407 00db 03       		.byte	0x3
 408 00dc 75       		.byte	0x75
 409 00dd A8000000 		.4byte	0xa8
 410 00e1 02       		.byte	0x2
 411 00e2 23       		.byte	0x23
 412 00e3 04       		.uleb128 0x4
 413 00e4 0A       		.uleb128 0xa
 414 00e5 54000000 		.4byte	.LASF14
 415 00e9 03       		.byte	0x3
 416 00ea 76       		.byte	0x76
 417 00eb 48000000 		.4byte	0x48
 418 00ef 02       		.byte	0x2
 419 00f0 23       		.byte	0x23
 420 00f1 06       		.uleb128 0x6
 421 00f2 0A       		.uleb128 0xa
 422 00f3 E8000000 		.4byte	.LASF15
 423 00f7 03       		.byte	0x3
 424 00f8 77       		.byte	0x77
 425 00f9 A8000000 		.4byte	0xa8
 426 00fd 02       		.byte	0x2
 427 00fe 23       		.byte	0x23
 428 00ff 08       		.uleb128 0x8
 429 0100 0A       		.uleb128 0xa
 430 0101 5C000000 		.4byte	.LASF16
 431 0105 03       		.byte	0x3
 432 0106 78       		.byte	0x78
 433 0107 48000000 		.4byte	0x48
 434 010b 02       		.byte	0x2
 435 010c 23       		.byte	0x23
 436 010d 0A       		.uleb128 0xa
 437 010e 0A       		.uleb128 0xa
 438 010f 86010000 		.4byte	.LASF17
 439 0113 03       		.byte	0x3
 440 0114 79       		.byte	0x79
 441 0115 A8000000 		.4byte	0xa8
 442 0119 02       		.byte	0x2
 443 011a 23       		.byte	0x23
 444 011b 0C       		.uleb128 0xc
 445 011c 0A       		.uleb128 0xa
 446 011d 64000000 		.4byte	.LASF18
 447 0121 03       		.byte	0x3
 448 0122 7A       		.byte	0x7a
 449 0123 48000000 		.4byte	0x48
 450 0127 02       		.byte	0x2
ARM GAS  /tmp/ccHi0dFV.s 			page 9


 451 0128 23       		.byte	0x23
 452 0129 0E       		.uleb128 0xe
 453 012a 09       		.uleb128 0x9
 454 012b 535200   		.ascii	"SR\000"
 455 012e 03       		.byte	0x3
 456 012f 7B       		.byte	0x7b
 457 0130 A8000000 		.4byte	0xa8
 458 0134 02       		.byte	0x2
 459 0135 23       		.byte	0x23
 460 0136 10       		.uleb128 0x10
 461 0137 0A       		.uleb128 0xa
 462 0138 6C000000 		.4byte	.LASF19
 463 013c 03       		.byte	0x3
 464 013d 7C       		.byte	0x7c
 465 013e 48000000 		.4byte	0x48
 466 0142 02       		.byte	0x2
 467 0143 23       		.byte	0x23
 468 0144 12       		.uleb128 0x12
 469 0145 09       		.uleb128 0x9
 470 0146 45475200 		.ascii	"EGR\000"
 471 014a 03       		.byte	0x3
 472 014b 7D       		.byte	0x7d
 473 014c A8000000 		.4byte	0xa8
 474 0150 02       		.byte	0x2
 475 0151 23       		.byte	0x23
 476 0152 14       		.uleb128 0x14
 477 0153 0A       		.uleb128 0xa
 478 0154 74000000 		.4byte	.LASF20
 479 0158 03       		.byte	0x3
 480 0159 7E       		.byte	0x7e
 481 015a 48000000 		.4byte	0x48
 482 015e 02       		.byte	0x2
 483 015f 23       		.byte	0x23
 484 0160 16       		.uleb128 0x16
 485 0161 0A       		.uleb128 0xa
 486 0162 D9000000 		.4byte	.LASF21
 487 0166 03       		.byte	0x3
 488 0167 7F       		.byte	0x7f
 489 0168 A8000000 		.4byte	0xa8
 490 016c 02       		.byte	0x2
 491 016d 23       		.byte	0x23
 492 016e 18       		.uleb128 0x18
 493 016f 0A       		.uleb128 0xa
 494 0170 7C000000 		.4byte	.LASF22
 495 0174 03       		.byte	0x3
 496 0175 80       		.byte	0x80
 497 0176 48000000 		.4byte	0x48
 498 017a 02       		.byte	0x2
 499 017b 23       		.byte	0x23
 500 017c 1A       		.uleb128 0x1a
 501 017d 0A       		.uleb128 0xa
 502 017e 21000000 		.4byte	.LASF23
 503 0182 03       		.byte	0x3
 504 0183 81       		.byte	0x81
 505 0184 A8000000 		.4byte	0xa8
 506 0188 02       		.byte	0x2
 507 0189 23       		.byte	0x23
ARM GAS  /tmp/ccHi0dFV.s 			page 10


 508 018a 1C       		.uleb128 0x1c
 509 018b 0A       		.uleb128 0xa
 510 018c 84000000 		.4byte	.LASF24
 511 0190 03       		.byte	0x3
 512 0191 82       		.byte	0x82
 513 0192 48000000 		.4byte	0x48
 514 0196 02       		.byte	0x2
 515 0197 23       		.byte	0x23
 516 0198 1E       		.uleb128 0x1e
 517 0199 0A       		.uleb128 0xa
 518 019a 08000000 		.4byte	.LASF25
 519 019e 03       		.byte	0x3
 520 019f 83       		.byte	0x83
 521 01a0 A8000000 		.4byte	0xa8
 522 01a4 02       		.byte	0x2
 523 01a5 23       		.byte	0x23
 524 01a6 20       		.uleb128 0x20
 525 01a7 0A       		.uleb128 0xa
 526 01a8 8C000000 		.4byte	.LASF26
 527 01ac 03       		.byte	0x3
 528 01ad 84       		.byte	0x84
 529 01ae 48000000 		.4byte	0x48
 530 01b2 02       		.byte	0x2
 531 01b3 23       		.byte	0x23
 532 01b4 22       		.uleb128 0x22
 533 01b5 09       		.uleb128 0x9
 534 01b6 434E5400 		.ascii	"CNT\000"
 535 01ba 03       		.byte	0x3
 536 01bb 85       		.byte	0x85
 537 01bc 8C000000 		.4byte	0x8c
 538 01c0 02       		.byte	0x2
 539 01c1 23       		.byte	0x23
 540 01c2 24       		.uleb128 0x24
 541 01c3 09       		.uleb128 0x9
 542 01c4 50534300 		.ascii	"PSC\000"
 543 01c8 03       		.byte	0x3
 544 01c9 86       		.byte	0x86
 545 01ca A8000000 		.4byte	0xa8
 546 01ce 02       		.byte	0x2
 547 01cf 23       		.byte	0x23
 548 01d0 28       		.uleb128 0x28
 549 01d1 0A       		.uleb128 0xa
 550 01d2 94000000 		.4byte	.LASF27
 551 01d6 03       		.byte	0x3
 552 01d7 87       		.byte	0x87
 553 01d8 48000000 		.4byte	0x48
 554 01dc 02       		.byte	0x2
 555 01dd 23       		.byte	0x23
 556 01de 2A       		.uleb128 0x2a
 557 01df 09       		.uleb128 0x9
 558 01e0 41525200 		.ascii	"ARR\000"
 559 01e4 03       		.byte	0x3
 560 01e5 88       		.byte	0x88
 561 01e6 8C000000 		.4byte	0x8c
 562 01ea 02       		.byte	0x2
 563 01eb 23       		.byte	0x23
 564 01ec 2C       		.uleb128 0x2c
ARM GAS  /tmp/ccHi0dFV.s 			page 11


 565 01ed 09       		.uleb128 0x9
 566 01ee 52435200 		.ascii	"RCR\000"
 567 01f2 03       		.byte	0x3
 568 01f3 89       		.byte	0x89
 569 01f4 A8000000 		.4byte	0xa8
 570 01f8 02       		.byte	0x2
 571 01f9 23       		.byte	0x23
 572 01fa 30       		.uleb128 0x30
 573 01fb 0A       		.uleb128 0xa
 574 01fc 52020000 		.4byte	.LASF28
 575 0200 03       		.byte	0x3
 576 0201 8A       		.byte	0x8a
 577 0202 48000000 		.4byte	0x48
 578 0206 02       		.byte	0x2
 579 0207 23       		.byte	0x23
 580 0208 32       		.uleb128 0x32
 581 0209 09       		.uleb128 0x9
 582 020a 43435200 		.ascii	"CCR\000"
 583 020e 03       		.byte	0x3
 584 020f 8B       		.byte	0x8b
 585 0210 87020000 		.4byte	0x287
 586 0214 02       		.byte	0x2
 587 0215 23       		.byte	0x23
 588 0216 34       		.uleb128 0x34
 589 0217 0A       		.uleb128 0xa
 590 0218 EC010000 		.4byte	.LASF29
 591 021c 03       		.byte	0x3
 592 021d 8C       		.byte	0x8c
 593 021e A8000000 		.4byte	0xa8
 594 0222 02       		.byte	0x2
 595 0223 23       		.byte	0x23
 596 0224 44       		.uleb128 0x44
 597 0225 0A       		.uleb128 0xa
 598 0226 5B020000 		.4byte	.LASF30
 599 022a 03       		.byte	0x3
 600 022b 8D       		.byte	0x8d
 601 022c 48000000 		.4byte	0x48
 602 0230 02       		.byte	0x2
 603 0231 23       		.byte	0x23
 604 0232 46       		.uleb128 0x46
 605 0233 09       		.uleb128 0x9
 606 0234 44435200 		.ascii	"DCR\000"
 607 0238 03       		.byte	0x3
 608 0239 8E       		.byte	0x8e
 609 023a A8000000 		.4byte	0xa8
 610 023e 02       		.byte	0x2
 611 023f 23       		.byte	0x23
 612 0240 48       		.uleb128 0x48
 613 0241 0A       		.uleb128 0xa
 614 0242 95010000 		.4byte	.LASF31
 615 0246 03       		.byte	0x3
 616 0247 8F       		.byte	0x8f
 617 0248 48000000 		.4byte	0x48
 618 024c 02       		.byte	0x2
 619 024d 23       		.byte	0x23
 620 024e 4A       		.uleb128 0x4a
 621 024f 0A       		.uleb128 0xa
ARM GAS  /tmp/ccHi0dFV.s 			page 12


 622 0250 16000000 		.4byte	.LASF32
 623 0254 03       		.byte	0x3
 624 0255 90       		.byte	0x90
 625 0256 A8000000 		.4byte	0xa8
 626 025a 02       		.byte	0x2
 627 025b 23       		.byte	0x23
 628 025c 4C       		.uleb128 0x4c
 629 025d 0A       		.uleb128 0xa
 630 025e 9E010000 		.4byte	.LASF33
 631 0262 03       		.byte	0x3
 632 0263 91       		.byte	0x91
 633 0264 48000000 		.4byte	0x48
 634 0268 02       		.byte	0x2
 635 0269 23       		.byte	0x23
 636 026a 4E       		.uleb128 0x4e
 637 026b 09       		.uleb128 0x9
 638 026c 4F5200   		.ascii	"OR\000"
 639 026f 03       		.byte	0x3
 640 0270 92       		.byte	0x92
 641 0271 A8000000 		.4byte	0xa8
 642 0275 02       		.byte	0x2
 643 0276 23       		.byte	0x23
 644 0277 50       		.uleb128 0x50
 645 0278 0A       		.uleb128 0xa
 646 0279 A7010000 		.4byte	.LASF34
 647 027d 03       		.byte	0x3
 648 027e 93       		.byte	0x93
 649 027f 48000000 		.4byte	0x48
 650 0283 02       		.byte	0x2
 651 0284 23       		.byte	0x23
 652 0285 52       		.uleb128 0x52
 653 0286 00       		.byte	0
 654 0287 05       		.uleb128 0x5
 655 0288 98000000 		.4byte	0x98
 656 028c 04       		.uleb128 0x4
 657 028d D6010000 		.4byte	.LASF35
 658 0291 03       		.byte	0x3
 659 0292 94       		.byte	0x94
 660 0293 B2000000 		.4byte	0xb2
 661 0297 0B       		.uleb128 0xb
 662 0298 01       		.byte	0x1
 663 0299 04       		.byte	0x4
 664 029a 3C       		.byte	0x3c
 665 029b C4020000 		.4byte	0x2c4
 666 029f 0C       		.uleb128 0xc
 667 02a0 19020000 		.4byte	.LASF36
 668 02a4 00       		.sleb128 0
 669 02a5 0C       		.uleb128 0xc
 670 02a6 0D000000 		.4byte	.LASF37
 671 02aa 01       		.sleb128 1
 672 02ab 0C       		.uleb128 0xc
 673 02ac C6000000 		.4byte	.LASF38
 674 02b0 02       		.sleb128 2
 675 02b1 0C       		.uleb128 0xc
 676 02b2 AA020000 		.4byte	.LASF39
 677 02b6 03       		.sleb128 3
 678 02b7 0C       		.uleb128 0xc
ARM GAS  /tmp/ccHi0dFV.s 			page 13


 679 02b8 AD000000 		.4byte	.LASF40
 680 02bc 04       		.sleb128 4
 681 02bd 0C       		.uleb128 0xc
 682 02be DF000000 		.4byte	.LASF41
 683 02c2 05       		.sleb128 5
 684 02c3 00       		.byte	0
 685 02c4 04       		.uleb128 0x4
 686 02c5 9F020000 		.4byte	.LASF42
 687 02c9 04       		.byte	0x4
 688 02ca 43       		.byte	0x43
 689 02cb 97020000 		.4byte	0x297
 690 02cf 04       		.uleb128 0x4
 691 02d0 64020000 		.4byte	.LASF43
 692 02d4 04       		.byte	0x4
 693 02d5 48       		.byte	0x48
 694 02d6 DA020000 		.4byte	0x2da
 695 02da 0D       		.uleb128 0xd
 696 02db 64020000 		.4byte	.LASF43
 697 02df 10       		.byte	0x10
 698 02e0 05       		.byte	0x5
 699 02e1 EB       		.byte	0xeb
 700 02e2 1F030000 		.4byte	0x31f
 701 02e6 0A       		.uleb128 0xa
 702 02e7 1B000000 		.4byte	.LASF44
 703 02eb 05       		.byte	0x5
 704 02ec EF       		.byte	0xef
 705 02ed C4020000 		.4byte	0x2c4
 706 02f1 02       		.byte	0x2
 707 02f2 23       		.byte	0x23
 708 02f3 00       		.uleb128 0
 709 02f4 0A       		.uleb128 0xa
 710 02f5 45000000 		.4byte	.LASF45
 711 02f9 05       		.byte	0x5
 712 02fa F3       		.byte	0xf3
 713 02fb B9030000 		.4byte	0x3b9
 714 02ff 02       		.byte	0x2
 715 0300 23       		.byte	0x23
 716 0301 04       		.uleb128 0x4
 717 0302 0A       		.uleb128 0xa
 718 0303 4C020000 		.4byte	.LASF46
 719 0307 05       		.byte	0x5
 720 0308 FB       		.byte	0xfb
 721 0309 6C000000 		.4byte	0x6c
 722 030d 02       		.byte	0x2
 723 030e 23       		.byte	0x23
 724 030f 08       		.uleb128 0x8
 725 0310 09       		.uleb128 0x9
 726 0311 74696D00 		.ascii	"tim\000"
 727 0315 05       		.byte	0x5
 728 0316 FF       		.byte	0xff
 729 0317 C4030000 		.4byte	0x3c4
 730 031b 02       		.byte	0x2
 731 031c 23       		.byte	0x23
 732 031d 0C       		.uleb128 0xc
 733 031e 00       		.byte	0
 734 031f 04       		.uleb128 0x4
 735 0320 C8010000 		.4byte	.LASF47
ARM GAS  /tmp/ccHi0dFV.s 			page 14


 736 0324 04       		.byte	0x4
 737 0325 4F       		.byte	0x4f
 738 0326 2A030000 		.4byte	0x32a
 739 032a 0E       		.uleb128 0xe
 740 032b 04       		.byte	0x4
 741 032c 30030000 		.4byte	0x330
 742 0330 0F       		.uleb128 0xf
 743 0331 01       		.byte	0x1
 744 0332 3C030000 		.4byte	0x33c
 745 0336 10       		.uleb128 0x10
 746 0337 3C030000 		.4byte	0x33c
 747 033b 00       		.byte	0
 748 033c 0E       		.uleb128 0xe
 749 033d 04       		.byte	0x4
 750 033e CF020000 		.4byte	0x2cf
 751 0342 0B       		.uleb128 0xb
 752 0343 01       		.byte	0x1
 753 0344 05       		.byte	0x5
 754 0345 BF       		.byte	0xbf
 755 0346 57030000 		.4byte	0x357
 756 034a 0C       		.uleb128 0xc
 757 034b 24020000 		.4byte	.LASF48
 758 034f 00       		.sleb128 0
 759 0350 0C       		.uleb128 0xc
 760 0351 F9010000 		.4byte	.LASF49
 761 0355 01       		.sleb128 1
 762 0356 00       		.byte	0
 763 0357 04       		.uleb128 0x4
 764 0358 36000000 		.4byte	.LASF50
 765 035c 05       		.byte	0x5
 766 035d C2       		.byte	0xc2
 767 035e 42030000 		.4byte	0x342
 768 0362 04       		.uleb128 0x4
 769 0363 8B010000 		.4byte	.LASF51
 770 0367 05       		.byte	0x5
 771 0368 C7       		.byte	0xc7
 772 0369 6C000000 		.4byte	0x6c
 773 036d 08       		.uleb128 0x8
 774 036e 10       		.byte	0x10
 775 036f 05       		.byte	0x5
 776 0370 D2       		.byte	0xd2
 777 0371 AE030000 		.4byte	0x3ae
 778 0375 0A       		.uleb128 0xa
 779 0376 40000000 		.4byte	.LASF52
 780 037a 05       		.byte	0x5
 781 037b D6       		.byte	0xd6
 782 037c 57030000 		.4byte	0x357
 783 0380 02       		.byte	0x2
 784 0381 23       		.byte	0x23
 785 0382 00       		.uleb128 0
 786 0383 0A       		.uleb128 0xa
 787 0384 6E020000 		.4byte	.LASF53
 788 0388 05       		.byte	0x5
 789 0389 DC       		.byte	0xdc
 790 038a 62030000 		.4byte	0x362
 791 038e 02       		.byte	0x2
 792 038f 23       		.byte	0x23
ARM GAS  /tmp/ccHi0dFV.s 			page 15


 793 0390 04       		.uleb128 0x4
 794 0391 0A       		.uleb128 0xa
 795 0392 A4000000 		.4byte	.LASF54
 796 0396 05       		.byte	0x5
 797 0397 E0       		.byte	0xe0
 798 0398 1F030000 		.4byte	0x31f
 799 039c 02       		.byte	0x2
 800 039d 23       		.byte	0x23
 801 039e 08       		.uleb128 0x8
 802 039f 0A       		.uleb128 0xa
 803 03a0 E2010000 		.4byte	.LASF55
 804 03a4 05       		.byte	0x5
 805 03a5 E4       		.byte	0xe4
 806 03a6 1F030000 		.4byte	0x31f
 807 03aa 02       		.byte	0x2
 808 03ab 23       		.byte	0x23
 809 03ac 0C       		.uleb128 0xc
 810 03ad 00       		.byte	0
 811 03ae 04       		.uleb128 0x4
 812 03af FB000000 		.4byte	.LASF56
 813 03b3 05       		.byte	0x5
 814 03b4 E6       		.byte	0xe6
 815 03b5 6D030000 		.4byte	0x36d
 816 03b9 0E       		.uleb128 0xe
 817 03ba 04       		.byte	0x4
 818 03bb BF030000 		.4byte	0x3bf
 819 03bf 11       		.uleb128 0x11
 820 03c0 AE030000 		.4byte	0x3ae
 821 03c4 0E       		.uleb128 0xe
 822 03c5 04       		.byte	0x4
 823 03c6 8C020000 		.4byte	0x28c
 824 03ca 12       		.uleb128 0x12
 825 03cb 01       		.byte	0x1
 826 03cc 9C000000 		.4byte	.LASF65
 827 03d0 01       		.byte	0x1
 828 03d1 44       		.byte	0x44
 829 03d2 01       		.byte	0x1
 830 03d3 00000000 		.4byte	.LFB117
 831 03d7 04000000 		.4byte	.LFE117
 832 03db 02       		.byte	0x2
 833 03dc 7D       		.byte	0x7d
 834 03dd 00       		.sleb128 0
 835 03de 13       		.uleb128 0x13
 836 03df 01       		.byte	0x1
 837 03e0 84020000 		.4byte	.LASF57
 838 03e4 01       		.byte	0x1
 839 03e5 50       		.byte	0x50
 840 03e6 01       		.byte	0x1
 841 03e7 00000000 		.4byte	.LFB118
 842 03eb 0A000000 		.4byte	.LFE118
 843 03ef 02       		.byte	0x2
 844 03f0 7D       		.byte	0x7d
 845 03f1 00       		.sleb128 0
 846 03f2 04040000 		.4byte	0x404
 847 03f6 14       		.uleb128 0x14
 848 03f7 31000000 		.4byte	.LASF59
 849 03fb 01       		.byte	0x1
ARM GAS  /tmp/ccHi0dFV.s 			page 16


 850 03fc 50       		.byte	0x50
 851 03fd 3C030000 		.4byte	0x33c
 852 0401 01       		.byte	0x1
 853 0402 50       		.byte	0x50
 854 0403 00       		.byte	0
 855 0404 15       		.uleb128 0x15
 856 0405 01       		.byte	0x1
 857 0406 05010000 		.4byte	.LASF58
 858 040a 01       		.byte	0x1
 859 040b 5E       		.byte	0x5e
 860 040c 01       		.byte	0x1
 861 040d 00000000 		.4byte	.LFB119
 862 0411 1C000000 		.4byte	.LFE119
 863 0415 00000000 		.4byte	.LLST0
 864 0419 6E040000 		.4byte	0x46e
 865 041d 16       		.uleb128 0x16
 866 041e 31000000 		.4byte	.LASF59
 867 0422 01       		.byte	0x1
 868 0423 5E       		.byte	0x5e
 869 0424 3C030000 		.4byte	0x33c
 870 0428 20000000 		.4byte	.LLST1
 871 042c 16       		.uleb128 0x16
 872 042d 45000000 		.4byte	.LASF45
 873 0431 01       		.byte	0x1
 874 0432 5E       		.byte	0x5e
 875 0433 B9030000 		.4byte	0x3b9
 876 0437 3E000000 		.4byte	.LLST2
 877 043b 17       		.uleb128 0x17
 878 043c 00000000 		.4byte	.Ldebug_ranges0+0
 879 0440 54040000 		.4byte	0x454
 880 0444 18       		.uleb128 0x18
 881 0445 746D7000 		.ascii	"tmp\000"
 882 0449 01       		.byte	0x1
 883 044a 62       		.byte	0x62
 884 044b 6C000000 		.4byte	0x6c
 885 044f 51000000 		.4byte	.LLST3
 886 0453 00       		.byte	0
 887 0454 19       		.uleb128 0x19
 888 0455 14000000 		.4byte	.LBB4
 889 0459 1A000000 		.4byte	.LBE4
 890 045d 18       		.uleb128 0x18
 891 045e 746D7000 		.ascii	"tmp\000"
 892 0462 01       		.byte	0x1
 893 0463 68       		.byte	0x68
 894 0464 6C000000 		.4byte	0x6c
 895 0468 64000000 		.4byte	.LLST4
 896 046c 00       		.byte	0
 897 046d 00       		.byte	0
 898 046e 15       		.uleb128 0x15
 899 046f 01       		.byte	0x1
 900 0470 00000000 		.4byte	.LASF60
 901 0474 01       		.byte	0x1
 902 0475 72       		.byte	0x72
 903 0476 01       		.byte	0x1
 904 0477 00000000 		.4byte	.LFB120
 905 047b 1A000000 		.4byte	.LFE120
 906 047f 77000000 		.4byte	.LLST5
ARM GAS  /tmp/ccHi0dFV.s 			page 17


 907 0483 C9040000 		.4byte	0x4c9
 908 0487 16       		.uleb128 0x16
 909 0488 31000000 		.4byte	.LASF59
 910 048c 01       		.byte	0x1
 911 048d 72       		.byte	0x72
 912 048e 3C030000 		.4byte	0x33c
 913 0492 97000000 		.4byte	.LLST6
 914 0496 17       		.uleb128 0x17
 915 0497 18000000 		.4byte	.Ldebug_ranges0+0x18
 916 049b AF040000 		.4byte	0x4af
 917 049f 18       		.uleb128 0x18
 918 04a0 746D7000 		.ascii	"tmp\000"
 919 04a4 01       		.byte	0x1
 920 04a5 76       		.byte	0x76
 921 04a6 6C000000 		.4byte	0x6c
 922 04aa B5000000 		.4byte	.LLST7
 923 04ae 00       		.byte	0
 924 04af 19       		.uleb128 0x19
 925 04b0 12000000 		.4byte	.LBB7
 926 04b4 18000000 		.4byte	.LBE7
 927 04b8 18       		.uleb128 0x18
 928 04b9 746D7000 		.ascii	"tmp\000"
 929 04bd 01       		.byte	0x1
 930 04be 7B       		.byte	0x7b
 931 04bf 6C000000 		.4byte	0x6c
 932 04c3 C8000000 		.4byte	.LLST8
 933 04c7 00       		.byte	0
 934 04c8 00       		.byte	0
 935 04c9 15       		.uleb128 0x15
 936 04ca 01       		.byte	0x1
 937 04cb 0E010000 		.4byte	.LASF61
 938 04cf 01       		.byte	0x1
 939 04d0 85       		.byte	0x85
 940 04d1 01       		.byte	0x1
 941 04d2 00000000 		.4byte	.LFB121
 942 04d6 1A000000 		.4byte	.LFE121
 943 04da DB000000 		.4byte	.LLST9
 944 04de 24050000 		.4byte	0x524
 945 04e2 16       		.uleb128 0x16
 946 04e3 31000000 		.4byte	.LASF59
 947 04e7 01       		.byte	0x1
 948 04e8 85       		.byte	0x85
 949 04e9 3C030000 		.4byte	0x33c
 950 04ed FB000000 		.4byte	.LLST10
 951 04f1 17       		.uleb128 0x17
 952 04f2 30000000 		.4byte	.Ldebug_ranges0+0x30
 953 04f6 0A050000 		.4byte	0x50a
 954 04fa 18       		.uleb128 0x18
 955 04fb 746D7000 		.ascii	"tmp\000"
 956 04ff 01       		.byte	0x1
 957 0500 89       		.byte	0x89
 958 0501 6C000000 		.4byte	0x6c
 959 0505 19010000 		.4byte	.LLST11
 960 0509 00       		.byte	0
 961 050a 19       		.uleb128 0x19
 962 050b 12000000 		.4byte	.LBB10
 963 050f 18000000 		.4byte	.LBE10
ARM GAS  /tmp/ccHi0dFV.s 			page 18


 964 0513 18       		.uleb128 0x18
 965 0514 746D7000 		.ascii	"tmp\000"
 966 0518 01       		.byte	0x1
 967 0519 8D       		.byte	0x8d
 968 051a 6C000000 		.4byte	0x6c
 969 051e 2C010000 		.4byte	.LLST12
 970 0522 00       		.byte	0
 971 0523 00       		.byte	0
 972 0524 15       		.uleb128 0x15
 973 0525 01       		.byte	0x1
 974 0526 0E020000 		.4byte	.LASF62
 975 052a 01       		.byte	0x1
 976 052b 97       		.byte	0x97
 977 052c 01       		.byte	0x1
 978 052d 00000000 		.4byte	.LFB122
 979 0531 1A000000 		.4byte	.LFE122
 980 0535 3F010000 		.4byte	.LLST13
 981 0539 7F050000 		.4byte	0x57f
 982 053d 16       		.uleb128 0x16
 983 053e 31000000 		.4byte	.LASF59
 984 0542 01       		.byte	0x1
 985 0543 97       		.byte	0x97
 986 0544 3C030000 		.4byte	0x33c
 987 0548 5F010000 		.4byte	.LLST14
 988 054c 17       		.uleb128 0x17
 989 054d 48000000 		.4byte	.Ldebug_ranges0+0x48
 990 0551 65050000 		.4byte	0x565
 991 0555 18       		.uleb128 0x18
 992 0556 746D7000 		.ascii	"tmp\000"
 993 055a 01       		.byte	0x1
 994 055b 9B       		.byte	0x9b
 995 055c 6C000000 		.4byte	0x6c
 996 0560 7D010000 		.4byte	.LLST15
 997 0564 00       		.byte	0
 998 0565 19       		.uleb128 0x19
 999 0566 12000000 		.4byte	.LBB13
 1000 056a 18000000 		.4byte	.LBE13
 1001 056e 18       		.uleb128 0x18
 1002 056f 746D7000 		.ascii	"tmp\000"
 1003 0573 01       		.byte	0x1
 1004 0574 A1       		.byte	0xa1
 1005 0575 6C000000 		.4byte	0x6c
 1006 0579 90010000 		.4byte	.LLST16
 1007 057d 00       		.byte	0
 1008 057e 00       		.byte	0
 1009 057f 1A       		.uleb128 0x1a
 1010 0580 92020000 		.4byte	.LASF66
 1011 0584 06       		.byte	0x6
 1012 0585 1A05     		.2byte	0x51a
 1013 0587 AD000000 		.4byte	0xad
 1014 058b 01       		.byte	0x1
 1015 058c 01       		.byte	0x1
 1016 058d 00       		.byte	0
 1017              		.section	.debug_abbrev,"",%progbits
 1018              	.Ldebug_abbrev0:
 1019 0000 01       		.uleb128 0x1
 1020 0001 11       		.uleb128 0x11
ARM GAS  /tmp/ccHi0dFV.s 			page 19


 1021 0002 01       		.byte	0x1
 1022 0003 25       		.uleb128 0x25
 1023 0004 0E       		.uleb128 0xe
 1024 0005 13       		.uleb128 0x13
 1025 0006 0B       		.uleb128 0xb
 1026 0007 03       		.uleb128 0x3
 1027 0008 0E       		.uleb128 0xe
 1028 0009 11       		.uleb128 0x11
 1029 000a 01       		.uleb128 0x1
 1030 000b 52       		.uleb128 0x52
 1031 000c 01       		.uleb128 0x1
 1032 000d 55       		.uleb128 0x55
 1033 000e 06       		.uleb128 0x6
 1034 000f 10       		.uleb128 0x10
 1035 0010 06       		.uleb128 0x6
 1036 0011 00       		.byte	0
 1037 0012 00       		.byte	0
 1038 0013 02       		.uleb128 0x2
 1039 0014 24       		.uleb128 0x24
 1040 0015 00       		.byte	0
 1041 0016 0B       		.uleb128 0xb
 1042 0017 0B       		.uleb128 0xb
 1043 0018 3E       		.uleb128 0x3e
 1044 0019 0B       		.uleb128 0xb
 1045 001a 03       		.uleb128 0x3
 1046 001b 08       		.uleb128 0x8
 1047 001c 00       		.byte	0
 1048 001d 00       		.byte	0
 1049 001e 03       		.uleb128 0x3
 1050 001f 24       		.uleb128 0x24
 1051 0020 00       		.byte	0
 1052 0021 0B       		.uleb128 0xb
 1053 0022 0B       		.uleb128 0xb
 1054 0023 3E       		.uleb128 0x3e
 1055 0024 0B       		.uleb128 0xb
 1056 0025 03       		.uleb128 0x3
 1057 0026 0E       		.uleb128 0xe
 1058 0027 00       		.byte	0
 1059 0028 00       		.byte	0
 1060 0029 04       		.uleb128 0x4
 1061 002a 16       		.uleb128 0x16
 1062 002b 00       		.byte	0
 1063 002c 03       		.uleb128 0x3
 1064 002d 0E       		.uleb128 0xe
 1065 002e 3A       		.uleb128 0x3a
 1066 002f 0B       		.uleb128 0xb
 1067 0030 3B       		.uleb128 0x3b
 1068 0031 0B       		.uleb128 0xb
 1069 0032 49       		.uleb128 0x49
 1070 0033 13       		.uleb128 0x13
 1071 0034 00       		.byte	0
 1072 0035 00       		.byte	0
 1073 0036 05       		.uleb128 0x5
 1074 0037 35       		.uleb128 0x35
 1075 0038 00       		.byte	0
 1076 0039 49       		.uleb128 0x49
 1077 003a 13       		.uleb128 0x13
ARM GAS  /tmp/ccHi0dFV.s 			page 20


 1078 003b 00       		.byte	0
 1079 003c 00       		.byte	0
 1080 003d 06       		.uleb128 0x6
 1081 003e 01       		.uleb128 0x1
 1082 003f 01       		.byte	0x1
 1083 0040 49       		.uleb128 0x49
 1084 0041 13       		.uleb128 0x13
 1085 0042 01       		.uleb128 0x1
 1086 0043 13       		.uleb128 0x13
 1087 0044 00       		.byte	0
 1088 0045 00       		.byte	0
 1089 0046 07       		.uleb128 0x7
 1090 0047 21       		.uleb128 0x21
 1091 0048 00       		.byte	0
 1092 0049 49       		.uleb128 0x49
 1093 004a 13       		.uleb128 0x13
 1094 004b 2F       		.uleb128 0x2f
 1095 004c 0B       		.uleb128 0xb
 1096 004d 00       		.byte	0
 1097 004e 00       		.byte	0
 1098 004f 08       		.uleb128 0x8
 1099 0050 13       		.uleb128 0x13
 1100 0051 01       		.byte	0x1
 1101 0052 0B       		.uleb128 0xb
 1102 0053 0B       		.uleb128 0xb
 1103 0054 3A       		.uleb128 0x3a
 1104 0055 0B       		.uleb128 0xb
 1105 0056 3B       		.uleb128 0x3b
 1106 0057 0B       		.uleb128 0xb
 1107 0058 01       		.uleb128 0x1
 1108 0059 13       		.uleb128 0x13
 1109 005a 00       		.byte	0
 1110 005b 00       		.byte	0
 1111 005c 09       		.uleb128 0x9
 1112 005d 0D       		.uleb128 0xd
 1113 005e 00       		.byte	0
 1114 005f 03       		.uleb128 0x3
 1115 0060 08       		.uleb128 0x8
 1116 0061 3A       		.uleb128 0x3a
 1117 0062 0B       		.uleb128 0xb
 1118 0063 3B       		.uleb128 0x3b
 1119 0064 0B       		.uleb128 0xb
 1120 0065 49       		.uleb128 0x49
 1121 0066 13       		.uleb128 0x13
 1122 0067 38       		.uleb128 0x38
 1123 0068 0A       		.uleb128 0xa
 1124 0069 00       		.byte	0
 1125 006a 00       		.byte	0
 1126 006b 0A       		.uleb128 0xa
 1127 006c 0D       		.uleb128 0xd
 1128 006d 00       		.byte	0
 1129 006e 03       		.uleb128 0x3
 1130 006f 0E       		.uleb128 0xe
 1131 0070 3A       		.uleb128 0x3a
 1132 0071 0B       		.uleb128 0xb
 1133 0072 3B       		.uleb128 0x3b
 1134 0073 0B       		.uleb128 0xb
ARM GAS  /tmp/ccHi0dFV.s 			page 21


 1135 0074 49       		.uleb128 0x49
 1136 0075 13       		.uleb128 0x13
 1137 0076 38       		.uleb128 0x38
 1138 0077 0A       		.uleb128 0xa
 1139 0078 00       		.byte	0
 1140 0079 00       		.byte	0
 1141 007a 0B       		.uleb128 0xb
 1142 007b 04       		.uleb128 0x4
 1143 007c 01       		.byte	0x1
 1144 007d 0B       		.uleb128 0xb
 1145 007e 0B       		.uleb128 0xb
 1146 007f 3A       		.uleb128 0x3a
 1147 0080 0B       		.uleb128 0xb
 1148 0081 3B       		.uleb128 0x3b
 1149 0082 0B       		.uleb128 0xb
 1150 0083 01       		.uleb128 0x1
 1151 0084 13       		.uleb128 0x13
 1152 0085 00       		.byte	0
 1153 0086 00       		.byte	0
 1154 0087 0C       		.uleb128 0xc
 1155 0088 28       		.uleb128 0x28
 1156 0089 00       		.byte	0
 1157 008a 03       		.uleb128 0x3
 1158 008b 0E       		.uleb128 0xe
 1159 008c 1C       		.uleb128 0x1c
 1160 008d 0D       		.uleb128 0xd
 1161 008e 00       		.byte	0
 1162 008f 00       		.byte	0
 1163 0090 0D       		.uleb128 0xd
 1164 0091 13       		.uleb128 0x13
 1165 0092 01       		.byte	0x1
 1166 0093 03       		.uleb128 0x3
 1167 0094 0E       		.uleb128 0xe
 1168 0095 0B       		.uleb128 0xb
 1169 0096 0B       		.uleb128 0xb
 1170 0097 3A       		.uleb128 0x3a
 1171 0098 0B       		.uleb128 0xb
 1172 0099 3B       		.uleb128 0x3b
 1173 009a 0B       		.uleb128 0xb
 1174 009b 01       		.uleb128 0x1
 1175 009c 13       		.uleb128 0x13
 1176 009d 00       		.byte	0
 1177 009e 00       		.byte	0
 1178 009f 0E       		.uleb128 0xe
 1179 00a0 0F       		.uleb128 0xf
 1180 00a1 00       		.byte	0
 1181 00a2 0B       		.uleb128 0xb
 1182 00a3 0B       		.uleb128 0xb
 1183 00a4 49       		.uleb128 0x49
 1184 00a5 13       		.uleb128 0x13
 1185 00a6 00       		.byte	0
 1186 00a7 00       		.byte	0
 1187 00a8 0F       		.uleb128 0xf
 1188 00a9 15       		.uleb128 0x15
 1189 00aa 01       		.byte	0x1
 1190 00ab 27       		.uleb128 0x27
 1191 00ac 0C       		.uleb128 0xc
ARM GAS  /tmp/ccHi0dFV.s 			page 22


 1192 00ad 01       		.uleb128 0x1
 1193 00ae 13       		.uleb128 0x13
 1194 00af 00       		.byte	0
 1195 00b0 00       		.byte	0
 1196 00b1 10       		.uleb128 0x10
 1197 00b2 05       		.uleb128 0x5
 1198 00b3 00       		.byte	0
 1199 00b4 49       		.uleb128 0x49
 1200 00b5 13       		.uleb128 0x13
 1201 00b6 00       		.byte	0
 1202 00b7 00       		.byte	0
 1203 00b8 11       		.uleb128 0x11
 1204 00b9 26       		.uleb128 0x26
 1205 00ba 00       		.byte	0
 1206 00bb 49       		.uleb128 0x49
 1207 00bc 13       		.uleb128 0x13
 1208 00bd 00       		.byte	0
 1209 00be 00       		.byte	0
 1210 00bf 12       		.uleb128 0x12
 1211 00c0 2E       		.uleb128 0x2e
 1212 00c1 00       		.byte	0
 1213 00c2 3F       		.uleb128 0x3f
 1214 00c3 0C       		.uleb128 0xc
 1215 00c4 03       		.uleb128 0x3
 1216 00c5 0E       		.uleb128 0xe
 1217 00c6 3A       		.uleb128 0x3a
 1218 00c7 0B       		.uleb128 0xb
 1219 00c8 3B       		.uleb128 0x3b
 1220 00c9 0B       		.uleb128 0xb
 1221 00ca 27       		.uleb128 0x27
 1222 00cb 0C       		.uleb128 0xc
 1223 00cc 11       		.uleb128 0x11
 1224 00cd 01       		.uleb128 0x1
 1225 00ce 12       		.uleb128 0x12
 1226 00cf 01       		.uleb128 0x1
 1227 00d0 40       		.uleb128 0x40
 1228 00d1 0A       		.uleb128 0xa
 1229 00d2 00       		.byte	0
 1230 00d3 00       		.byte	0
 1231 00d4 13       		.uleb128 0x13
 1232 00d5 2E       		.uleb128 0x2e
 1233 00d6 01       		.byte	0x1
 1234 00d7 3F       		.uleb128 0x3f
 1235 00d8 0C       		.uleb128 0xc
 1236 00d9 03       		.uleb128 0x3
 1237 00da 0E       		.uleb128 0xe
 1238 00db 3A       		.uleb128 0x3a
 1239 00dc 0B       		.uleb128 0xb
 1240 00dd 3B       		.uleb128 0x3b
 1241 00de 0B       		.uleb128 0xb
 1242 00df 27       		.uleb128 0x27
 1243 00e0 0C       		.uleb128 0xc
 1244 00e1 11       		.uleb128 0x11
 1245 00e2 01       		.uleb128 0x1
 1246 00e3 12       		.uleb128 0x12
 1247 00e4 01       		.uleb128 0x1
 1248 00e5 40       		.uleb128 0x40
ARM GAS  /tmp/ccHi0dFV.s 			page 23


 1249 00e6 0A       		.uleb128 0xa
 1250 00e7 01       		.uleb128 0x1
 1251 00e8 13       		.uleb128 0x13
 1252 00e9 00       		.byte	0
 1253 00ea 00       		.byte	0
 1254 00eb 14       		.uleb128 0x14
 1255 00ec 05       		.uleb128 0x5
 1256 00ed 00       		.byte	0
 1257 00ee 03       		.uleb128 0x3
 1258 00ef 0E       		.uleb128 0xe
 1259 00f0 3A       		.uleb128 0x3a
 1260 00f1 0B       		.uleb128 0xb
 1261 00f2 3B       		.uleb128 0x3b
 1262 00f3 0B       		.uleb128 0xb
 1263 00f4 49       		.uleb128 0x49
 1264 00f5 13       		.uleb128 0x13
 1265 00f6 02       		.uleb128 0x2
 1266 00f7 0A       		.uleb128 0xa
 1267 00f8 00       		.byte	0
 1268 00f9 00       		.byte	0
 1269 00fa 15       		.uleb128 0x15
 1270 00fb 2E       		.uleb128 0x2e
 1271 00fc 01       		.byte	0x1
 1272 00fd 3F       		.uleb128 0x3f
 1273 00fe 0C       		.uleb128 0xc
 1274 00ff 03       		.uleb128 0x3
 1275 0100 0E       		.uleb128 0xe
 1276 0101 3A       		.uleb128 0x3a
 1277 0102 0B       		.uleb128 0xb
 1278 0103 3B       		.uleb128 0x3b
 1279 0104 0B       		.uleb128 0xb
 1280 0105 27       		.uleb128 0x27
 1281 0106 0C       		.uleb128 0xc
 1282 0107 11       		.uleb128 0x11
 1283 0108 01       		.uleb128 0x1
 1284 0109 12       		.uleb128 0x12
 1285 010a 01       		.uleb128 0x1
 1286 010b 40       		.uleb128 0x40
 1287 010c 06       		.uleb128 0x6
 1288 010d 01       		.uleb128 0x1
 1289 010e 13       		.uleb128 0x13
 1290 010f 00       		.byte	0
 1291 0110 00       		.byte	0
 1292 0111 16       		.uleb128 0x16
 1293 0112 05       		.uleb128 0x5
 1294 0113 00       		.byte	0
 1295 0114 03       		.uleb128 0x3
 1296 0115 0E       		.uleb128 0xe
 1297 0116 3A       		.uleb128 0x3a
 1298 0117 0B       		.uleb128 0xb
 1299 0118 3B       		.uleb128 0x3b
 1300 0119 0B       		.uleb128 0xb
 1301 011a 49       		.uleb128 0x49
 1302 011b 13       		.uleb128 0x13
 1303 011c 02       		.uleb128 0x2
 1304 011d 06       		.uleb128 0x6
 1305 011e 00       		.byte	0
ARM GAS  /tmp/ccHi0dFV.s 			page 24


 1306 011f 00       		.byte	0
 1307 0120 17       		.uleb128 0x17
 1308 0121 0B       		.uleb128 0xb
 1309 0122 01       		.byte	0x1
 1310 0123 55       		.uleb128 0x55
 1311 0124 06       		.uleb128 0x6
 1312 0125 01       		.uleb128 0x1
 1313 0126 13       		.uleb128 0x13
 1314 0127 00       		.byte	0
 1315 0128 00       		.byte	0
 1316 0129 18       		.uleb128 0x18
 1317 012a 34       		.uleb128 0x34
 1318 012b 00       		.byte	0
 1319 012c 03       		.uleb128 0x3
 1320 012d 08       		.uleb128 0x8
 1321 012e 3A       		.uleb128 0x3a
 1322 012f 0B       		.uleb128 0xb
 1323 0130 3B       		.uleb128 0x3b
 1324 0131 0B       		.uleb128 0xb
 1325 0132 49       		.uleb128 0x49
 1326 0133 13       		.uleb128 0x13
 1327 0134 02       		.uleb128 0x2
 1328 0135 06       		.uleb128 0x6
 1329 0136 00       		.byte	0
 1330 0137 00       		.byte	0
 1331 0138 19       		.uleb128 0x19
 1332 0139 0B       		.uleb128 0xb
 1333 013a 01       		.byte	0x1
 1334 013b 11       		.uleb128 0x11
 1335 013c 01       		.uleb128 0x1
 1336 013d 12       		.uleb128 0x12
 1337 013e 01       		.uleb128 0x1
 1338 013f 00       		.byte	0
 1339 0140 00       		.byte	0
 1340 0141 1A       		.uleb128 0x1a
 1341 0142 34       		.uleb128 0x34
 1342 0143 00       		.byte	0
 1343 0144 03       		.uleb128 0x3
 1344 0145 0E       		.uleb128 0xe
 1345 0146 3A       		.uleb128 0x3a
 1346 0147 0B       		.uleb128 0xb
 1347 0148 3B       		.uleb128 0x3b
 1348 0149 05       		.uleb128 0x5
 1349 014a 49       		.uleb128 0x49
 1350 014b 13       		.uleb128 0x13
 1351 014c 3F       		.uleb128 0x3f
 1352 014d 0C       		.uleb128 0xc
 1353 014e 3C       		.uleb128 0x3c
 1354 014f 0C       		.uleb128 0xc
 1355 0150 00       		.byte	0
 1356 0151 00       		.byte	0
 1357 0152 00       		.byte	0
 1358              		.section	.debug_loc,"",%progbits
 1359              	.Ldebug_loc0:
 1360              	.LLST0:
 1361 0000 00000000 		.4byte	.LFB119
 1362 0004 02000000 		.4byte	.LCFI0
ARM GAS  /tmp/ccHi0dFV.s 			page 25


 1363 0008 0200     		.2byte	0x2
 1364 000a 7D       		.byte	0x7d
 1365 000b 00       		.sleb128 0
 1366 000c 02000000 		.4byte	.LCFI0
 1367 0010 1C000000 		.4byte	.LFE119
 1368 0014 0200     		.2byte	0x2
 1369 0016 7D       		.byte	0x7d
 1370 0017 08       		.sleb128 8
 1371 0018 00000000 		.4byte	0
 1372 001c 00000000 		.4byte	0
 1373              	.LLST1:
 1374 0020 00000000 		.4byte	.LVL1
 1375 0024 0F000000 		.4byte	.LVL4-1
 1376 0028 0100     		.2byte	0x1
 1377 002a 50       		.byte	0x50
 1378 002b 0F000000 		.4byte	.LVL4-1
 1379 002f 1C000000 		.4byte	.LFE119
 1380 0033 0100     		.2byte	0x1
 1381 0035 54       		.byte	0x54
 1382 0036 00000000 		.4byte	0
 1383 003a 00000000 		.4byte	0
 1384              	.LLST2:
 1385 003e 00000000 		.4byte	.LVL1
 1386 0042 0F000000 		.4byte	.LVL4-1
 1387 0046 0100     		.2byte	0x1
 1388 0048 51       		.byte	0x51
 1389 0049 00000000 		.4byte	0
 1390 004d 00000000 		.4byte	0
 1391              	.LLST3:
 1392 0051 0A000000 		.4byte	.LVL3
 1393 0055 0F000000 		.4byte	.LVL4-1
 1394 0059 0100     		.2byte	0x1
 1395 005b 53       		.byte	0x53
 1396 005c 00000000 		.4byte	0
 1397 0060 00000000 		.4byte	0
 1398              	.LLST4:
 1399 0064 1A000000 		.4byte	.LVL6
 1400 0068 1C000000 		.4byte	.LFE119
 1401 006c 0100     		.2byte	0x1
 1402 006e 53       		.byte	0x53
 1403 006f 00000000 		.4byte	0
 1404 0073 00000000 		.4byte	0
 1405              	.LLST5:
 1406 0077 00000000 		.4byte	.LFB120
 1407 007b 02000000 		.4byte	.LCFI1
 1408 007f 0200     		.2byte	0x2
 1409 0081 7D       		.byte	0x7d
 1410 0082 00       		.sleb128 0
 1411 0083 02000000 		.4byte	.LCFI1
 1412 0087 1A000000 		.4byte	.LFE120
 1413 008b 0200     		.2byte	0x2
 1414 008d 7D       		.byte	0x7d
 1415 008e 08       		.sleb128 8
 1416 008f 00000000 		.4byte	0
 1417 0093 00000000 		.4byte	0
 1418              	.LLST6:
 1419 0097 00000000 		.4byte	.LVL7
ARM GAS  /tmp/ccHi0dFV.s 			page 26


 1420 009b 0D000000 		.4byte	.LVL10-1
 1421 009f 0100     		.2byte	0x1
 1422 00a1 50       		.byte	0x50
 1423 00a2 0D000000 		.4byte	.LVL10-1
 1424 00a6 1A000000 		.4byte	.LFE120
 1425 00aa 0100     		.2byte	0x1
 1426 00ac 54       		.byte	0x54
 1427 00ad 00000000 		.4byte	0
 1428 00b1 00000000 		.4byte	0
 1429              	.LLST7:
 1430 00b5 0A000000 		.4byte	.LVL9
 1431 00b9 0D000000 		.4byte	.LVL10-1
 1432 00bd 0100     		.2byte	0x1
 1433 00bf 53       		.byte	0x53
 1434 00c0 00000000 		.4byte	0
 1435 00c4 00000000 		.4byte	0
 1436              	.LLST8:
 1437 00c8 18000000 		.4byte	.LVL12
 1438 00cc 1A000000 		.4byte	.LFE120
 1439 00d0 0100     		.2byte	0x1
 1440 00d2 53       		.byte	0x53
 1441 00d3 00000000 		.4byte	0
 1442 00d7 00000000 		.4byte	0
 1443              	.LLST9:
 1444 00db 00000000 		.4byte	.LFB121
 1445 00df 02000000 		.4byte	.LCFI2
 1446 00e3 0200     		.2byte	0x2
 1447 00e5 7D       		.byte	0x7d
 1448 00e6 00       		.sleb128 0
 1449 00e7 02000000 		.4byte	.LCFI2
 1450 00eb 1A000000 		.4byte	.LFE121
 1451 00ef 0200     		.2byte	0x2
 1452 00f1 7D       		.byte	0x7d
 1453 00f2 08       		.sleb128 8
 1454 00f3 00000000 		.4byte	0
 1455 00f7 00000000 		.4byte	0
 1456              	.LLST10:
 1457 00fb 00000000 		.4byte	.LVL13
 1458 00ff 0D000000 		.4byte	.LVL16-1
 1459 0103 0100     		.2byte	0x1
 1460 0105 50       		.byte	0x50
 1461 0106 0D000000 		.4byte	.LVL16-1
 1462 010a 1A000000 		.4byte	.LFE121
 1463 010e 0100     		.2byte	0x1
 1464 0110 54       		.byte	0x54
 1465 0111 00000000 		.4byte	0
 1466 0115 00000000 		.4byte	0
 1467              	.LLST11:
 1468 0119 0A000000 		.4byte	.LVL15
 1469 011d 0D000000 		.4byte	.LVL16-1
 1470 0121 0100     		.2byte	0x1
 1471 0123 53       		.byte	0x53
 1472 0124 00000000 		.4byte	0
 1473 0128 00000000 		.4byte	0
 1474              	.LLST12:
 1475 012c 18000000 		.4byte	.LVL18
 1476 0130 1A000000 		.4byte	.LFE121
ARM GAS  /tmp/ccHi0dFV.s 			page 27


 1477 0134 0100     		.2byte	0x1
 1478 0136 53       		.byte	0x53
 1479 0137 00000000 		.4byte	0
 1480 013b 00000000 		.4byte	0
 1481              	.LLST13:
 1482 013f 00000000 		.4byte	.LFB122
 1483 0143 02000000 		.4byte	.LCFI3
 1484 0147 0200     		.2byte	0x2
 1485 0149 7D       		.byte	0x7d
 1486 014a 00       		.sleb128 0
 1487 014b 02000000 		.4byte	.LCFI3
 1488 014f 1A000000 		.4byte	.LFE122
 1489 0153 0200     		.2byte	0x2
 1490 0155 7D       		.byte	0x7d
 1491 0156 08       		.sleb128 8
 1492 0157 00000000 		.4byte	0
 1493 015b 00000000 		.4byte	0
 1494              	.LLST14:
 1495 015f 00000000 		.4byte	.LVL19
 1496 0163 0D000000 		.4byte	.LVL22-1
 1497 0167 0100     		.2byte	0x1
 1498 0169 50       		.byte	0x50
 1499 016a 0D000000 		.4byte	.LVL22-1
 1500 016e 1A000000 		.4byte	.LFE122
 1501 0172 0100     		.2byte	0x1
 1502 0174 54       		.byte	0x54
 1503 0175 00000000 		.4byte	0
 1504 0179 00000000 		.4byte	0
 1505              	.LLST15:
 1506 017d 0A000000 		.4byte	.LVL21
 1507 0181 0D000000 		.4byte	.LVL22-1
 1508 0185 0100     		.2byte	0x1
 1509 0187 53       		.byte	0x53
 1510 0188 00000000 		.4byte	0
 1511 018c 00000000 		.4byte	0
 1512              	.LLST16:
 1513 0190 18000000 		.4byte	.LVL24
 1514 0194 1A000000 		.4byte	.LFE122
 1515 0198 0100     		.2byte	0x1
 1516 019a 53       		.byte	0x53
 1517 019b 00000000 		.4byte	0
 1518 019f 00000000 		.4byte	0
 1519              		.section	.debug_aranges,"",%progbits
 1520 0000 44000000 		.4byte	0x44
 1521 0004 0200     		.2byte	0x2
 1522 0006 00000000 		.4byte	.Ldebug_info0
 1523 000a 04       		.byte	0x4
 1524 000b 00       		.byte	0
 1525 000c 0000     		.2byte	0
 1526 000e 0000     		.2byte	0
 1527 0010 00000000 		.4byte	.LFB117
 1528 0014 04000000 		.4byte	.LFE117-.LFB117
 1529 0018 00000000 		.4byte	.LFB118
 1530 001c 0A000000 		.4byte	.LFE118-.LFB118
 1531 0020 00000000 		.4byte	.LFB119
 1532 0024 1C000000 		.4byte	.LFE119-.LFB119
 1533 0028 00000000 		.4byte	.LFB120
ARM GAS  /tmp/ccHi0dFV.s 			page 28


 1534 002c 1A000000 		.4byte	.LFE120-.LFB120
 1535 0030 00000000 		.4byte	.LFB121
 1536 0034 1A000000 		.4byte	.LFE121-.LFB121
 1537 0038 00000000 		.4byte	.LFB122
 1538 003c 1A000000 		.4byte	.LFE122-.LFB122
 1539 0040 00000000 		.4byte	0
 1540 0044 00000000 		.4byte	0
 1541              		.section	.debug_ranges,"",%progbits
 1542              	.Ldebug_ranges0:
 1543 0000 02000000 		.4byte	.LBB2
 1544 0004 04000000 		.4byte	.LBE2
 1545 0008 06000000 		.4byte	.LBB3
 1546 000c 0A000000 		.4byte	.LBE3
 1547 0010 00000000 		.4byte	0
 1548 0014 00000000 		.4byte	0
 1549 0018 02000000 		.4byte	.LBB5
 1550 001c 04000000 		.4byte	.LBE5
 1551 0020 06000000 		.4byte	.LBB6
 1552 0024 0A000000 		.4byte	.LBE6
 1553 0028 00000000 		.4byte	0
 1554 002c 00000000 		.4byte	0
 1555 0030 02000000 		.4byte	.LBB8
 1556 0034 04000000 		.4byte	.LBE8
 1557 0038 06000000 		.4byte	.LBB9
 1558 003c 0A000000 		.4byte	.LBE9
 1559 0040 00000000 		.4byte	0
 1560 0044 00000000 		.4byte	0
 1561 0048 02000000 		.4byte	.LBB11
 1562 004c 04000000 		.4byte	.LBE11
 1563 0050 06000000 		.4byte	.LBB12
 1564 0054 0A000000 		.4byte	.LBE12
 1565 0058 00000000 		.4byte	0
 1566 005c 00000000 		.4byte	0
 1567 0060 00000000 		.4byte	.LFB117
 1568 0064 04000000 		.4byte	.LFE117
 1569 0068 00000000 		.4byte	.LFB118
 1570 006c 0A000000 		.4byte	.LFE118
 1571 0070 00000000 		.4byte	.LFB119
 1572 0074 1C000000 		.4byte	.LFE119
 1573 0078 00000000 		.4byte	.LFB120
 1574 007c 1A000000 		.4byte	.LFE120
 1575 0080 00000000 		.4byte	.LFB121
 1576 0084 1A000000 		.4byte	.LFE121
 1577 0088 00000000 		.4byte	.LFB122
 1578 008c 1A000000 		.4byte	.LFE122
 1579 0090 00000000 		.4byte	0
 1580 0094 00000000 		.4byte	0
 1581              		.section	.debug_line,"",%progbits
 1582              	.Ldebug_line0:
 1583 0000 F1010000 		.section	.debug_str,"MS",%progbits,1
 1583      02006701 
 1583      00000201 
 1583      FB0E0D00 
 1583      01010101 
 1584              	.LASF60:
 1585 0000 69637553 		.ascii	"icuStop\000"
 1585      746F7000 
ARM GAS  /tmp/ccHi0dFV.s 			page 29


 1586              	.LASF25:
 1587 0008 43434552 		.ascii	"CCER\000"
 1587      00
 1588              	.LASF37:
 1589 000d 4943555F 		.ascii	"ICU_STOP\000"
 1589      53544F50 
 1589      00
 1590              	.LASF32:
 1591 0016 444D4152 		.ascii	"DMAR\000"
 1591      00
 1592              	.LASF44:
 1593 001b 73746174 		.ascii	"state\000"
 1593      6500
 1594              	.LASF23:
 1595 0021 43434D52 		.ascii	"CCMR2\000"
 1595      3200
 1596              	.LASF3:
 1597 0027 73686F72 		.ascii	"short int\000"
 1597      7420696E 
 1597      7400
 1598              	.LASF59:
 1599 0031 69637570 		.ascii	"icup\000"
 1599      00
 1600              	.LASF50:
 1601 0036 6963756D 		.ascii	"icumode_t\000"
 1601      6F64655F 
 1601      7400
 1602              	.LASF52:
 1603 0040 6D6F6465 		.ascii	"mode\000"
 1603      00
 1604              	.LASF45:
 1605 0045 636F6E66 		.ascii	"config\000"
 1605      696700
 1606              	.LASF13:
 1607 004c 5F726573 		.ascii	"_resvd0\000"
 1607      76643000 
 1608              	.LASF14:
 1609 0054 5F726573 		.ascii	"_resvd1\000"
 1609      76643100 
 1610              	.LASF16:
 1611 005c 5F726573 		.ascii	"_resvd2\000"
 1611      76643200 
 1612              	.LASF18:
 1613 0064 5F726573 		.ascii	"_resvd3\000"
 1613      76643300 
 1614              	.LASF19:
 1615 006c 5F726573 		.ascii	"_resvd4\000"
 1615      76643400 
 1616              	.LASF20:
 1617 0074 5F726573 		.ascii	"_resvd5\000"
 1617      76643500 
 1618              	.LASF22:
 1619 007c 5F726573 		.ascii	"_resvd6\000"
 1619      76643600 
 1620              	.LASF24:
 1621 0084 5F726573 		.ascii	"_resvd7\000"
 1621      76643700 
ARM GAS  /tmp/ccHi0dFV.s 			page 30


 1622              	.LASF26:
 1623 008c 5F726573 		.ascii	"_resvd8\000"
 1623      76643800 
 1624              	.LASF27:
 1625 0094 5F726573 		.ascii	"_resvd9\000"
 1625      76643900 
 1626              	.LASF65:
 1627 009c 69637549 		.ascii	"icuInit\000"
 1627      6E697400 
 1628              	.LASF54:
 1629 00a4 77696474 		.ascii	"width_cb\000"
 1629      685F6362 
 1629      00
 1630              	.LASF40:
 1631 00ad 4943555F 		.ascii	"ICU_ACTIVE\000"
 1631      41435449 
 1631      564500
 1632              	.LASF10:
 1633 00b8 6C6F6E67 		.ascii	"long long int\000"
 1633      206C6F6E 
 1633      6720696E 
 1633      7400
 1634              	.LASF38:
 1635 00c6 4943555F 		.ascii	"ICU_READY\000"
 1635      52454144 
 1635      5900
 1636              	.LASF7:
 1637 00d0 6C6F6E67 		.ascii	"long int\000"
 1637      20696E74 
 1637      00
 1638              	.LASF21:
 1639 00d9 43434D52 		.ascii	"CCMR1\000"
 1639      3100
 1640              	.LASF41:
 1641 00df 4943555F 		.ascii	"ICU_IDLE\000"
 1641      49444C45 
 1641      00
 1642              	.LASF15:
 1643 00e8 534D4352 		.ascii	"SMCR\000"
 1643      00
 1644              	.LASF2:
 1645 00ed 756E7369 		.ascii	"unsigned char\000"
 1645      676E6564 
 1645      20636861 
 1645      7200
 1646              	.LASF56:
 1647 00fb 49435543 		.ascii	"ICUConfig\000"
 1647      6F6E6669 
 1647      6700
 1648              	.LASF58:
 1649 0105 69637553 		.ascii	"icuStart\000"
 1649      74617274 
 1649      00
 1650              	.LASF61:
 1651 010e 69637545 		.ascii	"icuEnable\000"
 1651      6E61626C 
 1651      6500
ARM GAS  /tmp/ccHi0dFV.s 			page 31


 1652              	.LASF1:
 1653 0118 7369676E 		.ascii	"signed char\000"
 1653      65642063 
 1653      68617200 
 1654              	.LASF11:
 1655 0124 6C6F6E67 		.ascii	"long long unsigned int\000"
 1655      206C6F6E 
 1655      6720756E 
 1655      7369676E 
 1655      65642069 
 1656              	.LASF8:
 1657 013b 75696E74 		.ascii	"uint32_t\000"
 1657      33325F74 
 1657      00
 1658              	.LASF0:
 1659 0144 756E7369 		.ascii	"unsigned int\000"
 1659      676E6564 
 1659      20696E74 
 1659      00
 1660              	.LASF5:
 1661 0151 75696E74 		.ascii	"uint16_t\000"
 1661      31365F74 
 1661      00
 1662              	.LASF64:
 1663 015a 2F6F7074 		.ascii	"/opt/ChibiOS/ChibiOS_2.4.4/os/hal/src/icu.c\000"
 1663      2F436869 
 1663      62694F53 
 1663      2F436869 
 1663      62694F53 
 1664              	.LASF17:
 1665 0186 44494552 		.ascii	"DIER\000"
 1665      00
 1666              	.LASF51:
 1667 018b 69637566 		.ascii	"icufreq_t\000"
 1667      7265715F 
 1667      7400
 1668              	.LASF31:
 1669 0195 5F726573 		.ascii	"_resvd12\000"
 1669      76643132 
 1669      00
 1670              	.LASF33:
 1671 019e 5F726573 		.ascii	"_resvd13\000"
 1671      76643133 
 1671      00
 1672              	.LASF34:
 1673 01a7 5F726573 		.ascii	"_resvd14\000"
 1673      76643134 
 1673      00
 1674              	.LASF4:
 1675 01b0 73686F72 		.ascii	"short unsigned int\000"
 1675      7420756E 
 1675      7369676E 
 1675      65642069 
 1675      6E7400
 1676              	.LASF12:
 1677 01c3 63686172 		.ascii	"char\000"
 1677      00
ARM GAS  /tmp/ccHi0dFV.s 			page 32


 1678              	.LASF47:
 1679 01c8 69637563 		.ascii	"icucallback_t\000"
 1679      616C6C62 
 1679      61636B5F 
 1679      7400
 1680              	.LASF35:
 1681 01d6 73746D33 		.ascii	"stm32_tim_t\000"
 1681      325F7469 
 1681      6D5F7400 
 1682              	.LASF55:
 1683 01e2 70657269 		.ascii	"period_cb\000"
 1683      6F645F63 
 1683      6200
 1684              	.LASF29:
 1685 01ec 42445452 		.ascii	"BDTR\000"
 1685      00
 1686              	.LASF6:
 1687 01f1 696E7433 		.ascii	"int32_t\000"
 1687      325F7400 
 1688              	.LASF49:
 1689 01f9 4943555F 		.ascii	"ICU_INPUT_ACTIVE_LOW\000"
 1689      494E5055 
 1689      545F4143 
 1689      54495645 
 1689      5F4C4F57 
 1690              	.LASF62:
 1691 020e 69637544 		.ascii	"icuDisable\000"
 1691      69736162 
 1691      6C6500
 1692              	.LASF36:
 1693 0219 4943555F 		.ascii	"ICU_UNINIT\000"
 1693      554E494E 
 1693      495400
 1694              	.LASF48:
 1695 0224 4943555F 		.ascii	"ICU_INPUT_ACTIVE_HIGH\000"
 1695      494E5055 
 1695      545F4143 
 1695      54495645 
 1695      5F484947 
 1696              	.LASF9:
 1697 023a 6C6F6E67 		.ascii	"long unsigned int\000"
 1697      20756E73 
 1697      69676E65 
 1697      6420696E 
 1697      7400
 1698              	.LASF46:
 1699 024c 636C6F63 		.ascii	"clock\000"
 1699      6B00
 1700              	.LASF28:
 1701 0252 5F726573 		.ascii	"_resvd10\000"
 1701      76643130 
 1701      00
 1702              	.LASF30:
 1703 025b 5F726573 		.ascii	"_resvd11\000"
 1703      76643131 
 1703      00
 1704              	.LASF43:
ARM GAS  /tmp/ccHi0dFV.s 			page 33


 1705 0264 49435544 		.ascii	"ICUDriver\000"
 1705      72697665 
 1705      7200
 1706              	.LASF53:
 1707 026e 66726571 		.ascii	"frequency\000"
 1707      75656E63 
 1707      7900
 1708              	.LASF63:
 1709 0278 474E5520 		.ascii	"GNU C 4.6.3\000"
 1709      4320342E 
 1709      362E3300 
 1710              	.LASF57:
 1711 0284 6963754F 		.ascii	"icuObjectInit\000"
 1711      626A6563 
 1711      74496E69 
 1711      7400
 1712              	.LASF66:
 1713 0292 49544D5F 		.ascii	"ITM_RxBuffer\000"
 1713      52784275 
 1713      66666572 
 1713      00
 1714              	.LASF42:
 1715 029f 69637573 		.ascii	"icustate_t\000"
 1715      74617465 
 1715      5F7400
 1716              	.LASF39:
 1717 02aa 4943555F 		.ascii	"ICU_WAITING\000"
 1717      57414954 
 1717      494E4700 
 1718              		.ident	"GCC: (Sourcery CodeBench Lite 2012.03-56) 4.6.3"
ARM GAS  /tmp/ccHi0dFV.s 			page 34


DEFINED SYMBOLS
                            *ABS*:00000000 icu.c
     /tmp/ccHi0dFV.s:21     .text.icuInit:00000000 $t
     /tmp/ccHi0dFV.s:27     .text.icuInit:00000000 icuInit
     /tmp/ccHi0dFV.s:42     .text.icuObjectInit:00000000 $t
     /tmp/ccHi0dFV.s:48     .text.icuObjectInit:00000000 icuObjectInit
     /tmp/ccHi0dFV.s:70     .text.icuStart:00000000 $t
     /tmp/ccHi0dFV.s:76     .text.icuStart:00000000 icuStart
     /tmp/ccHi0dFV.s:127    .text.icuStop:00000000 $t
     /tmp/ccHi0dFV.s:133    .text.icuStop:00000000 icuStop
     /tmp/ccHi0dFV.s:182    .text.icuEnable:00000000 $t
     /tmp/ccHi0dFV.s:188    .text.icuEnable:00000000 icuEnable
     /tmp/ccHi0dFV.s:237    .text.icuDisable:00000000 $t
     /tmp/ccHi0dFV.s:243    .text.icuDisable:00000000 icuDisable
                     .debug_frame:00000010 $d

UNDEFINED SYMBOLS
icu_lld_init
icu_lld_start
icu_lld_stop
icu_lld_enable
icu_lld_disable
