ARM GAS  /tmp/ccHi0dFV.s 			page 1


   1              		.syntax unified
   2              		.cpu cortex-m4
   3              		.eabi_attribute 27, 3
   4              		.eabi_attribute 28, 1
   5              		.fpu fpv4-sp-d16
   6              		.eabi_attribute 20, 1
   7              		.eabi_attribute 21, 1
   8              		.eabi_attribute 23, 3
   9              		.eabi_attribute 24, 1
  10              		.eabi_attribute 25, 1
  11              		.eabi_attribute 26, 1
  12              		.eabi_attribute 30, 2
  13              		.eabi_attribute 34, 1
  14              		.eabi_attribute 18, 4
  15              		.thumb
  16              		.file	"icu.c"
  17              		.text
  18              	.Ltext0:
  19              		.cfi_sections	.debug_frame
  20              		.section	.text.icuInit,"ax",%progbits
  21              		.align	2
  22              		.p2align 4,,15
  23              		.global	icuInit
  24              		.thumb
  25              		.thumb_func
  26              		.type	icuInit, %function
  27              	icuInit:
  28              	.LFB117:
  29              		.file 1 "/opt/ChibiOS/ChibiOS_2.4.4/os/hal/src/icu.c"
  30              		.loc 1 68 0
  31              		.cfi_startproc
  32              		@ args = 0, pretend = 0, frame = 0
  33              		@ frame_needed = 0, uses_anonymous_args = 0
  34              		@ link register save eliminated.
  35              		.loc 1 71 0
  36              		.loc 1 70 0
  37 0000 FFF7FEBF 		b	icu_lld_init
  38              		.cfi_endproc
  39              	.LFE117:
  40              		.size	icuInit, .-icuInit
  41 0004 AFF30080 		.section	.text.icuObjectInit,"ax",%progbits
  41      AFF30080 
  41      AFF30080 
  42              		.align	2
  43              		.p2align 4,,15
  44              		.global	icuObjectInit
  45              		.thumb
  46              		.thumb_func
  47              		.type	icuObjectInit, %function
  48              	icuObjectInit:
  49              	.LFB118:
  50              		.loc 1 80 0
  51              		.cfi_startproc
  52              		@ args = 0, pretend = 0, frame = 0
  53              		@ frame_needed = 0, uses_anonymous_args = 0
  54              		@ link register save eliminated.
  55              	.LVL0:
ARM GAS  /tmp/ccHi0dFV.s 			page 2


  56              		.loc 1 82 0
  57 0000 0121     		movs	r1, #1
  58              		.loc 1 83 0
  59 0002 0023     		movs	r3, #0
  60              		.loc 1 82 0
  61 0004 0170     		strb	r1, [r0, #0]
  62              		.loc 1 83 0
  63 0006 4360     		str	r3, [r0, #4]
  64              		.loc 1 84 0
  65 0008 7047     		bx	lr
  66              		.cfi_endproc
  67              	.LFE118:
  68              		.size	icuObjectInit, .-icuObjectInit
  69 000a 00BFAFF3 		.section	.text.icuStart,"ax",%progbits
  69      0080
  70              		.align	2
  71              		.p2align 4,,15
  72              		.global	icuStart
  73              		.thumb
  74              		.thumb_func
  75              		.type	icuStart, %function
  76              	icuStart:
  77              	.LFB119:
  78              		.loc 1 94 0
  79              		.cfi_startproc
  80              		@ args = 0, pretend = 0, frame = 0
  81              		@ frame_needed = 0, uses_anonymous_args = 0
  82              	.LVL1:
  83 0000 10B5     		push	{r4, lr}
  84              	.LCFI0:
  85              		.cfi_def_cfa_offset 8
  86              		.cfi_offset 14, -4
  87              		.cfi_offset 4, -8
  88              	.LBB2:
  89              		.loc 1 98 0
  90 0002 2023     		movs	r3, #32
  91              	.LVL2:
  92              	.LBE2:
  93              		.loc 1 94 0
  94 0004 0446     		mov	r4, r0
  95              	.LBB3:
  96              		.loc 1 98 0
  97              	@ 98 "/opt/ChibiOS/ChibiOS_2.4.4/os/hal/src/icu.c" 1
  98 0006 83F31188 		msr     BASEPRI, r3
  99              	@ 0 "" 2
 100              	.LVL3:
 101              		.thumb
 102              	.LBE3:
 103              		.loc 1 101 0
 104 000a 4160     		str	r1, [r0, #4]
 105              		.loc 1 102 0
 106 000c FFF7FEFF 		bl	icu_lld_start
 107              	.LVL4:
 108              		.loc 1 103 0
 109 0010 0223     		movs	r3, #2
 110 0012 2370     		strb	r3, [r4, #0]
 111              	.LBB4:
ARM GAS  /tmp/ccHi0dFV.s 			page 3


 112              		.loc 1 104 0
 113 0014 0023     		movs	r3, #0
 114              	.LVL5:
 115              	@ 104 "/opt/ChibiOS/ChibiOS_2.4.4/os/hal/src/icu.c" 1
 116 0016 83F31188 		msr     BASEPRI, r3
 117              	@ 0 "" 2
 118              	.LVL6:
 119              		.thumb
 120              	.LBE4:
 121              		.loc 1 105 0
 122 001a 10BD     		pop	{r4, pc}
 123              		.cfi_endproc
 124              	.LFE119:
 125              		.size	icuStart, .-icuStart
 126 001c AFF30080 		.section	.text.icuStop,"ax",%progbits
 127              		.align	2
 128              		.p2align 4,,15
 129              		.global	icuStop
 130              		.thumb
 131              		.thumb_func
 132              		.type	icuStop, %function
 133              	icuStop:
 134              	.LFB120:
 135              		.loc 1 114 0
 136              		.cfi_startproc
 137              		@ args = 0, pretend = 0, frame = 0
 138              		@ frame_needed = 0, uses_anonymous_args = 0
 139              	.LVL7:
 140 0000 10B5     		push	{r4, lr}
 141              	.LCFI1:
 142              		.cfi_def_cfa_offset 8
 143              		.cfi_offset 14, -4
 144              		.cfi_offset 4, -8
 145              	.LBB5:
 146              		.loc 1 118 0
 147 0002 2023     		movs	r3, #32
 148              	.LVL8:
 149              	.LBE5:
 150              		.loc 1 114 0
 151 0004 0446     		mov	r4, r0
 152              	.LBB6:
 153              		.loc 1 118 0
 154              	@ 118 "/opt/ChibiOS/ChibiOS_2.4.4/os/hal/src/icu.c" 1
 155 0006 83F31188 		msr     BASEPRI, r3
 156              	@ 0 "" 2
 157              	.LVL9:
 158              		.thumb
 159              	.LBE6:
 160              		.loc 1 121 0
 161 000a FFF7FEFF 		bl	icu_lld_stop
 162              	.LVL10:
 163              		.loc 1 122 0
 164 000e 0123     		movs	r3, #1
 165 0010 2370     		strb	r3, [r4, #0]
 166              	.LBB7:
 167              		.loc 1 123 0
 168 0012 0023     		movs	r3, #0
ARM GAS  /tmp/ccHi0dFV.s 			page 4


 169              	.LVL11:
 170              	@ 123 "/opt/ChibiOS/ChibiOS_2.4.4/os/hal/src/icu.c" 1
 171 0014 83F31188 		msr     BASEPRI, r3
 172              	@ 0 "" 2
 173              	.LVL12:
 174              		.thumb
 175              	.LBE7:
 176              		.loc 1 124 0
 177 0018 10BD     		pop	{r4, pc}
 178              		.cfi_endproc
 179              	.LFE120:
 180              		.size	icuStop, .-icuStop
 181 001a 00BFAFF3 		.section	.text.icuEnable,"ax",%progbits
 181      0080
 182              		.align	2
 183              		.p2align 4,,15
 184              		.global	icuEnable
 185              		.thumb
 186              		.thumb_func
 187              		.type	icuEnable, %function
 188              	icuEnable:
 189              	.LFB121:
 190              		.loc 1 133 0
 191              		.cfi_startproc
 192              		@ args = 0, pretend = 0, frame = 0
 193              		@ frame_needed = 0, uses_anonymous_args = 0
 194              	.LVL13:
 195 0000 10B5     		push	{r4, lr}
 196              	.LCFI2:
 197              		.cfi_def_cfa_offset 8
 198              		.cfi_offset 14, -4
 199              		.cfi_offset 4, -8
 200              	.LBB8:
 201              		.loc 1 137 0
 202 0002 2023     		movs	r3, #32
 203              	.LVL14:
 204              	.LBE8:
 205              		.loc 1 133 0
 206 0004 0446     		mov	r4, r0
 207              	.LBB9:
 208              		.loc 1 137 0
 209              	@ 137 "/opt/ChibiOS/ChibiOS_2.4.4/os/hal/src/icu.c" 1
 210 0006 83F31188 		msr     BASEPRI, r3
 211              	@ 0 "" 2
 212              	.LVL15:
 213              		.thumb
 214              	.LBE9:
 215              		.loc 1 139 0
 216 000a FFF7FEFF 		bl	icu_lld_enable
 217              	.LVL16:
 218              		.loc 1 140 0
 219 000e 0323     		movs	r3, #3
 220 0010 2370     		strb	r3, [r4, #0]
 221              	.LBB10:
 222              		.loc 1 141 0
 223 0012 0023     		movs	r3, #0
 224              	.LVL17:
ARM GAS  /tmp/ccHi0dFV.s 			page 5


 225              	@ 141 "/opt/ChibiOS/ChibiOS_2.4.4/os/hal/src/icu.c" 1
 226 0014 83F31188 		msr     BASEPRI, r3
 227              	@ 0 "" 2
 228              	.LVL18:
 229              		.thumb
 230              	.LBE10:
 231              		.loc 1 142 0
 232 0018 10BD     		pop	{r4, pc}
 233              		.cfi_endproc
 234              	.LFE121:
 235              		.size	icuEnable, .-icuEnable
 236 001a 00BFAFF3 		.section	.text.icuDisable,"ax",%progbits
 236      0080
 237              		.align	2
 238              		.p2align 4,,15
 239              		.global	icuDisable
 240              		.thumb
 241              		.thumb_func
 242              		.type	icuDisable, %function
 243              	icuDisable:
 244              	.LFB122:
 245              		.loc 1 151 0
 246              		.cfi_startproc
 247              		@ args = 0, pretend = 0, frame = 0
 248              		@ frame_needed = 0, uses_anonymous_args = 0
 249              	.LVL19:
 250 0000 10B5     		push	{r4, lr}
 251              	.LCFI3:
 252              		.cfi_def_cfa_offset 8
 253              		.cfi_offset 14, -4
 254              		.cfi_offset 4, -8
 255              	.LBB11:
 256              		.loc 1 155 0
 257 0002 2023     		movs	r3, #32
 258              	.LVL20:
 259              	.LBE11:
 260              		.loc 1 151 0
 261 0004 0446     		mov	r4, r0
 262              	.LBB12:
 263              		.loc 1 155 0
 264              	@ 155 "/opt/ChibiOS/ChibiOS_2.4.4/os/hal/src/icu.c" 1
 265 0006 83F31188 		msr     BASEPRI, r3
 266              	@ 0 "" 2
 267              	.LVL21:
 268              		.thumb
 269              	.LBE12:
 270              		.loc 1 159 0
 271 000a FFF7FEFF 		bl	icu_lld_disable
 272              	.LVL22:
 273              		.loc 1 160 0
 274 000e 0223     		movs	r3, #2
 275 0010 2370     		strb	r3, [r4, #0]
 276              	.LBB13:
 277              		.loc 1 161 0
 278 0012 0023     		movs	r3, #0
 279              	.LVL23:
 280              	@ 161 "/opt/ChibiOS/ChibiOS_2.4.4/os/hal/src/icu.c" 1
ARM GAS  /tmp/ccHi0dFV.s 			page 6


 281 0014 83F31188 		msr     BASEPRI, r3
 282              	@ 0 "" 2
 283              	.LVL24:
 284              		.thumb
 285              	.LBE13:
 286              		.loc 1 162 0
 287 0018 10BD     		pop	{r4, pc}
 288              		.cfi_endproc
 289              	.LFE122:
 290              		.size	icuDisable, .-icuDisable
 291 001a 00BFAFF3 		.text
 291      0080
 292              	.Letext0:
 293              		.file 2 "/opt/arm/bin/../lib/gcc/arm-none-eabi/4.6.3/../../../../arm-none-eabi/include/stdint.h"
 294              		.file 3 "/opt/ChibiOS/ChibiOS_2.4.4/os/hal/platforms/STM32/stm32.h"
 295              		.file 4 "/opt/ChibiOS/ChibiOS_2.4.4/os/hal/include/icu.h"
 296              		.file 5 "/opt/ChibiOS/ChibiOS_2.4.4/os/hal/platforms/STM32/icu_lld.h"
 297              		.file 6 "/opt/ChibiOS/ChibiOS_2.4.4/os/ports/common/ARMCMx/CMSIS/include/core_cm4.h"