ARM GAS  /tmp/ccIq2yzc.s 			page 1


   1              		.syntax unified
   2              		.cpu cortex-m4
   3              		.eabi_attribute 27, 3
   4              		.eabi_attribute 28, 1
   5              		.fpu fpv4-sp-d16
   6              		.eabi_attribute 20, 1
   7              		.eabi_attribute 21, 1
   8              		.eabi_attribute 23, 3
   9              		.eabi_attribute 24, 1
  10              		.eabi_attribute 25, 1
  11              		.eabi_attribute 26, 1
  12              		.eabi_attribute 30, 2
  13              		.eabi_attribute 34, 1
  14              		.eabi_attribute 18, 4
  15              		.thumb
  16              		.file	"icu_lld.c"
  17              		.text
  18              	.Ltext0:
  19              		.cfi_sections	.debug_frame
  20              		.section	.text.icu_lld_serve_interrupt,"ax",%progbits
  21              		.align	2
  22              		.p2align 4,,15
  23              		.thumb
  24              		.thumb_func
  25              		.type	icu_lld_serve_interrupt, %function
  26              	icu_lld_serve_interrupt:
  27              	.LFB117:
  28              		.file 1 "/opt/ChibiOS/ChibiOS_2.4.4/os/hal/platforms/STM32/icu_lld.c"
  29              		.loc 1 106 0
  30              		.cfi_startproc
  31              		@ args = 0, pretend = 0, frame = 0
  32              		@ frame_needed = 0, uses_anonymous_args = 0
  33              	.LVL0:
  34 0000 38B5     		push	{r3, r4, r5, lr}
  35              	.LCFI0:
  36              		.cfi_def_cfa_offset 16
  37              		.cfi_offset 14, -4
  38              		.cfi_offset 5, -8
  39              		.cfi_offset 4, -12
  40              		.cfi_offset 3, -16
  41              		.loc 1 109 0
  42 0002 C368     		ldr	r3, [r0, #12]
  43 0004 198A     		ldrh	r1, [r3, #16]
  44 0006 9D89     		ldrh	r5, [r3, #12]
  45              	.LVL1:
  46              		.loc 1 110 0
  47 0008 0022     		movs	r2, #0
  48              		.loc 1 111 0
  49 000a 0D40     		ands	r5, r5, r1
  50              	.LVL2:
  51              		.loc 1 110 0
  52 000c 1A82     		strh	r2, [r3, #16]	@ movhi
  53              		.loc 1 111 0
  54 000e AA07     		lsls	r2, r5, #30
  55              		.loc 1 106 0
  56 0010 0446     		mov	r4, r0
  57              		.loc 1 111 0
ARM GAS  /tmp/ccIq2yzc.s 			page 2


  58 0012 09D5     		bpl	.L2
  59              	.LBB7:
  60              		.loc 1 112 0
  61 0014 90F800C0 		ldrb	ip, [r0, #0]	@ zero_extendqisi2
  62              	.LVL3:
  63 0018 0422     		movs	r2, #4
  64 001a BCF1030F 		cmp	ip, #3
  65 001e 0270     		strb	r2, [r0, #0]
  66 0020 02D0     		beq	.L2
  67              		.loc 1 112 0 is_stmt 0 discriminator 1
  68 0022 4168     		ldr	r1, [r0, #4]
  69 0024 CB68     		ldr	r3, [r1, #12]
  70 0026 9847     		blx	r3
  71              	.LVL4:
  72              	.L2:
  73              	.LBE7:
  74              		.loc 1 113 0 is_stmt 1
  75 0028 6B07     		lsls	r3, r5, #29
  76 002a 05D5     		bpl	.L1
  77              	.LVL5:
  78              	.LBB8:
  79              	.LBB9:
  80              		.loc 1 114 0
  81 002c 6068     		ldr	r0, [r4, #4]
  82 002e 0523     		movs	r3, #5
  83 0030 8268     		ldr	r2, [r0, #8]
  84 0032 2370     		strb	r3, [r4, #0]
  85 0034 2046     		mov	r0, r4
  86 0036 9047     		blx	r2
  87              	.LVL6:
  88              	.L1:
  89 0038 38BD     		pop	{r3, r4, r5, pc}
  90              	.LBE9:
  91              	.LBE8:
  92              		.cfi_endproc
  93              	.LFE117:
  94              		.size	icu_lld_serve_interrupt, .-icu_lld_serve_interrupt
  95 003a 00BFAFF3 		.section	.text.VectorAC,"ax",%progbits
  95      0080
  96              		.align	2
  97              		.p2align 4,,15
  98              		.global	VectorAC
  99              		.thumb
 100              		.thumb_func
 101              		.type	VectorAC, %function
 102              	VectorAC:
 103              	.LFB118:
 104              		.loc 1 130 0
 105              		.cfi_startproc
 106              		@ args = 0, pretend = 0, frame = 0
 107              		@ frame_needed = 0, uses_anonymous_args = 0
 108 0000 08B5     		push	{r3, lr}
 109              	.LCFI1:
 110              		.cfi_def_cfa_offset 8
 111              		.cfi_offset 14, -4
 112              		.cfi_offset 3, -8
 113              		.loc 1 134 0
ARM GAS  /tmp/ccIq2yzc.s 			page 3


 114 0002 40F20000 		movw	r0, #:lower16:.LANCHOR0
 115 0006 C0F20000 		movt	r0, #:upper16:.LANCHOR0
 116 000a FFF7FEFF 		bl	icu_lld_serve_interrupt
 117              		.loc 1 137 0
 118 000e BDE80840 		pop	{r3, lr}
 119              		.loc 1 136 0
 120 0012 FFF7FEBF 		b	_port_irq_epilogue
 121              		.cfi_endproc
 122              	.LFE118:
 123              		.size	VectorAC, .-VectorAC
 124 0016 00BFAFF3 		.section	.text.VectorA4,"ax",%progbits
 124      0080AFF3 
 124      0080
 125              		.align	2
 126              		.p2align 4,,15
 127              		.global	VectorA4
 128              		.thumb
 129              		.thumb_func
 130              		.type	VectorA4, %function
 131              	VectorA4:
 132              	.LFB119:
 133              		.loc 1 147 0
 134              		.cfi_startproc
 135              		@ args = 0, pretend = 0, frame = 0
 136              		@ frame_needed = 0, uses_anonymous_args = 0
 137 0000 08B5     		push	{r3, lr}
 138              	.LCFI2:
 139              		.cfi_def_cfa_offset 8
 140              		.cfi_offset 14, -4
 141              		.cfi_offset 3, -8
 142              		.loc 1 151 0
 143 0002 40F20000 		movw	r0, #:lower16:.LANCHOR0
 144 0006 C0F20000 		movt	r0, #:upper16:.LANCHOR0
 145 000a FFF7FEFF 		bl	icu_lld_serve_interrupt
 146              		.loc 1 154 0
 147 000e BDE80840 		pop	{r3, lr}
 148              		.loc 1 153 0
 149 0012 FFF7FEBF 		b	_port_irq_epilogue
 150              		.cfi_endproc
 151              	.LFE119:
 152              		.size	VectorA4, .-VectorA4
 153 0016 00BFAFF3 		.section	.text.VectorB4,"ax",%progbits
 153      0080AFF3 
 153      0080
 154              		.align	2
 155              		.p2align 4,,15
 156              		.global	VectorB4
 157              		.thumb
 158              		.thumb_func
 159              		.type	VectorB4, %function
 160              	VectorB4:
 161              	.LFB120:
 162              		.loc 1 185 0
 163              		.cfi_startproc
 164              		@ args = 0, pretend = 0, frame = 0
 165              		@ frame_needed = 0, uses_anonymous_args = 0
 166 0000 08B5     		push	{r3, lr}
ARM GAS  /tmp/ccIq2yzc.s 			page 4


 167              	.LCFI3:
 168              		.cfi_def_cfa_offset 8
 169              		.cfi_offset 14, -4
 170              		.cfi_offset 3, -8
 171              		.loc 1 189 0
 172 0002 40F20000 		movw	r0, #:lower16:.LANCHOR1
 173 0006 C0F20000 		movt	r0, #:upper16:.LANCHOR1
 174 000a FFF7FEFF 		bl	icu_lld_serve_interrupt
 175              		.loc 1 192 0
 176 000e BDE80840 		pop	{r3, lr}
 177              		.loc 1 191 0
 178 0012 FFF7FEBF 		b	_port_irq_epilogue
 179              		.cfi_endproc
 180              	.LFE120:
 181              		.size	VectorB4, .-VectorB4
 182 0016 00BFAFF3 		.section	.text.Vector108,"ax",%progbits
 182      0080AFF3 
 182      0080
 183              		.align	2
 184              		.p2align 4,,15
 185              		.global	Vector108
 186              		.thumb
 187              		.thumb_func
 188              		.type	Vector108, %function
 189              	Vector108:
 190              	.LFB121:
 191              		.loc 1 223 0
 192              		.cfi_startproc
 193              		@ args = 0, pretend = 0, frame = 0
 194              		@ frame_needed = 0, uses_anonymous_args = 0
 195 0000 08B5     		push	{r3, lr}
 196              	.LCFI4:
 197              		.cfi_def_cfa_offset 8
 198              		.cfi_offset 14, -4
 199              		.cfi_offset 3, -8
 200              		.loc 1 227 0
 201 0002 40F20000 		movw	r0, #:lower16:.LANCHOR2
 202 0006 C0F20000 		movt	r0, #:upper16:.LANCHOR2
 203 000a FFF7FEFF 		bl	icu_lld_serve_interrupt
 204              		.loc 1 230 0
 205 000e BDE80840 		pop	{r3, lr}
 206              		.loc 1 229 0
 207 0012 FFF7FEBF 		b	_port_irq_epilogue
 208              		.cfi_endproc
 209              	.LFE121:
 210              		.size	Vector108, .-Vector108
 211 0016 00BFAFF3 		.section	.text.VectorF8,"ax",%progbits
 211      0080AFF3 
 211      0080
 212              		.align	2
 213              		.p2align 4,,15
 214              		.global	VectorF8
 215              		.thumb
 216              		.thumb_func
 217              		.type	VectorF8, %function
 218              	VectorF8:
 219              	.LFB122:
ARM GAS  /tmp/ccIq2yzc.s 			page 5


 220              		.loc 1 242 0
 221              		.cfi_startproc
 222              		@ args = 0, pretend = 0, frame = 0
 223              		@ frame_needed = 0, uses_anonymous_args = 0
 224 0000 08B5     		push	{r3, lr}
 225              	.LCFI5:
 226              		.cfi_def_cfa_offset 8
 227              		.cfi_offset 14, -4
 228              		.cfi_offset 3, -8
 229              		.loc 1 246 0
 230 0002 40F20000 		movw	r0, #:lower16:.LANCHOR3
 231 0006 C0F20000 		movt	r0, #:upper16:.LANCHOR3
 232 000a FFF7FEFF 		bl	icu_lld_serve_interrupt
 233              		.loc 1 249 0
 234 000e BDE80840 		pop	{r3, lr}
 235              		.loc 1 248 0
 236 0012 FFF7FEBF 		b	_port_irq_epilogue
 237              		.cfi_endproc
 238              	.LFE122:
 239              		.size	VectorF8, .-VectorF8
 240 0016 00BFAFF3 		.section	.text.VectorF0,"ax",%progbits
 240      0080AFF3 
 240      0080
 241              		.align	2
 242              		.p2align 4,,15
 243              		.global	VectorF0
 244              		.thumb
 245              		.thumb_func
 246              		.type	VectorF0, %function
 247              	VectorF0:
 248              	.LFB123:
 249              		.loc 1 259 0
 250              		.cfi_startproc
 251              		@ args = 0, pretend = 0, frame = 0
 252              		@ frame_needed = 0, uses_anonymous_args = 0
 253 0000 08B5     		push	{r3, lr}
 254              	.LCFI6:
 255              		.cfi_def_cfa_offset 8
 256              		.cfi_offset 14, -4
 257              		.cfi_offset 3, -8
 258              		.loc 1 263 0
 259 0002 40F20000 		movw	r0, #:lower16:.LANCHOR3
 260 0006 C0F20000 		movt	r0, #:upper16:.LANCHOR3
 261 000a FFF7FEFF 		bl	icu_lld_serve_interrupt
 262              		.loc 1 266 0
 263 000e BDE80840 		pop	{r3, lr}
 264              		.loc 1 265 0
 265 0012 FFF7FEBF 		b	_port_irq_epilogue
 266              		.cfi_endproc
 267              	.LFE123:
 268              		.size	VectorF0, .-VectorF0
 269 0016 00BFAFF3 		.section	.text.icu_lld_init,"ax",%progbits
 269      0080AFF3 
 269      0080
 270              		.align	2
 271              		.p2align 4,,15
 272              		.global	icu_lld_init
ARM GAS  /tmp/ccIq2yzc.s 			page 6


 273              		.thumb
 274              		.thumb_func
 275              		.type	icu_lld_init, %function
 276              	icu_lld_init:
 277              	.LFB124:
 278              		.loc 1 278 0
 279              		.cfi_startproc
 280              		@ args = 0, pretend = 0, frame = 0
 281              		@ frame_needed = 0, uses_anonymous_args = 0
 282 0000 70B5     		push	{r4, r5, r6, lr}
 283              	.LCFI7:
 284              		.cfi_def_cfa_offset 16
 285              		.cfi_offset 14, -4
 286              		.cfi_offset 6, -8
 287              		.cfi_offset 5, -12
 288              		.cfi_offset 4, -16
 289              		.loc 1 282 0
 290 0002 40F20004 		movw	r4, #:lower16:.LANCHOR0
 291 0006 C0F20004 		movt	r4, #:upper16:.LANCHOR0
 292 000a 2046     		mov	r0, r4
 293 000c FFF7FEFF 		bl	icuObjectInit
 294              		.loc 1 294 0
 295 0010 40F20006 		movw	r6, #:lower16:.LANCHOR1
 296              		.loc 1 283 0
 297 0014 0023     		movs	r3, #0
 298 0016 C4F20103 		movt	r3, 16385
 299              		.loc 1 294 0
 300 001a C0F20006 		movt	r6, #:upper16:.LANCHOR1
 301              		.loc 1 283 0
 302 001e E360     		str	r3, [r4, #12]
 303              		.loc 1 294 0
 304 0020 3046     		mov	r0, r6
 305              		.loc 1 306 0
 306 0022 40F20005 		movw	r5, #:lower16:.LANCHOR2
 307              		.loc 1 294 0
 308 0026 FFF7FEFF 		bl	icuObjectInit
 309              		.loc 1 306 0
 310 002a C0F20005 		movt	r5, #:upper16:.LANCHOR2
 311              		.loc 1 295 0
 312 002e 4FF48062 		mov	r2, #1024
 313 0032 C4F20002 		movt	r2, 16384
 314              		.loc 1 306 0
 315 0036 2846     		mov	r0, r5
 316              		.loc 1 312 0
 317 0038 40F20004 		movw	r4, #:lower16:.LANCHOR3
 318 003c C0F20004 		movt	r4, #:upper16:.LANCHOR3
 319              		.loc 1 295 0
 320 0040 F260     		str	r2, [r6, #12]
 321              		.loc 1 306 0
 322 0042 FFF7FEFF 		bl	icuObjectInit
 323              		.loc 1 307 0
 324 0046 4FF44061 		mov	r1, #3072
 325 004a C4F20001 		movt	r1, 16384
 326              		.loc 1 312 0
 327 004e 2046     		mov	r0, r4
 328              		.loc 1 307 0
 329 0050 E960     		str	r1, [r5, #12]
ARM GAS  /tmp/ccIq2yzc.s 			page 7


 330              		.loc 1 312 0
 331 0052 FFF7FEFF 		bl	icuObjectInit
 332              		.loc 1 313 0
 333 0056 4FF48063 		mov	r3, #1024
 334 005a C4F20103 		movt	r3, 16385
 335 005e E360     		str	r3, [r4, #12]
 336              		.loc 1 315 0
 337 0060 70BD     		pop	{r4, r5, r6, pc}
 338              		.cfi_endproc
 339              	.LFE124:
 340              		.size	icu_lld_init, .-icu_lld_init
 341 0062 00BFAFF3 		.section	.text.icu_lld_start,"ax",%progbits
 341      0080AFF3 
 341      0080AFF3 
 341      0080
 342              		.align	2
 343              		.p2align 4,,15
 344              		.global	icu_lld_start
 345              		.thumb
 346              		.thumb_func
 347              		.type	icu_lld_start, %function
 348              	icu_lld_start:
 349              	.LFB125:
 350              		.loc 1 324 0
 351              		.cfi_startproc
 352              		@ args = 0, pretend = 0, frame = 0
 353              		@ frame_needed = 0, uses_anonymous_args = 0
 354              	.LVL7:
 355              		.loc 1 327 0
 356 0000 0378     		ldrb	r3, [r0, #0]	@ zero_extendqisi2
 357 0002 012B     		cmp	r3, #1
 358              		.loc 1 324 0
 359 0004 10B5     		push	{r4, lr}
 360              	.LCFI8:
 361              		.cfi_def_cfa_offset 8
 362              		.cfi_offset 14, -4
 363              		.cfi_offset 4, -8
 364              		.loc 1 324 0
 365 0006 0446     		mov	r4, r0
 366              		.loc 1 327 0
 367 0008 1ED0     		beq	.L23
 368              		.loc 1 391 0
 369 000a C368     		ldr	r3, [r0, #12]
 370 000c 0020     		movs	r0, #0
 371              	.LVL8:
 372 000e 1880     		strh	r0, [r3, #0]	@ movhi
 373              		.loc 1 392 0
 374 0010 9881     		strh	r0, [r3, #12]	@ movhi
 375              		.loc 1 393 0
 376 0012 1882     		strh	r0, [r3, #16]	@ movhi
 377              		.loc 1 394 0
 378 0014 5863     		str	r0, [r3, #52]
 379              		.loc 1 395 0
 380 0016 9863     		str	r0, [r3, #56]
 381              		.loc 1 396 0
 382 0018 5862     		str	r0, [r3, #36]
 383              	.L18:
ARM GAS  /tmp/ccIq2yzc.s 			page 8


 384              		.loc 1 400 0
 385 001a 6268     		ldr	r2, [r4, #4]
 386              	.LVL9:
 387 001c A068     		ldr	r0, [r4, #8]
 388 001e 5168     		ldr	r1, [r2, #4]
 389              		.loc 1 418 0
 390 0020 1278     		ldrb	r2, [r2, #0]	@ zero_extendqisi2
 391              		.loc 1 400 0
 392 0022 B0FBF1F1 		udiv	r1, r0, r1
 393 0026 481E     		subs	r0, r1, #1
 394              		.loc 1 405 0
 395 0028 4FF6FF71 		movw	r1, #65535
 396              		.loc 1 404 0
 397 002c 1885     		strh	r0, [r3, #40]	@ movhi
 398              		.loc 1 405 0
 399 002e D962     		str	r1, [r3, #44]
 400              		.loc 1 409 0
 401 0030 40F20120 		movw	r0, 513	@ movhi
 402              		.loc 1 413 0
 403 0034 5421     		movs	r1, #84
 404              		.loc 1 409 0
 405 0036 1883     		strh	r0, [r3, #24]	@ movhi
 406              		.loc 1 413 0
 407 0038 1981     		strh	r1, [r3, #8]	@ movhi
 408              		.loc 1 418 0
 409 003a 12B1     		cbz	r2, .L24
 410              		.loc 1 422 0
 411 003c 1320     		movs	r0, #19
 412 003e 1884     		strh	r0, [r3, #32]	@ movhi
 413 0040 10BD     		pop	{r4, pc}
 414              	.L24:
 415              		.loc 1 419 0
 416 0042 3121     		movs	r1, #49
 417 0044 1984     		strh	r1, [r3, #32]	@ movhi
 418 0046 10BD     		pop	{r4, pc}
 419              	.LVL10:
 420              	.L23:
 421              		.loc 1 330 0
 422 0048 40F20001 		movw	r1, #:lower16:.LANCHOR0
 423 004c C0F20001 		movt	r1, #:upper16:.LANCHOR0
 424 0050 8842     		cmp	r0, r1
 425 0052 35D0     		beq	.L25
 426              		.loc 1 350 0
 427 0054 40F2000C 		movw	ip, #:lower16:.LANCHOR1
 428 0058 C0F2000C 		movt	ip, #:upper16:.LANCHOR1
 429 005c 6045     		cmp	r0, ip
 430 005e 50D0     		beq	.L26
 431              		.loc 1 369 0
 432 0060 40F20002 		movw	r2, #:lower16:.LANCHOR2
 433 0064 C0F20002 		movt	r2, #:upper16:.LANCHOR2
 434 0068 9042     		cmp	r0, r2
 435 006a 68D0     		beq	.L27
 436              	.L15:
 437              		.loc 1 378 0
 438 006c 40F2000C 		movw	ip, #:lower16:.LANCHOR3
 439 0070 C0F2000C 		movt	ip, #:upper16:.LANCHOR3
 440 0074 6445     		cmp	r4, ip
ARM GAS  /tmp/ccIq2yzc.s 			page 9


 441 0076 01D0     		beq	.L19
 442              		.loc 1 385 0
 443 0078 E368     		ldr	r3, [r4, #12]
 444 007a CEE7     		b	.L18
 445              	.L19:
 446              		.loc 1 379 0
 447 007c 4FF4605E 		mov	lr, #14336
 448 0080 C4F2020E 		movt	lr, 16386
 449 0084 DEF84420 		ldr	r2, [lr, #68]
 450 0088 42F00203 		orr	r3, r2, #2
 451 008c CEF84430 		str	r3, [lr, #68]
 452              		.loc 1 380 0
 453 0090 DEF82410 		ldr	r1, [lr, #36]
 454 0094 0022     		movs	r2, #0
 455 0096 41F00200 		orr	r0, r1, #2
 456 009a CEF82400 		str	r0, [lr, #36]
 457              		.loc 1 381 0
 458 009e 7021     		movs	r1, #112
 459 00a0 2E20     		movs	r0, #46
 460              		.loc 1 380 0
 461 00a2 CEF82420 		str	r2, [lr, #36]
 462              		.loc 1 381 0
 463 00a6 FFF7FEFF 		bl	nvicEnableVector
 464              		.loc 1 383 0
 465 00aa 2C20     		movs	r0, #44
 466 00ac 7021     		movs	r1, #112
 467 00ae FFF7FEFF 		bl	nvicEnableVector
 468              		.loc 1 385 0
 469 00b2 4FF4F443 		mov	r3, #31232
 470 00b6 C0F60323 		movt	r3, 2563
 471 00ba A360     		str	r3, [r4, #8]
 472 00bc E368     		ldr	r3, [r4, #12]
 473 00be ACE7     		b	.L18
 474              	.L25:
 475              		.loc 1 331 0
 476 00c0 4FF4605C 		mov	ip, #14336
 477 00c4 C4F2020C 		movt	ip, 16386
 478 00c8 DCF84420 		ldr	r2, [ip, #68]
 479 00cc 42F00100 		orr	r0, r2, #1
 480 00d0 CCF84400 		str	r0, [ip, #68]
 481              		.loc 1 332 0
 482 00d4 DCF82410 		ldr	r1, [ip, #36]
 483 00d8 0022     		movs	r2, #0
 484 00da 41F00103 		orr	r3, r1, #1
 485 00de CCF82430 		str	r3, [ip, #36]
 486              		.loc 1 333 0
 487 00e2 1B20     		movs	r0, #27
 488 00e4 7021     		movs	r1, #112
 489              		.loc 1 332 0
 490 00e6 CCF82420 		str	r2, [ip, #36]
 491              		.loc 1 333 0
 492 00ea FFF7FEFF 		bl	nvicEnableVector
 493              		.loc 1 335 0
 494 00ee 1920     		movs	r0, #25
 495 00f0 7021     		movs	r1, #112
 496 00f2 FFF7FEFF 		bl	nvicEnableVector
 497              		.loc 1 337 0
ARM GAS  /tmp/ccIq2yzc.s 			page 10


 498 00f6 4FF4F440 		mov	r0, #31232
 499 00fa C0F60320 		movt	r0, 2563
 500 00fe A060     		str	r0, [r4, #8]
 501 0100 B4E7     		b	.L15
 502              	.L26:
 503              		.loc 1 351 0
 504 0102 4FF4605E 		mov	lr, #14336
 505 0106 C4F2020E 		movt	lr, 16386
 506 010a DEF84010 		ldr	r1, [lr, #64]
 507 010e 41F00203 		orr	r3, r1, #2
 508 0112 CEF84030 		str	r3, [lr, #64]
 509              		.loc 1 352 0
 510 0116 DEF82020 		ldr	r2, [lr, #32]
 511 011a 0021     		movs	r1, #0
 512 011c 42F00200 		orr	r0, r2, #2
 513 0120 CEF82000 		str	r0, [lr, #32]
 514 0124 CEF82010 		str	r1, [lr, #32]
 515              		.loc 1 353 0
 516 0128 1D20     		movs	r0, #29
 517 012a 7021     		movs	r1, #112
 518 012c FFF7FEFF 		bl	nvicEnableVector
 519              		.loc 1 355 0
 520 0130 4FF43D43 		mov	r3, #48384
 521 0134 C0F20153 		movt	r3, 1281
 522 0138 A360     		str	r3, [r4, #8]
 523              		.loc 1 385 0
 524 013a E368     		ldr	r3, [r4, #12]
 525 013c 6DE7     		b	.L18
 526              	.L27:
 527              		.loc 1 370 0
 528 013e 4FF4605C 		mov	ip, #14336
 529 0142 C4F2020C 		movt	ip, 16386
 530 0146 DCF84010 		ldr	r1, [ip, #64]
 531 014a 41F00800 		orr	r0, r1, #8
 532 014e CCF84000 		str	r0, [ip, #64]
 533              		.loc 1 371 0
 534 0152 DCF82020 		ldr	r2, [ip, #32]
 535 0156 0021     		movs	r1, #0
 536 0158 42F00803 		orr	r3, r2, #8
 537 015c CCF82030 		str	r3, [ip, #32]
 538              		.loc 1 372 0
 539 0160 3220     		movs	r0, #50
 540              		.loc 1 371 0
 541 0162 CCF82010 		str	r1, [ip, #32]
 542              		.loc 1 372 0
 543 0166 7021     		movs	r1, #112
 544 0168 FFF7FEFF 		bl	nvicEnableVector
 545              		.loc 1 374 0
 546 016c 4FF43D40 		mov	r0, #48384
 547 0170 C0F20150 		movt	r0, 1281
 548 0174 A060     		str	r0, [r4, #8]
 549 0176 E368     		ldr	r3, [r4, #12]
 550 0178 4FE7     		b	.L18
 551              		.cfi_endproc
 552              	.LFE125:
 553              		.size	icu_lld_start, .-icu_lld_start
 554 017a 00BFAFF3 		.section	.text.icu_lld_stop,"ax",%progbits
ARM GAS  /tmp/ccIq2yzc.s 			page 11


 554      0080
 555              		.align	2
 556              		.p2align 4,,15
 557              		.global	icu_lld_stop
 558              		.thumb
 559              		.thumb_func
 560              		.type	icu_lld_stop, %function
 561              	icu_lld_stop:
 562              	.LFB126:
 563              		.loc 1 433 0
 564              		.cfi_startproc
 565              		@ args = 0, pretend = 0, frame = 0
 566              		@ frame_needed = 0, uses_anonymous_args = 0
 567              	.LVL11:
 568              		.loc 1 435 0
 569 0000 0378     		ldrb	r3, [r0, #0]	@ zero_extendqisi2
 570 0002 022B     		cmp	r3, #2
 571              		.loc 1 433 0
 572 0004 10B5     		push	{r4, lr}
 573              	.LCFI9:
 574              		.cfi_def_cfa_offset 8
 575              		.cfi_offset 14, -4
 576              		.cfi_offset 4, -8
 577              		.loc 1 433 0
 578 0006 0446     		mov	r4, r0
 579              		.loc 1 435 0
 580 0008 00D0     		beq	.L33
 581              	.LVL12:
 582              	.L28:
 583 000a 10BD     		pop	{r4, pc}
 584              	.L33:
 585              		.loc 1 442 0
 586 000c 40F2000C 		movw	ip, #:lower16:.LANCHOR0
 587              		.loc 1 437 0
 588 0010 C268     		ldr	r2, [r0, #12]
 589              		.loc 1 442 0
 590 0012 C0F2000C 		movt	ip, #:upper16:.LANCHOR0
 591              		.loc 1 437 0
 592 0016 0021     		movs	r1, #0
 593              		.loc 1 442 0
 594 0018 6045     		cmp	r0, ip
 595              		.loc 1 437 0
 596 001a 1180     		strh	r1, [r2, #0]	@ movhi
 597              		.loc 1 438 0
 598 001c 9181     		strh	r1, [r2, #12]	@ movhi
 599              		.loc 1 439 0
 600 001e 1182     		strh	r1, [r2, #16]	@ movhi
 601              		.loc 1 442 0
 602 0020 22D0     		beq	.L34
 603              		.loc 1 455 0
 604 0022 40F20002 		movw	r2, #:lower16:.LANCHOR1
 605 0026 C0F20002 		movt	r2, #:upper16:.LANCHOR1
 606 002a 9042     		cmp	r0, r2
 607 002c 2BD0     		beq	.L35
 608              		.loc 1 467 0
 609 002e 40F20001 		movw	r1, #:lower16:.LANCHOR2
 610 0032 C0F20001 		movt	r1, #:upper16:.LANCHOR2
ARM GAS  /tmp/ccIq2yzc.s 			page 12


 611 0036 8842     		cmp	r0, r1
 612 0038 33D0     		beq	.L36
 613              	.L31:
 614              		.loc 1 473 0
 615 003a 40F20001 		movw	r1, #:lower16:.LANCHOR3
 616 003e C0F20001 		movt	r1, #:upper16:.LANCHOR3
 617 0042 8C42     		cmp	r4, r1
 618 0044 E1D1     		bne	.L28
 619              		.loc 1 474 0
 620 0046 2E20     		movs	r0, #46
 621 0048 FFF7FEFF 		bl	nvicDisableVector
 622              		.loc 1 475 0
 623 004c 2C20     		movs	r0, #44
 624 004e FFF7FEFF 		bl	nvicDisableVector
 625              		.loc 1 476 0
 626 0052 4FF4605C 		mov	ip, #14336
 627 0056 C4F2020C 		movt	ip, 16386
 628 005a DCF84400 		ldr	r0, [ip, #68]
 629 005e 20F00202 		bic	r2, r0, #2
 630 0062 CCF84420 		str	r2, [ip, #68]
 631 0066 D0E7     		b	.L28
 632              	.L34:
 633              		.loc 1 443 0
 634 0068 1B20     		movs	r0, #27
 635 006a FFF7FEFF 		bl	nvicDisableVector
 636              		.loc 1 444 0
 637 006e 1920     		movs	r0, #25
 638 0070 FFF7FEFF 		bl	nvicDisableVector
 639              		.loc 1 445 0
 640 0074 4FF46053 		mov	r3, #14336
 641 0078 C4F20203 		movt	r3, 16386
 642 007c 596C     		ldr	r1, [r3, #68]
 643 007e 21F00100 		bic	r0, r1, #1
 644 0082 5864     		str	r0, [r3, #68]
 645 0084 D9E7     		b	.L31
 646              	.L35:
 647              		.loc 1 456 0
 648 0086 1D20     		movs	r0, #29
 649 0088 FFF7FEFF 		bl	nvicDisableVector
 650              		.loc 1 457 0
 651 008c 4FF4605C 		mov	ip, #14336
 652 0090 C4F2020C 		movt	ip, 16386
 653 0094 DCF84030 		ldr	r3, [ip, #64]
 654 0098 23F00200 		bic	r0, r3, #2
 655 009c CCF84000 		str	r0, [ip, #64]
 656 00a0 10BD     		pop	{r4, pc}
 657              	.L36:
 658              		.loc 1 468 0
 659 00a2 3220     		movs	r0, #50
 660 00a4 FFF7FEFF 		bl	nvicDisableVector
 661              		.loc 1 469 0
 662 00a8 4FF46050 		mov	r0, #14336
 663 00ac C4F20200 		movt	r0, 16386
 664 00b0 036C     		ldr	r3, [r0, #64]
 665 00b2 23F00802 		bic	r2, r3, #8
 666 00b6 0264     		str	r2, [r0, #64]
 667 00b8 10BD     		pop	{r4, pc}
ARM GAS  /tmp/ccIq2yzc.s 			page 13


 668              		.cfi_endproc
 669              	.LFE126:
 670              		.size	icu_lld_stop, .-icu_lld_stop
 671 00ba 00BFAFF3 		.section	.text.icu_lld_enable,"ax",%progbits
 671      0080
 672              		.align	2
 673              		.p2align 4,,15
 674              		.global	icu_lld_enable
 675              		.thumb
 676              		.thumb_func
 677              		.type	icu_lld_enable, %function
 678              	icu_lld_enable:
 679              	.LFB127:
 680              		.loc 1 489 0
 681              		.cfi_startproc
 682              		@ args = 0, pretend = 0, frame = 0
 683              		@ frame_needed = 0, uses_anonymous_args = 0
 684              		@ link register save eliminated.
 685              	.LVL13:
 686              		.loc 1 492 0
 687 0000 4268     		ldr	r2, [r0, #4]
 688              		.loc 1 491 0
 689 0002 C368     		ldr	r3, [r0, #12]
 690              		.loc 1 492 0
 691 0004 D168     		ldr	r1, [r2, #12]
 692              		.loc 1 491 0
 693 0006 0020     		movs	r0, #0
 694              	.LVL14:
 695 0008 1882     		strh	r0, [r3, #16]	@ movhi
 696              		.loc 1 492 0
 697 000a 29B1     		cbz	r1, .L38
 698              		.loc 1 493 0
 699 000c 9889     		ldrh	r0, [r3, #12]
 700 000e 81B2     		uxth	r1, r0
 701 0010 41F0020C 		orr	ip, r1, #2
 702 0014 A3F80CC0 		strh	ip, [r3, #12]	@ movhi
 703              	.L38:
 704              		.loc 1 494 0
 705 0018 9268     		ldr	r2, [r2, #8]
 706 001a 32B1     		cbz	r2, .L39
 707              		.loc 1 495 0
 708 001c B3F80CC0 		ldrh	ip, [r3, #12]
 709 0020 1FFA8CF0 		uxth	r0, ip
 710 0024 40F00401 		orr	r1, r0, #4
 711 0028 9981     		strh	r1, [r3, #12]	@ movhi
 712              	.L39:
 713              		.loc 1 496 0
 714 002a 0522     		movs	r2, #5
 715 002c 1A80     		strh	r2, [r3, #0]	@ movhi
 716              		.loc 1 497 0
 717 002e 7047     		bx	lr
 718              		.cfi_endproc
 719              	.LFE127:
 720              		.size	icu_lld_enable, .-icu_lld_enable
 721              		.section	.text.icu_lld_disable,"ax",%progbits
 722              		.align	2
 723              		.p2align 4,,15
ARM GAS  /tmp/ccIq2yzc.s 			page 14


 724              		.global	icu_lld_disable
 725              		.thumb
 726              		.thumb_func
 727              		.type	icu_lld_disable, %function
 728              	icu_lld_disable:
 729              	.LFB128:
 730              		.loc 1 506 0
 731              		.cfi_startproc
 732              		@ args = 0, pretend = 0, frame = 0
 733              		@ frame_needed = 0, uses_anonymous_args = 0
 734              		@ link register save eliminated.
 735              	.LVL15:
 736              		.loc 1 508 0
 737 0000 C368     		ldr	r3, [r0, #12]
 738 0002 0022     		movs	r2, #0
 739 0004 1A80     		strh	r2, [r3, #0]	@ movhi
 740              		.loc 1 509 0
 741 0006 1A82     		strh	r2, [r3, #16]	@ movhi
 742              		.loc 1 510 0
 743 0008 9A81     		strh	r2, [r3, #12]	@ movhi
 744              		.loc 1 511 0
 745 000a 7047     		bx	lr
 746              		.cfi_endproc
 747              	.LFE128:
 748              		.size	icu_lld_disable, .-icu_lld_disable
 749              		.global	ICUD8
 750              		.global	ICUD5
 751              		.global	ICUD3
 752              		.global	ICUD1
 753 000c AFF30080 		.section	.bss.ICUD3,"aw",%nobits
 754              		.align	2
 755              		.set	.LANCHOR1,. + 0
 756              		.type	ICUD3, %object
 757              		.size	ICUD3, 16
 758              	ICUD3:
 759 0000 00000000 		.space	16
 759      00000000 
 759      00000000 
 759      00000000 
 760              		.section	.bss.ICUD5,"aw",%nobits
 761              		.align	2
 762              		.set	.LANCHOR2,. + 0
 763              		.type	ICUD5, %object
 764              		.size	ICUD5, 16
 765              	ICUD5:
 766 0000 00000000 		.space	16
 766      00000000 
 766      00000000 
 766      00000000 
 767              		.section	.bss.ICUD8,"aw",%nobits
 768              		.align	2
 769              		.set	.LANCHOR3,. + 0
 770              		.type	ICUD8, %object
 771              		.size	ICUD8, 16
 772              	ICUD8:
 773 0000 00000000 		.space	16
 773      00000000 
ARM GAS  /tmp/ccIq2yzc.s 			page 15


 773      00000000 
 773      00000000 
 774              		.section	.bss.ICUD1,"aw",%nobits
 775              		.align	2
 776              		.set	.LANCHOR0,. + 0
 777              		.type	ICUD1, %object
 778              		.size	ICUD1, 16
 779              	ICUD1:
 780 0000 00000000 		.space	16
 780      00000000 
 780      00000000 
 780      00000000 
 781              		.text
 782              	.Letext0:
 783              		.file 2 "/opt/arm/bin/../lib/gcc/arm-none-eabi/4.6.3/../../../../arm-none-eabi/include/stdint.h"
 784              		.file 3 "/opt/ChibiOS/ChibiOS_2.4.4/os/hal/platforms/STM32F4xx/stm32f4xx.h"
 785              		.file 4 "/opt/ChibiOS/ChibiOS_2.4.4/os/hal/platforms/STM32/stm32.h"
 786              		.file 5 "/opt/ChibiOS/ChibiOS_2.4.4/os/hal/include/icu.h"
 787              		.file 6 "/opt/ChibiOS/ChibiOS_2.4.4/os/hal/platforms/STM32/icu_lld.h"
 788              		.file 7 "/opt/ChibiOS/ChibiOS_2.4.4/os/ports/common/ARMCMx/CMSIS/include/core_cm4.h"
 789              		.section	.debug_info,"",%progbits
 790              	.Ldebug_info0:
 791 0000 210A0000 		.4byte	0xa21
 792 0004 0200     		.2byte	0x2
 793 0006 00000000 		.4byte	.Ldebug_abbrev0
 794 000a 04       		.byte	0x4
 795 000b 01       		.uleb128 0x1
 796 000c 5D070000 		.4byte	.LASF193
 797 0010 01       		.byte	0x1
 798 0011 CD060000 		.4byte	.LASF194
 799 0015 00000000 		.4byte	0
 800 0019 00000000 		.4byte	0
 801 001d 00000000 		.4byte	.Ldebug_ranges0+0
 802 0021 00000000 		.4byte	.Ldebug_line0
 803 0025 02       		.uleb128 0x2
 804 0026 04       		.byte	0x4
 805 0027 05       		.byte	0x5
 806 0028 696E7400 		.ascii	"int\000"
 807 002c 03       		.uleb128 0x3
 808 002d 04       		.byte	0x4
 809 002e 07       		.byte	0x7
 810 002f D2020000 		.4byte	.LASF0
 811 0033 03       		.uleb128 0x3
 812 0034 01       		.byte	0x1
 813 0035 06       		.byte	0x6
 814 0036 82010000 		.4byte	.LASF1
 815 003a 03       		.uleb128 0x3
 816 003b 01       		.byte	0x1
 817 003c 08       		.byte	0x8
 818 003d 10060000 		.4byte	.LASF2
 819 0041 03       		.uleb128 0x3
 820 0042 02       		.byte	0x2
 821 0043 05       		.byte	0x5
 822 0044 5B060000 		.4byte	.LASF3
 823 0048 04       		.uleb128 0x4
 824 0049 2F020000 		.4byte	.LASF5
 825 004d 02       		.byte	0x2
ARM GAS  /tmp/ccIq2yzc.s 			page 16


 826 004e 36       		.byte	0x36
 827 004f 53000000 		.4byte	0x53
 828 0053 03       		.uleb128 0x3
 829 0054 02       		.byte	0x2
 830 0055 07       		.byte	0x7
 831 0056 A7060000 		.4byte	.LASF4
 832 005a 04       		.uleb128 0x4
 833 005b 08060000 		.4byte	.LASF6
 834 005f 02       		.byte	0x2
 835 0060 4F       		.byte	0x4f
 836 0061 65000000 		.4byte	0x65
 837 0065 03       		.uleb128 0x3
 838 0066 04       		.byte	0x4
 839 0067 05       		.byte	0x5
 840 0068 E2010000 		.4byte	.LASF7
 841 006c 04       		.uleb128 0x4
 842 006d 29070000 		.4byte	.LASF8
 843 0071 02       		.byte	0x2
 844 0072 50       		.byte	0x50
 845 0073 77000000 		.4byte	0x77
 846 0077 03       		.uleb128 0x3
 847 0078 04       		.byte	0x4
 848 0079 07       		.byte	0x7
 849 007a 2C030000 		.4byte	.LASF9
 850 007e 03       		.uleb128 0x3
 851 007f 08       		.byte	0x8
 852 0080 05       		.byte	0x5
 853 0081 74010000 		.4byte	.LASF10
 854 0085 03       		.uleb128 0x3
 855 0086 08       		.byte	0x8
 856 0087 07       		.byte	0x7
 857 0088 EB000000 		.4byte	.LASF11
 858 008c 05       		.uleb128 0x5
 859 008d 6C000000 		.4byte	0x6c
 860 0091 03       		.uleb128 0x3
 861 0092 01       		.byte	0x1
 862 0093 08       		.byte	0x8
 863 0094 8B070000 		.4byte	.LASF12
 864 0098 06       		.uleb128 0x6
 865 0099 74040000 		.4byte	.LASF195
 866 009d 01       		.byte	0x1
 867 009e 03       		.byte	0x3
 868 009f 8C       		.byte	0x8c
 869 00a0 D3020000 		.4byte	0x2d3
 870 00a4 07       		.uleb128 0x7
 871 00a5 DA070000 		.4byte	.LASF13
 872 00a9 72       		.sleb128 -14
 873 00aa 07       		.uleb128 0x7
 874 00ab 09030000 		.4byte	.LASF14
 875 00af 74       		.sleb128 -12
 876 00b0 07       		.uleb128 0x7
 877 00b1 98020000 		.4byte	.LASF15
 878 00b5 75       		.sleb128 -11
 879 00b6 07       		.uleb128 0x7
 880 00b7 3E070000 		.4byte	.LASF16
 881 00bb 76       		.sleb128 -10
 882 00bc 07       		.uleb128 0x7
ARM GAS  /tmp/ccIq2yzc.s 			page 17


 883 00bd 98030000 		.4byte	.LASF17
 884 00c1 7B       		.sleb128 -5
 885 00c2 07       		.uleb128 0x7
 886 00c3 F6050000 		.4byte	.LASF18
 887 00c7 7C       		.sleb128 -4
 888 00c8 07       		.uleb128 0x7
 889 00c9 AF020000 		.4byte	.LASF19
 890 00cd 7E       		.sleb128 -2
 891 00ce 07       		.uleb128 0x7
 892 00cf 42040000 		.4byte	.LASF20
 893 00d3 7F       		.sleb128 -1
 894 00d4 07       		.uleb128 0x7
 895 00d5 36010000 		.4byte	.LASF21
 896 00d9 00       		.sleb128 0
 897 00da 07       		.uleb128 0x7
 898 00db 39000000 		.4byte	.LASF22
 899 00df 01       		.sleb128 1
 900 00e0 07       		.uleb128 0x7
 901 00e1 03080000 		.4byte	.LASF23
 902 00e5 02       		.sleb128 2
 903 00e6 07       		.uleb128 0x7
 904 00e7 28010000 		.4byte	.LASF24
 905 00eb 03       		.sleb128 3
 906 00ec 07       		.uleb128 0x7
 907 00ed 12070000 		.4byte	.LASF25
 908 00f1 04       		.sleb128 4
 909 00f2 07       		.uleb128 0x7
 910 00f3 04090000 		.4byte	.LASF26
 911 00f7 05       		.sleb128 5
 912 00f8 07       		.uleb128 0x7
 913 00f9 62080000 		.4byte	.LASF27
 914 00fd 06       		.sleb128 6
 915 00fe 07       		.uleb128 0x7
 916 00ff 28090000 		.4byte	.LASF28
 917 0103 07       		.sleb128 7
 918 0104 07       		.uleb128 0x7
 919 0105 BA060000 		.4byte	.LASF29
 920 0109 08       		.sleb128 8
 921 010a 07       		.uleb128 0x7
 922 010b F2040000 		.4byte	.LASF30
 923 010f 09       		.sleb128 9
 924 0110 07       		.uleb128 0x7
 925 0111 65060000 		.4byte	.LASF31
 926 0115 0A       		.sleb128 10
 927 0116 07       		.uleb128 0x7
 928 0117 33090000 		.4byte	.LASF32
 929 011b 0B       		.sleb128 11
 930 011c 07       		.uleb128 0x7
 931 011d B5070000 		.4byte	.LASF33
 932 0121 0C       		.sleb128 12
 933 0122 07       		.uleb128 0x7
 934 0123 07050000 		.4byte	.LASF34
 935 0127 0D       		.sleb128 13
 936 0128 07       		.uleb128 0x7
 937 0129 DF020000 		.4byte	.LASF35
 938 012d 0E       		.sleb128 14
 939 012e 07       		.uleb128 0x7
ARM GAS  /tmp/ccIq2yzc.s 			page 18


 940 012f A7040000 		.4byte	.LASF36
 941 0133 0F       		.sleb128 15
 942 0134 07       		.uleb128 0x7
 943 0135 FD010000 		.4byte	.LASF37
 944 0139 10       		.sleb128 16
 945 013a 07       		.uleb128 0x7
 946 013b F7020000 		.4byte	.LASF38
 947 013f 11       		.sleb128 17
 948 0140 07       		.uleb128 0x7
 949 0141 CD080000 		.4byte	.LASF39
 950 0145 12       		.sleb128 18
 951 0146 07       		.uleb128 0x7
 952 0147 C1030000 		.4byte	.LASF40
 953 014b 13       		.sleb128 19
 954 014c 07       		.uleb128 0x7
 955 014d 2B000000 		.4byte	.LASF41
 956 0151 14       		.sleb128 20
 957 0152 07       		.uleb128 0x7
 958 0153 D4000000 		.4byte	.LASF42
 959 0157 15       		.sleb128 21
 960 0158 07       		.uleb128 0x7
 961 0159 E8080000 		.4byte	.LASF43
 962 015d 16       		.sleb128 22
 963 015e 07       		.uleb128 0x7
 964 015f 0F020000 		.4byte	.LASF44
 965 0163 17       		.sleb128 23
 966 0164 07       		.uleb128 0x7
 967 0165 1E060000 		.4byte	.LASF45
 968 0169 18       		.sleb128 24
 969 016a 07       		.uleb128 0x7
 970 016b 82040000 		.4byte	.LASF46
 971 016f 19       		.sleb128 25
 972 0170 07       		.uleb128 0x7
 973 0171 85060000 		.4byte	.LASF47
 974 0175 1A       		.sleb128 26
 975 0176 07       		.uleb128 0x7
 976 0177 4F040000 		.4byte	.LASF48
 977 017b 1B       		.sleb128 27
 978 017c 07       		.uleb128 0x7
 979 017d 58080000 		.4byte	.LASF49
 980 0181 1C       		.sleb128 28
 981 0182 07       		.uleb128 0x7
 982 0183 1E090000 		.4byte	.LASF50
 983 0187 1D       		.sleb128 29
 984 0188 07       		.uleb128 0x7
 985 0189 1E010000 		.4byte	.LASF51
 986 018d 1E       		.sleb128 30
 987 018e 07       		.uleb128 0x7
 988 018f 7A000000 		.4byte	.LASF52
 989 0193 1F       		.sleb128 31
 990 0194 07       		.uleb128 0x7
 991 0195 C0080000 		.4byte	.LASF53
 992 0199 20       		.sleb128 32
 993 019a 07       		.uleb128 0x7
 994 019b 39080000 		.4byte	.LASF54
 995 019f 21       		.sleb128 33
 996 01a0 07       		.uleb128 0x7
ARM GAS  /tmp/ccIq2yzc.s 			page 19


 997 01a1 11010000 		.4byte	.LASF55
 998 01a5 22       		.sleb128 34
 999 01a6 07       		.uleb128 0x7
 1000 01a7 E6030000 		.4byte	.LASF56
 1001 01ab 23       		.sleb128 35
 1002 01ac 07       		.uleb128 0x7
 1003 01ad FD040000 		.4byte	.LASF57
 1004 01b1 24       		.sleb128 36
 1005 01b2 07       		.uleb128 0x7
 1006 01b3 6D080000 		.4byte	.LASF58
 1007 01b7 25       		.sleb128 37
 1008 01b8 07       		.uleb128 0x7
 1009 01b9 32070000 		.4byte	.LASF59
 1010 01bd 26       		.sleb128 38
 1011 01be 07       		.uleb128 0x7
 1012 01bf 46080000 		.4byte	.LASF60
 1013 01c3 27       		.sleb128 39
 1014 01c4 07       		.uleb128 0x7
 1015 01c5 D7030000 		.4byte	.LASF61
 1016 01c9 28       		.sleb128 40
 1017 01ca 07       		.uleb128 0x7
 1018 01cb 02010000 		.4byte	.LASF62
 1019 01cf 29       		.sleb128 41
 1020 01d0 07       		.uleb128 0x7
 1021 01d1 59020000 		.4byte	.LASF63
 1022 01d5 2A       		.sleb128 42
 1023 01d6 07       		.uleb128 0x7
 1024 01d7 22040000 		.4byte	.LASF64
 1025 01db 2B       		.sleb128 43
 1026 01dc 07       		.uleb128 0x7
 1027 01dd 7C020000 		.4byte	.LASF65
 1028 01e1 2C       		.sleb128 44
 1029 01e2 07       		.uleb128 0x7
 1030 01e3 5C040000 		.4byte	.LASF66
 1031 01e7 2D       		.sleb128 45
 1032 01e8 07       		.uleb128 0x7
 1033 01e9 50000000 		.4byte	.LASF67
 1034 01ed 2E       		.sleb128 46
 1035 01ee 07       		.uleb128 0x7
 1036 01ef 79070000 		.4byte	.LASF68
 1037 01f3 2F       		.sleb128 47
 1038 01f4 07       		.uleb128 0x7
 1039 01f5 EC050000 		.4byte	.LASF69
 1040 01f9 30       		.sleb128 48
 1041 01fa 07       		.uleb128 0x7
 1042 01fb 76030000 		.4byte	.LASF70
 1043 01ff 31       		.sleb128 49
 1044 0200 07       		.uleb128 0x7
 1045 0201 E8040000 		.4byte	.LASF71
 1046 0205 32       		.sleb128 50
 1047 0206 07       		.uleb128 0x7
 1048 0207 B9050000 		.4byte	.LASF72
 1049 020b 33       		.sleb128 51
 1050 020c 07       		.uleb128 0x7
 1051 020d 4E020000 		.4byte	.LASF73
 1052 0211 34       		.sleb128 52
 1053 0212 07       		.uleb128 0x7
ARM GAS  /tmp/ccIq2yzc.s 			page 20


 1054 0213 7A060000 		.4byte	.LASF74
 1055 0217 35       		.sleb128 53
 1056 0218 07       		.uleb128 0x7
 1057 0219 38020000 		.4byte	.LASF75
 1058 021d 36       		.sleb128 54
 1059 021e 07       		.uleb128 0x7
 1060 021f AB070000 		.4byte	.LASF76
 1061 0223 37       		.sleb128 55
 1062 0224 07       		.uleb128 0x7
 1063 0225 27080000 		.4byte	.LASF77
 1064 0229 38       		.sleb128 56
 1065 022a 07       		.uleb128 0x7
 1066 022b D6080000 		.4byte	.LASF78
 1067 022f 39       		.sleb128 57
 1068 0230 07       		.uleb128 0x7
 1069 0231 B9040000 		.4byte	.LASF79
 1070 0235 3A       		.sleb128 58
 1071 0236 07       		.uleb128 0x7
 1072 0237 95040000 		.4byte	.LASF80
 1073 023b 3B       		.sleb128 59
 1074 023c 07       		.uleb128 0x7
 1075 023d D4050000 		.4byte	.LASF81
 1076 0241 3C       		.sleb128 60
 1077 0242 07       		.uleb128 0x7
 1078 0243 79040000 		.4byte	.LASF82
 1079 0247 3D       		.sleb128 61
 1080 0248 07       		.uleb128 0x7
 1081 0249 21020000 		.4byte	.LASF83
 1082 024d 3E       		.sleb128 62
 1083 024e 07       		.uleb128 0x7
 1084 024f 19050000 		.4byte	.LASF84
 1085 0253 3F       		.sleb128 63
 1086 0254 07       		.uleb128 0x7
 1087 0255 42000000 		.4byte	.LASF85
 1088 0259 C000     		.sleb128 64
 1089 025b 07       		.uleb128 0x7
 1090 025c 8E010000 		.4byte	.LASF86
 1091 0260 C100     		.sleb128 65
 1092 0262 07       		.uleb128 0x7
 1093 0263 F6080000 		.4byte	.LASF87
 1094 0267 C200     		.sleb128 66
 1095 0269 07       		.uleb128 0x7
 1096 026a 1D070000 		.4byte	.LASF88
 1097 026e C300     		.sleb128 67
 1098 0270 07       		.uleb128 0x7
 1099 0271 6A020000 		.4byte	.LASF89
 1100 0275 C400     		.sleb128 68
 1101 0277 07       		.uleb128 0x7
 1102 0278 AF010000 		.4byte	.LASF90
 1103 027c C500     		.sleb128 69
 1104 027e 07       		.uleb128 0x7
 1105 027f BB020000 		.4byte	.LASF91
 1106 0283 C600     		.sleb128 70
 1107 0285 07       		.uleb128 0x7
 1108 0286 CB040000 		.4byte	.LASF92
 1109 028a C700     		.sleb128 71
 1110 028c 07       		.uleb128 0x7
ARM GAS  /tmp/ccIq2yzc.s 			page 21


 1111 028d 1F030000 		.4byte	.LASF93
 1112 0291 C800     		.sleb128 72
 1113 0293 07       		.uleb128 0x7
 1114 0294 5D000000 		.4byte	.LASF94
 1115 0298 C900     		.sleb128 73
 1116 029a 07       		.uleb128 0x7
 1117 029b 62030000 		.4byte	.LASF95
 1118 029f CA00     		.sleb128 74
 1119 02a1 07       		.uleb128 0x7
 1120 02a2 C7070000 		.4byte	.LASF96
 1121 02a6 CB00     		.sleb128 75
 1122 02a8 07       		.uleb128 0x7
 1123 02a9 0D090000 		.4byte	.LASF97
 1124 02ad CC00     		.sleb128 76
 1125 02af 07       		.uleb128 0x7
 1126 02b0 57050000 		.4byte	.LASF98
 1127 02b4 CD00     		.sleb128 77
 1128 02b6 07       		.uleb128 0x7
 1129 02b7 7E080000 		.4byte	.LASF99
 1130 02bb CE00     		.sleb128 78
 1131 02bd 07       		.uleb128 0x7
 1132 02be 95070000 		.4byte	.LASF100
 1133 02c2 CF00     		.sleb128 79
 1134 02c4 07       		.uleb128 0x7
 1135 02c5 4D060000 		.4byte	.LASF101
 1136 02c9 D000     		.sleb128 80
 1137 02cb 07       		.uleb128 0x7
 1138 02cc 9E080000 		.4byte	.LASF102
 1139 02d0 D100     		.sleb128 81
 1140 02d2 00       		.byte	0
 1141 02d3 08       		.uleb128 0x8
 1142 02d4 6C000000 		.4byte	0x6c
 1143 02d8 E3020000 		.4byte	0x2e3
 1144 02dc 09       		.uleb128 0x9
 1145 02dd 2C000000 		.4byte	0x2c
 1146 02e1 01       		.byte	0x1
 1147 02e2 00       		.byte	0
 1148 02e3 08       		.uleb128 0x8
 1149 02e4 6C000000 		.4byte	0x6c
 1150 02e8 F3020000 		.4byte	0x2f3
 1151 02ec 09       		.uleb128 0x9
 1152 02ed 2C000000 		.4byte	0x2c
 1153 02f1 03       		.byte	0x3
 1154 02f2 00       		.byte	0
 1155 02f3 05       		.uleb128 0x5
 1156 02f4 48000000 		.4byte	0x48
 1157 02f8 05       		.uleb128 0x5
 1158 02f9 5A000000 		.4byte	0x5a
 1159 02fd 0A       		.uleb128 0xa
 1160 02fe 88       		.byte	0x88
 1161 02ff 03       		.byte	0x3
 1162 0300 DB02     		.2byte	0x2db
 1163 0302 CA040000 		.4byte	0x4ca
 1164 0306 0B       		.uleb128 0xb
 1165 0307 435200   		.ascii	"CR\000"
 1166 030a 03       		.byte	0x3
 1167 030b DD02     		.2byte	0x2dd
ARM GAS  /tmp/ccIq2yzc.s 			page 22


 1168 030d 8C000000 		.4byte	0x8c
 1169 0311 02       		.byte	0x2
 1170 0312 23       		.byte	0x23
 1171 0313 00       		.uleb128 0
 1172 0314 0C       		.uleb128 0xc
 1173 0315 46020000 		.4byte	.LASF103
 1174 0319 03       		.byte	0x3
 1175 031a DE02     		.2byte	0x2de
 1176 031c 8C000000 		.4byte	0x8c
 1177 0320 02       		.byte	0x2
 1178 0321 23       		.byte	0x23
 1179 0322 04       		.uleb128 0x4
 1180 0323 0C       		.uleb128 0xc
 1181 0324 A7080000 		.4byte	.LASF104
 1182 0328 03       		.byte	0x3
 1183 0329 DF02     		.2byte	0x2df
 1184 032b 8C000000 		.4byte	0x8c
 1185 032f 02       		.byte	0x2
 1186 0330 23       		.byte	0x23
 1187 0331 08       		.uleb128 0x8
 1188 0332 0B       		.uleb128 0xb
 1189 0333 43495200 		.ascii	"CIR\000"
 1190 0337 03       		.byte	0x3
 1191 0338 E002     		.2byte	0x2e0
 1192 033a 8C000000 		.4byte	0x8c
 1193 033e 02       		.byte	0x2
 1194 033f 23       		.byte	0x23
 1195 0340 0C       		.uleb128 0xc
 1196 0341 0C       		.uleb128 0xc
 1197 0342 9C010000 		.4byte	.LASF105
 1198 0346 03       		.byte	0x3
 1199 0347 E102     		.2byte	0x2e1
 1200 0349 8C000000 		.4byte	0x8c
 1201 034d 02       		.byte	0x2
 1202 034e 23       		.byte	0x23
 1203 034f 10       		.uleb128 0x10
 1204 0350 0C       		.uleb128 0xc
 1205 0351 8F020000 		.4byte	.LASF106
 1206 0355 03       		.byte	0x3
 1207 0356 E202     		.2byte	0x2e2
 1208 0358 8C000000 		.4byte	0x8c
 1209 035c 02       		.byte	0x2
 1210 035d 23       		.byte	0x23
 1211 035e 14       		.uleb128 0x14
 1212 035f 0C       		.uleb128 0xc
 1213 0360 CE030000 		.4byte	.LASF107
 1214 0364 03       		.byte	0x3
 1215 0365 E302     		.2byte	0x2e3
 1216 0367 8C000000 		.4byte	0x8c
 1217 036b 02       		.byte	0x2
 1218 036c 23       		.byte	0x23
 1219 036d 18       		.uleb128 0x18
 1220 036e 0C       		.uleb128 0xc
 1221 036f 73050000 		.4byte	.LASF108
 1222 0373 03       		.byte	0x3
 1223 0374 E402     		.2byte	0x2e4
 1224 0376 6C000000 		.4byte	0x6c
ARM GAS  /tmp/ccIq2yzc.s 			page 23


 1225 037a 02       		.byte	0x2
 1226 037b 23       		.byte	0x23
 1227 037c 1C       		.uleb128 0x1c
 1228 037d 0C       		.uleb128 0xc
 1229 037e 4E050000 		.4byte	.LASF109
 1230 0382 03       		.byte	0x3
 1231 0383 E502     		.2byte	0x2e5
 1232 0385 8C000000 		.4byte	0x8c
 1233 0389 02       		.byte	0x2
 1234 038a 23       		.byte	0x23
 1235 038b 20       		.uleb128 0x20
 1236 038c 0C       		.uleb128 0xc
 1237 038d F4010000 		.4byte	.LASF110
 1238 0391 03       		.byte	0x3
 1239 0392 E602     		.2byte	0x2e6
 1240 0394 8C000000 		.4byte	0x8c
 1241 0398 02       		.byte	0x2
 1242 0399 23       		.byte	0x23
 1243 039a 24       		.uleb128 0x24
 1244 039b 0C       		.uleb128 0xc
 1245 039c 7D050000 		.4byte	.LASF111
 1246 03a0 03       		.byte	0x3
 1247 03a1 E702     		.2byte	0x2e7
 1248 03a3 D3020000 		.4byte	0x2d3
 1249 03a7 02       		.byte	0x2
 1250 03a8 23       		.byte	0x23
 1251 03a9 28       		.uleb128 0x28
 1252 03aa 0C       		.uleb128 0xc
 1253 03ab 88080000 		.4byte	.LASF112
 1254 03af 03       		.byte	0x3
 1255 03b0 E802     		.2byte	0x2e8
 1256 03b2 8C000000 		.4byte	0x8c
 1257 03b6 02       		.byte	0x2
 1258 03b7 23       		.byte	0x23
 1259 03b8 30       		.uleb128 0x30
 1260 03b9 0C       		.uleb128 0xc
 1261 03ba FA030000 		.4byte	.LASF113
 1262 03be 03       		.byte	0x3
 1263 03bf E902     		.2byte	0x2e9
 1264 03c1 8C000000 		.4byte	0x8c
 1265 03c5 02       		.byte	0x2
 1266 03c6 23       		.byte	0x23
 1267 03c7 34       		.uleb128 0x34
 1268 03c8 0C       		.uleb128 0xc
 1269 03c9 E0040000 		.4byte	.LASF114
 1270 03cd 03       		.byte	0x3
 1271 03ce EA02     		.2byte	0x2ea
 1272 03d0 8C000000 		.4byte	0x8c
 1273 03d4 02       		.byte	0x2
 1274 03d5 23       		.byte	0x23
 1275 03d6 38       		.uleb128 0x38
 1276 03d7 0C       		.uleb128 0xc
 1277 03d8 87050000 		.4byte	.LASF115
 1278 03dc 03       		.byte	0x3
 1279 03dd EB02     		.2byte	0x2eb
 1280 03df 6C000000 		.4byte	0x6c
 1281 03e3 02       		.byte	0x2
ARM GAS  /tmp/ccIq2yzc.s 			page 24


 1282 03e4 23       		.byte	0x23
 1283 03e5 3C       		.uleb128 0x3c
 1284 03e6 0C       		.uleb128 0xc
 1285 03e7 EE070000 		.4byte	.LASF116
 1286 03eb 03       		.byte	0x3
 1287 03ec EC02     		.2byte	0x2ec
 1288 03ee 8C000000 		.4byte	0x8c
 1289 03f2 02       		.byte	0x2
 1290 03f3 23       		.byte	0x23
 1291 03f4 40       		.uleb128 0x40
 1292 03f5 0C       		.uleb128 0xc
 1293 03f6 C5060000 		.4byte	.LASF117
 1294 03fa 03       		.byte	0x3
 1295 03fb ED02     		.2byte	0x2ed
 1296 03fd 8C000000 		.4byte	0x8c
 1297 0401 02       		.byte	0x2
 1298 0402 23       		.byte	0x23
 1299 0403 44       		.uleb128 0x44
 1300 0404 0C       		.uleb128 0xc
 1301 0405 91050000 		.4byte	.LASF118
 1302 0409 03       		.byte	0x3
 1303 040a EE02     		.2byte	0x2ee
 1304 040c D3020000 		.4byte	0x2d3
 1305 0410 02       		.byte	0x2
 1306 0411 23       		.byte	0x23
 1307 0412 48       		.uleb128 0x48
 1308 0413 0C       		.uleb128 0xc
 1309 0414 4A010000 		.4byte	.LASF119
 1310 0418 03       		.byte	0x3
 1311 0419 EF02     		.2byte	0x2ef
 1312 041b 8C000000 		.4byte	0x8c
 1313 041f 02       		.byte	0x2
 1314 0420 23       		.byte	0x23
 1315 0421 50       		.uleb128 0x50
 1316 0422 0C       		.uleb128 0xc
 1317 0423 26050000 		.4byte	.LASF120
 1318 0427 03       		.byte	0x3
 1319 0428 F002     		.2byte	0x2f0
 1320 042a 8C000000 		.4byte	0x8c
 1321 042e 02       		.byte	0x2
 1322 042f 23       		.byte	0x23
 1323 0430 54       		.uleb128 0x54
 1324 0431 0C       		.uleb128 0xc
 1325 0432 70060000 		.4byte	.LASF121
 1326 0436 03       		.byte	0x3
 1327 0437 F102     		.2byte	0x2f1
 1328 0439 8C000000 		.4byte	0x8c
 1329 043d 02       		.byte	0x2
 1330 043e 23       		.byte	0x23
 1331 043f 58       		.uleb128 0x58
 1332 0440 0C       		.uleb128 0xc
 1333 0441 9B050000 		.4byte	.LASF122
 1334 0445 03       		.byte	0x3
 1335 0446 F202     		.2byte	0x2f2
 1336 0448 6C000000 		.4byte	0x6c
 1337 044c 02       		.byte	0x2
 1338 044d 23       		.byte	0x23
ARM GAS  /tmp/ccIq2yzc.s 			page 25


 1339 044e 5C       		.uleb128 0x5c
 1340 044f 0C       		.uleb128 0xc
 1341 0450 16000000 		.4byte	.LASF123
 1342 0454 03       		.byte	0x3
 1343 0455 F302     		.2byte	0x2f3
 1344 0457 8C000000 		.4byte	0x8c
 1345 045b 02       		.byte	0x2
 1346 045c 23       		.byte	0x23
 1347 045d 60       		.uleb128 0x60
 1348 045e 0C       		.uleb128 0xc
 1349 045f 18040000 		.4byte	.LASF124
 1350 0463 03       		.byte	0x3
 1351 0464 F402     		.2byte	0x2f4
 1352 0466 8C000000 		.4byte	0x8c
 1353 046a 02       		.byte	0x2
 1354 046b 23       		.byte	0x23
 1355 046c 64       		.uleb128 0x64
 1356 046d 0C       		.uleb128 0xc
 1357 046e A5050000 		.4byte	.LASF125
 1358 0472 03       		.byte	0x3
 1359 0473 F502     		.2byte	0x2f5
 1360 0475 D3020000 		.4byte	0x2d3
 1361 0479 02       		.byte	0x2
 1362 047a 23       		.byte	0x23
 1363 047b 68       		.uleb128 0x68
 1364 047c 0C       		.uleb128 0xc
 1365 047d 79080000 		.4byte	.LASF126
 1366 0481 03       		.byte	0x3
 1367 0482 F602     		.2byte	0x2f6
 1368 0484 8C000000 		.4byte	0x8c
 1369 0488 02       		.byte	0x2
 1370 0489 23       		.byte	0x23
 1371 048a 70       		.uleb128 0x70
 1372 048b 0B       		.uleb128 0xb
 1373 048c 43535200 		.ascii	"CSR\000"
 1374 0490 03       		.byte	0x3
 1375 0491 F702     		.2byte	0x2f7
 1376 0493 8C000000 		.4byte	0x8c
 1377 0497 02       		.byte	0x2
 1378 0498 23       		.byte	0x23
 1379 0499 74       		.uleb128 0x74
 1380 049a 0C       		.uleb128 0xc
 1381 049b AF050000 		.4byte	.LASF127
 1382 049f 03       		.byte	0x3
 1383 04a0 F802     		.2byte	0x2f8
 1384 04a2 D3020000 		.4byte	0x2d3
 1385 04a6 02       		.byte	0x2
 1386 04a7 23       		.byte	0x23
 1387 04a8 78       		.uleb128 0x78
 1388 04a9 0C       		.uleb128 0xc
 1389 04aa 52080000 		.4byte	.LASF128
 1390 04ae 03       		.byte	0x3
 1391 04af F902     		.2byte	0x2f9
 1392 04b1 8C000000 		.4byte	0x8c
 1393 04b5 03       		.byte	0x3
 1394 04b6 23       		.byte	0x23
 1395 04b7 8001     		.uleb128 0x80
ARM GAS  /tmp/ccIq2yzc.s 			page 26


 1396 04b9 0C       		.uleb128 0xc
 1397 04ba B6030000 		.4byte	.LASF129
 1398 04be 03       		.byte	0x3
 1399 04bf FA02     		.2byte	0x2fa
 1400 04c1 8C000000 		.4byte	0x8c
 1401 04c5 03       		.byte	0x3
 1402 04c6 23       		.byte	0x23
 1403 04c7 8401     		.uleb128 0x84
 1404 04c9 00       		.byte	0
 1405 04ca 0D       		.uleb128 0xd
 1406 04cb 4C030000 		.4byte	.LASF130
 1407 04cf 03       		.byte	0x3
 1408 04d0 FB02     		.2byte	0x2fb
 1409 04d2 FD020000 		.4byte	0x2fd
 1410 04d6 0E       		.uleb128 0xe
 1411 04d7 54       		.byte	0x54
 1412 04d8 04       		.byte	0x4
 1413 04d9 72       		.byte	0x72
 1414 04da AB060000 		.4byte	0x6ab
 1415 04de 0F       		.uleb128 0xf
 1416 04df 43523100 		.ascii	"CR1\000"
 1417 04e3 04       		.byte	0x4
 1418 04e4 73       		.byte	0x73
 1419 04e5 F3020000 		.4byte	0x2f3
 1420 04e9 02       		.byte	0x2
 1421 04ea 23       		.byte	0x23
 1422 04eb 00       		.uleb128 0
 1423 04ec 10       		.uleb128 0x10
 1424 04ed 6A000000 		.4byte	.LASF131
 1425 04f1 04       		.byte	0x4
 1426 04f2 74       		.byte	0x74
 1427 04f3 48000000 		.4byte	0x48
 1428 04f7 02       		.byte	0x2
 1429 04f8 23       		.byte	0x23
 1430 04f9 02       		.uleb128 0x2
 1431 04fa 0F       		.uleb128 0xf
 1432 04fb 43523200 		.ascii	"CR2\000"
 1433 04ff 04       		.byte	0x4
 1434 0500 75       		.byte	0x75
 1435 0501 F3020000 		.4byte	0x2f3
 1436 0505 02       		.byte	0x2
 1437 0506 23       		.byte	0x23
 1438 0507 04       		.uleb128 0x4
 1439 0508 10       		.uleb128 0x10
 1440 0509 72000000 		.4byte	.LASF132
 1441 050d 04       		.byte	0x4
 1442 050e 76       		.byte	0x76
 1443 050f 48000000 		.4byte	0x48
 1444 0513 02       		.byte	0x2
 1445 0514 23       		.byte	0x23
 1446 0515 06       		.uleb128 0x6
 1447 0516 10       		.uleb128 0x10
 1448 0517 A4030000 		.4byte	.LASF133
 1449 051b 04       		.byte	0x4
 1450 051c 77       		.byte	0x77
 1451 051d F3020000 		.4byte	0x2f3
 1452 0521 02       		.byte	0x2
ARM GAS  /tmp/ccIq2yzc.s 			page 27


 1453 0522 23       		.byte	0x23
 1454 0523 08       		.uleb128 0x8
 1455 0524 10       		.uleb128 0x10
 1456 0525 69070000 		.4byte	.LASF134
 1457 0529 04       		.byte	0x4
 1458 052a 78       		.byte	0x78
 1459 052b 48000000 		.4byte	0x48
 1460 052f 02       		.byte	0x2
 1461 0530 23       		.byte	0x23
 1462 0531 0A       		.uleb128 0xa
 1463 0532 10       		.uleb128 0x10
 1464 0533 90080000 		.4byte	.LASF135
 1465 0537 04       		.byte	0x4
 1466 0538 79       		.byte	0x79
 1467 0539 F3020000 		.4byte	0x2f3
 1468 053d 02       		.byte	0x2
 1469 053e 23       		.byte	0x23
 1470 053f 0C       		.uleb128 0xc
 1471 0540 10       		.uleb128 0x10
 1472 0541 71070000 		.4byte	.LASF136
 1473 0545 04       		.byte	0x4
 1474 0546 7A       		.byte	0x7a
 1475 0547 48000000 		.4byte	0x48
 1476 054b 02       		.byte	0x2
 1477 054c 23       		.byte	0x23
 1478 054d 0E       		.uleb128 0xe
 1479 054e 0F       		.uleb128 0xf
 1480 054f 535200   		.ascii	"SR\000"
 1481 0552 04       		.byte	0x4
 1482 0553 7B       		.byte	0x7b
 1483 0554 F3020000 		.4byte	0x2f3
 1484 0558 02       		.byte	0x2
 1485 0559 23       		.byte	0x23
 1486 055a 10       		.uleb128 0x10
 1487 055b 10       		.uleb128 0x10
 1488 055c 90000000 		.4byte	.LASF137
 1489 0560 04       		.byte	0x4
 1490 0561 7C       		.byte	0x7c
 1491 0562 48000000 		.4byte	0x48
 1492 0566 02       		.byte	0x2
 1493 0567 23       		.byte	0x23
 1494 0568 12       		.uleb128 0x12
 1495 0569 0F       		.uleb128 0xf
 1496 056a 45475200 		.ascii	"EGR\000"
 1497 056e 04       		.byte	0x4
 1498 056f 7D       		.byte	0x7d
 1499 0570 F3020000 		.4byte	0x2f3
 1500 0574 02       		.byte	0x2
 1501 0575 23       		.byte	0x23
 1502 0576 14       		.uleb128 0x14
 1503 0577 10       		.uleb128 0x10
 1504 0578 98000000 		.4byte	.LASF138
 1505 057c 04       		.byte	0x4
 1506 057d 7E       		.byte	0x7e
 1507 057e 48000000 		.4byte	0x48
 1508 0582 02       		.byte	0x2
 1509 0583 23       		.byte	0x23
ARM GAS  /tmp/ccIq2yzc.s 			page 28


 1510 0584 16       		.uleb128 0x16
 1511 0585 10       		.uleb128 0x10
 1512 0586 68010000 		.4byte	.LASF139
 1513 058a 04       		.byte	0x4
 1514 058b 7F       		.byte	0x7f
 1515 058c F3020000 		.4byte	0x2f3
 1516 0590 02       		.byte	0x2
 1517 0591 23       		.byte	0x23
 1518 0592 18       		.uleb128 0x18
 1519 0593 10       		.uleb128 0x10
 1520 0594 A0000000 		.4byte	.LASF140
 1521 0598 04       		.byte	0x4
 1522 0599 80       		.byte	0x80
 1523 059a 48000000 		.4byte	0x48
 1524 059e 02       		.byte	0x2
 1525 059f 23       		.byte	0x23
 1526 05a0 1A       		.uleb128 0x1a
 1527 05a1 10       		.uleb128 0x10
 1528 05a2 6E010000 		.4byte	.LASF141
 1529 05a6 04       		.byte	0x4
 1530 05a7 81       		.byte	0x81
 1531 05a8 F3020000 		.4byte	0x2f3
 1532 05ac 02       		.byte	0x2
 1533 05ad 23       		.byte	0x23
 1534 05ae 1C       		.uleb128 0x1c
 1535 05af 10       		.uleb128 0x10
 1536 05b0 A8000000 		.4byte	.LASF142
 1537 05b4 04       		.byte	0x4
 1538 05b5 82       		.byte	0x82
 1539 05b6 48000000 		.4byte	0x48
 1540 05ba 02       		.byte	0x2
 1541 05bb 23       		.byte	0x23
 1542 05bc 1E       		.uleb128 0x1e
 1543 05bd 10       		.uleb128 0x10
 1544 05be 1C020000 		.4byte	.LASF143
 1545 05c2 04       		.byte	0x4
 1546 05c3 83       		.byte	0x83
 1547 05c4 F3020000 		.4byte	0x2f3
 1548 05c8 02       		.byte	0x2
 1549 05c9 23       		.byte	0x23
 1550 05ca 20       		.uleb128 0x20
 1551 05cb 10       		.uleb128 0x10
 1552 05cc B0000000 		.4byte	.LASF144
 1553 05d0 04       		.byte	0x4
 1554 05d1 84       		.byte	0x84
 1555 05d2 48000000 		.4byte	0x48
 1556 05d6 02       		.byte	0x2
 1557 05d7 23       		.byte	0x23
 1558 05d8 22       		.uleb128 0x22
 1559 05d9 0F       		.uleb128 0xf
 1560 05da 434E5400 		.ascii	"CNT\000"
 1561 05de 04       		.byte	0x4
 1562 05df 85       		.byte	0x85
 1563 05e0 8C000000 		.4byte	0x8c
 1564 05e4 02       		.byte	0x2
 1565 05e5 23       		.byte	0x23
 1566 05e6 24       		.uleb128 0x24
ARM GAS  /tmp/ccIq2yzc.s 			page 29


 1567 05e7 0F       		.uleb128 0xf
 1568 05e8 50534300 		.ascii	"PSC\000"
 1569 05ec 04       		.byte	0x4
 1570 05ed 86       		.byte	0x86
 1571 05ee F3020000 		.4byte	0x2f3
 1572 05f2 02       		.byte	0x2
 1573 05f3 23       		.byte	0x23
 1574 05f4 28       		.uleb128 0x28
 1575 05f5 10       		.uleb128 0x10
 1576 05f6 B8000000 		.4byte	.LASF145
 1577 05fa 04       		.byte	0x4
 1578 05fb 87       		.byte	0x87
 1579 05fc 48000000 		.4byte	0x48
 1580 0600 02       		.byte	0x2
 1581 0601 23       		.byte	0x23
 1582 0602 2A       		.uleb128 0x2a
 1583 0603 0F       		.uleb128 0xf
 1584 0604 41525200 		.ascii	"ARR\000"
 1585 0608 04       		.byte	0x4
 1586 0609 88       		.byte	0x88
 1587 060a 8C000000 		.4byte	0x8c
 1588 060e 02       		.byte	0x2
 1589 060f 23       		.byte	0x23
 1590 0610 2C       		.uleb128 0x2c
 1591 0611 0F       		.uleb128 0xf
 1592 0612 52435200 		.ascii	"RCR\000"
 1593 0616 04       		.byte	0x4
 1594 0617 89       		.byte	0x89
 1595 0618 F3020000 		.4byte	0x2f3
 1596 061c 02       		.byte	0x2
 1597 061d 23       		.byte	0x23
 1598 061e 30       		.uleb128 0x30
 1599 061f 10       		.uleb128 0x10
 1600 0620 CA010000 		.4byte	.LASF146
 1601 0624 04       		.byte	0x4
 1602 0625 8A       		.byte	0x8a
 1603 0626 48000000 		.4byte	0x48
 1604 062a 02       		.byte	0x2
 1605 062b 23       		.byte	0x23
 1606 062c 32       		.uleb128 0x32
 1607 062d 0F       		.uleb128 0xf
 1608 062e 43435200 		.ascii	"CCR\000"
 1609 0632 04       		.byte	0x4
 1610 0633 8B       		.byte	0x8b
 1611 0634 AB060000 		.4byte	0x6ab
 1612 0638 02       		.byte	0x2
 1613 0639 23       		.byte	0x23
 1614 063a 34       		.uleb128 0x34
 1615 063b 10       		.uleb128 0x10
 1616 063c CD020000 		.4byte	.LASF147
 1617 0640 04       		.byte	0x4
 1618 0641 8C       		.byte	0x8c
 1619 0642 F3020000 		.4byte	0x2f3
 1620 0646 02       		.byte	0x2
 1621 0647 23       		.byte	0x23
 1622 0648 44       		.uleb128 0x44
 1623 0649 10       		.uleb128 0x10
ARM GAS  /tmp/ccIq2yzc.s 			page 30


 1624 064a C0000000 		.4byte	.LASF148
 1625 064e 04       		.byte	0x4
 1626 064f 8D       		.byte	0x8d
 1627 0650 48000000 		.4byte	0x48
 1628 0654 02       		.byte	0x2
 1629 0655 23       		.byte	0x23
 1630 0656 46       		.uleb128 0x46
 1631 0657 0F       		.uleb128 0xf
 1632 0658 44435200 		.ascii	"DCR\000"
 1633 065c 04       		.byte	0x4
 1634 065d 8E       		.byte	0x8e
 1635 065e F3020000 		.4byte	0x2f3
 1636 0662 02       		.byte	0x2
 1637 0663 23       		.byte	0x23
 1638 0664 48       		.uleb128 0x48
 1639 0665 10       		.uleb128 0x10
 1640 0666 D9010000 		.4byte	.LASF149
 1641 066a 04       		.byte	0x4
 1642 066b 8F       		.byte	0x8f
 1643 066c 48000000 		.4byte	0x48
 1644 0670 02       		.byte	0x2
 1645 0671 23       		.byte	0x23
 1646 0672 4A       		.uleb128 0x4a
 1647 0673 10       		.uleb128 0x10
 1648 0674 A6070000 		.4byte	.LASF150
 1649 0678 04       		.byte	0x4
 1650 0679 90       		.byte	0x90
 1651 067a F3020000 		.4byte	0x2f3
 1652 067e 02       		.byte	0x2
 1653 067f 23       		.byte	0x23
 1654 0680 4C       		.uleb128 0x4c
 1655 0681 10       		.uleb128 0x10
 1656 0682 E2000000 		.4byte	.LASF151
 1657 0686 04       		.byte	0x4
 1658 0687 91       		.byte	0x91
 1659 0688 48000000 		.4byte	0x48
 1660 068c 02       		.byte	0x2
 1661 068d 23       		.byte	0x23
 1662 068e 4E       		.uleb128 0x4e
 1663 068f 0F       		.uleb128 0xf
 1664 0690 4F5200   		.ascii	"OR\000"
 1665 0693 04       		.byte	0x4
 1666 0694 92       		.byte	0x92
 1667 0695 F3020000 		.4byte	0x2f3
 1668 0699 02       		.byte	0x2
 1669 069a 23       		.byte	0x23
 1670 069b 50       		.uleb128 0x50
 1671 069c 10       		.uleb128 0x10
 1672 069d EB010000 		.4byte	.LASF152
 1673 06a1 04       		.byte	0x4
 1674 06a2 93       		.byte	0x93
 1675 06a3 48000000 		.4byte	0x48
 1676 06a7 02       		.byte	0x2
 1677 06a8 23       		.byte	0x23
 1678 06a9 52       		.uleb128 0x52
 1679 06aa 00       		.byte	0
 1680 06ab 05       		.uleb128 0x5
ARM GAS  /tmp/ccIq2yzc.s 			page 31


 1681 06ac E3020000 		.4byte	0x2e3
 1682 06b0 04       		.uleb128 0x4
 1683 06b1 0C040000 		.4byte	.LASF153
 1684 06b5 04       		.byte	0x4
 1685 06b6 94       		.byte	0x94
 1686 06b7 D6040000 		.4byte	0x4d6
 1687 06bb 11       		.uleb128 0x11
 1688 06bc 01       		.byte	0x1
 1689 06bd 05       		.byte	0x5
 1690 06be 3C       		.byte	0x3c
 1691 06bf E8060000 		.4byte	0x6e8
 1692 06c3 07       		.uleb128 0x7
 1693 06c4 20000000 		.4byte	.LASF154
 1694 06c8 00       		.sleb128 0
 1695 06c9 07       		.uleb128 0x7
 1696 06ca 30050000 		.4byte	.LASF155
 1697 06ce 01       		.sleb128 1
 1698 06cf 07       		.uleb128 0x7
 1699 06d0 1D080000 		.4byte	.LASF156
 1700 06d4 02       		.sleb128 2
 1701 06d5 07       		.uleb128 0x7
 1702 06d6 36040000 		.4byte	.LASF157
 1703 06da 03       		.sleb128 3
 1704 06db 07       		.uleb128 0x7
 1705 06dc 5D010000 		.4byte	.LASF158
 1706 06e0 04       		.sleb128 4
 1707 06e1 07       		.uleb128 0x7
 1708 06e2 54010000 		.4byte	.LASF159
 1709 06e6 05       		.sleb128 5
 1710 06e7 00       		.byte	0
 1711 06e8 04       		.uleb128 0x4
 1712 06e9 C9000000 		.4byte	.LASF160
 1713 06ed 05       		.byte	0x5
 1714 06ee 43       		.byte	0x43
 1715 06ef BB060000 		.4byte	0x6bb
 1716 06f3 04       		.uleb128 0x4
 1717 06f4 F0030000 		.4byte	.LASF161
 1718 06f8 05       		.byte	0x5
 1719 06f9 48       		.byte	0x48
 1720 06fa FE060000 		.4byte	0x6fe
 1721 06fe 12       		.uleb128 0x12
 1722 06ff F0030000 		.4byte	.LASF161
 1723 0703 10       		.byte	0x10
 1724 0704 06       		.byte	0x6
 1725 0705 EB       		.byte	0xeb
 1726 0706 43070000 		.4byte	0x743
 1727 070a 10       		.uleb128 0x10
 1728 070b D3010000 		.4byte	.LASF162
 1729 070f 06       		.byte	0x6
 1730 0710 EF       		.byte	0xef
 1731 0711 E8060000 		.4byte	0x6e8
 1732 0715 02       		.byte	0x2
 1733 0716 23       		.byte	0x23
 1734 0717 00       		.uleb128 0
 1735 0718 10       		.uleb128 0x10
 1736 0719 9F070000 		.4byte	.LASF163
 1737 071d 06       		.byte	0x6
ARM GAS  /tmp/ccIq2yzc.s 			page 32


 1738 071e F3       		.byte	0xf3
 1739 071f DD070000 		.4byte	0x7dd
 1740 0723 02       		.byte	0x2
 1741 0724 23       		.byte	0x23
 1742 0725 04       		.uleb128 0x4
 1743 0726 10       		.uleb128 0x10
 1744 0727 BA080000 		.4byte	.LASF164
 1745 072b 06       		.byte	0x6
 1746 072c FB       		.byte	0xfb
 1747 072d 6C000000 		.4byte	0x6c
 1748 0731 02       		.byte	0x2
 1749 0732 23       		.byte	0x23
 1750 0733 08       		.uleb128 0x8
 1751 0734 0F       		.uleb128 0xf
 1752 0735 74696D00 		.ascii	"tim\000"
 1753 0739 06       		.byte	0x6
 1754 073a FF       		.byte	0xff
 1755 073b E8070000 		.4byte	0x7e8
 1756 073f 02       		.byte	0x2
 1757 0740 23       		.byte	0x23
 1758 0741 0C       		.uleb128 0xc
 1759 0742 00       		.byte	0
 1760 0743 04       		.uleb128 0x4
 1761 0744 3E030000 		.4byte	.LASF165
 1762 0748 05       		.byte	0x5
 1763 0749 4F       		.byte	0x4f
 1764 074a 4E070000 		.4byte	0x74e
 1765 074e 13       		.uleb128 0x13
 1766 074f 04       		.byte	0x4
 1767 0750 54070000 		.4byte	0x754
 1768 0754 14       		.uleb128 0x14
 1769 0755 01       		.byte	0x1
 1770 0756 60070000 		.4byte	0x760
 1771 075a 15       		.uleb128 0x15
 1772 075b 60070000 		.4byte	0x760
 1773 075f 00       		.byte	0
 1774 0760 13       		.uleb128 0x13
 1775 0761 04       		.byte	0x4
 1776 0762 F3060000 		.4byte	0x6f3
 1777 0766 11       		.uleb128 0x11
 1778 0767 01       		.byte	0x1
 1779 0768 06       		.byte	0x6
 1780 0769 BF       		.byte	0xbf
 1781 076a 7B070000 		.4byte	0x77b
 1782 076e 07       		.uleb128 0x7
 1783 076f 00000000 		.4byte	.LASF166
 1784 0773 00       		.sleb128 0
 1785 0774 07       		.uleb128 0x7
 1786 0775 39050000 		.4byte	.LASF167
 1787 0779 01       		.sleb128 1
 1788 077a 00       		.byte	0
 1789 077b 04       		.uleb128 0x4
 1790 077c 9D060000 		.4byte	.LASF168
 1791 0780 06       		.byte	0x6
 1792 0781 C2       		.byte	0xc2
 1793 0782 66070000 		.4byte	0x766
 1794 0786 04       		.uleb128 0x4
ARM GAS  /tmp/ccIq2yzc.s 			page 33


 1795 0787 13080000 		.4byte	.LASF169
 1796 078b 06       		.byte	0x6
 1797 078c C7       		.byte	0xc7
 1798 078d 6C000000 		.4byte	0x6c
 1799 0791 0E       		.uleb128 0xe
 1800 0792 10       		.byte	0x10
 1801 0793 06       		.byte	0x6
 1802 0794 D2       		.byte	0xd2
 1803 0795 D2070000 		.4byte	0x7d2
 1804 0799 10       		.uleb128 0x10
 1805 079a 90070000 		.4byte	.LASF170
 1806 079e 06       		.byte	0x6
 1807 079f D6       		.byte	0xd6
 1808 07a0 7B070000 		.4byte	0x77b
 1809 07a4 02       		.byte	0x2
 1810 07a5 23       		.byte	0x23
 1811 07a6 00       		.uleb128 0
 1812 07a7 10       		.uleb128 0x10
 1813 07a8 40010000 		.4byte	.LASF171
 1814 07ac 06       		.byte	0x6
 1815 07ad DC       		.byte	0xdc
 1816 07ae 86070000 		.4byte	0x786
 1817 07b2 02       		.byte	0x2
 1818 07b3 23       		.byte	0x23
 1819 07b4 04       		.uleb128 0x4
 1820 07b5 10       		.uleb128 0x10
 1821 07b6 D7040000 		.4byte	.LASF172
 1822 07ba 06       		.byte	0x6
 1823 07bb E0       		.byte	0xe0
 1824 07bc 43070000 		.4byte	0x743
 1825 07c0 02       		.byte	0x2
 1826 07c1 23       		.byte	0x23
 1827 07c2 08       		.uleb128 0x8
 1828 07c3 10       		.uleb128 0x10
 1829 07c4 58030000 		.4byte	.LASF173
 1830 07c8 06       		.byte	0x6
 1831 07c9 E4       		.byte	0xe4
 1832 07ca 43070000 		.4byte	0x743
 1833 07ce 02       		.byte	0x2
 1834 07cf 23       		.byte	0x23
 1835 07d0 0C       		.uleb128 0xc
 1836 07d1 00       		.byte	0
 1837 07d2 04       		.uleb128 0x4
 1838 07d3 A5010000 		.4byte	.LASF174
 1839 07d7 06       		.byte	0x6
 1840 07d8 E6       		.byte	0xe6
 1841 07d9 91070000 		.4byte	0x791
 1842 07dd 13       		.uleb128 0x13
 1843 07de 04       		.byte	0x4
 1844 07df E3070000 		.4byte	0x7e3
 1845 07e3 16       		.uleb128 0x16
 1846 07e4 D2070000 		.4byte	0x7d2
 1847 07e8 13       		.uleb128 0x13
 1848 07e9 04       		.byte	0x4
 1849 07ea B0060000 		.4byte	0x6b0
 1850 07ee 17       		.uleb128 0x17
 1851 07ef 80030000 		.4byte	.LASF196
ARM GAS  /tmp/ccIq2yzc.s 			page 34


 1852 07f3 01       		.byte	0x1
 1853 07f4 6A       		.byte	0x6a
 1854 07f5 01       		.byte	0x1
 1855 07f6 01       		.byte	0x1
 1856 07f7 1E080000 		.4byte	0x81e
 1857 07fb 18       		.uleb128 0x18
 1858 07fc CF050000 		.4byte	.LASF185
 1859 0800 01       		.byte	0x1
 1860 0801 6A       		.byte	0x6a
 1861 0802 60070000 		.4byte	0x760
 1862 0806 19       		.uleb128 0x19
 1863 0807 737200   		.ascii	"sr\000"
 1864 080a 01       		.byte	0x1
 1865 080b 6B       		.byte	0x6b
 1866 080c 48000000 		.4byte	0x48
 1867 0810 1A       		.uleb128 0x1a
 1868 0811 1B       		.uleb128 0x1b
 1869 0812 4E070000 		.4byte	.LASF175
 1870 0816 01       		.byte	0x1
 1871 0817 70       		.byte	0x70
 1872 0818 E8060000 		.4byte	0x6e8
 1873 081c 00       		.byte	0
 1874 081d 00       		.byte	0
 1875 081e 1C       		.uleb128 0x1c
 1876 081f EE070000 		.4byte	0x7ee
 1877 0823 00000000 		.4byte	.LFB117
 1878 0827 3A000000 		.4byte	.LFE117
 1879 082b 00000000 		.4byte	.LLST0
 1880 082f 85080000 		.4byte	0x885
 1881 0833 1D       		.uleb128 0x1d
 1882 0834 FB070000 		.4byte	0x7fb
 1883 0838 20000000 		.4byte	.LLST1
 1884 083c 1E       		.uleb128 0x1e
 1885 083d 06080000 		.4byte	0x806
 1886 0841 3E000000 		.4byte	.LLST2
 1887 0845 1F       		.uleb128 0x1f
 1888 0846 14000000 		.4byte	.LBB7
 1889 084a 28000000 		.4byte	.LBE7
 1890 084e 5C080000 		.4byte	0x85c
 1891 0852 1E       		.uleb128 0x1e
 1892 0853 11080000 		.4byte	0x811
 1893 0857 56000000 		.4byte	.LLST3
 1894 085b 00       		.byte	0
 1895 085c 20       		.uleb128 0x20
 1896 085d EE070000 		.4byte	0x7ee
 1897 0861 2C000000 		.4byte	.LBB8
 1898 0865 3A000000 		.4byte	.LBE8
 1899 0869 01       		.byte	0x1
 1900 086a 6A       		.byte	0x6a
 1901 086b 1D       		.uleb128 0x1d
 1902 086c FB070000 		.4byte	0x7fb
 1903 0870 69000000 		.4byte	.LLST4
 1904 0874 21       		.uleb128 0x21
 1905 0875 2C000000 		.4byte	.LBB9
 1906 0879 3A000000 		.4byte	.LBE9
 1907 087d 22       		.uleb128 0x22
 1908 087e 06080000 		.4byte	0x806
ARM GAS  /tmp/ccIq2yzc.s 			page 35


 1909 0882 00       		.byte	0
 1910 0883 00       		.byte	0
 1911 0884 00       		.byte	0
 1912 0885 23       		.uleb128 0x23
 1913 0886 01       		.byte	0x1
 1914 0887 87000000 		.4byte	.LASF176
 1915 088b 01       		.byte	0x1
 1916 088c 82       		.byte	0x82
 1917 088d 01       		.byte	0x1
 1918 088e 00000000 		.4byte	.LFB118
 1919 0892 16000000 		.4byte	.LFE118
 1920 0896 7C000000 		.4byte	.LLST5
 1921 089a 23       		.uleb128 0x23
 1922 089b 01       		.byte	0x1
 1923 089c 95080000 		.4byte	.LASF177
 1924 08a0 01       		.byte	0x1
 1925 08a1 93       		.byte	0x93
 1926 08a2 01       		.byte	0x1
 1927 08a3 00000000 		.4byte	.LFB119
 1928 08a7 16000000 		.4byte	.LFE119
 1929 08ab 9C000000 		.4byte	.LLST6
 1930 08af 23       		.uleb128 0x23
 1931 08b0 01       		.byte	0x1
 1932 08b1 C1010000 		.4byte	.LASF178
 1933 08b5 01       		.byte	0x1
 1934 08b6 B9       		.byte	0xb9
 1935 08b7 01       		.byte	0x1
 1936 08b8 00000000 		.4byte	.LFB120
 1937 08bc 16000000 		.4byte	.LFE120
 1938 08c0 BC000000 		.4byte	.LLST7
 1939 08c4 23       		.uleb128 0x23
 1940 08c5 01       		.byte	0x1
 1941 08c6 02040000 		.4byte	.LASF179
 1942 08ca 01       		.byte	0x1
 1943 08cb DF       		.byte	0xdf
 1944 08cc 01       		.byte	0x1
 1945 08cd 00000000 		.4byte	.LFB121
 1946 08d1 16000000 		.4byte	.LFE121
 1947 08d5 DC000000 		.4byte	.LLST8
 1948 08d9 23       		.uleb128 0x23
 1949 08da 01       		.byte	0x1
 1950 08db 09070000 		.4byte	.LASF180
 1951 08df 01       		.byte	0x1
 1952 08e0 F2       		.byte	0xf2
 1953 08e1 01       		.byte	0x1
 1954 08e2 00000000 		.4byte	.LFB122
 1955 08e6 16000000 		.4byte	.LFE122
 1956 08ea FC000000 		.4byte	.LLST9
 1957 08ee 24       		.uleb128 0x24
 1958 08ef 01       		.byte	0x1
 1959 08f0 A6020000 		.4byte	.LASF181
 1960 08f4 01       		.byte	0x1
 1961 08f5 0301     		.2byte	0x103
 1962 08f7 01       		.byte	0x1
 1963 08f8 00000000 		.4byte	.LFB123
 1964 08fc 16000000 		.4byte	.LFE123
 1965 0900 1C010000 		.4byte	.LLST10
ARM GAS  /tmp/ccIq2yzc.s 			page 36


 1966 0904 24       		.uleb128 0x24
 1967 0905 01       		.byte	0x1
 1968 0906 A9030000 		.4byte	.LASF182
 1969 090a 01       		.byte	0x1
 1970 090b 1601     		.2byte	0x116
 1971 090d 01       		.byte	0x1
 1972 090e 00000000 		.4byte	.LFB124
 1973 0912 62000000 		.4byte	.LFE124
 1974 0916 3C010000 		.4byte	.LLST11
 1975 091a 25       		.uleb128 0x25
 1976 091b 01       		.byte	0x1
 1977 091c AC080000 		.4byte	.LASF183
 1978 0920 01       		.byte	0x1
 1979 0921 4401     		.2byte	0x144
 1980 0923 01       		.byte	0x1
 1981 0924 00000000 		.4byte	.LFB125
 1982 0928 7A010000 		.4byte	.LFE125
 1983 092c 5C010000 		.4byte	.LLST12
 1984 0930 51090000 		.4byte	0x951
 1985 0934 26       		.uleb128 0x26
 1986 0935 CF050000 		.4byte	.LASF185
 1987 0939 01       		.byte	0x1
 1988 093a 4401     		.2byte	0x144
 1989 093c 60070000 		.4byte	0x760
 1990 0940 7C010000 		.4byte	.LLST13
 1991 0944 27       		.uleb128 0x27
 1992 0945 70736300 		.ascii	"psc\000"
 1993 0949 01       		.byte	0x1
 1994 094a 4501     		.2byte	0x145
 1995 094c 6C000000 		.4byte	0x6c
 1996 0950 00       		.byte	0
 1997 0951 25       		.uleb128 0x25
 1998 0952 01       		.byte	0x1
 1999 0953 F6070000 		.4byte	.LASF184
 2000 0957 01       		.byte	0x1
 2001 0958 B101     		.2byte	0x1b1
 2002 095a 01       		.byte	0x1
 2003 095b 00000000 		.4byte	.LFB126
 2004 095f BA000000 		.4byte	.LFE126
 2005 0963 9A010000 		.4byte	.LLST14
 2006 0967 7C090000 		.4byte	0x97c
 2007 096b 26       		.uleb128 0x26
 2008 096c CF050000 		.4byte	.LASF185
 2009 0970 01       		.byte	0x1
 2010 0971 B101     		.2byte	0x1b1
 2011 0973 60070000 		.4byte	0x760
 2012 0977 BA010000 		.4byte	.LLST15
 2013 097b 00       		.byte	0
 2014 097c 28       		.uleb128 0x28
 2015 097d 01       		.byte	0x1
 2016 097e 3E060000 		.4byte	.LASF186
 2017 0982 01       		.byte	0x1
 2018 0983 E901     		.2byte	0x1e9
 2019 0985 01       		.byte	0x1
 2020 0986 00000000 		.4byte	.LFB127
 2021 098a 30000000 		.4byte	.LFE127
 2022 098e 02       		.byte	0x2
ARM GAS  /tmp/ccIq2yzc.s 			page 37


 2023 098f 7D       		.byte	0x7d
 2024 0990 00       		.sleb128 0
 2025 0991 A6090000 		.4byte	0x9a6
 2026 0995 26       		.uleb128 0x26
 2027 0996 CF050000 		.4byte	.LASF185
 2028 099a 01       		.byte	0x1
 2029 099b E901     		.2byte	0x1e9
 2030 099d 60070000 		.4byte	0x760
 2031 09a1 D8010000 		.4byte	.LLST16
 2032 09a5 00       		.byte	0
 2033 09a6 28       		.uleb128 0x28
 2034 09a7 01       		.byte	0x1
 2035 09a8 63050000 		.4byte	.LASF187
 2036 09ac 01       		.byte	0x1
 2037 09ad FA01     		.2byte	0x1fa
 2038 09af 01       		.byte	0x1
 2039 09b0 00000000 		.4byte	.LFB128
 2040 09b4 0C000000 		.4byte	.LFE128
 2041 09b8 02       		.byte	0x2
 2042 09b9 7D       		.byte	0x7d
 2043 09ba 00       		.sleb128 0
 2044 09bb CE090000 		.4byte	0x9ce
 2045 09bf 29       		.uleb128 0x29
 2046 09c0 CF050000 		.4byte	.LASF185
 2047 09c4 01       		.byte	0x1
 2048 09c5 FA01     		.2byte	0x1fa
 2049 09c7 60070000 		.4byte	0x760
 2050 09cb 01       		.byte	0x1
 2051 09cc 50       		.byte	0x50
 2052 09cd 00       		.byte	0
 2053 09ce 2A       		.uleb128 0x2a
 2054 09cf 31060000 		.4byte	.LASF188
 2055 09d3 07       		.byte	0x7
 2056 09d4 1A05     		.2byte	0x51a
 2057 09d6 F8020000 		.4byte	0x2f8
 2058 09da 01       		.byte	0x1
 2059 09db 01       		.byte	0x1
 2060 09dc 2B       		.uleb128 0x2b
 2061 09dd F1020000 		.4byte	.LASF189
 2062 09e1 01       		.byte	0x1
 2063 09e2 32       		.byte	0x32
 2064 09e3 F3060000 		.4byte	0x6f3
 2065 09e7 01       		.byte	0x1
 2066 09e8 05       		.byte	0x5
 2067 09e9 03       		.byte	0x3
 2068 09ea 00000000 		.4byte	ICUD1
 2069 09ee 2B       		.uleb128 0x2b
 2070 09ef C3050000 		.4byte	.LASF190
 2071 09f3 01       		.byte	0x1
 2072 09f4 42       		.byte	0x42
 2073 09f5 F3060000 		.4byte	0x6f3
 2074 09f9 01       		.byte	0x1
 2075 09fa 05       		.byte	0x5
 2076 09fb 03       		.byte	0x3
 2077 09fc 00000000 		.4byte	ICUD3
 2078 0a00 2B       		.uleb128 0x2b
 2079 0a01 C9050000 		.4byte	.LASF191
ARM GAS  /tmp/ccIq2yzc.s 			page 38


 2080 0a05 01       		.byte	0x1
 2081 0a06 52       		.byte	0x52
 2082 0a07 F3060000 		.4byte	0x6f3
 2083 0a0b 01       		.byte	0x1
 2084 0a0c 05       		.byte	0x5
 2085 0a0d 03       		.byte	0x3
 2086 0a0e 00000000 		.4byte	ICUD5
 2087 0a12 2B       		.uleb128 0x2b
 2088 0a13 E6050000 		.4byte	.LASF192
 2089 0a17 01       		.byte	0x1
 2090 0a18 5A       		.byte	0x5a
 2091 0a19 F3060000 		.4byte	0x6f3
 2092 0a1d 01       		.byte	0x1
 2093 0a1e 05       		.byte	0x5
 2094 0a1f 03       		.byte	0x3
 2095 0a20 00000000 		.4byte	ICUD8
 2096 0a24 00       		.byte	0
 2097              		.section	.debug_abbrev,"",%progbits
 2098              	.Ldebug_abbrev0:
 2099 0000 01       		.uleb128 0x1
 2100 0001 11       		.uleb128 0x11
 2101 0002 01       		.byte	0x1
 2102 0003 25       		.uleb128 0x25
 2103 0004 0E       		.uleb128 0xe
 2104 0005 13       		.uleb128 0x13
 2105 0006 0B       		.uleb128 0xb
 2106 0007 03       		.uleb128 0x3
 2107 0008 0E       		.uleb128 0xe
 2108 0009 11       		.uleb128 0x11
 2109 000a 01       		.uleb128 0x1
 2110 000b 52       		.uleb128 0x52
 2111 000c 01       		.uleb128 0x1
 2112 000d 55       		.uleb128 0x55
 2113 000e 06       		.uleb128 0x6
 2114 000f 10       		.uleb128 0x10
 2115 0010 06       		.uleb128 0x6
 2116 0011 00       		.byte	0
 2117 0012 00       		.byte	0
 2118 0013 02       		.uleb128 0x2
 2119 0014 24       		.uleb128 0x24
 2120 0015 00       		.byte	0
 2121 0016 0B       		.uleb128 0xb
 2122 0017 0B       		.uleb128 0xb
 2123 0018 3E       		.uleb128 0x3e
 2124 0019 0B       		.uleb128 0xb
 2125 001a 03       		.uleb128 0x3
 2126 001b 08       		.uleb128 0x8
 2127 001c 00       		.byte	0
 2128 001d 00       		.byte	0
 2129 001e 03       		.uleb128 0x3
 2130 001f 24       		.uleb128 0x24
 2131 0020 00       		.byte	0
 2132 0021 0B       		.uleb128 0xb
 2133 0022 0B       		.uleb128 0xb
 2134 0023 3E       		.uleb128 0x3e
 2135 0024 0B       		.uleb128 0xb
 2136 0025 03       		.uleb128 0x3
ARM GAS  /tmp/ccIq2yzc.s 			page 39


 2137 0026 0E       		.uleb128 0xe
 2138 0027 00       		.byte	0
 2139 0028 00       		.byte	0
 2140 0029 04       		.uleb128 0x4
 2141 002a 16       		.uleb128 0x16
 2142 002b 00       		.byte	0
 2143 002c 03       		.uleb128 0x3
 2144 002d 0E       		.uleb128 0xe
 2145 002e 3A       		.uleb128 0x3a
 2146 002f 0B       		.uleb128 0xb
 2147 0030 3B       		.uleb128 0x3b
 2148 0031 0B       		.uleb128 0xb
 2149 0032 49       		.uleb128 0x49
 2150 0033 13       		.uleb128 0x13
 2151 0034 00       		.byte	0
 2152 0035 00       		.byte	0
 2153 0036 05       		.uleb128 0x5
 2154 0037 35       		.uleb128 0x35
 2155 0038 00       		.byte	0
 2156 0039 49       		.uleb128 0x49
 2157 003a 13       		.uleb128 0x13
 2158 003b 00       		.byte	0
 2159 003c 00       		.byte	0
 2160 003d 06       		.uleb128 0x6
 2161 003e 04       		.uleb128 0x4
 2162 003f 01       		.byte	0x1
 2163 0040 03       		.uleb128 0x3
 2164 0041 0E       		.uleb128 0xe
 2165 0042 0B       		.uleb128 0xb
 2166 0043 0B       		.uleb128 0xb
 2167 0044 3A       		.uleb128 0x3a
 2168 0045 0B       		.uleb128 0xb
 2169 0046 3B       		.uleb128 0x3b
 2170 0047 0B       		.uleb128 0xb
 2171 0048 01       		.uleb128 0x1
 2172 0049 13       		.uleb128 0x13
 2173 004a 00       		.byte	0
 2174 004b 00       		.byte	0
 2175 004c 07       		.uleb128 0x7
 2176 004d 28       		.uleb128 0x28
 2177 004e 00       		.byte	0
 2178 004f 03       		.uleb128 0x3
 2179 0050 0E       		.uleb128 0xe
 2180 0051 1C       		.uleb128 0x1c
 2181 0052 0D       		.uleb128 0xd
 2182 0053 00       		.byte	0
 2183 0054 00       		.byte	0
 2184 0055 08       		.uleb128 0x8
 2185 0056 01       		.uleb128 0x1
 2186 0057 01       		.byte	0x1
 2187 0058 49       		.uleb128 0x49
 2188 0059 13       		.uleb128 0x13
 2189 005a 01       		.uleb128 0x1
 2190 005b 13       		.uleb128 0x13
 2191 005c 00       		.byte	0
 2192 005d 00       		.byte	0
 2193 005e 09       		.uleb128 0x9
ARM GAS  /tmp/ccIq2yzc.s 			page 40


 2194 005f 21       		.uleb128 0x21
 2195 0060 00       		.byte	0
 2196 0061 49       		.uleb128 0x49
 2197 0062 13       		.uleb128 0x13
 2198 0063 2F       		.uleb128 0x2f
 2199 0064 0B       		.uleb128 0xb
 2200 0065 00       		.byte	0
 2201 0066 00       		.byte	0
 2202 0067 0A       		.uleb128 0xa
 2203 0068 13       		.uleb128 0x13
 2204 0069 01       		.byte	0x1
 2205 006a 0B       		.uleb128 0xb
 2206 006b 0B       		.uleb128 0xb
 2207 006c 3A       		.uleb128 0x3a
 2208 006d 0B       		.uleb128 0xb
 2209 006e 3B       		.uleb128 0x3b
 2210 006f 05       		.uleb128 0x5
 2211 0070 01       		.uleb128 0x1
 2212 0071 13       		.uleb128 0x13
 2213 0072 00       		.byte	0
 2214 0073 00       		.byte	0
 2215 0074 0B       		.uleb128 0xb
 2216 0075 0D       		.uleb128 0xd
 2217 0076 00       		.byte	0
 2218 0077 03       		.uleb128 0x3
 2219 0078 08       		.uleb128 0x8
 2220 0079 3A       		.uleb128 0x3a
 2221 007a 0B       		.uleb128 0xb
 2222 007b 3B       		.uleb128 0x3b
 2223 007c 05       		.uleb128 0x5
 2224 007d 49       		.uleb128 0x49
 2225 007e 13       		.uleb128 0x13
 2226 007f 38       		.uleb128 0x38
 2227 0080 0A       		.uleb128 0xa
 2228 0081 00       		.byte	0
 2229 0082 00       		.byte	0
 2230 0083 0C       		.uleb128 0xc
 2231 0084 0D       		.uleb128 0xd
 2232 0085 00       		.byte	0
 2233 0086 03       		.uleb128 0x3
 2234 0087 0E       		.uleb128 0xe
 2235 0088 3A       		.uleb128 0x3a
 2236 0089 0B       		.uleb128 0xb
 2237 008a 3B       		.uleb128 0x3b
 2238 008b 05       		.uleb128 0x5
 2239 008c 49       		.uleb128 0x49
 2240 008d 13       		.uleb128 0x13
 2241 008e 38       		.uleb128 0x38
 2242 008f 0A       		.uleb128 0xa
 2243 0090 00       		.byte	0
 2244 0091 00       		.byte	0
 2245 0092 0D       		.uleb128 0xd
 2246 0093 16       		.uleb128 0x16
 2247 0094 00       		.byte	0
 2248 0095 03       		.uleb128 0x3
 2249 0096 0E       		.uleb128 0xe
 2250 0097 3A       		.uleb128 0x3a
ARM GAS  /tmp/ccIq2yzc.s 			page 41


 2251 0098 0B       		.uleb128 0xb
 2252 0099 3B       		.uleb128 0x3b
 2253 009a 05       		.uleb128 0x5
 2254 009b 49       		.uleb128 0x49
 2255 009c 13       		.uleb128 0x13
 2256 009d 00       		.byte	0
 2257 009e 00       		.byte	0
 2258 009f 0E       		.uleb128 0xe
 2259 00a0 13       		.uleb128 0x13
 2260 00a1 01       		.byte	0x1
 2261 00a2 0B       		.uleb128 0xb
 2262 00a3 0B       		.uleb128 0xb
 2263 00a4 3A       		.uleb128 0x3a
 2264 00a5 0B       		.uleb128 0xb
 2265 00a6 3B       		.uleb128 0x3b
 2266 00a7 0B       		.uleb128 0xb
 2267 00a8 01       		.uleb128 0x1
 2268 00a9 13       		.uleb128 0x13
 2269 00aa 00       		.byte	0
 2270 00ab 00       		.byte	0
 2271 00ac 0F       		.uleb128 0xf
 2272 00ad 0D       		.uleb128 0xd
 2273 00ae 00       		.byte	0
 2274 00af 03       		.uleb128 0x3
 2275 00b0 08       		.uleb128 0x8
 2276 00b1 3A       		.uleb128 0x3a
 2277 00b2 0B       		.uleb128 0xb
 2278 00b3 3B       		.uleb128 0x3b
 2279 00b4 0B       		.uleb128 0xb
 2280 00b5 49       		.uleb128 0x49
 2281 00b6 13       		.uleb128 0x13
 2282 00b7 38       		.uleb128 0x38
 2283 00b8 0A       		.uleb128 0xa
 2284 00b9 00       		.byte	0
 2285 00ba 00       		.byte	0
 2286 00bb 10       		.uleb128 0x10
 2287 00bc 0D       		.uleb128 0xd
 2288 00bd 00       		.byte	0
 2289 00be 03       		.uleb128 0x3
 2290 00bf 0E       		.uleb128 0xe
 2291 00c0 3A       		.uleb128 0x3a
 2292 00c1 0B       		.uleb128 0xb
 2293 00c2 3B       		.uleb128 0x3b
 2294 00c3 0B       		.uleb128 0xb
 2295 00c4 49       		.uleb128 0x49
 2296 00c5 13       		.uleb128 0x13
 2297 00c6 38       		.uleb128 0x38
 2298 00c7 0A       		.uleb128 0xa
 2299 00c8 00       		.byte	0
 2300 00c9 00       		.byte	0
 2301 00ca 11       		.uleb128 0x11
 2302 00cb 04       		.uleb128 0x4
 2303 00cc 01       		.byte	0x1
 2304 00cd 0B       		.uleb128 0xb
 2305 00ce 0B       		.uleb128 0xb
 2306 00cf 3A       		.uleb128 0x3a
 2307 00d0 0B       		.uleb128 0xb
ARM GAS  /tmp/ccIq2yzc.s 			page 42


 2308 00d1 3B       		.uleb128 0x3b
 2309 00d2 0B       		.uleb128 0xb
 2310 00d3 01       		.uleb128 0x1
 2311 00d4 13       		.uleb128 0x13
 2312 00d5 00       		.byte	0
 2313 00d6 00       		.byte	0
 2314 00d7 12       		.uleb128 0x12
 2315 00d8 13       		.uleb128 0x13
 2316 00d9 01       		.byte	0x1
 2317 00da 03       		.uleb128 0x3
 2318 00db 0E       		.uleb128 0xe
 2319 00dc 0B       		.uleb128 0xb
 2320 00dd 0B       		.uleb128 0xb
 2321 00de 3A       		.uleb128 0x3a
 2322 00df 0B       		.uleb128 0xb
 2323 00e0 3B       		.uleb128 0x3b
 2324 00e1 0B       		.uleb128 0xb
 2325 00e2 01       		.uleb128 0x1
 2326 00e3 13       		.uleb128 0x13
 2327 00e4 00       		.byte	0
 2328 00e5 00       		.byte	0
 2329 00e6 13       		.uleb128 0x13
 2330 00e7 0F       		.uleb128 0xf
 2331 00e8 00       		.byte	0
 2332 00e9 0B       		.uleb128 0xb
 2333 00ea 0B       		.uleb128 0xb
 2334 00eb 49       		.uleb128 0x49
 2335 00ec 13       		.uleb128 0x13
 2336 00ed 00       		.byte	0
 2337 00ee 00       		.byte	0
 2338 00ef 14       		.uleb128 0x14
 2339 00f0 15       		.uleb128 0x15
 2340 00f1 01       		.byte	0x1
 2341 00f2 27       		.uleb128 0x27
 2342 00f3 0C       		.uleb128 0xc
 2343 00f4 01       		.uleb128 0x1
 2344 00f5 13       		.uleb128 0x13
 2345 00f6 00       		.byte	0
 2346 00f7 00       		.byte	0
 2347 00f8 15       		.uleb128 0x15
 2348 00f9 05       		.uleb128 0x5
 2349 00fa 00       		.byte	0
 2350 00fb 49       		.uleb128 0x49
 2351 00fc 13       		.uleb128 0x13
 2352 00fd 00       		.byte	0
 2353 00fe 00       		.byte	0
 2354 00ff 16       		.uleb128 0x16
 2355 0100 26       		.uleb128 0x26
 2356 0101 00       		.byte	0
 2357 0102 49       		.uleb128 0x49
 2358 0103 13       		.uleb128 0x13
 2359 0104 00       		.byte	0
 2360 0105 00       		.byte	0
 2361 0106 17       		.uleb128 0x17
 2362 0107 2E       		.uleb128 0x2e
 2363 0108 01       		.byte	0x1
 2364 0109 03       		.uleb128 0x3
ARM GAS  /tmp/ccIq2yzc.s 			page 43


 2365 010a 0E       		.uleb128 0xe
 2366 010b 3A       		.uleb128 0x3a
 2367 010c 0B       		.uleb128 0xb
 2368 010d 3B       		.uleb128 0x3b
 2369 010e 0B       		.uleb128 0xb
 2370 010f 27       		.uleb128 0x27
 2371 0110 0C       		.uleb128 0xc
 2372 0111 20       		.uleb128 0x20
 2373 0112 0B       		.uleb128 0xb
 2374 0113 01       		.uleb128 0x1
 2375 0114 13       		.uleb128 0x13
 2376 0115 00       		.byte	0
 2377 0116 00       		.byte	0
 2378 0117 18       		.uleb128 0x18
 2379 0118 05       		.uleb128 0x5
 2380 0119 00       		.byte	0
 2381 011a 03       		.uleb128 0x3
 2382 011b 0E       		.uleb128 0xe
 2383 011c 3A       		.uleb128 0x3a
 2384 011d 0B       		.uleb128 0xb
 2385 011e 3B       		.uleb128 0x3b
 2386 011f 0B       		.uleb128 0xb
 2387 0120 49       		.uleb128 0x49
 2388 0121 13       		.uleb128 0x13
 2389 0122 00       		.byte	0
 2390 0123 00       		.byte	0
 2391 0124 19       		.uleb128 0x19
 2392 0125 34       		.uleb128 0x34
 2393 0126 00       		.byte	0
 2394 0127 03       		.uleb128 0x3
 2395 0128 08       		.uleb128 0x8
 2396 0129 3A       		.uleb128 0x3a
 2397 012a 0B       		.uleb128 0xb
 2398 012b 3B       		.uleb128 0x3b
 2399 012c 0B       		.uleb128 0xb
 2400 012d 49       		.uleb128 0x49
 2401 012e 13       		.uleb128 0x13
 2402 012f 00       		.byte	0
 2403 0130 00       		.byte	0
 2404 0131 1A       		.uleb128 0x1a
 2405 0132 0B       		.uleb128 0xb
 2406 0133 01       		.byte	0x1
 2407 0134 00       		.byte	0
 2408 0135 00       		.byte	0
 2409 0136 1B       		.uleb128 0x1b
 2410 0137 34       		.uleb128 0x34
 2411 0138 00       		.byte	0
 2412 0139 03       		.uleb128 0x3
 2413 013a 0E       		.uleb128 0xe
 2414 013b 3A       		.uleb128 0x3a
 2415 013c 0B       		.uleb128 0xb
 2416 013d 3B       		.uleb128 0x3b
 2417 013e 0B       		.uleb128 0xb
 2418 013f 49       		.uleb128 0x49
 2419 0140 13       		.uleb128 0x13
 2420 0141 00       		.byte	0
 2421 0142 00       		.byte	0
ARM GAS  /tmp/ccIq2yzc.s 			page 44


 2422 0143 1C       		.uleb128 0x1c
 2423 0144 2E       		.uleb128 0x2e
 2424 0145 01       		.byte	0x1
 2425 0146 31       		.uleb128 0x31
 2426 0147 13       		.uleb128 0x13
 2427 0148 11       		.uleb128 0x11
 2428 0149 01       		.uleb128 0x1
 2429 014a 12       		.uleb128 0x12
 2430 014b 01       		.uleb128 0x1
 2431 014c 40       		.uleb128 0x40
 2432 014d 06       		.uleb128 0x6
 2433 014e 01       		.uleb128 0x1
 2434 014f 13       		.uleb128 0x13
 2435 0150 00       		.byte	0
 2436 0151 00       		.byte	0
 2437 0152 1D       		.uleb128 0x1d
 2438 0153 05       		.uleb128 0x5
 2439 0154 00       		.byte	0
 2440 0155 31       		.uleb128 0x31
 2441 0156 13       		.uleb128 0x13
 2442 0157 02       		.uleb128 0x2
 2443 0158 06       		.uleb128 0x6
 2444 0159 00       		.byte	0
 2445 015a 00       		.byte	0
 2446 015b 1E       		.uleb128 0x1e
 2447 015c 34       		.uleb128 0x34
 2448 015d 00       		.byte	0
 2449 015e 31       		.uleb128 0x31
 2450 015f 13       		.uleb128 0x13
 2451 0160 02       		.uleb128 0x2
 2452 0161 06       		.uleb128 0x6
 2453 0162 00       		.byte	0
 2454 0163 00       		.byte	0
 2455 0164 1F       		.uleb128 0x1f
 2456 0165 0B       		.uleb128 0xb
 2457 0166 01       		.byte	0x1
 2458 0167 11       		.uleb128 0x11
 2459 0168 01       		.uleb128 0x1
 2460 0169 12       		.uleb128 0x12
 2461 016a 01       		.uleb128 0x1
 2462 016b 01       		.uleb128 0x1
 2463 016c 13       		.uleb128 0x13
 2464 016d 00       		.byte	0
 2465 016e 00       		.byte	0
 2466 016f 20       		.uleb128 0x20
 2467 0170 1D       		.uleb128 0x1d
 2468 0171 01       		.byte	0x1
 2469 0172 31       		.uleb128 0x31
 2470 0173 13       		.uleb128 0x13
 2471 0174 11       		.uleb128 0x11
 2472 0175 01       		.uleb128 0x1
 2473 0176 12       		.uleb128 0x12
 2474 0177 01       		.uleb128 0x1
 2475 0178 58       		.uleb128 0x58
 2476 0179 0B       		.uleb128 0xb
 2477 017a 59       		.uleb128 0x59
 2478 017b 0B       		.uleb128 0xb
ARM GAS  /tmp/ccIq2yzc.s 			page 45


 2479 017c 00       		.byte	0
 2480 017d 00       		.byte	0
 2481 017e 21       		.uleb128 0x21
 2482 017f 0B       		.uleb128 0xb
 2483 0180 01       		.byte	0x1
 2484 0181 11       		.uleb128 0x11
 2485 0182 01       		.uleb128 0x1
 2486 0183 12       		.uleb128 0x12
 2487 0184 01       		.uleb128 0x1
 2488 0185 00       		.byte	0
 2489 0186 00       		.byte	0
 2490 0187 22       		.uleb128 0x22
 2491 0188 34       		.uleb128 0x34
 2492 0189 00       		.byte	0
 2493 018a 31       		.uleb128 0x31
 2494 018b 13       		.uleb128 0x13
 2495 018c 00       		.byte	0
 2496 018d 00       		.byte	0
 2497 018e 23       		.uleb128 0x23
 2498 018f 2E       		.uleb128 0x2e
 2499 0190 00       		.byte	0
 2500 0191 3F       		.uleb128 0x3f
 2501 0192 0C       		.uleb128 0xc
 2502 0193 03       		.uleb128 0x3
 2503 0194 0E       		.uleb128 0xe
 2504 0195 3A       		.uleb128 0x3a
 2505 0196 0B       		.uleb128 0xb
 2506 0197 3B       		.uleb128 0x3b
 2507 0198 0B       		.uleb128 0xb
 2508 0199 27       		.uleb128 0x27
 2509 019a 0C       		.uleb128 0xc
 2510 019b 11       		.uleb128 0x11
 2511 019c 01       		.uleb128 0x1
 2512 019d 12       		.uleb128 0x12
 2513 019e 01       		.uleb128 0x1
 2514 019f 40       		.uleb128 0x40
 2515 01a0 06       		.uleb128 0x6
 2516 01a1 00       		.byte	0
 2517 01a2 00       		.byte	0
 2518 01a3 24       		.uleb128 0x24
 2519 01a4 2E       		.uleb128 0x2e
 2520 01a5 00       		.byte	0
 2521 01a6 3F       		.uleb128 0x3f
 2522 01a7 0C       		.uleb128 0xc
 2523 01a8 03       		.uleb128 0x3
 2524 01a9 0E       		.uleb128 0xe
 2525 01aa 3A       		.uleb128 0x3a
 2526 01ab 0B       		.uleb128 0xb
 2527 01ac 3B       		.uleb128 0x3b
 2528 01ad 05       		.uleb128 0x5
 2529 01ae 27       		.uleb128 0x27
 2530 01af 0C       		.uleb128 0xc
 2531 01b0 11       		.uleb128 0x11
 2532 01b1 01       		.uleb128 0x1
 2533 01b2 12       		.uleb128 0x12
 2534 01b3 01       		.uleb128 0x1
 2535 01b4 40       		.uleb128 0x40
ARM GAS  /tmp/ccIq2yzc.s 			page 46


 2536 01b5 06       		.uleb128 0x6
 2537 01b6 00       		.byte	0
 2538 01b7 00       		.byte	0
 2539 01b8 25       		.uleb128 0x25
 2540 01b9 2E       		.uleb128 0x2e
 2541 01ba 01       		.byte	0x1
 2542 01bb 3F       		.uleb128 0x3f
 2543 01bc 0C       		.uleb128 0xc
 2544 01bd 03       		.uleb128 0x3
 2545 01be 0E       		.uleb128 0xe
 2546 01bf 3A       		.uleb128 0x3a
 2547 01c0 0B       		.uleb128 0xb
 2548 01c1 3B       		.uleb128 0x3b
 2549 01c2 05       		.uleb128 0x5
 2550 01c3 27       		.uleb128 0x27
 2551 01c4 0C       		.uleb128 0xc
 2552 01c5 11       		.uleb128 0x11
 2553 01c6 01       		.uleb128 0x1
 2554 01c7 12       		.uleb128 0x12
 2555 01c8 01       		.uleb128 0x1
 2556 01c9 40       		.uleb128 0x40
 2557 01ca 06       		.uleb128 0x6
 2558 01cb 01       		.uleb128 0x1
 2559 01cc 13       		.uleb128 0x13
 2560 01cd 00       		.byte	0
 2561 01ce 00       		.byte	0
 2562 01cf 26       		.uleb128 0x26
 2563 01d0 05       		.uleb128 0x5
 2564 01d1 00       		.byte	0
 2565 01d2 03       		.uleb128 0x3
 2566 01d3 0E       		.uleb128 0xe
 2567 01d4 3A       		.uleb128 0x3a
 2568 01d5 0B       		.uleb128 0xb
 2569 01d6 3B       		.uleb128 0x3b
 2570 01d7 05       		.uleb128 0x5
 2571 01d8 49       		.uleb128 0x49
 2572 01d9 13       		.uleb128 0x13
 2573 01da 02       		.uleb128 0x2
 2574 01db 06       		.uleb128 0x6
 2575 01dc 00       		.byte	0
 2576 01dd 00       		.byte	0
 2577 01de 27       		.uleb128 0x27
 2578 01df 34       		.uleb128 0x34
 2579 01e0 00       		.byte	0
 2580 01e1 03       		.uleb128 0x3
 2581 01e2 08       		.uleb128 0x8
 2582 01e3 3A       		.uleb128 0x3a
 2583 01e4 0B       		.uleb128 0xb
 2584 01e5 3B       		.uleb128 0x3b
 2585 01e6 05       		.uleb128 0x5
 2586 01e7 49       		.uleb128 0x49
 2587 01e8 13       		.uleb128 0x13
 2588 01e9 00       		.byte	0
 2589 01ea 00       		.byte	0
 2590 01eb 28       		.uleb128 0x28
 2591 01ec 2E       		.uleb128 0x2e
 2592 01ed 01       		.byte	0x1
ARM GAS  /tmp/ccIq2yzc.s 			page 47


 2593 01ee 3F       		.uleb128 0x3f
 2594 01ef 0C       		.uleb128 0xc
 2595 01f0 03       		.uleb128 0x3
 2596 01f1 0E       		.uleb128 0xe
 2597 01f2 3A       		.uleb128 0x3a
 2598 01f3 0B       		.uleb128 0xb
 2599 01f4 3B       		.uleb128 0x3b
 2600 01f5 05       		.uleb128 0x5
 2601 01f6 27       		.uleb128 0x27
 2602 01f7 0C       		.uleb128 0xc
 2603 01f8 11       		.uleb128 0x11
 2604 01f9 01       		.uleb128 0x1
 2605 01fa 12       		.uleb128 0x12
 2606 01fb 01       		.uleb128 0x1
 2607 01fc 40       		.uleb128 0x40
 2608 01fd 0A       		.uleb128 0xa
 2609 01fe 01       		.uleb128 0x1
 2610 01ff 13       		.uleb128 0x13
 2611 0200 00       		.byte	0
 2612 0201 00       		.byte	0
 2613 0202 29       		.uleb128 0x29
 2614 0203 05       		.uleb128 0x5
 2615 0204 00       		.byte	0
 2616 0205 03       		.uleb128 0x3
 2617 0206 0E       		.uleb128 0xe
 2618 0207 3A       		.uleb128 0x3a
 2619 0208 0B       		.uleb128 0xb
 2620 0209 3B       		.uleb128 0x3b
 2621 020a 05       		.uleb128 0x5
 2622 020b 49       		.uleb128 0x49
 2623 020c 13       		.uleb128 0x13
 2624 020d 02       		.uleb128 0x2
 2625 020e 0A       		.uleb128 0xa
 2626 020f 00       		.byte	0
 2627 0210 00       		.byte	0
 2628 0211 2A       		.uleb128 0x2a
 2629 0212 34       		.uleb128 0x34
 2630 0213 00       		.byte	0
 2631 0214 03       		.uleb128 0x3
 2632 0215 0E       		.uleb128 0xe
 2633 0216 3A       		.uleb128 0x3a
 2634 0217 0B       		.uleb128 0xb
 2635 0218 3B       		.uleb128 0x3b
 2636 0219 05       		.uleb128 0x5
 2637 021a 49       		.uleb128 0x49
 2638 021b 13       		.uleb128 0x13
 2639 021c 3F       		.uleb128 0x3f
 2640 021d 0C       		.uleb128 0xc
 2641 021e 3C       		.uleb128 0x3c
 2642 021f 0C       		.uleb128 0xc
 2643 0220 00       		.byte	0
 2644 0221 00       		.byte	0
 2645 0222 2B       		.uleb128 0x2b
 2646 0223 34       		.uleb128 0x34
 2647 0224 00       		.byte	0
 2648 0225 03       		.uleb128 0x3
 2649 0226 0E       		.uleb128 0xe
ARM GAS  /tmp/ccIq2yzc.s 			page 48


 2650 0227 3A       		.uleb128 0x3a
 2651 0228 0B       		.uleb128 0xb
 2652 0229 3B       		.uleb128 0x3b
 2653 022a 0B       		.uleb128 0xb
 2654 022b 49       		.uleb128 0x49
 2655 022c 13       		.uleb128 0x13
 2656 022d 3F       		.uleb128 0x3f
 2657 022e 0C       		.uleb128 0xc
 2658 022f 02       		.uleb128 0x2
 2659 0230 0A       		.uleb128 0xa
 2660 0231 00       		.byte	0
 2661 0232 00       		.byte	0
 2662 0233 00       		.byte	0
 2663              		.section	.debug_loc,"",%progbits
 2664              	.Ldebug_loc0:
 2665              	.LLST0:
 2666 0000 00000000 		.4byte	.LFB117
 2667 0004 02000000 		.4byte	.LCFI0
 2668 0008 0200     		.2byte	0x2
 2669 000a 7D       		.byte	0x7d
 2670 000b 00       		.sleb128 0
 2671 000c 02000000 		.4byte	.LCFI0
 2672 0010 3A000000 		.4byte	.LFE117
 2673 0014 0200     		.2byte	0x2
 2674 0016 7D       		.byte	0x7d
 2675 0017 10       		.sleb128 16
 2676 0018 00000000 		.4byte	0
 2677 001c 00000000 		.4byte	0
 2678              	.LLST1:
 2679 0020 00000000 		.4byte	.LVL0
 2680 0024 27000000 		.4byte	.LVL4-1
 2681 0028 0100     		.2byte	0x1
 2682 002a 50       		.byte	0x50
 2683 002b 27000000 		.4byte	.LVL4-1
 2684 002f 3A000000 		.4byte	.LFE117
 2685 0033 0100     		.2byte	0x1
 2686 0035 54       		.byte	0x54
 2687 0036 00000000 		.4byte	0
 2688 003a 00000000 		.4byte	0
 2689              	.LLST2:
 2690 003e 08000000 		.4byte	.LVL1
 2691 0042 0C000000 		.4byte	.LVL2
 2692 0046 0600     		.2byte	0x6
 2693 0048 71       		.byte	0x71
 2694 0049 00       		.sleb128 0
 2695 004a 75       		.byte	0x75
 2696 004b 00       		.sleb128 0
 2697 004c 1A       		.byte	0x1a
 2698 004d 9F       		.byte	0x9f
 2699 004e 00000000 		.4byte	0
 2700 0052 00000000 		.4byte	0
 2701              	.LLST3:
 2702 0056 18000000 		.4byte	.LVL3
 2703 005a 27000000 		.4byte	.LVL4-1
 2704 005e 0100     		.2byte	0x1
 2705 0060 5C       		.byte	0x5c
 2706 0061 00000000 		.4byte	0
ARM GAS  /tmp/ccIq2yzc.s 			page 49


 2707 0065 00000000 		.4byte	0
 2708              	.LLST4:
 2709 0069 2C000000 		.4byte	.LVL5
 2710 006d 38000000 		.4byte	.LVL6
 2711 0071 0100     		.2byte	0x1
 2712 0073 54       		.byte	0x54
 2713 0074 00000000 		.4byte	0
 2714 0078 00000000 		.4byte	0
 2715              	.LLST5:
 2716 007c 00000000 		.4byte	.LFB118
 2717 0080 02000000 		.4byte	.LCFI1
 2718 0084 0200     		.2byte	0x2
 2719 0086 7D       		.byte	0x7d
 2720 0087 00       		.sleb128 0
 2721 0088 02000000 		.4byte	.LCFI1
 2722 008c 16000000 		.4byte	.LFE118
 2723 0090 0200     		.2byte	0x2
 2724 0092 7D       		.byte	0x7d
 2725 0093 08       		.sleb128 8
 2726 0094 00000000 		.4byte	0
 2727 0098 00000000 		.4byte	0
 2728              	.LLST6:
 2729 009c 00000000 		.4byte	.LFB119
 2730 00a0 02000000 		.4byte	.LCFI2
 2731 00a4 0200     		.2byte	0x2
 2732 00a6 7D       		.byte	0x7d
 2733 00a7 00       		.sleb128 0
 2734 00a8 02000000 		.4byte	.LCFI2
 2735 00ac 16000000 		.4byte	.LFE119
 2736 00b0 0200     		.2byte	0x2
 2737 00b2 7D       		.byte	0x7d
 2738 00b3 08       		.sleb128 8
 2739 00b4 00000000 		.4byte	0
 2740 00b8 00000000 		.4byte	0
 2741              	.LLST7:
 2742 00bc 00000000 		.4byte	.LFB120
 2743 00c0 02000000 		.4byte	.LCFI3
 2744 00c4 0200     		.2byte	0x2
 2745 00c6 7D       		.byte	0x7d
 2746 00c7 00       		.sleb128 0
 2747 00c8 02000000 		.4byte	.LCFI3
 2748 00cc 16000000 		.4byte	.LFE120
 2749 00d0 0200     		.2byte	0x2
 2750 00d2 7D       		.byte	0x7d
 2751 00d3 08       		.sleb128 8
 2752 00d4 00000000 		.4byte	0
 2753 00d8 00000000 		.4byte	0
 2754              	.LLST8:
 2755 00dc 00000000 		.4byte	.LFB121
 2756 00e0 02000000 		.4byte	.LCFI4
 2757 00e4 0200     		.2byte	0x2
 2758 00e6 7D       		.byte	0x7d
 2759 00e7 00       		.sleb128 0
 2760 00e8 02000000 		.4byte	.LCFI4
 2761 00ec 16000000 		.4byte	.LFE121
 2762 00f0 0200     		.2byte	0x2
 2763 00f2 7D       		.byte	0x7d
ARM GAS  /tmp/ccIq2yzc.s 			page 50


 2764 00f3 08       		.sleb128 8
 2765 00f4 00000000 		.4byte	0
 2766 00f8 00000000 		.4byte	0
 2767              	.LLST9:
 2768 00fc 00000000 		.4byte	.LFB122
 2769 0100 02000000 		.4byte	.LCFI5
 2770 0104 0200     		.2byte	0x2
 2771 0106 7D       		.byte	0x7d
 2772 0107 00       		.sleb128 0
 2773 0108 02000000 		.4byte	.LCFI5
 2774 010c 16000000 		.4byte	.LFE122
 2775 0110 0200     		.2byte	0x2
 2776 0112 7D       		.byte	0x7d
 2777 0113 08       		.sleb128 8
 2778 0114 00000000 		.4byte	0
 2779 0118 00000000 		.4byte	0
 2780              	.LLST10:
 2781 011c 00000000 		.4byte	.LFB123
 2782 0120 02000000 		.4byte	.LCFI6
 2783 0124 0200     		.2byte	0x2
 2784 0126 7D       		.byte	0x7d
 2785 0127 00       		.sleb128 0
 2786 0128 02000000 		.4byte	.LCFI6
 2787 012c 16000000 		.4byte	.LFE123
 2788 0130 0200     		.2byte	0x2
 2789 0132 7D       		.byte	0x7d
 2790 0133 08       		.sleb128 8
 2791 0134 00000000 		.4byte	0
 2792 0138 00000000 		.4byte	0
 2793              	.LLST11:
 2794 013c 00000000 		.4byte	.LFB124
 2795 0140 02000000 		.4byte	.LCFI7
 2796 0144 0200     		.2byte	0x2
 2797 0146 7D       		.byte	0x7d
 2798 0147 00       		.sleb128 0
 2799 0148 02000000 		.4byte	.LCFI7
 2800 014c 62000000 		.4byte	.LFE124
 2801 0150 0200     		.2byte	0x2
 2802 0152 7D       		.byte	0x7d
 2803 0153 10       		.sleb128 16
 2804 0154 00000000 		.4byte	0
 2805 0158 00000000 		.4byte	0
 2806              	.LLST12:
 2807 015c 00000000 		.4byte	.LFB125
 2808 0160 06000000 		.4byte	.LCFI8
 2809 0164 0200     		.2byte	0x2
 2810 0166 7D       		.byte	0x7d
 2811 0167 00       		.sleb128 0
 2812 0168 06000000 		.4byte	.LCFI8
 2813 016c 7A010000 		.4byte	.LFE125
 2814 0170 0200     		.2byte	0x2
 2815 0172 7D       		.byte	0x7d
 2816 0173 08       		.sleb128 8
 2817 0174 00000000 		.4byte	0
 2818 0178 00000000 		.4byte	0
 2819              	.LLST13:
 2820 017c 00000000 		.4byte	.LVL7
ARM GAS  /tmp/ccIq2yzc.s 			page 51


 2821 0180 0E000000 		.4byte	.LVL8
 2822 0184 0100     		.2byte	0x1
 2823 0186 50       		.byte	0x50
 2824 0187 0E000000 		.4byte	.LVL8
 2825 018b 7A010000 		.4byte	.LFE125
 2826 018f 0100     		.2byte	0x1
 2827 0191 54       		.byte	0x54
 2828 0192 00000000 		.4byte	0
 2829 0196 00000000 		.4byte	0
 2830              	.LLST14:
 2831 019a 00000000 		.4byte	.LFB126
 2832 019e 06000000 		.4byte	.LCFI9
 2833 01a2 0200     		.2byte	0x2
 2834 01a4 7D       		.byte	0x7d
 2835 01a5 00       		.sleb128 0
 2836 01a6 06000000 		.4byte	.LCFI9
 2837 01aa BA000000 		.4byte	.LFE126
 2838 01ae 0200     		.2byte	0x2
 2839 01b0 7D       		.byte	0x7d
 2840 01b1 08       		.sleb128 8
 2841 01b2 00000000 		.4byte	0
 2842 01b6 00000000 		.4byte	0
 2843              	.LLST15:
 2844 01ba 00000000 		.4byte	.LVL11
 2845 01be 0A000000 		.4byte	.LVL12
 2846 01c2 0100     		.2byte	0x1
 2847 01c4 50       		.byte	0x50
 2848 01c5 0A000000 		.4byte	.LVL12
 2849 01c9 BA000000 		.4byte	.LFE126
 2850 01cd 0100     		.2byte	0x1
 2851 01cf 54       		.byte	0x54
 2852 01d0 00000000 		.4byte	0
 2853 01d4 00000000 		.4byte	0
 2854              	.LLST16:
 2855 01d8 00000000 		.4byte	.LVL13
 2856 01dc 08000000 		.4byte	.LVL14
 2857 01e0 0100     		.2byte	0x1
 2858 01e2 50       		.byte	0x50
 2859 01e3 00000000 		.4byte	0
 2860 01e7 00000000 		.4byte	0
 2861              		.section	.debug_aranges,"",%progbits
 2862 0000 74000000 		.4byte	0x74
 2863 0004 0200     		.2byte	0x2
 2864 0006 00000000 		.4byte	.Ldebug_info0
 2865 000a 04       		.byte	0x4
 2866 000b 00       		.byte	0
 2867 000c 0000     		.2byte	0
 2868 000e 0000     		.2byte	0
 2869 0010 00000000 		.4byte	.LFB117
 2870 0014 3A000000 		.4byte	.LFE117-.LFB117
 2871 0018 00000000 		.4byte	.LFB118
 2872 001c 16000000 		.4byte	.LFE118-.LFB118
 2873 0020 00000000 		.4byte	.LFB119
 2874 0024 16000000 		.4byte	.LFE119-.LFB119
 2875 0028 00000000 		.4byte	.LFB120
 2876 002c 16000000 		.4byte	.LFE120-.LFB120
 2877 0030 00000000 		.4byte	.LFB121
ARM GAS  /tmp/ccIq2yzc.s 			page 52


 2878 0034 16000000 		.4byte	.LFE121-.LFB121
 2879 0038 00000000 		.4byte	.LFB122
 2880 003c 16000000 		.4byte	.LFE122-.LFB122
 2881 0040 00000000 		.4byte	.LFB123
 2882 0044 16000000 		.4byte	.LFE123-.LFB123
 2883 0048 00000000 		.4byte	.LFB124
 2884 004c 62000000 		.4byte	.LFE124-.LFB124
 2885 0050 00000000 		.4byte	.LFB125
 2886 0054 7A010000 		.4byte	.LFE125-.LFB125
 2887 0058 00000000 		.4byte	.LFB126
 2888 005c BA000000 		.4byte	.LFE126-.LFB126
 2889 0060 00000000 		.4byte	.LFB127
 2890 0064 30000000 		.4byte	.LFE127-.LFB127
 2891 0068 00000000 		.4byte	.LFB128
 2892 006c 0C000000 		.4byte	.LFE128-.LFB128
 2893 0070 00000000 		.4byte	0
 2894 0074 00000000 		.4byte	0
 2895              		.section	.debug_ranges,"",%progbits
 2896              	.Ldebug_ranges0:
 2897 0000 00000000 		.4byte	.LFB117
 2898 0004 3A000000 		.4byte	.LFE117
 2899 0008 00000000 		.4byte	.LFB118
 2900 000c 16000000 		.4byte	.LFE118
 2901 0010 00000000 		.4byte	.LFB119
 2902 0014 16000000 		.4byte	.LFE119
 2903 0018 00000000 		.4byte	.LFB120
 2904 001c 16000000 		.4byte	.LFE120
 2905 0020 00000000 		.4byte	.LFB121
 2906 0024 16000000 		.4byte	.LFE121
 2907 0028 00000000 		.4byte	.LFB122
 2908 002c 16000000 		.4byte	.LFE122
 2909 0030 00000000 		.4byte	.LFB123
 2910 0034 16000000 		.4byte	.LFE123
 2911 0038 00000000 		.4byte	.LFB124
 2912 003c 62000000 		.4byte	.LFE124
 2913 0040 00000000 		.4byte	.LFB125
 2914 0044 7A010000 		.4byte	.LFE125
 2915 0048 00000000 		.4byte	.LFB126
 2916 004c BA000000 		.4byte	.LFE126
 2917 0050 00000000 		.4byte	.LFB127
 2918 0054 30000000 		.4byte	.LFE127
 2919 0058 00000000 		.4byte	.LFB128
 2920 005c 0C000000 		.4byte	.LFE128
 2921 0060 00000000 		.4byte	0
 2922 0064 00000000 		.4byte	0
 2923              		.section	.debug_line,"",%progbits
 2924              	.Ldebug_line0:
 2925 0000 20030000 		.section	.debug_str,"MS",%progbits,1
 2925      02008A01 
 2925      00000201 
 2925      FB0E0D00 
 2925      01010101 
 2926              	.LASF166:
 2927 0000 4943555F 		.ascii	"ICU_INPUT_ACTIVE_HIGH\000"
 2927      494E5055 
 2927      545F4143 
 2927      54495645 
ARM GAS  /tmp/ccIq2yzc.s 			page 53


 2927      5F484947 
 2928              	.LASF123:
 2929 0016 41504231 		.ascii	"APB1LPENR\000"
 2929      4C50454E 
 2929      5200
 2930              	.LASF154:
 2931 0020 4943555F 		.ascii	"ICU_UNINIT\000"
 2931      554E494E 
 2931      495400
 2932              	.LASF41:
 2933 002b 43414E31 		.ascii	"CAN1_RX0_IRQn\000"
 2933      5F525830 
 2933      5F495251 
 2933      6E00
 2934              	.LASF22:
 2935 0039 5056445F 		.ascii	"PVD_IRQn\000"
 2935      4952516E 
 2935      00
 2936              	.LASF85:
 2937 0042 43414E32 		.ascii	"CAN2_RX0_IRQn\000"
 2937      5F525830 
 2937      5F495251 
 2937      6E00
 2938              	.LASF67:
 2939 0050 54494D38 		.ascii	"TIM8_CC_IRQn\000"
 2939      5F43435F 
 2939      4952516E 
 2939      00
 2940              	.LASF94:
 2941 005d 49324333 		.ascii	"I2C3_ER_IRQn\000"
 2941      5F45525F 
 2941      4952516E 
 2941      00
 2942              	.LASF131:
 2943 006a 5F726573 		.ascii	"_resvd0\000"
 2943      76643000 
 2944              	.LASF132:
 2945 0072 5F726573 		.ascii	"_resvd1\000"
 2945      76643100 
 2946              	.LASF52:
 2947 007a 49324331 		.ascii	"I2C1_EV_IRQn\000"
 2947      5F45565F 
 2947      4952516E 
 2947      00
 2948              	.LASF176:
 2949 0087 56656374 		.ascii	"VectorAC\000"
 2949      6F724143 
 2949      00
 2950              	.LASF137:
 2951 0090 5F726573 		.ascii	"_resvd4\000"
 2951      76643400 
 2952              	.LASF138:
 2953 0098 5F726573 		.ascii	"_resvd5\000"
 2953      76643500 
 2954              	.LASF140:
 2955 00a0 5F726573 		.ascii	"_resvd6\000"
 2955      76643600 
ARM GAS  /tmp/ccIq2yzc.s 			page 54


 2956              	.LASF142:
 2957 00a8 5F726573 		.ascii	"_resvd7\000"
 2957      76643700 
 2958              	.LASF144:
 2959 00b0 5F726573 		.ascii	"_resvd8\000"
 2959      76643800 
 2960              	.LASF145:
 2961 00b8 5F726573 		.ascii	"_resvd9\000"
 2961      76643900 
 2962              	.LASF148:
 2963 00c0 5F726573 		.ascii	"_resvd11\000"
 2963      76643131 
 2963      00
 2964              	.LASF160:
 2965 00c9 69637573 		.ascii	"icustate_t\000"
 2965      74617465 
 2965      5F7400
 2966              	.LASF42:
 2967 00d4 43414E31 		.ascii	"CAN1_RX1_IRQn\000"
 2967      5F525831 
 2967      5F495251 
 2967      6E00
 2968              	.LASF151:
 2969 00e2 5F726573 		.ascii	"_resvd13\000"
 2969      76643133 
 2969      00
 2970              	.LASF11:
 2971 00eb 6C6F6E67 		.ascii	"long long unsigned int\000"
 2971      206C6F6E 
 2971      6720756E 
 2971      7369676E 
 2971      65642069 
 2972              	.LASF62:
 2973 0102 5254435F 		.ascii	"RTC_Alarm_IRQn\000"
 2973      416C6172 
 2973      6D5F4952 
 2973      516E00
 2974              	.LASF55:
 2975 0111 49324332 		.ascii	"I2C2_ER_IRQn\000"
 2975      5F45525F 
 2975      4952516E 
 2975      00
 2976              	.LASF51:
 2977 011e 54494D34 		.ascii	"TIM4_IRQn\000"
 2977      5F495251 
 2977      6E00
 2978              	.LASF24:
 2979 0128 5254435F 		.ascii	"RTC_WKUP_IRQn\000"
 2979      574B5550 
 2979      5F495251 
 2979      6E00
 2980              	.LASF21:
 2981 0136 57574447 		.ascii	"WWDG_IRQn\000"
 2981      5F495251 
 2981      6E00
 2982              	.LASF171:
 2983 0140 66726571 		.ascii	"frequency\000"
ARM GAS  /tmp/ccIq2yzc.s 			page 55


 2983      75656E63 
 2983      7900
 2984              	.LASF119:
 2985 014a 41484231 		.ascii	"AHB1LPENR\000"
 2985      4C50454E 
 2985      5200
 2986              	.LASF159:
 2987 0154 4943555F 		.ascii	"ICU_IDLE\000"
 2987      49444C45 
 2987      00
 2988              	.LASF158:
 2989 015d 4943555F 		.ascii	"ICU_ACTIVE\000"
 2989      41435449 
 2989      564500
 2990              	.LASF139:
 2991 0168 43434D52 		.ascii	"CCMR1\000"
 2991      3100
 2992              	.LASF141:
 2993 016e 43434D52 		.ascii	"CCMR2\000"
 2993      3200
 2994              	.LASF10:
 2995 0174 6C6F6E67 		.ascii	"long long int\000"
 2995      206C6F6E 
 2995      6720696E 
 2995      7400
 2996              	.LASF1:
 2997 0182 7369676E 		.ascii	"signed char\000"
 2997      65642063 
 2997      68617200 
 2998              	.LASF86:
 2999 018e 43414E32 		.ascii	"CAN2_RX1_IRQn\000"
 2999      5F525831 
 2999      5F495251 
 2999      6E00
 3000              	.LASF105:
 3001 019c 41484231 		.ascii	"AHB1RSTR\000"
 3001      52535452 
 3001      00
 3002              	.LASF174:
 3003 01a5 49435543 		.ascii	"ICUConfig\000"
 3003      6F6E6669 
 3003      6700
 3004              	.LASF90:
 3005 01af 444D4132 		.ascii	"DMA2_Stream6_IRQn\000"
 3005      5F537472 
 3005      65616D36 
 3005      5F495251 
 3005      6E00
 3006              	.LASF178:
 3007 01c1 56656374 		.ascii	"VectorB4\000"
 3007      6F724234 
 3007      00
 3008              	.LASF146:
 3009 01ca 5F726573 		.ascii	"_resvd10\000"
 3009      76643130 
 3009      00
 3010              	.LASF162:
ARM GAS  /tmp/ccIq2yzc.s 			page 56


 3011 01d3 73746174 		.ascii	"state\000"
 3011      6500
 3012              	.LASF149:
 3013 01d9 5F726573 		.ascii	"_resvd12\000"
 3013      76643132 
 3013      00
 3014              	.LASF7:
 3015 01e2 6C6F6E67 		.ascii	"long int\000"
 3015      20696E74 
 3015      00
 3016              	.LASF152:
 3017 01eb 5F726573 		.ascii	"_resvd14\000"
 3017      76643134 
 3017      00
 3018              	.LASF110:
 3019 01f4 41504232 		.ascii	"APB2RSTR\000"
 3019      52535452 
 3019      00
 3020              	.LASF37:
 3021 01fd 444D4131 		.ascii	"DMA1_Stream5_IRQn\000"
 3021      5F537472 
 3021      65616D35 
 3021      5F495251 
 3021      6E00
 3022              	.LASF44:
 3023 020f 45585449 		.ascii	"EXTI9_5_IRQn\000"
 3023      395F355F 
 3023      4952516E 
 3023      00
 3024              	.LASF143:
 3025 021c 43434552 		.ascii	"CCER\000"
 3025      00
 3026              	.LASF83:
 3027 0221 4554485F 		.ascii	"ETH_WKUP_IRQn\000"
 3027      574B5550 
 3027      5F495251 
 3027      6E00
 3028              	.LASF5:
 3029 022f 75696E74 		.ascii	"uint16_t\000"
 3029      31365F74 
 3029      00
 3030              	.LASF75:
 3031 0238 54494D36 		.ascii	"TIM6_DAC_IRQn\000"
 3031      5F444143 
 3031      5F495251 
 3031      6E00
 3032              	.LASF103:
 3033 0246 504C4C43 		.ascii	"PLLCFGR\000"
 3033      46475200 
 3034              	.LASF73:
 3035 024e 55415254 		.ascii	"UART4_IRQn\000"
 3035      345F4952 
 3035      516E00
 3036              	.LASF63:
 3037 0259 4F54475F 		.ascii	"OTG_FS_WKUP_IRQn\000"
 3037      46535F57 
 3037      4B55505F 
ARM GAS  /tmp/ccIq2yzc.s 			page 57


 3037      4952516E 
 3037      00
 3038              	.LASF89:
 3039 026a 444D4132 		.ascii	"DMA2_Stream5_IRQn\000"
 3039      5F537472 
 3039      65616D35 
 3039      5F495251 
 3039      6E00
 3040              	.LASF65:
 3041 027c 54494D38 		.ascii	"TIM8_UP_TIM13_IRQn\000"
 3041      5F55505F 
 3041      54494D31 
 3041      335F4952 
 3041      516E00
 3042              	.LASF106:
 3043 028f 41484232 		.ascii	"AHB2RSTR\000"
 3043      52535452 
 3043      00
 3044              	.LASF15:
 3045 0298 42757346 		.ascii	"BusFault_IRQn\000"
 3045      61756C74 
 3045      5F495251 
 3045      6E00
 3046              	.LASF181:
 3047 02a6 56656374 		.ascii	"VectorF0\000"
 3047      6F724630 
 3047      00
 3048              	.LASF19:
 3049 02af 50656E64 		.ascii	"PendSV_IRQn\000"
 3049      53565F49 
 3049      52516E00 
 3050              	.LASF91:
 3051 02bb 444D4132 		.ascii	"DMA2_Stream7_IRQn\000"
 3051      5F537472 
 3051      65616D37 
 3051      5F495251 
 3051      6E00
 3052              	.LASF147:
 3053 02cd 42445452 		.ascii	"BDTR\000"
 3053      00
 3054              	.LASF0:
 3055 02d2 756E7369 		.ascii	"unsigned int\000"
 3055      676E6564 
 3055      20696E74 
 3055      00
 3056              	.LASF35:
 3057 02df 444D4131 		.ascii	"DMA1_Stream3_IRQn\000"
 3057      5F537472 
 3057      65616D33 
 3057      5F495251 
 3057      6E00
 3058              	.LASF189:
 3059 02f1 49435544 		.ascii	"ICUD1\000"
 3059      3100
 3060              	.LASF38:
 3061 02f7 444D4131 		.ascii	"DMA1_Stream6_IRQn\000"
 3061      5F537472 
ARM GAS  /tmp/ccIq2yzc.s 			page 58


 3061      65616D36 
 3061      5F495251 
 3061      6E00
 3062              	.LASF14:
 3063 0309 4D656D6F 		.ascii	"MemoryManagement_IRQn\000"
 3063      72794D61 
 3063      6E616765 
 3063      6D656E74 
 3063      5F495251 
 3064              	.LASF93:
 3065 031f 49324333 		.ascii	"I2C3_EV_IRQn\000"
 3065      5F45565F 
 3065      4952516E 
 3065      00
 3066              	.LASF9:
 3067 032c 6C6F6E67 		.ascii	"long unsigned int\000"
 3067      20756E73 
 3067      69676E65 
 3067      6420696E 
 3067      7400
 3068              	.LASF165:
 3069 033e 69637563 		.ascii	"icucallback_t\000"
 3069      616C6C62 
 3069      61636B5F 
 3069      7400
 3070              	.LASF130:
 3071 034c 5243435F 		.ascii	"RCC_TypeDef\000"
 3071      54797065 
 3071      44656600 
 3072              	.LASF173:
 3073 0358 70657269 		.ascii	"period_cb\000"
 3073      6F645F63 
 3073      6200
 3074              	.LASF95:
 3075 0362 4F54475F 		.ascii	"OTG_HS_EP1_OUT_IRQn\000"
 3075      48535F45 
 3075      50315F4F 
 3075      55545F49 
 3075      52516E00 
 3076              	.LASF70:
 3077 0376 5344494F 		.ascii	"SDIO_IRQn\000"
 3077      5F495251 
 3077      6E00
 3078              	.LASF196:
 3079 0380 6963755F 		.ascii	"icu_lld_serve_interrupt\000"
 3079      6C6C645F 
 3079      73657276 
 3079      655F696E 
 3079      74657272 
 3080              	.LASF17:
 3081 0398 53564361 		.ascii	"SVCall_IRQn\000"
 3081      6C6C5F49 
 3081      52516E00 
 3082              	.LASF133:
 3083 03a4 534D4352 		.ascii	"SMCR\000"
 3083      00
 3084              	.LASF182:
ARM GAS  /tmp/ccIq2yzc.s 			page 59


 3085 03a9 6963755F 		.ascii	"icu_lld_init\000"
 3085      6C6C645F 
 3085      696E6974 
 3085      00
 3086              	.LASF129:
 3087 03b6 504C4C49 		.ascii	"PLLI2SCFGR\000"
 3087      32534346 
 3087      475200
 3088              	.LASF40:
 3089 03c1 43414E31 		.ascii	"CAN1_TX_IRQn\000"
 3089      5F54585F 
 3089      4952516E 
 3089      00
 3090              	.LASF107:
 3091 03ce 41484233 		.ascii	"AHB3RSTR\000"
 3091      52535452 
 3091      00
 3092              	.LASF61:
 3093 03d7 45585449 		.ascii	"EXTI15_10_IRQn\000"
 3093      31355F31 
 3093      305F4952 
 3093      516E00
 3094              	.LASF56:
 3095 03e6 53504931 		.ascii	"SPI1_IRQn\000"
 3095      5F495251 
 3095      6E00
 3096              	.LASF161:
 3097 03f0 49435544 		.ascii	"ICUDriver\000"
 3097      72697665 
 3097      7200
 3098              	.LASF113:
 3099 03fa 41484232 		.ascii	"AHB2ENR\000"
 3099      454E5200 
 3100              	.LASF179:
 3101 0402 56656374 		.ascii	"Vector108\000"
 3101      6F723130 
 3101      3800
 3102              	.LASF153:
 3103 040c 73746D33 		.ascii	"stm32_tim_t\000"
 3103      325F7469 
 3103      6D5F7400 
 3104              	.LASF124:
 3105 0418 41504232 		.ascii	"APB2LPENR\000"
 3105      4C50454E 
 3105      5200
 3106              	.LASF64:
 3107 0422 54494D38 		.ascii	"TIM8_BRK_TIM12_IRQn\000"
 3107      5F42524B 
 3107      5F54494D 
 3107      31325F49 
 3107      52516E00 
 3108              	.LASF157:
 3109 0436 4943555F 		.ascii	"ICU_WAITING\000"
 3109      57414954 
 3109      494E4700 
 3110              	.LASF20:
 3111 0442 53797354 		.ascii	"SysTick_IRQn\000"
ARM GAS  /tmp/ccIq2yzc.s 			page 60


 3111      69636B5F 
 3111      4952516E 
 3111      00
 3112              	.LASF48:
 3113 044f 54494D31 		.ascii	"TIM1_CC_IRQn\000"
 3113      5F43435F 
 3113      4952516E 
 3113      00
 3114              	.LASF66:
 3115 045c 54494D38 		.ascii	"TIM8_TRG_COM_TIM14_IRQn\000"
 3115      5F545247 
 3115      5F434F4D 
 3115      5F54494D 
 3115      31345F49 
 3116              	.LASF195:
 3117 0474 4952516E 		.ascii	"IRQn\000"
 3117      00
 3118              	.LASF82:
 3119 0479 4554485F 		.ascii	"ETH_IRQn\000"
 3119      4952516E 
 3119      00
 3120              	.LASF46:
 3121 0482 54494D31 		.ascii	"TIM1_UP_TIM10_IRQn\000"
 3121      5F55505F 
 3121      54494D31 
 3121      305F4952 
 3121      516E00
 3122              	.LASF80:
 3123 0495 444D4132 		.ascii	"DMA2_Stream3_IRQn\000"
 3123      5F537472 
 3123      65616D33 
 3123      5F495251 
 3123      6E00
 3124              	.LASF36:
 3125 04a7 444D4131 		.ascii	"DMA1_Stream4_IRQn\000"
 3125      5F537472 
 3125      65616D34 
 3125      5F495251 
 3125      6E00
 3126              	.LASF79:
 3127 04b9 444D4132 		.ascii	"DMA2_Stream2_IRQn\000"
 3127      5F537472 
 3127      65616D32 
 3127      5F495251 
 3127      6E00
 3128              	.LASF92:
 3129 04cb 55534152 		.ascii	"USART6_IRQn\000"
 3129      54365F49 
 3129      52516E00 
 3130              	.LASF172:
 3131 04d7 77696474 		.ascii	"width_cb\000"
 3131      685F6362 
 3131      00
 3132              	.LASF114:
 3133 04e0 41484233 		.ascii	"AHB3ENR\000"
 3133      454E5200 
 3134              	.LASF71:
ARM GAS  /tmp/ccIq2yzc.s 			page 61


 3135 04e8 54494D35 		.ascii	"TIM5_IRQn\000"
 3135      5F495251 
 3135      6E00
 3136              	.LASF30:
 3137 04f2 45585449 		.ascii	"EXTI3_IRQn\000"
 3137      335F4952 
 3137      516E00
 3138              	.LASF57:
 3139 04fd 53504932 		.ascii	"SPI2_IRQn\000"
 3139      5F495251 
 3139      6E00
 3140              	.LASF34:
 3141 0507 444D4131 		.ascii	"DMA1_Stream2_IRQn\000"
 3141      5F537472 
 3141      65616D32 
 3141      5F495251 
 3141      6E00
 3142              	.LASF84:
 3143 0519 43414E32 		.ascii	"CAN2_TX_IRQn\000"
 3143      5F54585F 
 3143      4952516E 
 3143      00
 3144              	.LASF120:
 3145 0526 41484232 		.ascii	"AHB2LPENR\000"
 3145      4C50454E 
 3145      5200
 3146              	.LASF155:
 3147 0530 4943555F 		.ascii	"ICU_STOP\000"
 3147      53544F50 
 3147      00
 3148              	.LASF167:
 3149 0539 4943555F 		.ascii	"ICU_INPUT_ACTIVE_LOW\000"
 3149      494E5055 
 3149      545F4143 
 3149      54495645 
 3149      5F4C4F57 
 3150              	.LASF109:
 3151 054e 41504231 		.ascii	"APB1RSTR\000"
 3151      52535452 
 3151      00
 3152              	.LASF98:
 3153 0557 4F54475F 		.ascii	"OTG_HS_IRQn\000"
 3153      48535F49 
 3153      52516E00 
 3154              	.LASF187:
 3155 0563 6963755F 		.ascii	"icu_lld_disable\000"
 3155      6C6C645F 
 3155      64697361 
 3155      626C6500 
 3156              	.LASF108:
 3157 0573 52455345 		.ascii	"RESERVED0\000"
 3157      52564544 
 3157      3000
 3158              	.LASF111:
 3159 057d 52455345 		.ascii	"RESERVED1\000"
 3159      52564544 
 3159      3100
ARM GAS  /tmp/ccIq2yzc.s 			page 62


 3160              	.LASF115:
 3161 0587 52455345 		.ascii	"RESERVED2\000"
 3161      52564544 
 3161      3200
 3162              	.LASF118:
 3163 0591 52455345 		.ascii	"RESERVED3\000"
 3163      52564544 
 3163      3300
 3164              	.LASF122:
 3165 059b 52455345 		.ascii	"RESERVED4\000"
 3165      52564544 
 3165      3400
 3166              	.LASF125:
 3167 05a5 52455345 		.ascii	"RESERVED5\000"
 3167      52564544 
 3167      3500
 3168              	.LASF127:
 3169 05af 52455345 		.ascii	"RESERVED6\000"
 3169      52564544 
 3169      3600
 3170              	.LASF72:
 3171 05b9 53504933 		.ascii	"SPI3_IRQn\000"
 3171      5F495251 
 3171      6E00
 3172              	.LASF190:
 3173 05c3 49435544 		.ascii	"ICUD3\000"
 3173      3300
 3174              	.LASF191:
 3175 05c9 49435544 		.ascii	"ICUD5\000"
 3175      3500
 3176              	.LASF185:
 3177 05cf 69637570 		.ascii	"icup\000"
 3177      00
 3178              	.LASF81:
 3179 05d4 444D4132 		.ascii	"DMA2_Stream4_IRQn\000"
 3179      5F537472 
 3179      65616D34 
 3179      5F495251 
 3179      6E00
 3180              	.LASF192:
 3181 05e6 49435544 		.ascii	"ICUD8\000"
 3181      3800
 3182              	.LASF69:
 3183 05ec 46534D43 		.ascii	"FSMC_IRQn\000"
 3183      5F495251 
 3183      6E00
 3184              	.LASF18:
 3185 05f6 44656275 		.ascii	"DebugMonitor_IRQn\000"
 3185      674D6F6E 
 3185      69746F72 
 3185      5F495251 
 3185      6E00
 3186              	.LASF6:
 3187 0608 696E7433 		.ascii	"int32_t\000"
 3187      325F7400 
 3188              	.LASF2:
 3189 0610 756E7369 		.ascii	"unsigned char\000"
ARM GAS  /tmp/ccIq2yzc.s 			page 63


 3189      676E6564 
 3189      20636861 
 3189      7200
 3190              	.LASF45:
 3191 061e 54494D31 		.ascii	"TIM1_BRK_TIM9_IRQn\000"
 3191      5F42524B 
 3191      5F54494D 
 3191      395F4952 
 3191      516E00
 3192              	.LASF188:
 3193 0631 49544D5F 		.ascii	"ITM_RxBuffer\000"
 3193      52784275 
 3193      66666572 
 3193      00
 3194              	.LASF186:
 3195 063e 6963755F 		.ascii	"icu_lld_enable\000"
 3195      6C6C645F 
 3195      656E6162 
 3195      6C6500
 3196              	.LASF101:
 3197 064d 48415348 		.ascii	"HASH_RNG_IRQn\000"
 3197      5F524E47 
 3197      5F495251 
 3197      6E00
 3198              	.LASF3:
 3199 065b 73686F72 		.ascii	"short int\000"
 3199      7420696E 
 3199      7400
 3200              	.LASF31:
 3201 0665 45585449 		.ascii	"EXTI4_IRQn\000"
 3201      345F4952 
 3201      516E00
 3202              	.LASF121:
 3203 0670 41484233 		.ascii	"AHB3LPENR\000"
 3203      4C50454E 
 3203      5200
 3204              	.LASF74:
 3205 067a 55415254 		.ascii	"UART5_IRQn\000"
 3205      355F4952 
 3205      516E00
 3206              	.LASF47:
 3207 0685 54494D31 		.ascii	"TIM1_TRG_COM_TIM11_IRQn\000"
 3207      5F545247 
 3207      5F434F4D 
 3207      5F54494D 
 3207      31315F49 
 3208              	.LASF168:
 3209 069d 6963756D 		.ascii	"icumode_t\000"
 3209      6F64655F 
 3209      7400
 3210              	.LASF4:
 3211 06a7 73686F72 		.ascii	"short unsigned int\000"
 3211      7420756E 
 3211      7369676E 
 3211      65642069 
 3211      6E7400
 3212              	.LASF29:
ARM GAS  /tmp/ccIq2yzc.s 			page 64


 3213 06ba 45585449 		.ascii	"EXTI2_IRQn\000"
 3213      325F4952 
 3213      516E00
 3214              	.LASF117:
 3215 06c5 41504232 		.ascii	"APB2ENR\000"
 3215      454E5200 
 3216              	.LASF194:
 3217 06cd 2F6F7074 		.ascii	"/opt/ChibiOS/ChibiOS_2.4.4/os/hal/platforms/STM32/i"
 3217      2F436869 
 3217      62694F53 
 3217      2F436869 
 3217      62694F53 
 3218 0700 63755F6C 		.ascii	"cu_lld.c\000"
 3218      6C642E63 
 3218      00
 3219              	.LASF180:
 3220 0709 56656374 		.ascii	"VectorF8\000"
 3220      6F724638 
 3220      00
 3221              	.LASF25:
 3222 0712 464C4153 		.ascii	"FLASH_IRQn\000"
 3222      485F4952 
 3222      516E00
 3223              	.LASF88:
 3224 071d 4F54475F 		.ascii	"OTG_FS_IRQn\000"
 3224      46535F49 
 3224      52516E00 
 3225              	.LASF8:
 3226 0729 75696E74 		.ascii	"uint32_t\000"
 3226      33325F74 
 3226      00
 3227              	.LASF59:
 3228 0732 55534152 		.ascii	"USART2_IRQn\000"
 3228      54325F49 
 3228      52516E00 
 3229              	.LASF16:
 3230 073e 55736167 		.ascii	"UsageFault_IRQn\000"
 3230      65466175 
 3230      6C745F49 
 3230      52516E00 
 3231              	.LASF175:
 3232 074e 70726576 		.ascii	"previous_state\000"
 3232      696F7573 
 3232      5F737461 
 3232      746500
 3233              	.LASF193:
 3234 075d 474E5520 		.ascii	"GNU C 4.6.3\000"
 3234      4320342E 
 3234      362E3300 
 3235              	.LASF134:
 3236 0769 5F726573 		.ascii	"_resvd2\000"
 3236      76643200 
 3237              	.LASF136:
 3238 0771 5F726573 		.ascii	"_resvd3\000"
 3238      76643300 
 3239              	.LASF68:
 3240 0779 444D4131 		.ascii	"DMA1_Stream7_IRQn\000"
ARM GAS  /tmp/ccIq2yzc.s 			page 65


 3240      5F537472 
 3240      65616D37 
 3240      5F495251 
 3240      6E00
 3241              	.LASF12:
 3242 078b 63686172 		.ascii	"char\000"
 3242      00
 3243              	.LASF170:
 3244 0790 6D6F6465 		.ascii	"mode\000"
 3244      00
 3245              	.LASF100:
 3246 0795 43525950 		.ascii	"CRYP_IRQn\000"
 3246      5F495251 
 3246      6E00
 3247              	.LASF163:
 3248 079f 636F6E66 		.ascii	"config\000"
 3248      696700
 3249              	.LASF150:
 3250 07a6 444D4152 		.ascii	"DMAR\000"
 3250      00
 3251              	.LASF76:
 3252 07ab 54494D37 		.ascii	"TIM7_IRQn\000"
 3252      5F495251 
 3252      6E00
 3253              	.LASF33:
 3254 07b5 444D4131 		.ascii	"DMA1_Stream1_IRQn\000"
 3254      5F537472 
 3254      65616D31 
 3254      5F495251 
 3254      6E00
 3255              	.LASF96:
 3256 07c7 4F54475F 		.ascii	"OTG_HS_EP1_IN_IRQn\000"
 3256      48535F45 
 3256      50315F49 
 3256      4E5F4952 
 3256      516E00
 3257              	.LASF13:
 3258 07da 4E6F6E4D 		.ascii	"NonMaskableInt_IRQn\000"
 3258      61736B61 
 3258      626C6549 
 3258      6E745F49 
 3258      52516E00 
 3259              	.LASF116:
 3260 07ee 41504231 		.ascii	"APB1ENR\000"
 3260      454E5200 
 3261              	.LASF184:
 3262 07f6 6963755F 		.ascii	"icu_lld_stop\000"
 3262      6C6C645F 
 3262      73746F70 
 3262      00
 3263              	.LASF23:
 3264 0803 54414D50 		.ascii	"TAMP_STAMP_IRQn\000"
 3264      5F535441 
 3264      4D505F49 
 3264      52516E00 
 3265              	.LASF169:
 3266 0813 69637566 		.ascii	"icufreq_t\000"
ARM GAS  /tmp/ccIq2yzc.s 			page 66


 3266      7265715F 
 3266      7400
 3267              	.LASF156:
 3268 081d 4943555F 		.ascii	"ICU_READY\000"
 3268      52454144 
 3268      5900
 3269              	.LASF77:
 3270 0827 444D4132 		.ascii	"DMA2_Stream0_IRQn\000"
 3270      5F537472 
 3270      65616D30 
 3270      5F495251 
 3270      6E00
 3271              	.LASF54:
 3272 0839 49324332 		.ascii	"I2C2_EV_IRQn\000"
 3272      5F45565F 
 3272      4952516E 
 3272      00
 3273              	.LASF60:
 3274 0846 55534152 		.ascii	"USART3_IRQn\000"
 3274      54335F49 
 3274      52516E00 
 3275              	.LASF128:
 3276 0852 53534347 		.ascii	"SSCGR\000"
 3276      5200
 3277              	.LASF49:
 3278 0858 54494D32 		.ascii	"TIM2_IRQn\000"
 3278      5F495251 
 3278      6E00
 3279              	.LASF27:
 3280 0862 45585449 		.ascii	"EXTI0_IRQn\000"
 3280      305F4952 
 3280      516E00
 3281              	.LASF58:
 3282 086d 55534152 		.ascii	"USART1_IRQn\000"
 3282      54315F49 
 3282      52516E00 
 3283              	.LASF126:
 3284 0879 42444352 		.ascii	"BDCR\000"
 3284      00
 3285              	.LASF99:
 3286 087e 44434D49 		.ascii	"DCMI_IRQn\000"
 3286      5F495251 
 3286      6E00
 3287              	.LASF112:
 3288 0888 41484231 		.ascii	"AHB1ENR\000"
 3288      454E5200 
 3289              	.LASF135:
 3290 0890 44494552 		.ascii	"DIER\000"
 3290      00
 3291              	.LASF177:
 3292 0895 56656374 		.ascii	"VectorA4\000"
 3292      6F724134 
 3292      00
 3293              	.LASF102:
 3294 089e 4650555F 		.ascii	"FPU_IRQn\000"
 3294      4952516E 
 3294      00
ARM GAS  /tmp/ccIq2yzc.s 			page 67


 3295              	.LASF104:
 3296 08a7 43464752 		.ascii	"CFGR\000"
 3296      00
 3297              	.LASF183:
 3298 08ac 6963755F 		.ascii	"icu_lld_start\000"
 3298      6C6C645F 
 3298      73746172 
 3298      7400
 3299              	.LASF164:
 3300 08ba 636C6F63 		.ascii	"clock\000"
 3300      6B00
 3301              	.LASF53:
 3302 08c0 49324331 		.ascii	"I2C1_ER_IRQn\000"
 3302      5F45525F 
 3302      4952516E 
 3302      00
 3303              	.LASF39:
 3304 08cd 4144435F 		.ascii	"ADC_IRQn\000"
 3304      4952516E 
 3304      00
 3305              	.LASF78:
 3306 08d6 444D4132 		.ascii	"DMA2_Stream1_IRQn\000"
 3306      5F537472 
 3306      65616D31 
 3306      5F495251 
 3306      6E00
 3307              	.LASF43:
 3308 08e8 43414E31 		.ascii	"CAN1_SCE_IRQn\000"
 3308      5F534345 
 3308      5F495251 
 3308      6E00
 3309              	.LASF87:
 3310 08f6 43414E32 		.ascii	"CAN2_SCE_IRQn\000"
 3310      5F534345 
 3310      5F495251 
 3310      6E00
 3311              	.LASF26:
 3312 0904 5243435F 		.ascii	"RCC_IRQn\000"
 3312      4952516E 
 3312      00
 3313              	.LASF97:
 3314 090d 4F54475F 		.ascii	"OTG_HS_WKUP_IRQn\000"
 3314      48535F57 
 3314      4B55505F 
 3314      4952516E 
 3314      00
 3315              	.LASF50:
 3316 091e 54494D33 		.ascii	"TIM3_IRQn\000"
 3316      5F495251 
 3316      6E00
 3317              	.LASF28:
 3318 0928 45585449 		.ascii	"EXTI1_IRQn\000"
 3318      315F4952 
 3318      516E00
 3319              	.LASF32:
 3320 0933 444D4131 		.ascii	"DMA1_Stream0_IRQn\000"
 3320      5F537472 
ARM GAS  /tmp/ccIq2yzc.s 			page 68


 3320      65616D30 
 3320      5F495251 
 3320      6E00
 3321              		.ident	"GCC: (Sourcery CodeBench Lite 2012.03-56) 4.6.3"
ARM GAS  /tmp/ccIq2yzc.s 			page 69


DEFINED SYMBOLS
                            *ABS*:00000000 icu_lld.c
     /tmp/ccIq2yzc.s:21     .text.icu_lld_serve_interrupt:00000000 $t
     /tmp/ccIq2yzc.s:26     .text.icu_lld_serve_interrupt:00000000 icu_lld_serve_interrupt
     /tmp/ccIq2yzc.s:96     .text.VectorAC:00000000 $t
     /tmp/ccIq2yzc.s:102    .text.VectorAC:00000000 VectorAC
     /tmp/ccIq2yzc.s:776    .bss.ICUD1:00000000 .LANCHOR0
     /tmp/ccIq2yzc.s:125    .text.VectorA4:00000000 $t
     /tmp/ccIq2yzc.s:131    .text.VectorA4:00000000 VectorA4
     /tmp/ccIq2yzc.s:154    .text.VectorB4:00000000 $t
     /tmp/ccIq2yzc.s:160    .text.VectorB4:00000000 VectorB4
     /tmp/ccIq2yzc.s:755    .bss.ICUD3:00000000 .LANCHOR1
     /tmp/ccIq2yzc.s:183    .text.Vector108:00000000 $t
     /tmp/ccIq2yzc.s:189    .text.Vector108:00000000 Vector108
     /tmp/ccIq2yzc.s:762    .bss.ICUD5:00000000 .LANCHOR2
     /tmp/ccIq2yzc.s:212    .text.VectorF8:00000000 $t
     /tmp/ccIq2yzc.s:218    .text.VectorF8:00000000 VectorF8
     /tmp/ccIq2yzc.s:769    .bss.ICUD8:00000000 .LANCHOR3
     /tmp/ccIq2yzc.s:241    .text.VectorF0:00000000 $t
     /tmp/ccIq2yzc.s:247    .text.VectorF0:00000000 VectorF0
     /tmp/ccIq2yzc.s:270    .text.icu_lld_init:00000000 $t
     /tmp/ccIq2yzc.s:276    .text.icu_lld_init:00000000 icu_lld_init
     /tmp/ccIq2yzc.s:342    .text.icu_lld_start:00000000 $t
     /tmp/ccIq2yzc.s:348    .text.icu_lld_start:00000000 icu_lld_start
     /tmp/ccIq2yzc.s:555    .text.icu_lld_stop:00000000 $t
     /tmp/ccIq2yzc.s:561    .text.icu_lld_stop:00000000 icu_lld_stop
     /tmp/ccIq2yzc.s:672    .text.icu_lld_enable:00000000 $t
     /tmp/ccIq2yzc.s:678    .text.icu_lld_enable:00000000 icu_lld_enable
     /tmp/ccIq2yzc.s:722    .text.icu_lld_disable:00000000 $t
     /tmp/ccIq2yzc.s:728    .text.icu_lld_disable:00000000 icu_lld_disable
     /tmp/ccIq2yzc.s:772    .bss.ICUD8:00000000 ICUD8
     /tmp/ccIq2yzc.s:765    .bss.ICUD5:00000000 ICUD5
     /tmp/ccIq2yzc.s:758    .bss.ICUD3:00000000 ICUD3
     /tmp/ccIq2yzc.s:779    .bss.ICUD1:00000000 ICUD1
     /tmp/ccIq2yzc.s:754    .bss.ICUD3:00000000 $d
     /tmp/ccIq2yzc.s:761    .bss.ICUD5:00000000 $d
     /tmp/ccIq2yzc.s:768    .bss.ICUD8:00000000 $d
     /tmp/ccIq2yzc.s:775    .bss.ICUD1:00000000 $d
                     .debug_frame:00000010 $d

UNDEFINED SYMBOLS
_port_irq_epilogue
icuObjectInit
nvicEnableVector
nvicDisableVector
