ARM GAS  /tmp/ccIq2yzc.s 			page 1


   1              		.syntax unified
   2              		.cpu cortex-m4
   3              		.eabi_attribute 27, 3
   4              		.eabi_attribute 28, 1
   5              		.fpu fpv4-sp-d16
   6              		.eabi_attribute 20, 1
   7              		.eabi_attribute 21, 1
   8              		.eabi_attribute 23, 3
   9              		.eabi_attribute 24, 1
  10              		.eabi_attribute 25, 1
  11              		.eabi_attribute 26, 1
  12              		.eabi_attribute 30, 2
  13              		.eabi_attribute 34, 1
  14              		.eabi_attribute 18, 4
  15              		.thumb
  16              		.file	"icu_lld.c"
  17              		.text
  18              	.Ltext0:
  19              		.cfi_sections	.debug_frame
  20              		.section	.text.icu_lld_serve_interrupt,"ax",%progbits
  21              		.align	2
  22              		.p2align 4,,15
  23              		.thumb
  24              		.thumb_func
  25              		.type	icu_lld_serve_interrupt, %function
  26              	icu_lld_serve_interrupt:
  27              	.LFB117:
  28              		.file 1 "/opt/ChibiOS/ChibiOS_2.4.4/os/hal/platforms/STM32/icu_lld.c"
  29              		.loc 1 106 0
  30              		.cfi_startproc
  31              		@ args = 0, pretend = 0, frame = 0
  32              		@ frame_needed = 0, uses_anonymous_args = 0
  33              	.LVL0:
  34 0000 38B5     		push	{r3, r4, r5, lr}
  35              	.LCFI0:
  36              		.cfi_def_cfa_offset 16
  37              		.cfi_offset 14, -4
  38              		.cfi_offset 5, -8
  39              		.cfi_offset 4, -12
  40              		.cfi_offset 3, -16
  41              		.loc 1 109 0
  42 0002 C368     		ldr	r3, [r0, #12]
  43 0004 198A     		ldrh	r1, [r3, #16]
  44 0006 9D89     		ldrh	r5, [r3, #12]
  45              	.LVL1:
  46              		.loc 1 110 0
  47 0008 0022     		movs	r2, #0
  48              		.loc 1 111 0
  49 000a 0D40     		ands	r5, r5, r1
  50              	.LVL2:
  51              		.loc 1 110 0
  52 000c 1A82     		strh	r2, [r3, #16]	@ movhi
  53              		.loc 1 111 0
  54 000e AA07     		lsls	r2, r5, #30
  55              		.loc 1 106 0
  56 0010 0446     		mov	r4, r0
  57              		.loc 1 111 0
ARM GAS  /tmp/ccIq2yzc.s 			page 2


  58 0012 09D5     		bpl	.L2
  59              	.LBB7:
  60              		.loc 1 112 0
  61 0014 90F800C0 		ldrb	ip, [r0, #0]	@ zero_extendqisi2
  62              	.LVL3:
  63 0018 0422     		movs	r2, #4
  64 001a BCF1030F 		cmp	ip, #3
  65 001e 0270     		strb	r2, [r0, #0]
  66 0020 02D0     		beq	.L2
  67              		.loc 1 112 0 is_stmt 0 discriminator 1
  68 0022 4168     		ldr	r1, [r0, #4]
  69 0024 CB68     		ldr	r3, [r1, #12]
  70 0026 9847     		blx	r3
  71              	.LVL4:
  72              	.L2:
  73              	.LBE7:
  74              		.loc 1 113 0 is_stmt 1
  75 0028 6B07     		lsls	r3, r5, #29
  76 002a 05D5     		bpl	.L1
  77              	.LVL5:
  78              	.LBB8:
  79              	.LBB9:
  80              		.loc 1 114 0
  81 002c 6068     		ldr	r0, [r4, #4]
  82 002e 0523     		movs	r3, #5
  83 0030 8268     		ldr	r2, [r0, #8]
  84 0032 2370     		strb	r3, [r4, #0]
  85 0034 2046     		mov	r0, r4
  86 0036 9047     		blx	r2
  87              	.LVL6:
  88              	.L1:
  89 0038 38BD     		pop	{r3, r4, r5, pc}
  90              	.LBE9:
  91              	.LBE8:
  92              		.cfi_endproc
  93              	.LFE117:
  94              		.size	icu_lld_serve_interrupt, .-icu_lld_serve_interrupt
  95 003a 00BFAFF3 		.section	.text.VectorAC,"ax",%progbits
  95      0080
  96              		.align	2
  97              		.p2align 4,,15
  98              		.global	VectorAC
  99              		.thumb
 100              		.thumb_func
 101              		.type	VectorAC, %function
 102              	VectorAC:
 103              	.LFB118:
 104              		.loc 1 130 0
 105              		.cfi_startproc
 106              		@ args = 0, pretend = 0, frame = 0
 107              		@ frame_needed = 0, uses_anonymous_args = 0
 108 0000 08B5     		push	{r3, lr}
 109              	.LCFI1:
 110              		.cfi_def_cfa_offset 8
 111              		.cfi_offset 14, -4
 112              		.cfi_offset 3, -8
 113              		.loc 1 134 0
ARM GAS  /tmp/ccIq2yzc.s 			page 3


 114 0002 40F20000 		movw	r0, #:lower16:.LANCHOR0
 115 0006 C0F20000 		movt	r0, #:upper16:.LANCHOR0
 116 000a FFF7FEFF 		bl	icu_lld_serve_interrupt
 117              		.loc 1 137 0
 118 000e BDE80840 		pop	{r3, lr}
 119              		.loc 1 136 0
 120 0012 FFF7FEBF 		b	_port_irq_epilogue
 121              		.cfi_endproc
 122              	.LFE118:
 123              		.size	VectorAC, .-VectorAC
 124 0016 00BFAFF3 		.section	.text.VectorA4,"ax",%progbits
 124      0080AFF3 
 124      0080
 125              		.align	2
 126              		.p2align 4,,15
 127              		.global	VectorA4
 128              		.thumb
 129              		.thumb_func
 130              		.type	VectorA4, %function
 131              	VectorA4:
 132              	.LFB119:
 133              		.loc 1 147 0
 134              		.cfi_startproc
 135              		@ args = 0, pretend = 0, frame = 0
 136              		@ frame_needed = 0, uses_anonymous_args = 0
 137 0000 08B5     		push	{r3, lr}
 138              	.LCFI2:
 139              		.cfi_def_cfa_offset 8
 140              		.cfi_offset 14, -4
 141              		.cfi_offset 3, -8
 142              		.loc 1 151 0
 143 0002 40F20000 		movw	r0, #:lower16:.LANCHOR0
 144 0006 C0F20000 		movt	r0, #:upper16:.LANCHOR0
 145 000a FFF7FEFF 		bl	icu_lld_serve_interrupt
 146              		.loc 1 154 0
 147 000e BDE80840 		pop	{r3, lr}
 148              		.loc 1 153 0
 149 0012 FFF7FEBF 		b	_port_irq_epilogue
 150              		.cfi_endproc
 151              	.LFE119:
 152              		.size	VectorA4, .-VectorA4
 153 0016 00BFAFF3 		.section	.text.VectorB4,"ax",%progbits
 153      0080AFF3 
 153      0080
 154              		.align	2
 155              		.p2align 4,,15
 156              		.global	VectorB4
 157              		.thumb
 158              		.thumb_func
 159              		.type	VectorB4, %function
 160              	VectorB4:
 161              	.LFB120:
 162              		.loc 1 185 0
 163              		.cfi_startproc
 164              		@ args = 0, pretend = 0, frame = 0
 165              		@ frame_needed = 0, uses_anonymous_args = 0
 166 0000 08B5     		push	{r3, lr}
ARM GAS  /tmp/ccIq2yzc.s 			page 4


 167              	.LCFI3:
 168              		.cfi_def_cfa_offset 8
 169              		.cfi_offset 14, -4
 170              		.cfi_offset 3, -8
 171              		.loc 1 189 0
 172 0002 40F20000 		movw	r0, #:lower16:.LANCHOR1
 173 0006 C0F20000 		movt	r0, #:upper16:.LANCHOR1
 174 000a FFF7FEFF 		bl	icu_lld_serve_interrupt
 175              		.loc 1 192 0
 176 000e BDE80840 		pop	{r3, lr}
 177              		.loc 1 191 0
 178 0012 FFF7FEBF 		b	_port_irq_epilogue
 179              		.cfi_endproc
 180              	.LFE120:
 181              		.size	VectorB4, .-VectorB4
 182 0016 00BFAFF3 		.section	.text.Vector108,"ax",%progbits
 182      0080AFF3 
 182      0080
 183              		.align	2
 184              		.p2align 4,,15
 185              		.global	Vector108
 186              		.thumb
 187              		.thumb_func
 188              		.type	Vector108, %function
 189              	Vector108:
 190              	.LFB121:
 191              		.loc 1 223 0
 192              		.cfi_startproc
 193              		@ args = 0, pretend = 0, frame = 0
 194              		@ frame_needed = 0, uses_anonymous_args = 0
 195 0000 08B5     		push	{r3, lr}
 196              	.LCFI4:
 197              		.cfi_def_cfa_offset 8
 198              		.cfi_offset 14, -4
 199              		.cfi_offset 3, -8
 200              		.loc 1 227 0
 201 0002 40F20000 		movw	r0, #:lower16:.LANCHOR2
 202 0006 C0F20000 		movt	r0, #:upper16:.LANCHOR2
 203 000a FFF7FEFF 		bl	icu_lld_serve_interrupt
 204              		.loc 1 230 0
 205 000e BDE80840 		pop	{r3, lr}
 206              		.loc 1 229 0
 207 0012 FFF7FEBF 		b	_port_irq_epilogue
 208              		.cfi_endproc
 209              	.LFE121:
 210              		.size	Vector108, .-Vector108
 211 0016 00BFAFF3 		.section	.text.VectorF8,"ax",%progbits
 211      0080AFF3 
 211      0080
 212              		.align	2
 213              		.p2align 4,,15
 214              		.global	VectorF8
 215              		.thumb
 216              		.thumb_func
 217              		.type	VectorF8, %function
 218              	VectorF8:
 219              	.LFB122:
ARM GAS  /tmp/ccIq2yzc.s 			page 5


 220              		.loc 1 242 0
 221              		.cfi_startproc
 222              		@ args = 0, pretend = 0, frame = 0
 223              		@ frame_needed = 0, uses_anonymous_args = 0
 224 0000 08B5     		push	{r3, lr}
 225              	.LCFI5:
 226              		.cfi_def_cfa_offset 8
 227              		.cfi_offset 14, -4
 228              		.cfi_offset 3, -8
 229              		.loc 1 246 0
 230 0002 40F20000 		movw	r0, #:lower16:.LANCHOR3
 231 0006 C0F20000 		movt	r0, #:upper16:.LANCHOR3
 232 000a FFF7FEFF 		bl	icu_lld_serve_interrupt
 233              		.loc 1 249 0
 234 000e BDE80840 		pop	{r3, lr}
 235              		.loc 1 248 0
 236 0012 FFF7FEBF 		b	_port_irq_epilogue
 237              		.cfi_endproc
 238              	.LFE122:
 239              		.size	VectorF8, .-VectorF8
 240 0016 00BFAFF3 		.section	.text.VectorF0,"ax",%progbits
 240      0080AFF3 
 240      0080
 241              		.align	2
 242              		.p2align 4,,15
 243              		.global	VectorF0
 244              		.thumb
 245              		.thumb_func
 246              		.type	VectorF0, %function
 247              	VectorF0:
 248              	.LFB123:
 249              		.loc 1 259 0
 250              		.cfi_startproc
 251              		@ args = 0, pretend = 0, frame = 0
 252              		@ frame_needed = 0, uses_anonymous_args = 0
 253 0000 08B5     		push	{r3, lr}
 254              	.LCFI6:
 255              		.cfi_def_cfa_offset 8
 256              		.cfi_offset 14, -4
 257              		.cfi_offset 3, -8
 258              		.loc 1 263 0
 259 0002 40F20000 		movw	r0, #:lower16:.LANCHOR3
 260 0006 C0F20000 		movt	r0, #:upper16:.LANCHOR3
 261 000a FFF7FEFF 		bl	icu_lld_serve_interrupt
 262              		.loc 1 266 0
 263 000e BDE80840 		pop	{r3, lr}
 264              		.loc 1 265 0
 265 0012 FFF7FEBF 		b	_port_irq_epilogue
 266              		.cfi_endproc
 267              	.LFE123:
 268              		.size	VectorF0, .-VectorF0
 269 0016 00BFAFF3 		.section	.text.icu_lld_init,"ax",%progbits
 269      0080AFF3 
 269      0080
 270              		.align	2
 271              		.p2align 4,,15
 272              		.global	icu_lld_init
ARM GAS  /tmp/ccIq2yzc.s 			page 6


 273              		.thumb
 274              		.thumb_func
 275              		.type	icu_lld_init, %function
 276              	icu_lld_init:
 277              	.LFB124:
 278              		.loc 1 278 0
 279              		.cfi_startproc
 280              		@ args = 0, pretend = 0, frame = 0
 281              		@ frame_needed = 0, uses_anonymous_args = 0
 282 0000 70B5     		push	{r4, r5, r6, lr}
 283              	.LCFI7:
 284              		.cfi_def_cfa_offset 16
 285              		.cfi_offset 14, -4
 286              		.cfi_offset 6, -8
 287              		.cfi_offset 5, -12
 288              		.cfi_offset 4, -16
 289              		.loc 1 282 0
 290 0002 40F20004 		movw	r4, #:lower16:.LANCHOR0
 291 0006 C0F20004 		movt	r4, #:upper16:.LANCHOR0
 292 000a 2046     		mov	r0, r4
 293 000c FFF7FEFF 		bl	icuObjectInit
 294              		.loc 1 294 0
 295 0010 40F20006 		movw	r6, #:lower16:.LANCHOR1
 296              		.loc 1 283 0
 297 0014 0023     		movs	r3, #0
 298 0016 C4F20103 		movt	r3, 16385
 299              		.loc 1 294 0
 300 001a C0F20006 		movt	r6, #:upper16:.LANCHOR1
 301              		.loc 1 283 0
 302 001e E360     		str	r3, [r4, #12]
 303              		.loc 1 294 0
 304 0020 3046     		mov	r0, r6
 305              		.loc 1 306 0
 306 0022 40F20005 		movw	r5, #:lower16:.LANCHOR2
 307              		.loc 1 294 0
 308 0026 FFF7FEFF 		bl	icuObjectInit
 309              		.loc 1 306 0
 310 002a C0F20005 		movt	r5, #:upper16:.LANCHOR2
 311              		.loc 1 295 0
 312 002e 4FF48062 		mov	r2, #1024
 313 0032 C4F20002 		movt	r2, 16384
 314              		.loc 1 306 0
 315 0036 2846     		mov	r0, r5
 316              		.loc 1 312 0
 317 0038 40F20004 		movw	r4, #:lower16:.LANCHOR3
 318 003c C0F20004 		movt	r4, #:upper16:.LANCHOR3
 319              		.loc 1 295 0
 320 0040 F260     		str	r2, [r6, #12]
 321              		.loc 1 306 0
 322 0042 FFF7FEFF 		bl	icuObjectInit
 323              		.loc 1 307 0
 324 0046 4FF44061 		mov	r1, #3072
 325 004a C4F20001 		movt	r1, 16384
 326              		.loc 1 312 0
 327 004e 2046     		mov	r0, r4
 328              		.loc 1 307 0
 329 0050 E960     		str	r1, [r5, #12]
ARM GAS  /tmp/ccIq2yzc.s 			page 7


 330              		.loc 1 312 0
 331 0052 FFF7FEFF 		bl	icuObjectInit
 332              		.loc 1 313 0
 333 0056 4FF48063 		mov	r3, #1024
 334 005a C4F20103 		movt	r3, 16385
 335 005e E360     		str	r3, [r4, #12]
 336              		.loc 1 315 0
 337 0060 70BD     		pop	{r4, r5, r6, pc}
 338              		.cfi_endproc
 339              	.LFE124:
 340              		.size	icu_lld_init, .-icu_lld_init
 341 0062 00BFAFF3 		.section	.text.icu_lld_start,"ax",%progbits
 341      0080AFF3 
 341      0080AFF3 
 341      0080
 342              		.align	2
 343              		.p2align 4,,15
 344              		.global	icu_lld_start
 345              		.thumb
 346              		.thumb_func
 347              		.type	icu_lld_start, %function
 348              	icu_lld_start:
 349              	.LFB125:
 350              		.loc 1 324 0
 351              		.cfi_startproc
 352              		@ args = 0, pretend = 0, frame = 0
 353              		@ frame_needed = 0, uses_anonymous_args = 0
 354              	.LVL7:
 355              		.loc 1 327 0
 356 0000 0378     		ldrb	r3, [r0, #0]	@ zero_extendqisi2
 357 0002 012B     		cmp	r3, #1
 358              		.loc 1 324 0
 359 0004 10B5     		push	{r4, lr}
 360              	.LCFI8:
 361              		.cfi_def_cfa_offset 8
 362              		.cfi_offset 14, -4
 363              		.cfi_offset 4, -8
 364              		.loc 1 324 0
 365 0006 0446     		mov	r4, r0
 366              		.loc 1 327 0
 367 0008 1ED0     		beq	.L23
 368              		.loc 1 391 0
 369 000a C368     		ldr	r3, [r0, #12]
 370 000c 0020     		movs	r0, #0
 371              	.LVL8:
 372 000e 1880     		strh	r0, [r3, #0]	@ movhi
 373              		.loc 1 392 0
 374 0010 9881     		strh	r0, [r3, #12]	@ movhi
 375              		.loc 1 393 0
 376 0012 1882     		strh	r0, [r3, #16]	@ movhi
 377              		.loc 1 394 0
 378 0014 5863     		str	r0, [r3, #52]
 379              		.loc 1 395 0
 380 0016 9863     		str	r0, [r3, #56]
 381              		.loc 1 396 0
 382 0018 5862     		str	r0, [r3, #36]
 383              	.L18:
ARM GAS  /tmp/ccIq2yzc.s 			page 8


 384              		.loc 1 400 0
 385 001a 6268     		ldr	r2, [r4, #4]
 386              	.LVL9:
 387 001c A068     		ldr	r0, [r4, #8]
 388 001e 5168     		ldr	r1, [r2, #4]
 389              		.loc 1 418 0
 390 0020 1278     		ldrb	r2, [r2, #0]	@ zero_extendqisi2
 391              		.loc 1 400 0
 392 0022 B0FBF1F1 		udiv	r1, r0, r1
 393 0026 481E     		subs	r0, r1, #1
 394              		.loc 1 405 0
 395 0028 4FF6FF71 		movw	r1, #65535
 396              		.loc 1 404 0
 397 002c 1885     		strh	r0, [r3, #40]	@ movhi
 398              		.loc 1 405 0
 399 002e D962     		str	r1, [r3, #44]
 400              		.loc 1 409 0
 401 0030 40F20120 		movw	r0, 513	@ movhi
 402              		.loc 1 413 0
 403 0034 5421     		movs	r1, #84
 404              		.loc 1 409 0
 405 0036 1883     		strh	r0, [r3, #24]	@ movhi
 406              		.loc 1 413 0
 407 0038 1981     		strh	r1, [r3, #8]	@ movhi
 408              		.loc 1 418 0
 409 003a 12B1     		cbz	r2, .L24
 410              		.loc 1 422 0
 411 003c 1320     		movs	r0, #19
 412 003e 1884     		strh	r0, [r3, #32]	@ movhi
 413 0040 10BD     		pop	{r4, pc}
 414              	.L24:
 415              		.loc 1 419 0
 416 0042 3121     		movs	r1, #49
 417 0044 1984     		strh	r1, [r3, #32]	@ movhi
 418 0046 10BD     		pop	{r4, pc}
 419              	.LVL10:
 420              	.L23:
 421              		.loc 1 330 0
 422 0048 40F20001 		movw	r1, #:lower16:.LANCHOR0
 423 004c C0F20001 		movt	r1, #:upper16:.LANCHOR0
 424 0050 8842     		cmp	r0, r1
 425 0052 35D0     		beq	.L25
 426              		.loc 1 350 0
 427 0054 40F2000C 		movw	ip, #:lower16:.LANCHOR1
 428 0058 C0F2000C 		movt	ip, #:upper16:.LANCHOR1
 429 005c 6045     		cmp	r0, ip
 430 005e 50D0     		beq	.L26
 431              		.loc 1 369 0
 432 0060 40F20002 		movw	r2, #:lower16:.LANCHOR2
 433 0064 C0F20002 		movt	r2, #:upper16:.LANCHOR2
 434 0068 9042     		cmp	r0, r2
 435 006a 68D0     		beq	.L27
 436              	.L15:
 437              		.loc 1 378 0
 438 006c 40F2000C 		movw	ip, #:lower16:.LANCHOR3
 439 0070 C0F2000C 		movt	ip, #:upper16:.LANCHOR3
 440 0074 6445     		cmp	r4, ip
ARM GAS  /tmp/ccIq2yzc.s 			page 9


 441 0076 01D0     		beq	.L19
 442              		.loc 1 385 0
 443 0078 E368     		ldr	r3, [r4, #12]
 444 007a CEE7     		b	.L18
 445              	.L19:
 446              		.loc 1 379 0
 447 007c 4FF4605E 		mov	lr, #14336
 448 0080 C4F2020E 		movt	lr, 16386
 449 0084 DEF84420 		ldr	r2, [lr, #68]
 450 0088 42F00203 		orr	r3, r2, #2
 451 008c CEF84430 		str	r3, [lr, #68]
 452              		.loc 1 380 0
 453 0090 DEF82410 		ldr	r1, [lr, #36]
 454 0094 0022     		movs	r2, #0
 455 0096 41F00200 		orr	r0, r1, #2
 456 009a CEF82400 		str	r0, [lr, #36]
 457              		.loc 1 381 0
 458 009e 7021     		movs	r1, #112
 459 00a0 2E20     		movs	r0, #46
 460              		.loc 1 380 0
 461 00a2 CEF82420 		str	r2, [lr, #36]
 462              		.loc 1 381 0
 463 00a6 FFF7FEFF 		bl	nvicEnableVector
 464              		.loc 1 383 0
 465 00aa 2C20     		movs	r0, #44
 466 00ac 7021     		movs	r1, #112
 467 00ae FFF7FEFF 		bl	nvicEnableVector
 468              		.loc 1 385 0
 469 00b2 4FF4F443 		mov	r3, #31232
 470 00b6 C0F60323 		movt	r3, 2563
 471 00ba A360     		str	r3, [r4, #8]
 472 00bc E368     		ldr	r3, [r4, #12]
 473 00be ACE7     		b	.L18
 474              	.L25:
 475              		.loc 1 331 0
 476 00c0 4FF4605C 		mov	ip, #14336
 477 00c4 C4F2020C 		movt	ip, 16386
 478 00c8 DCF84420 		ldr	r2, [ip, #68]
 479 00cc 42F00100 		orr	r0, r2, #1
 480 00d0 CCF84400 		str	r0, [ip, #68]
 481              		.loc 1 332 0
 482 00d4 DCF82410 		ldr	r1, [ip, #36]
 483 00d8 0022     		movs	r2, #0
 484 00da 41F00103 		orr	r3, r1, #1
 485 00de CCF82430 		str	r3, [ip, #36]
 486              		.loc 1 333 0
 487 00e2 1B20     		movs	r0, #27
 488 00e4 7021     		movs	r1, #112
 489              		.loc 1 332 0
 490 00e6 CCF82420 		str	r2, [ip, #36]
 491              		.loc 1 333 0
 492 00ea FFF7FEFF 		bl	nvicEnableVector
 493              		.loc 1 335 0
 494 00ee 1920     		movs	r0, #25
 495 00f0 7021     		movs	r1, #112
 496 00f2 FFF7FEFF 		bl	nvicEnableVector
 497              		.loc 1 337 0
ARM GAS  /tmp/ccIq2yzc.s 			page 10


 498 00f6 4FF4F440 		mov	r0, #31232
 499 00fa C0F60320 		movt	r0, 2563
 500 00fe A060     		str	r0, [r4, #8]
 501 0100 B4E7     		b	.L15
 502              	.L26:
 503              		.loc 1 351 0
 504 0102 4FF4605E 		mov	lr, #14336
 505 0106 C4F2020E 		movt	lr, 16386
 506 010a DEF84010 		ldr	r1, [lr, #64]
 507 010e 41F00203 		orr	r3, r1, #2
 508 0112 CEF84030 		str	r3, [lr, #64]
 509              		.loc 1 352 0
 510 0116 DEF82020 		ldr	r2, [lr, #32]
 511 011a 0021     		movs	r1, #0
 512 011c 42F00200 		orr	r0, r2, #2
 513 0120 CEF82000 		str	r0, [lr, #32]
 514 0124 CEF82010 		str	r1, [lr, #32]
 515              		.loc 1 353 0
 516 0128 1D20     		movs	r0, #29
 517 012a 7021     		movs	r1, #112
 518 012c FFF7FEFF 		bl	nvicEnableVector
 519              		.loc 1 355 0
 520 0130 4FF43D43 		mov	r3, #48384
 521 0134 C0F20153 		movt	r3, 1281
 522 0138 A360     		str	r3, [r4, #8]
 523              		.loc 1 385 0
 524 013a E368     		ldr	r3, [r4, #12]
 525 013c 6DE7     		b	.L18
 526              	.L27:
 527              		.loc 1 370 0
 528 013e 4FF4605C 		mov	ip, #14336
 529 0142 C4F2020C 		movt	ip, 16386
 530 0146 DCF84010 		ldr	r1, [ip, #64]
 531 014a 41F00800 		orr	r0, r1, #8
 532 014e CCF84000 		str	r0, [ip, #64]
 533              		.loc 1 371 0
 534 0152 DCF82020 		ldr	r2, [ip, #32]
 535 0156 0021     		movs	r1, #0
 536 0158 42F00803 		orr	r3, r2, #8
 537 015c CCF82030 		str	r3, [ip, #32]
 538              		.loc 1 372 0
 539 0160 3220     		movs	r0, #50
 540              		.loc 1 371 0
 541 0162 CCF82010 		str	r1, [ip, #32]
 542              		.loc 1 372 0
 543 0166 7021     		movs	r1, #112
 544 0168 FFF7FEFF 		bl	nvicEnableVector
 545              		.loc 1 374 0
 546 016c 4FF43D40 		mov	r0, #48384
 547 0170 C0F20150 		movt	r0, 1281
 548 0174 A060     		str	r0, [r4, #8]
 549 0176 E368     		ldr	r3, [r4, #12]
 550 0178 4FE7     		b	.L18
 551              		.cfi_endproc
 552              	.LFE125:
 553              		.size	icu_lld_start, .-icu_lld_start
 554 017a 00BFAFF3 		.section	.text.icu_lld_stop,"ax",%progbits
ARM GAS  /tmp/ccIq2yzc.s 			page 11


 554      0080
 555              		.align	2
 556              		.p2align 4,,15
 557              		.global	icu_lld_stop
 558              		.thumb
 559              		.thumb_func
 560              		.type	icu_lld_stop, %function
 561              	icu_lld_stop:
 562              	.LFB126:
 563              		.loc 1 433 0
 564              		.cfi_startproc
 565              		@ args = 0, pretend = 0, frame = 0
 566              		@ frame_needed = 0, uses_anonymous_args = 0
 567              	.LVL11:
 568              		.loc 1 435 0
 569 0000 0378     		ldrb	r3, [r0, #0]	@ zero_extendqisi2
 570 0002 022B     		cmp	r3, #2
 571              		.loc 1 433 0
 572 0004 10B5     		push	{r4, lr}
 573              	.LCFI9:
 574              		.cfi_def_cfa_offset 8
 575              		.cfi_offset 14, -4
 576              		.cfi_offset 4, -8
 577              		.loc 1 433 0
 578 0006 0446     		mov	r4, r0
 579              		.loc 1 435 0
 580 0008 00D0     		beq	.L33
 581              	.LVL12:
 582              	.L28:
 583 000a 10BD     		pop	{r4, pc}
 584              	.L33:
 585              		.loc 1 442 0
 586 000c 40F2000C 		movw	ip, #:lower16:.LANCHOR0
 587              		.loc 1 437 0
 588 0010 C268     		ldr	r2, [r0, #12]
 589              		.loc 1 442 0
 590 0012 C0F2000C 		movt	ip, #:upper16:.LANCHOR0
 591              		.loc 1 437 0
 592 0016 0021     		movs	r1, #0
 593              		.loc 1 442 0
 594 0018 6045     		cmp	r0, ip
 595              		.loc 1 437 0
 596 001a 1180     		strh	r1, [r2, #0]	@ movhi
 597              		.loc 1 438 0
 598 001c 9181     		strh	r1, [r2, #12]	@ movhi
 599              		.loc 1 439 0
 600 001e 1182     		strh	r1, [r2, #16]	@ movhi
 601              		.loc 1 442 0
 602 0020 22D0     		beq	.L34
 603              		.loc 1 455 0
 604 0022 40F20002 		movw	r2, #:lower16:.LANCHOR1
 605 0026 C0F20002 		movt	r2, #:upper16:.LANCHOR1
 606 002a 9042     		cmp	r0, r2
 607 002c 2BD0     		beq	.L35
 608              		.loc 1 467 0
 609 002e 40F20001 		movw	r1, #:lower16:.LANCHOR2
 610 0032 C0F20001 		movt	r1, #:upper16:.LANCHOR2
ARM GAS  /tmp/ccIq2yzc.s 			page 12


 611 0036 8842     		cmp	r0, r1
 612 0038 33D0     		beq	.L36
 613              	.L31:
 614              		.loc 1 473 0
 615 003a 40F20001 		movw	r1, #:lower16:.LANCHOR3
 616 003e C0F20001 		movt	r1, #:upper16:.LANCHOR3
 617 0042 8C42     		cmp	r4, r1
 618 0044 E1D1     		bne	.L28
 619              		.loc 1 474 0
 620 0046 2E20     		movs	r0, #46
 621 0048 FFF7FEFF 		bl	nvicDisableVector
 622              		.loc 1 475 0
 623 004c 2C20     		movs	r0, #44
 624 004e FFF7FEFF 		bl	nvicDisableVector
 625              		.loc 1 476 0
 626 0052 4FF4605C 		mov	ip, #14336
 627 0056 C4F2020C 		movt	ip, 16386
 628 005a DCF84400 		ldr	r0, [ip, #68]
 629 005e 20F00202 		bic	r2, r0, #2
 630 0062 CCF84420 		str	r2, [ip, #68]
 631 0066 D0E7     		b	.L28
 632              	.L34:
 633              		.loc 1 443 0
 634 0068 1B20     		movs	r0, #27
 635 006a FFF7FEFF 		bl	nvicDisableVector
 636              		.loc 1 444 0
 637 006e 1920     		movs	r0, #25
 638 0070 FFF7FEFF 		bl	nvicDisableVector
 639              		.loc 1 445 0
 640 0074 4FF46053 		mov	r3, #14336
 641 0078 C4F20203 		movt	r3, 16386
 642 007c 596C     		ldr	r1, [r3, #68]
 643 007e 21F00100 		bic	r0, r1, #1
 644 0082 5864     		str	r0, [r3, #68]
 645 0084 D9E7     		b	.L31
 646              	.L35:
 647              		.loc 1 456 0
 648 0086 1D20     		movs	r0, #29
 649 0088 FFF7FEFF 		bl	nvicDisableVector
 650              		.loc 1 457 0
 651 008c 4FF4605C 		mov	ip, #14336
 652 0090 C4F2020C 		movt	ip, 16386
 653 0094 DCF84030 		ldr	r3, [ip, #64]
 654 0098 23F00200 		bic	r0, r3, #2
 655 009c CCF84000 		str	r0, [ip, #64]
 656 00a0 10BD     		pop	{r4, pc}
 657              	.L36:
 658              		.loc 1 468 0
 659 00a2 3220     		movs	r0, #50
 660 00a4 FFF7FEFF 		bl	nvicDisableVector
 661              		.loc 1 469 0
 662 00a8 4FF46050 		mov	r0, #14336
 663 00ac C4F20200 		movt	r0, 16386
 664 00b0 036C     		ldr	r3, [r0, #64]
 665 00b2 23F00802 		bic	r2, r3, #8
 666 00b6 0264     		str	r2, [r0, #64]
 667 00b8 10BD     		pop	{r4, pc}
ARM GAS  /tmp/ccIq2yzc.s 			page 13


 668              		.cfi_endproc
 669              	.LFE126:
 670              		.size	icu_lld_stop, .-icu_lld_stop
 671 00ba 00BFAFF3 		.section	.text.icu_lld_enable,"ax",%progbits
 671      0080
 672              		.align	2
 673              		.p2align 4,,15
 674              		.global	icu_lld_enable
 675              		.thumb
 676              		.thumb_func
 677              		.type	icu_lld_enable, %function
 678              	icu_lld_enable:
 679              	.LFB127:
 680              		.loc 1 489 0
 681              		.cfi_startproc
 682              		@ args = 0, pretend = 0, frame = 0
 683              		@ frame_needed = 0, uses_anonymous_args = 0
 684              		@ link register save eliminated.
 685              	.LVL13:
 686              		.loc 1 492 0
 687 0000 4268     		ldr	r2, [r0, #4]
 688              		.loc 1 491 0
 689 0002 C368     		ldr	r3, [r0, #12]
 690              		.loc 1 492 0
 691 0004 D168     		ldr	r1, [r2, #12]
 692              		.loc 1 491 0
 693 0006 0020     		movs	r0, #0
 694              	.LVL14:
 695 0008 1882     		strh	r0, [r3, #16]	@ movhi
 696              		.loc 1 492 0
 697 000a 29B1     		cbz	r1, .L38
 698              		.loc 1 493 0
 699 000c 9889     		ldrh	r0, [r3, #12]
 700 000e 81B2     		uxth	r1, r0
 701 0010 41F0020C 		orr	ip, r1, #2
 702 0014 A3F80CC0 		strh	ip, [r3, #12]	@ movhi
 703              	.L38:
 704              		.loc 1 494 0
 705 0018 9268     		ldr	r2, [r2, #8]
 706 001a 32B1     		cbz	r2, .L39
 707              		.loc 1 495 0
 708 001c B3F80CC0 		ldrh	ip, [r3, #12]
 709 0020 1FFA8CF0 		uxth	r0, ip
 710 0024 40F00401 		orr	r1, r0, #4
 711 0028 9981     		strh	r1, [r3, #12]	@ movhi
 712              	.L39:
 713              		.loc 1 496 0
 714 002a 0522     		movs	r2, #5
 715 002c 1A80     		strh	r2, [r3, #0]	@ movhi
 716              		.loc 1 497 0
 717 002e 7047     		bx	lr
 718              		.cfi_endproc
 719              	.LFE127:
 720              		.size	icu_lld_enable, .-icu_lld_enable
 721              		.section	.text.icu_lld_disable,"ax",%progbits
 722              		.align	2
 723              		.p2align 4,,15
ARM GAS  /tmp/ccIq2yzc.s 			page 14


 724              		.global	icu_lld_disable
 725              		.thumb
 726              		.thumb_func
 727              		.type	icu_lld_disable, %function
 728              	icu_lld_disable:
 729              	.LFB128:
 730              		.loc 1 506 0
 731              		.cfi_startproc
 732              		@ args = 0, pretend = 0, frame = 0
 733              		@ frame_needed = 0, uses_anonymous_args = 0
 734              		@ link register save eliminated.
 735              	.LVL15:
 736              		.loc 1 508 0
 737 0000 C368     		ldr	r3, [r0, #12]
 738 0002 0022     		movs	r2, #0
 739 0004 1A80     		strh	r2, [r3, #0]	@ movhi
 740              		.loc 1 509 0
 741 0006 1A82     		strh	r2, [r3, #16]	@ movhi
 742              		.loc 1 510 0
 743 0008 9A81     		strh	r2, [r3, #12]	@ movhi
 744              		.loc 1 511 0
 745 000a 7047     		bx	lr
 746              		.cfi_endproc
 747              	.LFE128:
 748              		.size	icu_lld_disable, .-icu_lld_disable
 749              		.global	ICUD8
 750              		.global	ICUD5
 751              		.global	ICUD3
 752              		.global	ICUD1
 753 000c AFF30080 		.section	.bss.ICUD3,"aw",%nobits
 754              		.align	2
 755              		.set	.LANCHOR1,. + 0
 756              		.type	ICUD3, %object
 757              		.size	ICUD3, 16
 758              	ICUD3:
 759 0000 00000000 		.space	16
 759      00000000 
 759      00000000 
 759      00000000 
 760              		.section	.bss.ICUD5,"aw",%nobits
 761              		.align	2
 762              		.set	.LANCHOR2,. + 0
 763              		.type	ICUD5, %object
 764              		.size	ICUD5, 16
 765              	ICUD5:
 766 0000 00000000 		.space	16
 766      00000000 
 766      00000000 
 766      00000000 
 767              		.section	.bss.ICUD8,"aw",%nobits
 768              		.align	2
 769              		.set	.LANCHOR3,. + 0
 770              		.type	ICUD8, %object
 771              		.size	ICUD8, 16
 772              	ICUD8:
 773 0000 00000000 		.space	16
 773      00000000 
ARM GAS  /tmp/ccIq2yzc.s 			page 15


 773      00000000 
 773      00000000 
 774              		.section	.bss.ICUD1,"aw",%nobits
 775              		.align	2
 776              		.set	.LANCHOR0,. + 0
 777              		.type	ICUD1, %object
 778              		.size	ICUD1, 16
 779              	ICUD1:
 780 0000 00000000 		.space	16
 780      00000000 
 780      00000000 
 780      00000000 
 781              		.text
 782              	.Letext0:
 783              		.file 2 "/opt/arm/bin/../lib/gcc/arm-none-eabi/4.6.3/../../../../arm-none-eabi/include/stdint.h"
 784              		.file 3 "/opt/ChibiOS/ChibiOS_2.4.4/os/hal/platforms/STM32F4xx/stm32f4xx.h"
 785              		.file 4 "/opt/ChibiOS/ChibiOS_2.4.4/os/hal/platforms/STM32/stm32.h"
 786              		.file 5 "/opt/ChibiOS/ChibiOS_2.4.4/os/hal/include/icu.h"
 787              		.file 6 "/opt/ChibiOS/ChibiOS_2.4.4/os/hal/platforms/STM32/icu_lld.h"
 788              		.file 7 "/opt/ChibiOS/ChibiOS_2.4.4/os/ports/common/ARMCMx/CMSIS/include/core_cm4.h"