ARM GAS  /tmp/ccXZYxI7.s 			page 1


   1              		.syntax unified
   2              		.cpu cortex-m4
   3              		.eabi_attribute 27, 3
   4              		.eabi_attribute 28, 1
   5              		.fpu fpv4-sp-d16
   6              		.eabi_attribute 20, 1
   7              		.eabi_attribute 21, 1
   8              		.eabi_attribute 23, 3
   9              		.eabi_attribute 24, 1
  10              		.eabi_attribute 25, 1
  11              		.eabi_attribute 26, 1
  12              		.eabi_attribute 30, 2
  13              		.eabi_attribute 34, 1
  14              		.eabi_attribute 18, 4
  15              		.thumb
  16              		.file	"ir.c"
  17              		.text
  18              	.Ltext0:
  19              		.cfi_sections	.debug_frame
  20              		.section	.text.irThread,"ax",%progbits
  21              		.align	2
  22              		.p2align 4,,15
  23              		.thumb
  24              		.thumb_func
  25              		.type	irThread, %function
  26              	irThread:
  27              	.LFB117:
  28              		.file 1 "./src/ir.c"
  29              		.loc 1 60 0
  30              		.cfi_startproc
  31              		@ args = 0, pretend = 0, frame = 40
  32              		@ frame_needed = 0, uses_anonymous_args = 0
  33              	.LVL0:
  34 0000 30B5     		push	{r4, r5, lr}
  35              	.LCFI0:
  36              		.cfi_def_cfa_offset 12
  37              		.cfi_offset 14, -4
  38              		.cfi_offset 5, -8
  39              		.cfi_offset 4, -12
  40              		.loc 1 67 0
  41 0002 40F20000 		movw	r0, #:lower16:ADCD1
  42              	.LVL1:
  43              		.loc 1 60 0
  44 0006 8DB0     		sub	sp, sp, #52
  45              	.LCFI1:
  46              		.cfi_def_cfa_offset 64
  47              		.loc 1 67 0
  48 0008 C0F20000 		movt	r0, #:upper16:ADCD1
  49 000c 0021     		movs	r1, #0
  50 000e FFF7FEFF 		bl	adcStart
  51              		.loc 1 68 0
  52 0012 40F20000 		movw	r0, #:lower16:ADCD1
  53 0016 40F20001 		movw	r1, #:lower16:.LANCHOR0
  54 001a 40F20002 		movw	r2, #:lower16:.LANCHOR1
  55 001e C0F20000 		movt	r0, #:upper16:ADCD1
  56 0022 C0F20001 		movt	r1, #:upper16:.LANCHOR0
  57 0026 C0F20002 		movt	r2, #:upper16:.LANCHOR1
ARM GAS  /tmp/ccXZYxI7.s 			page 2


  58 002a 0123     		movs	r3, #1
  59 002c FFF7FEFF 		bl	adcStartConversion
  60 0030 40F20004 		movw	r4, #:lower16:.LANCHOR1
  61 0034 C0F20004 		movt	r4, #:upper16:.LANCHOR1
  62              	.L2:
  63              		.loc 1 71 0 discriminator 1
  64 0038 A188     		ldrh	r1, [r4, #4]
  65 003a E588     		ldrh	r5, [r4, #6]
  66 003c 0091     		str	r1, [sp, #0]
  67 003e 40F20001 		movw	r1, #:lower16:.LC0
  68 0042 2288     		ldrh	r2, [r4, #0]
  69 0044 6388     		ldrh	r3, [r4, #2]
  70 0046 0195     		str	r5, [sp, #4]
  71 0048 02A8     		add	r0, sp, #8
  72 004a C0F20001 		movt	r1, #:upper16:.LC0
  73 004e FFF7FEFF 		bl	chsprintf
  74              		.loc 1 74 0 discriminator 1
  75 0052 40F20000 		movw	r0, #:lower16:outputBuffer
  76 0056 02A9     		add	r1, sp, #8
  77 0058 C0F20000 		movt	r0, #:upper16:outputBuffer
  78 005c FFF7FEFF 		bl	bufferPutString
  79              		.loc 1 75 0 discriminator 1
  80 0060 3220     		movs	r0, #50
  81 0062 FFF7FEFF 		bl	chThdSleep
  82 0066 E7E7     		b	.L2
  83              		.cfi_endproc
  84              	.LFE117:
  85              		.size	irThread, .-irThread
  86 0068 AFF30080 		.section	.text.startIrThread,"ax",%progbits
  86      AFF30080 
  87              		.align	2
  88              		.p2align 4,,15
  89              		.global	startIrThread
  90              		.thumb
  91              		.thumb_func
  92              		.type	startIrThread, %function
  93              	startIrThread:
  94              	.LFB118:
  95              		.loc 1 81 0
  96              		.cfi_startproc
  97              		@ args = 0, pretend = 0, frame = 0
  98              		@ frame_needed = 0, uses_anonymous_args = 0
  99 0000 10B5     		push	{r4, lr}
 100              	.LCFI2:
 101              		.cfi_def_cfa_offset 8
 102              		.cfi_offset 14, -4
 103              		.cfi_offset 4, -8
 104              		.loc 1 82 0
 105 0002 40F20000 		movw	r0, #:lower16:.LANCHOR2
 106              		.loc 1 81 0
 107 0006 82B0     		sub	sp, sp, #8
 108              	.LCFI3:
 109              		.cfi_def_cfa_offset 16
 110              		.loc 1 82 0
 111 0008 40F20003 		movw	r3, #:lower16:irThread
 112 000c 0024     		movs	r4, #0
 113 000e 4FF49661 		mov	r1, #1200
ARM GAS  /tmp/ccXZYxI7.s 			page 3


 114 0012 4022     		movs	r2, #64
 115 0014 C0F20003 		movt	r3, #:upper16:irThread
 116 0018 C0F20000 		movt	r0, #:upper16:.LANCHOR2
 117 001c 0094     		str	r4, [sp, #0]
 118 001e FFF7FEFF 		bl	chThdCreateStatic
 119              		.loc 1 84 0
 120 0022 02B0     		add	sp, sp, #8
 121 0024 10BD     		pop	{r4, pc}
 122              		.cfi_endproc
 123              	.LFE118:
 124              		.size	startIrThread, .-startIrThread
 125 0026 00BFAFF3 		.section	.bss.irWorkingArea,"aw",%nobits
 125      0080AFF3 
 125      0080
 126              		.align	3
 127              		.set	.LANCHOR2,. + 0
 128              		.type	irWorkingArea, %object
 129              		.size	irWorkingArea, 1200
 130              	irWorkingArea:
 131 0000 00000000 		.space	1200
 131      00000000 
 131      00000000 
 131      00000000 
 131      00000000 
 132              		.section	.rodata.str1.4,"aMS",%progbits,1
 133              		.align	2
 134              	.LC0:
 135 0000 5B49525D 		.ascii	"[IR] N:%d,S:%d,W:%d,E:%d\000"
 135      204E3A25 
 135      642C533A 
 135      25642C57 
 135      3A25642C 
 136 0019 000000   		.section	.rodata.adc_grpcfg,"a",%progbits
 137              		.align	2
 138              		.set	.LANCHOR0,. + 0
 139              		.type	adc_grpcfg, %object
 140              		.size	adc_grpcfg, 44
 141              	adc_grpcfg:
 142 0000 01000000 		.word	1
 143 0004 0400     		.short	4
 144 0006 0000     		.space	2
 145 0008 00000000 		.word	0
 146 000c 00000000 		.word	0
 147 0010 00000000 		.word	0
 148 0014 00000040 		.word	1073741824
 149 0018 B0610300 		.word	221616
 150 001c 00000000 		.word	0
 151 0020 00003000 		.word	3145728
 152 0024 00000000 		.word	0
 153 0028 8BB90700 		.word	506251
 154              		.section	.bss.ir_data,"aw",%nobits
 155              		.align	2
 156              		.set	.LANCHOR1,. + 0
 157              		.type	ir_data, %object
 158              		.size	ir_data, 8
 159              	ir_data:
 160 0000 00000000 		.space	8
ARM GAS  /tmp/ccXZYxI7.s 			page 4


 160      00000000 
 161              		.text
 162              	.Letext0:
 163              		.file 2 "/opt/arm/bin/../lib/gcc/arm-none-eabi/4.6.3/include/stddef.h"
 164              		.file 3 "/opt/arm/bin/../lib/gcc/arm-none-eabi/4.6.3/../../../../arm-none-eabi/include/stdint.h"
 165              		.file 4 "/opt/ChibiOS/ChibiOS_2.4.4/os/ports/GCC/ARMCMx/chtypes.h"
 166              		.file 5 "/opt/ChibiOS/ChibiOS_2.4.4/os/kernel/include/chlists.h"
 167              		.file 6 "/opt/ChibiOS/ChibiOS_2.4.4/os/kernel/include/chthreads.h"
 168              		.file 7 "/opt/ChibiOS/ChibiOS_2.4.4/os/ports/GCC/ARMCMx/chcore_v7m.h"
 169              		.file 8 "/opt/ChibiOS/ChibiOS_2.4.4/os/kernel/include/chmtx.h"
 170              		.file 9 "/opt/ChibiOS/ChibiOS_2.4.4/os/hal/platforms/STM32F4xx/stm32f4xx.h"
 171              		.file 10 "/opt/ChibiOS/ChibiOS_2.4.4/os/hal/platforms/STM32F4xx/stm32_dma.h"
 172              		.file 11 "/opt/ChibiOS/ChibiOS_2.4.4/os/hal/include/adc.h"
 173              		.file 12 "/opt/ChibiOS/ChibiOS_2.4.4/os/hal/platforms/STM32F4xx/adc_lld.h"
 174              		.file 13 "./include/CircularBuffer.h"
 175              		.file 14 "/opt/ChibiOS/ChibiOS_2.4.4/os/ports/common/ARMCMx/CMSIS/include/core_cm4.h"
 176              		.file 15 "./include/FirmwareSpykee.h"