ARM GAS  /tmp/ccXZYxI7.s 			page 1


   1              		.syntax unified
   2              		.cpu cortex-m4
   3              		.eabi_attribute 27, 3
   4              		.eabi_attribute 28, 1
   5              		.fpu fpv4-sp-d16
   6              		.eabi_attribute 20, 1
   7              		.eabi_attribute 21, 1
   8              		.eabi_attribute 23, 3
   9              		.eabi_attribute 24, 1
  10              		.eabi_attribute 25, 1
  11              		.eabi_attribute 26, 1
  12              		.eabi_attribute 30, 2
  13              		.eabi_attribute 34, 1
  14              		.eabi_attribute 18, 4
  15              		.thumb
  16              		.file	"ir.c"
  17              		.text
  18              	.Ltext0:
  19              		.cfi_sections	.debug_frame
  20              		.section	.text.irThread,"ax",%progbits
  21              		.align	2
  22              		.p2align 4,,15
  23              		.thumb
  24              		.thumb_func
  25              		.type	irThread, %function
  26              	irThread:
  27              	.LFB117:
  28              		.file 1 "./src/ir.c"
  29              		.loc 1 60 0
  30              		.cfi_startproc
  31              		@ args = 0, pretend = 0, frame = 40
  32              		@ frame_needed = 0, uses_anonymous_args = 0
  33              	.LVL0:
  34 0000 30B5     		push	{r4, r5, lr}
  35              	.LCFI0:
  36              		.cfi_def_cfa_offset 12
  37              		.cfi_offset 14, -4
  38              		.cfi_offset 5, -8
  39              		.cfi_offset 4, -12
  40              		.loc 1 67 0
  41 0002 40F20000 		movw	r0, #:lower16:ADCD1
  42              	.LVL1:
  43              		.loc 1 60 0
  44 0006 8DB0     		sub	sp, sp, #52
  45              	.LCFI1:
  46              		.cfi_def_cfa_offset 64
  47              		.loc 1 67 0
  48 0008 C0F20000 		movt	r0, #:upper16:ADCD1
  49 000c 0021     		movs	r1, #0
  50 000e FFF7FEFF 		bl	adcStart
  51              		.loc 1 68 0
  52 0012 40F20000 		movw	r0, #:lower16:ADCD1
  53 0016 40F20001 		movw	r1, #:lower16:.LANCHOR0
  54 001a 40F20002 		movw	r2, #:lower16:.LANCHOR1
  55 001e C0F20000 		movt	r0, #:upper16:ADCD1
  56 0022 C0F20001 		movt	r1, #:upper16:.LANCHOR0
  57 0026 C0F20002 		movt	r2, #:upper16:.LANCHOR1
ARM GAS  /tmp/ccXZYxI7.s 			page 2


  58 002a 0123     		movs	r3, #1
  59 002c FFF7FEFF 		bl	adcStartConversion
  60 0030 40F20004 		movw	r4, #:lower16:.LANCHOR1
  61 0034 C0F20004 		movt	r4, #:upper16:.LANCHOR1
  62              	.L2:
  63              		.loc 1 71 0 discriminator 1
  64 0038 A188     		ldrh	r1, [r4, #4]
  65 003a E588     		ldrh	r5, [r4, #6]
  66 003c 0091     		str	r1, [sp, #0]
  67 003e 40F20001 		movw	r1, #:lower16:.LC0
  68 0042 2288     		ldrh	r2, [r4, #0]
  69 0044 6388     		ldrh	r3, [r4, #2]
  70 0046 0195     		str	r5, [sp, #4]
  71 0048 02A8     		add	r0, sp, #8
  72 004a C0F20001 		movt	r1, #:upper16:.LC0
  73 004e FFF7FEFF 		bl	chsprintf
  74              		.loc 1 74 0 discriminator 1
  75 0052 40F20000 		movw	r0, #:lower16:outputBuffer
  76 0056 02A9     		add	r1, sp, #8
  77 0058 C0F20000 		movt	r0, #:upper16:outputBuffer
  78 005c FFF7FEFF 		bl	bufferPutString
  79              		.loc 1 75 0 discriminator 1
  80 0060 3220     		movs	r0, #50
  81 0062 FFF7FEFF 		bl	chThdSleep
  82 0066 E7E7     		b	.L2
  83              		.cfi_endproc
  84              	.LFE117:
  85              		.size	irThread, .-irThread
  86 0068 AFF30080 		.section	.text.startIrThread,"ax",%progbits
  86      AFF30080 
  87              		.align	2
  88              		.p2align 4,,15
  89              		.global	startIrThread
  90              		.thumb
  91              		.thumb_func
  92              		.type	startIrThread, %function
  93              	startIrThread:
  94              	.LFB118:
  95              		.loc 1 81 0
  96              		.cfi_startproc
  97              		@ args = 0, pretend = 0, frame = 0
  98              		@ frame_needed = 0, uses_anonymous_args = 0
  99 0000 10B5     		push	{r4, lr}
 100              	.LCFI2:
 101              		.cfi_def_cfa_offset 8
 102              		.cfi_offset 14, -4
 103              		.cfi_offset 4, -8
 104              		.loc 1 82 0
 105 0002 40F20000 		movw	r0, #:lower16:.LANCHOR2
 106              		.loc 1 81 0
 107 0006 82B0     		sub	sp, sp, #8
 108              	.LCFI3:
 109              		.cfi_def_cfa_offset 16
 110              		.loc 1 82 0
 111 0008 40F20003 		movw	r3, #:lower16:irThread
 112 000c 0024     		movs	r4, #0
 113 000e 4FF49661 		mov	r1, #1200
ARM GAS  /tmp/ccXZYxI7.s 			page 3


 114 0012 4022     		movs	r2, #64
 115 0014 C0F20003 		movt	r3, #:upper16:irThread
 116 0018 C0F20000 		movt	r0, #:upper16:.LANCHOR2
 117 001c 0094     		str	r4, [sp, #0]
 118 001e FFF7FEFF 		bl	chThdCreateStatic
 119              		.loc 1 84 0
 120 0022 02B0     		add	sp, sp, #8
 121 0024 10BD     		pop	{r4, pc}
 122              		.cfi_endproc
 123              	.LFE118:
 124              		.size	startIrThread, .-startIrThread
 125 0026 00BFAFF3 		.section	.bss.irWorkingArea,"aw",%nobits
 125      0080AFF3 
 125      0080
 126              		.align	3
 127              		.set	.LANCHOR2,. + 0
 128              		.type	irWorkingArea, %object
 129              		.size	irWorkingArea, 1200
 130              	irWorkingArea:
 131 0000 00000000 		.space	1200
 131      00000000 
 131      00000000 
 131      00000000 
 131      00000000 
 132              		.section	.rodata.str1.4,"aMS",%progbits,1
 133              		.align	2
 134              	.LC0:
 135 0000 5B49525D 		.ascii	"[IR] N:%d,S:%d,W:%d,E:%d\000"
 135      204E3A25 
 135      642C533A 
 135      25642C57 
 135      3A25642C 
 136 0019 000000   		.section	.rodata.adc_grpcfg,"a",%progbits
 137              		.align	2
 138              		.set	.LANCHOR0,. + 0
 139              		.type	adc_grpcfg, %object
 140              		.size	adc_grpcfg, 44
 141              	adc_grpcfg:
 142 0000 01000000 		.word	1
 143 0004 0400     		.short	4
 144 0006 0000     		.space	2
 145 0008 00000000 		.word	0
 146 000c 00000000 		.word	0
 147 0010 00000000 		.word	0
 148 0014 00000040 		.word	1073741824
 149 0018 B0610300 		.word	221616
 150 001c 00000000 		.word	0
 151 0020 00003000 		.word	3145728
 152 0024 00000000 		.word	0
 153 0028 8BB90700 		.word	506251
 154              		.section	.bss.ir_data,"aw",%nobits
 155              		.align	2
 156              		.set	.LANCHOR1,. + 0
 157              		.type	ir_data, %object
 158              		.size	ir_data, 8
 159              	ir_data:
 160 0000 00000000 		.space	8
ARM GAS  /tmp/ccXZYxI7.s 			page 4


 160      00000000 
 161              		.text
 162              	.Letext0:
 163              		.file 2 "/opt/arm/bin/../lib/gcc/arm-none-eabi/4.6.3/include/stddef.h"
 164              		.file 3 "/opt/arm/bin/../lib/gcc/arm-none-eabi/4.6.3/../../../../arm-none-eabi/include/stdint.h"
 165              		.file 4 "/opt/ChibiOS/ChibiOS_2.4.4/os/ports/GCC/ARMCMx/chtypes.h"
 166              		.file 5 "/opt/ChibiOS/ChibiOS_2.4.4/os/kernel/include/chlists.h"
 167              		.file 6 "/opt/ChibiOS/ChibiOS_2.4.4/os/kernel/include/chthreads.h"
 168              		.file 7 "/opt/ChibiOS/ChibiOS_2.4.4/os/ports/GCC/ARMCMx/chcore_v7m.h"
 169              		.file 8 "/opt/ChibiOS/ChibiOS_2.4.4/os/kernel/include/chmtx.h"
 170              		.file 9 "/opt/ChibiOS/ChibiOS_2.4.4/os/hal/platforms/STM32F4xx/stm32f4xx.h"
 171              		.file 10 "/opt/ChibiOS/ChibiOS_2.4.4/os/hal/platforms/STM32F4xx/stm32_dma.h"
 172              		.file 11 "/opt/ChibiOS/ChibiOS_2.4.4/os/hal/include/adc.h"
 173              		.file 12 "/opt/ChibiOS/ChibiOS_2.4.4/os/hal/platforms/STM32F4xx/adc_lld.h"
 174              		.file 13 "./include/CircularBuffer.h"
 175              		.file 14 "/opt/ChibiOS/ChibiOS_2.4.4/os/ports/common/ARMCMx/CMSIS/include/core_cm4.h"
 176              		.file 15 "./include/FirmwareSpykee.h"
 177              		.section	.debug_info,"",%progbits
 178              	.Ldebug_info0:
 179 0000 F9090000 		.4byte	0x9f9
 180 0004 0200     		.2byte	0x2
 181 0006 00000000 		.4byte	.Ldebug_abbrev0
 182 000a 04       		.byte	0x4
 183 000b 01       		.uleb128 0x1
 184 000c DD030000 		.4byte	.LASF133
 185 0010 01       		.byte	0x1
 186 0011 D2030000 		.4byte	.LASF134
 187 0015 4E000000 		.4byte	.LASF135
 188 0019 00000000 		.4byte	0
 189 001d 00000000 		.4byte	0
 190 0021 00000000 		.4byte	.Ldebug_ranges0+0
 191 0025 00000000 		.4byte	.Ldebug_line0
 192 0029 02       		.uleb128 0x2
 193 002a 04       		.byte	0x4
 194 002b 05       		.byte	0x5
 195 002c 696E7400 		.ascii	"int\000"
 196 0030 03       		.uleb128 0x3
 197 0031 05000000 		.4byte	.LASF2
 198 0035 02       		.byte	0x2
 199 0036 D4       		.byte	0xd4
 200 0037 3B000000 		.4byte	0x3b
 201 003b 04       		.uleb128 0x4
 202 003c 04       		.byte	0x4
 203 003d 07       		.byte	0x7
 204 003e E0010000 		.4byte	.LASF0
 205 0042 04       		.uleb128 0x4
 206 0043 01       		.byte	0x1
 207 0044 06       		.byte	0x6
 208 0045 DD000000 		.4byte	.LASF1
 209 0049 03       		.uleb128 0x3
 210 004a 87040000 		.4byte	.LASF3
 211 004e 03       		.byte	0x3
 212 004f 2A       		.byte	0x2a
 213 0050 54000000 		.4byte	0x54
 214 0054 04       		.uleb128 0x4
 215 0055 01       		.byte	0x1
 216 0056 08       		.byte	0x8
ARM GAS  /tmp/ccXZYxI7.s 			page 5


 217 0057 2F030000 		.4byte	.LASF4
 218 005b 04       		.uleb128 0x4
 219 005c 02       		.byte	0x2
 220 005d 05       		.byte	0x5
 221 005e 56030000 		.4byte	.LASF5
 222 0062 03       		.uleb128 0x3
 223 0063 66010000 		.4byte	.LASF6
 224 0067 03       		.byte	0x3
 225 0068 36       		.byte	0x36
 226 0069 6D000000 		.4byte	0x6d
 227 006d 04       		.uleb128 0x4
 228 006e 02       		.byte	0x2
 229 006f 07       		.byte	0x7
 230 0070 12020000 		.4byte	.LASF7
 231 0074 03       		.uleb128 0x3
 232 0075 27030000 		.4byte	.LASF8
 233 0079 03       		.byte	0x3
 234 007a 4F       		.byte	0x4f
 235 007b 7F000000 		.4byte	0x7f
 236 007f 04       		.uleb128 0x4
 237 0080 04       		.byte	0x4
 238 0081 05       		.byte	0x5
 239 0082 21010000 		.4byte	.LASF9
 240 0086 03       		.uleb128 0x3
 241 0087 66040000 		.4byte	.LASF10
 242 008b 03       		.byte	0x3
 243 008c 50       		.byte	0x50
 244 008d 91000000 		.4byte	0x91
 245 0091 04       		.uleb128 0x4
 246 0092 04       		.byte	0x4
 247 0093 07       		.byte	0x7
 248 0094 E9030000 		.4byte	.LASF11
 249 0098 04       		.uleb128 0x4
 250 0099 08       		.byte	0x8
 251 009a 05       		.byte	0x5
 252 009b CF000000 		.4byte	.LASF12
 253 009f 03       		.uleb128 0x3
 254 00a0 B7020000 		.4byte	.LASF13
 255 00a4 03       		.byte	0x3
 256 00a5 78       		.byte	0x78
 257 00a6 AA000000 		.4byte	0xaa
 258 00aa 04       		.uleb128 0x4
 259 00ab 08       		.byte	0x8
 260 00ac 07       		.byte	0x7
 261 00ad 8B000000 		.4byte	.LASF14
 262 00b1 03       		.uleb128 0x3
 263 00b2 F1000000 		.4byte	.LASF15
 264 00b6 04       		.byte	0x4
 265 00b7 2E       		.byte	0x2e
 266 00b8 74000000 		.4byte	0x74
 267 00bc 03       		.uleb128 0x3
 268 00bd 3B020000 		.4byte	.LASF16
 269 00c1 04       		.byte	0x4
 270 00c2 2F       		.byte	0x2f
 271 00c3 49000000 		.4byte	0x49
 272 00c7 03       		.uleb128 0x3
 273 00c8 50010000 		.4byte	.LASF17
ARM GAS  /tmp/ccXZYxI7.s 			page 6


 274 00cc 04       		.byte	0x4
 275 00cd 30       		.byte	0x30
 276 00ce 49000000 		.4byte	0x49
 277 00d2 03       		.uleb128 0x3
 278 00d3 F7020000 		.4byte	.LASF18
 279 00d7 04       		.byte	0x4
 280 00d8 31       		.byte	0x31
 281 00d9 49000000 		.4byte	0x49
 282 00dd 03       		.uleb128 0x3
 283 00de 19030000 		.4byte	.LASF19
 284 00e2 04       		.byte	0x4
 285 00e3 32       		.byte	0x32
 286 00e4 86000000 		.4byte	0x86
 287 00e8 03       		.uleb128 0x3
 288 00e9 35020000 		.4byte	.LASF20
 289 00ed 04       		.byte	0x4
 290 00ee 33       		.byte	0x33
 291 00ef 74000000 		.4byte	0x74
 292 00f3 03       		.uleb128 0x3
 293 00f4 5C020000 		.4byte	.LASF21
 294 00f8 04       		.byte	0x4
 295 00f9 35       		.byte	0x35
 296 00fa 86000000 		.4byte	0x86
 297 00fe 03       		.uleb128 0x3
 298 00ff 1B040000 		.4byte	.LASF22
 299 0103 04       		.byte	0x4
 300 0104 36       		.byte	0x36
 301 0105 86000000 		.4byte	0x86
 302 0109 03       		.uleb128 0x3
 303 010a 8D030000 		.4byte	.LASF23
 304 010e 05       		.byte	0x5
 305 010f 2A       		.byte	0x2a
 306 0110 14010000 		.4byte	0x114
 307 0114 05       		.uleb128 0x5
 308 0115 8D030000 		.4byte	.LASF23
 309 0119 48       		.byte	0x48
 310 011a 06       		.byte	0x6
 311 011b 5E       		.byte	0x5e
 312 011c 2B020000 		.4byte	0x22b
 313 0120 06       		.uleb128 0x6
 314 0121 78030000 		.4byte	.LASF24
 315 0125 06       		.byte	0x6
 316 0126 5F       		.byte	0x5f
 317 0127 50020000 		.4byte	0x250
 318 012b 02       		.byte	0x2
 319 012c 23       		.byte	0x23
 320 012d 00       		.uleb128 0
 321 012e 06       		.uleb128 0x6
 322 012f FF020000 		.4byte	.LASF25
 323 0133 06       		.byte	0x6
 324 0134 61       		.byte	0x61
 325 0135 50020000 		.4byte	0x250
 326 0139 02       		.byte	0x2
 327 013a 23       		.byte	0x23
 328 013b 04       		.uleb128 0x4
 329 013c 06       		.uleb128 0x6
 330 013d C3000000 		.4byte	.LASF26
ARM GAS  /tmp/ccXZYxI7.s 			page 7


 331 0141 06       		.byte	0x6
 332 0142 63       		.byte	0x63
 333 0143 DD000000 		.4byte	0xdd
 334 0147 02       		.byte	0x2
 335 0148 23       		.byte	0x23
 336 0149 08       		.uleb128 0x8
 337 014a 06       		.uleb128 0x6
 338 014b 06050000 		.4byte	.LASF27
 339 014f 06       		.byte	0x6
 340 0150 64       		.byte	0x64
 341 0151 28030000 		.4byte	0x328
 342 0155 02       		.byte	0x2
 343 0156 23       		.byte	0x23
 344 0157 0C       		.uleb128 0xc
 345 0158 06       		.uleb128 0x6
 346 0159 82010000 		.4byte	.LASF28
 347 015d 06       		.byte	0x6
 348 015e 66       		.byte	0x66
 349 015f 50020000 		.4byte	0x250
 350 0163 02       		.byte	0x2
 351 0164 23       		.byte	0x23
 352 0165 10       		.uleb128 0x10
 353 0166 06       		.uleb128 0x6
 354 0167 C0020000 		.4byte	.LASF29
 355 016b 06       		.byte	0x6
 356 016c 67       		.byte	0x67
 357 016d 50020000 		.4byte	0x250
 358 0171 02       		.byte	0x2
 359 0172 23       		.byte	0x23
 360 0173 14       		.uleb128 0x14
 361 0174 06       		.uleb128 0x6
 362 0175 CA040000 		.4byte	.LASF30
 363 0179 06       		.byte	0x6
 364 017a 6E       		.byte	0x6e
 365 017b D2030000 		.4byte	0x3d2
 366 017f 02       		.byte	0x2
 367 0180 23       		.byte	0x23
 368 0181 18       		.uleb128 0x18
 369 0182 06       		.uleb128 0x6
 370 0183 60030000 		.4byte	.LASF31
 371 0187 06       		.byte	0x6
 372 0188 79       		.byte	0x79
 373 0189 C7000000 		.4byte	0xc7
 374 018d 02       		.byte	0x2
 375 018e 23       		.byte	0x23
 376 018f 1C       		.uleb128 0x1c
 377 0190 06       		.uleb128 0x6
 378 0191 7F030000 		.4byte	.LASF32
 379 0195 06       		.byte	0x6
 380 0196 7D       		.byte	0x7d
 381 0197 BC000000 		.4byte	0xbc
 382 019b 02       		.byte	0x2
 383 019c 23       		.byte	0x23
 384 019d 1D       		.uleb128 0x1d
 385 019e 06       		.uleb128 0x6
 386 019f 74040000 		.4byte	.LASF33
 387 01a3 06       		.byte	0x6
ARM GAS  /tmp/ccXZYxI7.s 			page 8


 388 01a4 82       		.byte	0x82
 389 01a5 D2000000 		.4byte	0xd2
 390 01a9 02       		.byte	0x2
 391 01aa 23       		.byte	0x23
 392 01ab 1E       		.uleb128 0x1e
 393 01ac 06       		.uleb128 0x6
 394 01ad 6F010000 		.4byte	.LASF34
 395 01b1 06       		.byte	0x6
 396 01b2 89       		.byte	0x89
 397 01b3 50030000 		.4byte	0x350
 398 01b7 02       		.byte	0x2
 399 01b8 23       		.byte	0x23
 400 01b9 20       		.uleb128 0x20
 401 01ba 07       		.uleb128 0x7
 402 01bb 705F7500 		.ascii	"p_u\000"
 403 01bf 06       		.byte	0x6
 404 01c0 AE       		.byte	0xae
 405 01c1 9D030000 		.4byte	0x39d
 406 01c5 02       		.byte	0x2
 407 01c6 23       		.byte	0x23
 408 01c7 24       		.uleb128 0x24
 409 01c8 06       		.uleb128 0x6
 410 01c9 0C050000 		.4byte	.LASF35
 411 01cd 06       		.byte	0x6
 412 01ce B3       		.byte	0xb3
 413 01cf 78020000 		.4byte	0x278
 414 01d3 02       		.byte	0x2
 415 01d4 23       		.byte	0x23
 416 01d5 28       		.uleb128 0x28
 417 01d6 06       		.uleb128 0x6
 418 01d7 F6010000 		.4byte	.LASF36
 419 01db 06       		.byte	0x6
 420 01dc B9       		.byte	0xb9
 421 01dd 56020000 		.4byte	0x256
 422 01e1 02       		.byte	0x2
 423 01e2 23       		.byte	0x23
 424 01e3 2C       		.uleb128 0x2c
 425 01e4 06       		.uleb128 0x6
 426 01e5 F2040000 		.4byte	.LASF37
 427 01e9 06       		.byte	0x6
 428 01ea BD       		.byte	0xbd
 429 01eb E8000000 		.4byte	0xe8
 430 01ef 02       		.byte	0x2
 431 01f0 23       		.byte	0x23
 432 01f1 34       		.uleb128 0x34
 433 01f2 06       		.uleb128 0x6
 434 01f3 A5030000 		.4byte	.LASF38
 435 01f7 06       		.byte	0x6
 436 01f8 C3       		.byte	0xc3
 437 01f9 F3000000 		.4byte	0xf3
 438 01fd 02       		.byte	0x2
 439 01fe 23       		.byte	0x23
 440 01ff 38       		.uleb128 0x38
 441 0200 06       		.uleb128 0x6
 442 0201 4C030000 		.4byte	.LASF39
 443 0205 06       		.byte	0x6
 444 0206 CA       		.byte	0xca
ARM GAS  /tmp/ccXZYxI7.s 			page 9


 445 0207 E4030000 		.4byte	0x3e4
 446 020b 02       		.byte	0x2
 447 020c 23       		.byte	0x23
 448 020d 3C       		.uleb128 0x3c
 449 020e 06       		.uleb128 0x6
 450 020f 25040000 		.4byte	.LASF40
 451 0213 06       		.byte	0x6
 452 0214 CE       		.byte	0xce
 453 0215 DD000000 		.4byte	0xdd
 454 0219 02       		.byte	0x2
 455 021a 23       		.byte	0x23
 456 021b 40       		.uleb128 0x40
 457 021c 06       		.uleb128 0x6
 458 021d E9000000 		.4byte	.LASF41
 459 0221 06       		.byte	0x6
 460 0222 D4       		.byte	0xd4
 461 0223 8E020000 		.4byte	0x28e
 462 0227 02       		.byte	0x2
 463 0228 23       		.byte	0x23
 464 0229 44       		.uleb128 0x44
 465 022a 00       		.byte	0
 466 022b 08       		.uleb128 0x8
 467 022c 08       		.byte	0x8
 468 022d 05       		.byte	0x5
 469 022e 61       		.byte	0x61
 470 022f 50020000 		.4byte	0x250
 471 0233 06       		.uleb128 0x6
 472 0234 78030000 		.4byte	.LASF24
 473 0238 05       		.byte	0x5
 474 0239 62       		.byte	0x62
 475 023a 50020000 		.4byte	0x250
 476 023e 02       		.byte	0x2
 477 023f 23       		.byte	0x23
 478 0240 00       		.uleb128 0
 479 0241 06       		.uleb128 0x6
 480 0242 FF020000 		.4byte	.LASF25
 481 0246 05       		.byte	0x5
 482 0247 64       		.byte	0x64
 483 0248 50020000 		.4byte	0x250
 484 024c 02       		.byte	0x2
 485 024d 23       		.byte	0x23
 486 024e 04       		.uleb128 0x4
 487 024f 00       		.byte	0
 488 0250 09       		.uleb128 0x9
 489 0251 04       		.byte	0x4
 490 0252 09010000 		.4byte	0x109
 491 0256 03       		.uleb128 0x3
 492 0257 C8020000 		.4byte	.LASF42
 493 025b 05       		.byte	0x5
 494 025c 66       		.byte	0x66
 495 025d 2B020000 		.4byte	0x22b
 496 0261 08       		.uleb128 0x8
 497 0262 04       		.byte	0x4
 498 0263 05       		.byte	0x5
 499 0264 6B       		.byte	0x6b
 500 0265 78020000 		.4byte	0x278
 501 0269 06       		.uleb128 0x6
ARM GAS  /tmp/ccXZYxI7.s 			page 10


 502 026a 78030000 		.4byte	.LASF24
 503 026e 05       		.byte	0x5
 504 026f 6D       		.byte	0x6d
 505 0270 50020000 		.4byte	0x250
 506 0274 02       		.byte	0x2
 507 0275 23       		.byte	0x23
 508 0276 00       		.uleb128 0
 509 0277 00       		.byte	0
 510 0278 03       		.uleb128 0x3
 511 0279 50020000 		.4byte	.LASF43
 512 027d 05       		.byte	0x5
 513 027e 70       		.byte	0x70
 514 027f 61020000 		.4byte	0x261
 515 0283 03       		.uleb128 0x3
 516 0284 AB010000 		.4byte	.LASF44
 517 0288 07       		.byte	0x7
 518 0289 D7       		.byte	0xd7
 519 028a 8E020000 		.4byte	0x28e
 520 028e 0A       		.uleb128 0xa
 521 028f 04       		.byte	0x4
 522 0290 03       		.uleb128 0x3
 523 0291 68020000 		.4byte	.LASF45
 524 0295 07       		.byte	0x7
 525 0296 DD       		.byte	0xdd
 526 0297 9F000000 		.4byte	0x9f
 527 029b 05       		.uleb128 0x5
 528 029c 50040000 		.4byte	.LASF46
 529 02a0 24       		.byte	0x24
 530 02a1 07       		.byte	0x7
 531 02a2 FE       		.byte	0xfe
 532 02a3 28030000 		.4byte	0x328
 533 02a7 0B       		.uleb128 0xb
 534 02a8 723400   		.ascii	"r4\000"
 535 02ab 07       		.byte	0x7
 536 02ac 1101     		.2byte	0x111
 537 02ae 83020000 		.4byte	0x283
 538 02b2 02       		.byte	0x2
 539 02b3 23       		.byte	0x23
 540 02b4 00       		.uleb128 0
 541 02b5 0B       		.uleb128 0xb
 542 02b6 723500   		.ascii	"r5\000"
 543 02b9 07       		.byte	0x7
 544 02ba 1201     		.2byte	0x112
 545 02bc 83020000 		.4byte	0x283
 546 02c0 02       		.byte	0x2
 547 02c1 23       		.byte	0x23
 548 02c2 04       		.uleb128 0x4
 549 02c3 0B       		.uleb128 0xb
 550 02c4 723600   		.ascii	"r6\000"
 551 02c7 07       		.byte	0x7
 552 02c8 1301     		.2byte	0x113
 553 02ca 83020000 		.4byte	0x283
 554 02ce 02       		.byte	0x2
 555 02cf 23       		.byte	0x23
 556 02d0 08       		.uleb128 0x8
 557 02d1 0B       		.uleb128 0xb
 558 02d2 723700   		.ascii	"r7\000"
ARM GAS  /tmp/ccXZYxI7.s 			page 11


 559 02d5 07       		.byte	0x7
 560 02d6 1401     		.2byte	0x114
 561 02d8 83020000 		.4byte	0x283
 562 02dc 02       		.byte	0x2
 563 02dd 23       		.byte	0x23
 564 02de 0C       		.uleb128 0xc
 565 02df 0B       		.uleb128 0xb
 566 02e0 723800   		.ascii	"r8\000"
 567 02e3 07       		.byte	0x7
 568 02e4 1501     		.2byte	0x115
 569 02e6 83020000 		.4byte	0x283
 570 02ea 02       		.byte	0x2
 571 02eb 23       		.byte	0x23
 572 02ec 10       		.uleb128 0x10
 573 02ed 0B       		.uleb128 0xb
 574 02ee 723900   		.ascii	"r9\000"
 575 02f1 07       		.byte	0x7
 576 02f2 1601     		.2byte	0x116
 577 02f4 83020000 		.4byte	0x283
 578 02f8 02       		.byte	0x2
 579 02f9 23       		.byte	0x23
 580 02fa 14       		.uleb128 0x14
 581 02fb 0B       		.uleb128 0xb
 582 02fc 72313000 		.ascii	"r10\000"
 583 0300 07       		.byte	0x7
 584 0301 1701     		.2byte	0x117
 585 0303 83020000 		.4byte	0x283
 586 0307 02       		.byte	0x2
 587 0308 23       		.byte	0x23
 588 0309 18       		.uleb128 0x18
 589 030a 0B       		.uleb128 0xb
 590 030b 72313100 		.ascii	"r11\000"
 591 030f 07       		.byte	0x7
 592 0310 1801     		.2byte	0x118
 593 0312 83020000 		.4byte	0x283
 594 0316 02       		.byte	0x2
 595 0317 23       		.byte	0x23
 596 0318 1C       		.uleb128 0x1c
 597 0319 0B       		.uleb128 0xb
 598 031a 6C7200   		.ascii	"lr\000"
 599 031d 07       		.byte	0x7
 600 031e 1901     		.2byte	0x119
 601 0320 83020000 		.4byte	0x283
 602 0324 02       		.byte	0x2
 603 0325 23       		.byte	0x23
 604 0326 20       		.uleb128 0x20
 605 0327 00       		.byte	0
 606 0328 0C       		.uleb128 0xc
 607 0329 48040000 		.4byte	.LASF47
 608 032d 04       		.byte	0x4
 609 032e 07       		.byte	0x7
 610 032f 2301     		.2byte	0x123
 611 0331 45030000 		.4byte	0x345
 612 0335 0B       		.uleb128 0xb
 613 0336 72313300 		.ascii	"r13\000"
 614 033a 07       		.byte	0x7
 615 033b 2401     		.2byte	0x124
ARM GAS  /tmp/ccXZYxI7.s 			page 12


 616 033d 45030000 		.4byte	0x345
 617 0341 02       		.byte	0x2
 618 0342 23       		.byte	0x23
 619 0343 00       		.uleb128 0
 620 0344 00       		.byte	0
 621 0345 09       		.uleb128 0x9
 622 0346 04       		.byte	0x4
 623 0347 9B020000 		.4byte	0x29b
 624 034b 0D       		.uleb128 0xd
 625 034c 86000000 		.4byte	0x86
 626 0350 0D       		.uleb128 0xd
 627 0351 FE000000 		.4byte	0xfe
 628 0355 05       		.uleb128 0x5
 629 0356 A8020000 		.4byte	.LASF48
 630 035a 10       		.byte	0x10
 631 035b 08       		.byte	0x8
 632 035c 2C       		.byte	0x2c
 633 035d 8C030000 		.4byte	0x38c
 634 0361 06       		.uleb128 0x6
 635 0362 F8000000 		.4byte	.LASF49
 636 0366 08       		.byte	0x8
 637 0367 2D       		.byte	0x2d
 638 0368 56020000 		.4byte	0x256
 639 036c 02       		.byte	0x2
 640 036d 23       		.byte	0x23
 641 036e 00       		.uleb128 0
 642 036f 06       		.uleb128 0x6
 643 0370 FE040000 		.4byte	.LASF50
 644 0374 08       		.byte	0x8
 645 0375 2F       		.byte	0x2f
 646 0376 50020000 		.4byte	0x250
 647 037a 02       		.byte	0x2
 648 037b 23       		.byte	0x23
 649 037c 08       		.uleb128 0x8
 650 037d 06       		.uleb128 0x6
 651 037e E1020000 		.4byte	.LASF51
 652 0382 08       		.byte	0x8
 653 0383 31       		.byte	0x31
 654 0384 8C030000 		.4byte	0x38c
 655 0388 02       		.byte	0x2
 656 0389 23       		.byte	0x23
 657 038a 0C       		.uleb128 0xc
 658 038b 00       		.byte	0
 659 038c 09       		.uleb128 0x9
 660 038d 04       		.byte	0x4
 661 038e 55030000 		.4byte	0x355
 662 0392 03       		.uleb128 0x3
 663 0393 A8020000 		.4byte	.LASF48
 664 0397 08       		.byte	0x8
 665 0398 33       		.byte	0x33
 666 0399 55030000 		.4byte	0x355
 667 039d 0E       		.uleb128 0xe
 668 039e 04       		.byte	0x4
 669 039f 06       		.byte	0x6
 670 03a0 90       		.byte	0x90
 671 03a1 D2030000 		.4byte	0x3d2
 672 03a5 0F       		.uleb128 0xf
ARM GAS  /tmp/ccXZYxI7.s 			page 13


 673 03a6 0C000000 		.4byte	.LASF52
 674 03aa 06       		.byte	0x6
 675 03ab 97       		.byte	0x97
 676 03ac E8000000 		.4byte	0xe8
 677 03b0 0F       		.uleb128 0xf
 678 03b1 A2000000 		.4byte	.LASF53
 679 03b5 06       		.byte	0x6
 680 03b6 9E       		.byte	0x9e
 681 03b7 E8000000 		.4byte	0xe8
 682 03bb 0F       		.uleb128 0xf
 683 03bc B6040000 		.4byte	.LASF54
 684 03c0 06       		.byte	0x6
 685 03c1 A5       		.byte	0xa5
 686 03c2 8E020000 		.4byte	0x28e
 687 03c6 0F       		.uleb128 0xf
 688 03c7 71030000 		.4byte	.LASF55
 689 03cb 06       		.byte	0x6
 690 03cc AC       		.byte	0xac
 691 03cd F3000000 		.4byte	0xf3
 692 03d1 00       		.byte	0
 693 03d2 09       		.uleb128 0x9
 694 03d3 04       		.byte	0x4
 695 03d4 D8030000 		.4byte	0x3d8
 696 03d8 10       		.uleb128 0x10
 697 03d9 DD030000 		.4byte	0x3dd
 698 03dd 04       		.uleb128 0x4
 699 03de 01       		.byte	0x1
 700 03df 08       		.byte	0x8
 701 03e0 FB030000 		.4byte	.LASF56
 702 03e4 09       		.uleb128 0x9
 703 03e5 04       		.byte	0x4
 704 03e6 92030000 		.4byte	0x392
 705 03ea 0D       		.uleb128 0xd
 706 03eb 74000000 		.4byte	0x74
 707 03ef 11       		.uleb128 0x11
 708 03f0 50       		.byte	0x50
 709 03f1 09       		.byte	0x9
 710 03f2 2C01     		.2byte	0x12c
 711 03f4 23050000 		.4byte	0x523
 712 03f8 0B       		.uleb128 0xb
 713 03f9 535200   		.ascii	"SR\000"
 714 03fc 09       		.byte	0x9
 715 03fd 2E01     		.2byte	0x12e
 716 03ff 4B030000 		.4byte	0x34b
 717 0403 02       		.byte	0x2
 718 0404 23       		.byte	0x23
 719 0405 00       		.uleb128 0
 720 0406 0B       		.uleb128 0xb
 721 0407 43523100 		.ascii	"CR1\000"
 722 040b 09       		.byte	0x9
 723 040c 2F01     		.2byte	0x12f
 724 040e 4B030000 		.4byte	0x34b
 725 0412 02       		.byte	0x2
 726 0413 23       		.byte	0x23
 727 0414 04       		.uleb128 0x4
 728 0415 0B       		.uleb128 0xb
 729 0416 43523200 		.ascii	"CR2\000"
ARM GAS  /tmp/ccXZYxI7.s 			page 14


 730 041a 09       		.byte	0x9
 731 041b 3001     		.2byte	0x130
 732 041d 4B030000 		.4byte	0x34b
 733 0421 02       		.byte	0x2
 734 0422 23       		.byte	0x23
 735 0423 08       		.uleb128 0x8
 736 0424 12       		.uleb128 0x12
 737 0425 D5020000 		.4byte	.LASF57
 738 0429 09       		.byte	0x9
 739 042a 3101     		.2byte	0x131
 740 042c 4B030000 		.4byte	0x34b
 741 0430 02       		.byte	0x2
 742 0431 23       		.byte	0x23
 743 0432 0C       		.uleb128 0xc
 744 0433 12       		.uleb128 0x12
 745 0434 DB020000 		.4byte	.LASF58
 746 0438 09       		.byte	0x9
 747 0439 3201     		.2byte	0x132
 748 043b 4B030000 		.4byte	0x34b
 749 043f 02       		.byte	0x2
 750 0440 23       		.byte	0x23
 751 0441 10       		.uleb128 0x10
 752 0442 12       		.uleb128 0x12
 753 0443 86020000 		.4byte	.LASF59
 754 0447 09       		.byte	0x9
 755 0448 3301     		.2byte	0x133
 756 044a 4B030000 		.4byte	0x34b
 757 044e 02       		.byte	0x2
 758 044f 23       		.byte	0x23
 759 0450 14       		.uleb128 0x14
 760 0451 12       		.uleb128 0x12
 761 0452 8C020000 		.4byte	.LASF60
 762 0456 09       		.byte	0x9
 763 0457 3401     		.2byte	0x134
 764 0459 4B030000 		.4byte	0x34b
 765 045d 02       		.byte	0x2
 766 045e 23       		.byte	0x23
 767 045f 18       		.uleb128 0x18
 768 0460 12       		.uleb128 0x12
 769 0461 92020000 		.4byte	.LASF61
 770 0465 09       		.byte	0x9
 771 0466 3501     		.2byte	0x135
 772 0468 4B030000 		.4byte	0x34b
 773 046c 02       		.byte	0x2
 774 046d 23       		.byte	0x23
 775 046e 1C       		.uleb128 0x1c
 776 046f 12       		.uleb128 0x12
 777 0470 87030000 		.4byte	.LASF62
 778 0474 09       		.byte	0x9
 779 0475 3601     		.2byte	0x136
 780 0477 4B030000 		.4byte	0x34b
 781 047b 02       		.byte	0x2
 782 047c 23       		.byte	0x23
 783 047d 20       		.uleb128 0x20
 784 047e 0B       		.uleb128 0xb
 785 047f 48545200 		.ascii	"HTR\000"
 786 0483 09       		.byte	0x9
ARM GAS  /tmp/ccXZYxI7.s 			page 15


 787 0484 3701     		.2byte	0x137
 788 0486 4B030000 		.4byte	0x34b
 789 048a 02       		.byte	0x2
 790 048b 23       		.byte	0x23
 791 048c 24       		.uleb128 0x24
 792 048d 0B       		.uleb128 0xb
 793 048e 4C545200 		.ascii	"LTR\000"
 794 0492 09       		.byte	0x9
 795 0493 3801     		.2byte	0x138
 796 0495 4B030000 		.4byte	0x34b
 797 0499 02       		.byte	0x2
 798 049a 23       		.byte	0x23
 799 049b 28       		.uleb128 0x28
 800 049c 12       		.uleb128 0x12
 801 049d E8020000 		.4byte	.LASF63
 802 04a1 09       		.byte	0x9
 803 04a2 3901     		.2byte	0x139
 804 04a4 4B030000 		.4byte	0x34b
 805 04a8 02       		.byte	0x2
 806 04a9 23       		.byte	0x23
 807 04aa 2C       		.uleb128 0x2c
 808 04ab 12       		.uleb128 0x12
 809 04ac ED020000 		.4byte	.LASF64
 810 04b0 09       		.byte	0x9
 811 04b1 3A01     		.2byte	0x13a
 812 04b3 4B030000 		.4byte	0x34b
 813 04b7 02       		.byte	0x2
 814 04b8 23       		.byte	0x23
 815 04b9 30       		.uleb128 0x30
 816 04ba 12       		.uleb128 0x12
 817 04bb F2020000 		.4byte	.LASF65
 818 04bf 09       		.byte	0x9
 819 04c0 3B01     		.2byte	0x13b
 820 04c2 4B030000 		.4byte	0x34b
 821 04c6 02       		.byte	0x2
 822 04c7 23       		.byte	0x23
 823 04c8 34       		.uleb128 0x34
 824 04c9 12       		.uleb128 0x12
 825 04ca CA000000 		.4byte	.LASF66
 826 04ce 09       		.byte	0x9
 827 04cf 3C01     		.2byte	0x13c
 828 04d1 4B030000 		.4byte	0x34b
 829 04d5 02       		.byte	0x2
 830 04d6 23       		.byte	0x23
 831 04d7 38       		.uleb128 0x38
 832 04d8 12       		.uleb128 0x12
 833 04d9 A2040000 		.4byte	.LASF67
 834 04dd 09       		.byte	0x9
 835 04de 3D01     		.2byte	0x13d
 836 04e0 4B030000 		.4byte	0x34b
 837 04e4 02       		.byte	0x2
 838 04e5 23       		.byte	0x23
 839 04e6 3C       		.uleb128 0x3c
 840 04e7 12       		.uleb128 0x12
 841 04e8 A7040000 		.4byte	.LASF68
 842 04ec 09       		.byte	0x9
 843 04ed 3E01     		.2byte	0x13e
ARM GAS  /tmp/ccXZYxI7.s 			page 16


 844 04ef 4B030000 		.4byte	0x34b
 845 04f3 02       		.byte	0x2
 846 04f4 23       		.byte	0x23
 847 04f5 40       		.uleb128 0x40
 848 04f6 12       		.uleb128 0x12
 849 04f7 AC040000 		.4byte	.LASF69
 850 04fb 09       		.byte	0x9
 851 04fc 3F01     		.2byte	0x13f
 852 04fe 4B030000 		.4byte	0x34b
 853 0502 02       		.byte	0x2
 854 0503 23       		.byte	0x23
 855 0504 44       		.uleb128 0x44
 856 0505 12       		.uleb128 0x12
 857 0506 B1040000 		.4byte	.LASF70
 858 050a 09       		.byte	0x9
 859 050b 4001     		.2byte	0x140
 860 050d 4B030000 		.4byte	0x34b
 861 0511 02       		.byte	0x2
 862 0512 23       		.byte	0x23
 863 0513 48       		.uleb128 0x48
 864 0514 0B       		.uleb128 0xb
 865 0515 445200   		.ascii	"DR\000"
 866 0518 09       		.byte	0x9
 867 0519 4101     		.2byte	0x141
 868 051b 4B030000 		.4byte	0x34b
 869 051f 02       		.byte	0x2
 870 0520 23       		.byte	0x23
 871 0521 4C       		.uleb128 0x4c
 872 0522 00       		.byte	0
 873 0523 13       		.uleb128 0x13
 874 0524 76010000 		.4byte	.LASF71
 875 0528 09       		.byte	0x9
 876 0529 4201     		.2byte	0x142
 877 052b EF030000 		.4byte	0x3ef
 878 052f 11       		.uleb128 0x11
 879 0530 18       		.byte	0x18
 880 0531 09       		.byte	0x9
 881 0532 D301     		.2byte	0x1d3
 882 0534 92050000 		.4byte	0x592
 883 0538 0B       		.uleb128 0xb
 884 0539 435200   		.ascii	"CR\000"
 885 053c 09       		.byte	0x9
 886 053d D501     		.2byte	0x1d5
 887 053f 4B030000 		.4byte	0x34b
 888 0543 02       		.byte	0x2
 889 0544 23       		.byte	0x23
 890 0545 00       		.uleb128 0
 891 0546 12       		.uleb128 0x12
 892 0547 30040000 		.4byte	.LASF72
 893 054b 09       		.byte	0x9
 894 054c D601     		.2byte	0x1d6
 895 054e 4B030000 		.4byte	0x34b
 896 0552 02       		.byte	0x2
 897 0553 23       		.byte	0x23
 898 0554 04       		.uleb128 0x4
 899 0555 0B       		.uleb128 0xb
 900 0556 50415200 		.ascii	"PAR\000"
ARM GAS  /tmp/ccXZYxI7.s 			page 17


 901 055a 09       		.byte	0x9
 902 055b D701     		.2byte	0x1d7
 903 055d 4B030000 		.4byte	0x34b
 904 0561 02       		.byte	0x2
 905 0562 23       		.byte	0x23
 906 0563 08       		.uleb128 0x8
 907 0564 12       		.uleb128 0x12
 908 0565 00000000 		.4byte	.LASF73
 909 0569 09       		.byte	0x9
 910 056a D801     		.2byte	0x1d8
 911 056c 4B030000 		.4byte	0x34b
 912 0570 02       		.byte	0x2
 913 0571 23       		.byte	0x23
 914 0572 0C       		.uleb128 0xc
 915 0573 12       		.uleb128 0x12
 916 0574 57040000 		.4byte	.LASF74
 917 0578 09       		.byte	0x9
 918 0579 D901     		.2byte	0x1d9
 919 057b 4B030000 		.4byte	0x34b
 920 057f 02       		.byte	0x2
 921 0580 23       		.byte	0x23
 922 0581 10       		.uleb128 0x10
 923 0582 0B       		.uleb128 0xb
 924 0583 46435200 		.ascii	"FCR\000"
 925 0587 09       		.byte	0x9
 926 0588 DA01     		.2byte	0x1da
 927 058a 4B030000 		.4byte	0x34b
 928 058e 02       		.byte	0x2
 929 058f 23       		.byte	0x23
 930 0590 14       		.uleb128 0x14
 931 0591 00       		.byte	0
 932 0592 13       		.uleb128 0x13
 933 0593 35040000 		.4byte	.LASF75
 934 0597 09       		.byte	0x9
 935 0598 DB01     		.2byte	0x1db
 936 059a 2F050000 		.4byte	0x52f
 937 059e 08       		.uleb128 0x8
 938 059f 0C       		.byte	0xc
 939 05a0 0A       		.byte	0xa
 940 05a1 E5       		.byte	0xe5
 941 05a2 ED050000 		.4byte	0x5ed
 942 05a6 06       		.uleb128 0x6
 943 05a7 47000000 		.4byte	.LASF76
 944 05ab 0A       		.byte	0xa
 945 05ac E6       		.byte	0xe6
 946 05ad ED050000 		.4byte	0x5ed
 947 05b1 02       		.byte	0x2
 948 05b2 23       		.byte	0x23
 949 05b3 00       		.uleb128 0
 950 05b4 06       		.uleb128 0x6
 951 05b5 B0030000 		.4byte	.LASF77
 952 05b9 0A       		.byte	0xa
 953 05ba E7       		.byte	0xe7
 954 05bb F3050000 		.4byte	0x5f3
 955 05bf 02       		.byte	0x2
 956 05c0 23       		.byte	0x23
 957 05c1 04       		.uleb128 0x4
ARM GAS  /tmp/ccXZYxI7.s 			page 18


 958 05c2 06       		.uleb128 0x6
 959 05c3 0B020000 		.4byte	.LASF78
 960 05c7 0A       		.byte	0xa
 961 05c8 E8       		.byte	0xe8
 962 05c9 49000000 		.4byte	0x49
 963 05cd 02       		.byte	0x2
 964 05ce 23       		.byte	0x23
 965 05cf 08       		.uleb128 0x8
 966 05d0 06       		.uleb128 0x6
 967 05d1 B4010000 		.4byte	.LASF79
 968 05d5 0A       		.byte	0xa
 969 05d6 EA       		.byte	0xea
 970 05d7 49000000 		.4byte	0x49
 971 05db 02       		.byte	0x2
 972 05dc 23       		.byte	0x23
 973 05dd 09       		.uleb128 0x9
 974 05de 06       		.uleb128 0x6
 975 05df 38000000 		.4byte	.LASF80
 976 05e3 0A       		.byte	0xa
 977 05e4 EB       		.byte	0xeb
 978 05e5 49000000 		.4byte	0x49
 979 05e9 02       		.byte	0x2
 980 05ea 23       		.byte	0x23
 981 05eb 0A       		.uleb128 0xa
 982 05ec 00       		.byte	0
 983 05ed 09       		.uleb128 0x9
 984 05ee 04       		.byte	0x4
 985 05ef 92050000 		.4byte	0x592
 986 05f3 09       		.uleb128 0x9
 987 05f4 04       		.byte	0x4
 988 05f5 4B030000 		.4byte	0x34b
 989 05f9 03       		.uleb128 0x3
 990 05fa 06030000 		.4byte	.LASF81
 991 05fe 0A       		.byte	0xa
 992 05ff EC       		.byte	0xec
 993 0600 9E050000 		.4byte	0x59e
 994 0604 14       		.uleb128 0x14
 995 0605 01       		.byte	0x1
 996 0606 0B       		.byte	0xb
 997 0607 55       		.byte	0x55
 998 0608 31060000 		.4byte	0x631
 999 060c 15       		.uleb128 0x15
 1000 060d AB000000 		.4byte	.LASF82
 1001 0611 00       		.sleb128 0
 1002 0612 15       		.uleb128 0x15
 1003 0613 AE020000 		.4byte	.LASF83
 1004 0617 01       		.sleb128 1
 1005 0618 15       		.uleb128 0x15
 1006 0619 25020000 		.4byte	.LASF84
 1007 061d 02       		.sleb128 2
 1008 061e 15       		.uleb128 0x15
 1009 061f D5010000 		.4byte	.LASF85
 1010 0623 03       		.sleb128 3
 1011 0624 15       		.uleb128 0x15
 1012 0625 BD040000 		.4byte	.LASF86
 1013 0629 04       		.sleb128 4
 1014 062a 15       		.uleb128 0x15
ARM GAS  /tmp/ccXZYxI7.s 			page 19


 1015 062b 5C040000 		.4byte	.LASF87
 1016 062f 05       		.sleb128 5
 1017 0630 00       		.byte	0
 1018 0631 03       		.uleb128 0x3
 1019 0632 2D000000 		.4byte	.LASF88
 1020 0636 0B       		.byte	0xb
 1021 0637 5C       		.byte	0x5c
 1022 0638 04060000 		.4byte	0x604
 1023 063c 13       		.uleb128 0x13
 1024 063d 9F010000 		.4byte	.LASF89
 1025 0641 0C       		.byte	0xc
 1026 0642 2E01     		.2byte	0x12e
 1027 0644 62000000 		.4byte	0x62
 1028 0648 13       		.uleb128 0x13
 1029 0649 DF040000 		.4byte	.LASF90
 1030 064d 0C       		.byte	0xc
 1031 064e 3301     		.2byte	0x133
 1032 0650 62000000 		.4byte	0x62
 1033 0654 16       		.uleb128 0x16
 1034 0655 01       		.byte	0x1
 1035 0656 0C       		.byte	0xc
 1036 0657 3A01     		.2byte	0x13a
 1037 0659 6A060000 		.4byte	0x66a
 1038 065d 15       		.uleb128 0x15
 1039 065e 2A010000 		.4byte	.LASF91
 1040 0662 00       		.sleb128 0
 1041 0663 15       		.uleb128 0x15
 1042 0664 C4010000 		.4byte	.LASF92
 1043 0668 01       		.sleb128 1
 1044 0669 00       		.byte	0
 1045 066a 13       		.uleb128 0x13
 1046 066b 00010000 		.4byte	.LASF93
 1047 066f 0C       		.byte	0xc
 1048 0670 3D01     		.2byte	0x13d
 1049 0672 54060000 		.4byte	0x654
 1050 0676 13       		.uleb128 0x13
 1051 0677 01020000 		.4byte	.LASF94
 1052 067b 0C       		.byte	0xc
 1053 067c 4201     		.2byte	0x142
 1054 067e 82060000 		.4byte	0x682
 1055 0682 0C       		.uleb128 0xc
 1056 0683 01020000 		.4byte	.LASF94
 1057 0687 34       		.byte	0x34
 1058 0688 0C       		.byte	0xc
 1059 0689 A601     		.2byte	0x1a6
 1060 068b 26070000 		.4byte	0x726
 1061 068f 12       		.uleb128 0x12
 1062 0690 12010000 		.4byte	.LASF95
 1063 0694 0C       		.byte	0xc
 1064 0695 AA01     		.2byte	0x1aa
 1065 0697 31060000 		.4byte	0x631
 1066 069b 02       		.byte	0x2
 1067 069c 23       		.byte	0x23
 1068 069d 00       		.uleb128 0
 1069 069e 12       		.uleb128 0x12
 1070 069f 00040000 		.4byte	.LASF96
 1071 06a3 0C       		.byte	0xc
ARM GAS  /tmp/ccXZYxI7.s 			page 20


 1072 06a4 AE01     		.2byte	0x1ae
 1073 06a6 5D080000 		.4byte	0x85d
 1074 06aa 02       		.byte	0x2
 1075 06ab 23       		.byte	0x23
 1076 06ac 04       		.uleb128 0x4
 1077 06ad 12       		.uleb128 0x12
 1078 06ae 98020000 		.4byte	.LASF97
 1079 06b2 0C       		.byte	0xc
 1080 06b3 B201     		.2byte	0x1b2
 1081 06b5 54070000 		.4byte	0x754
 1082 06b9 02       		.byte	0x2
 1083 06ba 23       		.byte	0x23
 1084 06bb 08       		.uleb128 0x8
 1085 06bc 12       		.uleb128 0x12
 1086 06bd 2F020000 		.4byte	.LASF98
 1087 06c1 0C       		.byte	0xc
 1088 06c2 B601     		.2byte	0x1b6
 1089 06c4 30000000 		.4byte	0x30
 1090 06c8 02       		.byte	0x2
 1091 06c9 23       		.byte	0x23
 1092 06ca 0C       		.uleb128 0xc
 1093 06cb 12       		.uleb128 0x12
 1094 06cc 81020000 		.4byte	.LASF99
 1095 06d0 0C       		.byte	0xc
 1096 06d1 BA01     		.2byte	0x1ba
 1097 06d3 68080000 		.4byte	0x868
 1098 06d7 02       		.byte	0x2
 1099 06d8 23       		.byte	0x23
 1100 06d9 10       		.uleb128 0x10
 1101 06da 12       		.uleb128 0x12
 1102 06db 59010000 		.4byte	.LASF100
 1103 06df 0C       		.byte	0xc
 1104 06e0 BF01     		.2byte	0x1bf
 1105 06e2 50020000 		.4byte	0x250
 1106 06e6 02       		.byte	0x2
 1107 06e7 23       		.byte	0x23
 1108 06e8 14       		.uleb128 0x14
 1109 06e9 12       		.uleb128 0x12
 1110 06ea 21030000 		.4byte	.LASF101
 1111 06ee 0C       		.byte	0xc
 1112 06ef C601     		.2byte	0x1c6
 1113 06f1 92030000 		.4byte	0x392
 1114 06f5 02       		.byte	0x2
 1115 06f6 23       		.byte	0x23
 1116 06f7 18       		.uleb128 0x18
 1117 06f8 0B       		.uleb128 0xb
 1118 06f9 61646300 		.ascii	"adc\000"
 1119 06fd 0C       		.byte	0xc
 1120 06fe D201     		.2byte	0x1d2
 1121 0700 73080000 		.4byte	0x873
 1122 0704 02       		.byte	0x2
 1123 0705 23       		.byte	0x23
 1124 0706 28       		.uleb128 0x28
 1125 0707 12       		.uleb128 0x12
 1126 0708 0B010000 		.4byte	.LASF102
 1127 070c 0C       		.byte	0xc
 1128 070d D601     		.2byte	0x1d6
ARM GAS  /tmp/ccXZYxI7.s 			page 21


 1129 070f 79080000 		.4byte	0x879
 1130 0713 02       		.byte	0x2
 1131 0714 23       		.byte	0x23
 1132 0715 2C       		.uleb128 0x2c
 1133 0716 12       		.uleb128 0x12
 1134 0717 1E000000 		.4byte	.LASF103
 1135 071b 0C       		.byte	0xc
 1136 071c DA01     		.2byte	0x1da
 1137 071e 86000000 		.4byte	0x86
 1138 0722 02       		.byte	0x2
 1139 0723 23       		.byte	0x23
 1140 0724 30       		.uleb128 0x30
 1141 0725 00       		.byte	0
 1142 0726 13       		.uleb128 0x13
 1143 0727 91010000 		.4byte	.LASF104
 1144 072b 0C       		.byte	0xc
 1145 072c 4C01     		.2byte	0x14c
 1146 072e 32070000 		.4byte	0x732
 1147 0732 09       		.uleb128 0x9
 1148 0733 04       		.byte	0x4
 1149 0734 38070000 		.4byte	0x738
 1150 0738 17       		.uleb128 0x17
 1151 0739 01       		.byte	0x1
 1152 073a 4E070000 		.4byte	0x74e
 1153 073e 18       		.uleb128 0x18
 1154 073f 4E070000 		.4byte	0x74e
 1155 0743 18       		.uleb128 0x18
 1156 0744 54070000 		.4byte	0x754
 1157 0748 18       		.uleb128 0x18
 1158 0749 30000000 		.4byte	0x30
 1159 074d 00       		.byte	0
 1160 074e 09       		.uleb128 0x9
 1161 074f 04       		.byte	0x4
 1162 0750 76060000 		.4byte	0x676
 1163 0754 09       		.uleb128 0x9
 1164 0755 04       		.byte	0x4
 1165 0756 3C060000 		.4byte	0x63c
 1166 075a 13       		.uleb128 0x13
 1167 075b 3D010000 		.4byte	.LASF105
 1168 075f 0C       		.byte	0xc
 1169 0760 5501     		.2byte	0x155
 1170 0762 66070000 		.4byte	0x766
 1171 0766 09       		.uleb128 0x9
 1172 0767 04       		.byte	0x4
 1173 0768 6C070000 		.4byte	0x76c
 1174 076c 17       		.uleb128 0x17
 1175 076d 01       		.byte	0x1
 1176 076e 7D070000 		.4byte	0x77d
 1177 0772 18       		.uleb128 0x18
 1178 0773 4E070000 		.4byte	0x74e
 1179 0777 18       		.uleb128 0x18
 1180 0778 6A060000 		.4byte	0x66a
 1181 077c 00       		.byte	0
 1182 077d 11       		.uleb128 0x11
 1183 077e 2C       		.byte	0x2c
 1184 077f 0C       		.byte	0xc
 1185 0780 5F01     		.2byte	0x15f
ARM GAS  /tmp/ccXZYxI7.s 			page 22


 1186 0782 2C080000 		.4byte	0x82c
 1187 0786 12       		.uleb128 0x12
 1188 0787 18010000 		.4byte	.LASF106
 1189 078b 0C       		.byte	0xc
 1190 078c 6301     		.2byte	0x163
 1191 078e B1000000 		.4byte	0xb1
 1192 0792 02       		.byte	0x2
 1193 0793 23       		.byte	0x23
 1194 0794 00       		.uleb128 0
 1195 0795 12       		.uleb128 0x12
 1196 0796 43020000 		.4byte	.LASF107
 1197 079a 0C       		.byte	0xc
 1198 079b 6701     		.2byte	0x167
 1199 079d 48060000 		.4byte	0x648
 1200 07a1 02       		.byte	0x2
 1201 07a2 23       		.byte	0x23
 1202 07a3 04       		.uleb128 0x4
 1203 07a4 12       		.uleb128 0x12
 1204 07a5 8A010000 		.4byte	.LASF108
 1205 07a9 0C       		.byte	0xc
 1206 07aa 6B01     		.2byte	0x16b
 1207 07ac 26070000 		.4byte	0x726
 1208 07b0 02       		.byte	0x2
 1209 07b1 23       		.byte	0x23
 1210 07b2 08       		.uleb128 0x8
 1211 07b3 12       		.uleb128 0x12
 1212 07b4 68030000 		.4byte	.LASF109
 1213 07b8 0C       		.byte	0xc
 1214 07b9 6F01     		.2byte	0x16f
 1215 07bb 5A070000 		.4byte	0x75a
 1216 07bf 02       		.byte	0x2
 1217 07c0 23       		.byte	0x23
 1218 07c1 0C       		.uleb128 0xc
 1219 07c2 0B       		.uleb128 0xb
 1220 07c3 63723100 		.ascii	"cr1\000"
 1221 07c7 0C       		.byte	0xc
 1222 07c8 7601     		.2byte	0x176
 1223 07ca 86000000 		.4byte	0x86
 1224 07ce 02       		.byte	0x2
 1225 07cf 23       		.byte	0x23
 1226 07d0 10       		.uleb128 0x10
 1227 07d1 0B       		.uleb128 0xb
 1228 07d2 63723200 		.ascii	"cr2\000"
 1229 07d6 0C       		.byte	0xc
 1230 07d7 7D01     		.2byte	0x17d
 1231 07d9 86000000 		.4byte	0x86
 1232 07dd 02       		.byte	0x2
 1233 07de 23       		.byte	0x23
 1234 07df 14       		.uleb128 0x14
 1235 07e0 12       		.uleb128 0x12
 1236 07e1 7B040000 		.4byte	.LASF110
 1237 07e5 0C       		.byte	0xc
 1238 07e6 8301     		.2byte	0x183
 1239 07e8 86000000 		.4byte	0x86
 1240 07ec 02       		.byte	0x2
 1241 07ed 23       		.byte	0x23
 1242 07ee 18       		.uleb128 0x18
ARM GAS  /tmp/ccXZYxI7.s 			page 23


 1243 07ef 12       		.uleb128 0x12
 1244 07f0 81040000 		.4byte	.LASF111
 1245 07f4 0C       		.byte	0xc
 1246 07f5 8901     		.2byte	0x189
 1247 07f7 86000000 		.4byte	0x86
 1248 07fb 02       		.byte	0x2
 1249 07fc 23       		.byte	0x23
 1250 07fd 1C       		.uleb128 0x1c
 1251 07fe 12       		.uleb128 0x12
 1252 07ff 0C040000 		.4byte	.LASF112
 1253 0803 0C       		.byte	0xc
 1254 0804 8E01     		.2byte	0x18e
 1255 0806 86000000 		.4byte	0x86
 1256 080a 02       		.byte	0x2
 1257 080b 23       		.byte	0x23
 1258 080c 20       		.uleb128 0x20
 1259 080d 12       		.uleb128 0x12
 1260 080e 11040000 		.4byte	.LASF113
 1261 0812 0C       		.byte	0xc
 1262 0813 9301     		.2byte	0x193
 1263 0815 86000000 		.4byte	0x86
 1264 0819 02       		.byte	0x2
 1265 081a 23       		.byte	0x23
 1266 081b 24       		.uleb128 0x24
 1267 081c 12       		.uleb128 0x12
 1268 081d 16040000 		.4byte	.LASF114
 1269 0821 0C       		.byte	0xc
 1270 0822 9801     		.2byte	0x198
 1271 0824 86000000 		.4byte	0x86
 1272 0828 02       		.byte	0x2
 1273 0829 23       		.byte	0x23
 1274 082a 28       		.uleb128 0x28
 1275 082b 00       		.byte	0
 1276 082c 13       		.uleb128 0x13
 1277 082d 8F040000 		.4byte	.LASF115
 1278 0831 0C       		.byte	0xc
 1279 0832 9901     		.2byte	0x199
 1280 0834 7D070000 		.4byte	0x77d
 1281 0838 11       		.uleb128 0x11
 1282 0839 04       		.byte	0x4
 1283 083a 0C       		.byte	0xc
 1284 083b 9F01     		.2byte	0x19f
 1285 083d 51080000 		.4byte	0x851
 1286 0841 12       		.uleb128 0x12
 1287 0842 BE010000 		.4byte	.LASF116
 1288 0846 0C       		.byte	0xc
 1289 0847 A001     		.2byte	0x1a0
 1290 0849 86000000 		.4byte	0x86
 1291 084d 02       		.byte	0x2
 1292 084e 23       		.byte	0x23
 1293 084f 00       		.uleb128 0
 1294 0850 00       		.byte	0
 1295 0851 13       		.uleb128 0x13
 1296 0852 C8030000 		.4byte	.LASF117
 1297 0856 0C       		.byte	0xc
 1298 0857 A101     		.2byte	0x1a1
 1299 0859 38080000 		.4byte	0x838
ARM GAS  /tmp/ccXZYxI7.s 			page 24


 1300 085d 09       		.uleb128 0x9
 1301 085e 04       		.byte	0x4
 1302 085f 63080000 		.4byte	0x863
 1303 0863 10       		.uleb128 0x10
 1304 0864 51080000 		.4byte	0x851
 1305 0868 09       		.uleb128 0x9
 1306 0869 04       		.byte	0x4
 1307 086a 6E080000 		.4byte	0x86e
 1308 086e 10       		.uleb128 0x10
 1309 086f 2C080000 		.4byte	0x82c
 1310 0873 09       		.uleb128 0x9
 1311 0874 04       		.byte	0x4
 1312 0875 23050000 		.4byte	0x523
 1313 0879 09       		.uleb128 0x9
 1314 087a 04       		.byte	0x4
 1315 087b 7F080000 		.4byte	0x87f
 1316 087f 10       		.uleb128 0x10
 1317 0880 F9050000 		.4byte	0x5f9
 1318 0884 05       		.uleb128 0x5
 1319 0885 94030000 		.4byte	.LASF118
 1320 0889 B0       		.byte	0xb0
 1321 088a 0D       		.byte	0xd
 1322 088b 15       		.byte	0x15
 1323 088c CA080000 		.4byte	0x8ca
 1324 0890 06       		.uleb128 0x6
 1325 0891 F8040000 		.4byte	.LASF119
 1326 0895 0D       		.byte	0xd
 1327 0896 16       		.byte	0x16
 1328 0897 29000000 		.4byte	0x29
 1329 089b 02       		.byte	0x2
 1330 089c 23       		.byte	0x23
 1331 089d 00       		.uleb128 0
 1332 089e 07       		.uleb128 0x7
 1333 089f 656E6400 		.ascii	"end\000"
 1334 08a3 0D       		.byte	0xd
 1335 08a4 17       		.byte	0x17
 1336 08a5 29000000 		.4byte	0x29
 1337 08a9 02       		.byte	0x2
 1338 08aa 23       		.byte	0x23
 1339 08ab 04       		.uleb128 0x4
 1340 08ac 06       		.uleb128 0x6
 1341 08ad A0020000 		.4byte	.LASF120
 1342 08b1 0D       		.byte	0xd
 1343 08b2 18       		.byte	0x18
 1344 08b3 CA080000 		.4byte	0x8ca
 1345 08b7 02       		.byte	0x2
 1346 08b8 23       		.byte	0x23
 1347 08b9 08       		.uleb128 0x8
 1348 08ba 06       		.uleb128 0x6
 1349 08bb 21030000 		.4byte	.LASF101
 1350 08bf 0D       		.byte	0xd
 1351 08c0 19       		.byte	0x19
 1352 08c1 92030000 		.4byte	0x392
 1353 08c5 03       		.byte	0x3
 1354 08c6 23       		.byte	0x23
 1355 08c7 A001     		.uleb128 0xa0
 1356 08c9 00       		.byte	0
ARM GAS  /tmp/ccXZYxI7.s 			page 25


 1357 08ca 19       		.uleb128 0x19
 1358 08cb DD030000 		.4byte	0x3dd
 1359 08cf DA080000 		.4byte	0x8da
 1360 08d3 1A       		.uleb128 0x1a
 1361 08d4 3B000000 		.4byte	0x3b
 1362 08d8 95       		.byte	0x95
 1363 08d9 00       		.byte	0
 1364 08da 03       		.uleb128 0x3
 1365 08db 3D030000 		.4byte	.LASF121
 1366 08df 0D       		.byte	0xd
 1367 08e0 1A       		.byte	0x1a
 1368 08e1 84080000 		.4byte	0x884
 1369 08e5 08       		.uleb128 0x8
 1370 08e6 08       		.byte	0x8
 1371 08e7 01       		.byte	0x1
 1372 08e8 17       		.byte	0x17
 1373 08e9 26090000 		.4byte	0x926
 1374 08ed 06       		.uleb128 0x6
 1375 08ee 60010000 		.4byte	.LASF122
 1376 08f2 01       		.byte	0x1
 1377 08f3 18       		.byte	0x18
 1378 08f4 3C060000 		.4byte	0x63c
 1379 08f8 02       		.byte	0x2
 1380 08f9 23       		.byte	0x23
 1381 08fa 00       		.uleb128 0
 1382 08fb 06       		.uleb128 0x6
 1383 08fc 85000000 		.4byte	.LASF123
 1384 0900 01       		.byte	0x1
 1385 0901 19       		.byte	0x19
 1386 0902 3C060000 		.4byte	0x63c
 1387 0906 02       		.byte	0x2
 1388 0907 23       		.byte	0x23
 1389 0908 02       		.uleb128 0x2
 1390 0909 06       		.uleb128 0x6
 1391 090a 07040000 		.4byte	.LASF124
 1392 090e 01       		.byte	0x1
 1393 090f 1A       		.byte	0x1a
 1394 0910 3C060000 		.4byte	0x63c
 1395 0914 02       		.byte	0x2
 1396 0915 23       		.byte	0x23
 1397 0916 04       		.uleb128 0x4
 1398 0917 06       		.uleb128 0x6
 1399 0918 6F040000 		.4byte	.LASF125
 1400 091c 01       		.byte	0x1
 1401 091d 1B       		.byte	0x1b
 1402 091e 3C060000 		.4byte	0x63c
 1403 0922 02       		.byte	0x2
 1404 0923 23       		.byte	0x23
 1405 0924 06       		.uleb128 0x6
 1406 0925 00       		.byte	0
 1407 0926 03       		.uleb128 0x3
 1408 0927 26000000 		.4byte	.LASF126
 1409 092b 01       		.byte	0x1
 1410 092c 1C       		.byte	0x1c
 1411 092d E5080000 		.4byte	0x8e5
 1412 0931 1B       		.uleb128 0x1b
 1413 0932 ED010000 		.4byte	.LASF136
ARM GAS  /tmp/ccXZYxI7.s 			page 26


 1414 0936 01       		.byte	0x1
 1415 0937 3C       		.byte	0x3c
 1416 0938 01       		.byte	0x1
 1417 0939 E8000000 		.4byte	0xe8
 1418 093d 00000000 		.4byte	.LFB117
 1419 0941 68000000 		.4byte	.LFE117
 1420 0945 00000000 		.4byte	.LLST0
 1421 0949 6B090000 		.4byte	0x96b
 1422 094d 1C       		.uleb128 0x1c
 1423 094e 61726700 		.ascii	"arg\000"
 1424 0952 01       		.byte	0x1
 1425 0953 3C       		.byte	0x3c
 1426 0954 8E020000 		.4byte	0x28e
 1427 0958 2D000000 		.4byte	.LLST1
 1428 095c 1D       		.uleb128 0x1d
 1429 095d 62756600 		.ascii	"buf\000"
 1430 0961 01       		.byte	0x1
 1431 0962 3E       		.byte	0x3e
 1432 0963 6B090000 		.4byte	0x96b
 1433 0967 02       		.byte	0x2
 1434 0968 91       		.byte	0x91
 1435 0969 48       		.sleb128 -56
 1436 096a 00       		.byte	0
 1437 096b 19       		.uleb128 0x19
 1438 096c DD030000 		.4byte	0x3dd
 1439 0970 7B090000 		.4byte	0x97b
 1440 0974 1A       		.uleb128 0x1a
 1441 0975 3B000000 		.4byte	0x3b
 1442 0979 27       		.byte	0x27
 1443 097a 00       		.byte	0
 1444 097b 1E       		.uleb128 0x1e
 1445 097c 01       		.byte	0x1
 1446 097d 73020000 		.4byte	.LASF137
 1447 0981 01       		.byte	0x1
 1448 0982 51       		.byte	0x51
 1449 0983 01       		.byte	0x1
 1450 0984 00000000 		.4byte	.LFB118
 1451 0988 26000000 		.4byte	.LFE118
 1452 098c 40000000 		.4byte	.LLST2
 1453 0990 1F       		.uleb128 0x1f
 1454 0991 3F000000 		.4byte	.LASF127
 1455 0995 01       		.byte	0x1
 1456 0996 1F       		.byte	0x1f
 1457 0997 26090000 		.4byte	0x926
 1458 099b 05       		.byte	0x5
 1459 099c 03       		.byte	0x3
 1460 099d 00000000 		.4byte	ir_data
 1461 09a1 1F       		.uleb128 0x1f
 1462 09a2 13000000 		.4byte	.LASF128
 1463 09a6 01       		.byte	0x1
 1464 09a7 26       		.byte	0x26
 1465 09a8 6E080000 		.4byte	0x86e
 1466 09ac 05       		.byte	0x5
 1467 09ad 03       		.byte	0x3
 1468 09ae 00000000 		.4byte	adc_grpcfg
 1469 09b2 19       		.uleb128 0x19
 1470 09b3 90020000 		.4byte	0x290
ARM GAS  /tmp/ccXZYxI7.s 			page 27


 1471 09b7 C2090000 		.4byte	0x9c2
 1472 09bb 1A       		.uleb128 0x1a
 1473 09bc 3B000000 		.4byte	0x3b
 1474 09c0 95       		.byte	0x95
 1475 09c1 00       		.byte	0
 1476 09c2 1F       		.uleb128 0x1f
 1477 09c3 D1040000 		.4byte	.LASF129
 1478 09c7 01       		.byte	0x1
 1479 09c8 37       		.byte	0x37
 1480 09c9 B2090000 		.4byte	0x9b2
 1481 09cd 05       		.byte	0x5
 1482 09ce 03       		.byte	0x3
 1483 09cf 00000000 		.4byte	irWorkingArea
 1484 09d3 20       		.uleb128 0x20
 1485 09d4 B6000000 		.4byte	.LASF130
 1486 09d8 0E       		.byte	0xe
 1487 09d9 1A05     		.2byte	0x51a
 1488 09db EA030000 		.4byte	0x3ea
 1489 09df 01       		.byte	0x1
 1490 09e0 01       		.byte	0x1
 1491 09e1 20       		.uleb128 0x20
 1492 09e2 C2030000 		.4byte	.LASF131
 1493 09e6 0C       		.byte	0xc
 1494 09e7 1F02     		.2byte	0x21f
 1495 09e9 76060000 		.4byte	0x676
 1496 09ed 01       		.byte	0x1
 1497 09ee 01       		.byte	0x1
 1498 09ef 21       		.uleb128 0x21
 1499 09f0 B5030000 		.4byte	.LASF132
 1500 09f4 0F       		.byte	0xf
 1501 09f5 32       		.byte	0x32
 1502 09f6 DA080000 		.4byte	0x8da
 1503 09fa 01       		.byte	0x1
 1504 09fb 01       		.byte	0x1
 1505 09fc 00       		.byte	0
 1506              		.section	.debug_abbrev,"",%progbits
 1507              	.Ldebug_abbrev0:
 1508 0000 01       		.uleb128 0x1
 1509 0001 11       		.uleb128 0x11
 1510 0002 01       		.byte	0x1
 1511 0003 25       		.uleb128 0x25
 1512 0004 0E       		.uleb128 0xe
 1513 0005 13       		.uleb128 0x13
 1514 0006 0B       		.uleb128 0xb
 1515 0007 03       		.uleb128 0x3
 1516 0008 0E       		.uleb128 0xe
 1517 0009 1B       		.uleb128 0x1b
 1518 000a 0E       		.uleb128 0xe
 1519 000b 11       		.uleb128 0x11
 1520 000c 01       		.uleb128 0x1
 1521 000d 52       		.uleb128 0x52
 1522 000e 01       		.uleb128 0x1
 1523 000f 55       		.uleb128 0x55
 1524 0010 06       		.uleb128 0x6
 1525 0011 10       		.uleb128 0x10
 1526 0012 06       		.uleb128 0x6
 1527 0013 00       		.byte	0
ARM GAS  /tmp/ccXZYxI7.s 			page 28


 1528 0014 00       		.byte	0
 1529 0015 02       		.uleb128 0x2
 1530 0016 24       		.uleb128 0x24
 1531 0017 00       		.byte	0
 1532 0018 0B       		.uleb128 0xb
 1533 0019 0B       		.uleb128 0xb
 1534 001a 3E       		.uleb128 0x3e
 1535 001b 0B       		.uleb128 0xb
 1536 001c 03       		.uleb128 0x3
 1537 001d 08       		.uleb128 0x8
 1538 001e 00       		.byte	0
 1539 001f 00       		.byte	0
 1540 0020 03       		.uleb128 0x3
 1541 0021 16       		.uleb128 0x16
 1542 0022 00       		.byte	0
 1543 0023 03       		.uleb128 0x3
 1544 0024 0E       		.uleb128 0xe
 1545 0025 3A       		.uleb128 0x3a
 1546 0026 0B       		.uleb128 0xb
 1547 0027 3B       		.uleb128 0x3b
 1548 0028 0B       		.uleb128 0xb
 1549 0029 49       		.uleb128 0x49
 1550 002a 13       		.uleb128 0x13
 1551 002b 00       		.byte	0
 1552 002c 00       		.byte	0
 1553 002d 04       		.uleb128 0x4
 1554 002e 24       		.uleb128 0x24
 1555 002f 00       		.byte	0
 1556 0030 0B       		.uleb128 0xb
 1557 0031 0B       		.uleb128 0xb
 1558 0032 3E       		.uleb128 0x3e
 1559 0033 0B       		.uleb128 0xb
 1560 0034 03       		.uleb128 0x3
 1561 0035 0E       		.uleb128 0xe
 1562 0036 00       		.byte	0
 1563 0037 00       		.byte	0
 1564 0038 05       		.uleb128 0x5
 1565 0039 13       		.uleb128 0x13
 1566 003a 01       		.byte	0x1
 1567 003b 03       		.uleb128 0x3
 1568 003c 0E       		.uleb128 0xe
 1569 003d 0B       		.uleb128 0xb
 1570 003e 0B       		.uleb128 0xb
 1571 003f 3A       		.uleb128 0x3a
 1572 0040 0B       		.uleb128 0xb
 1573 0041 3B       		.uleb128 0x3b
 1574 0042 0B       		.uleb128 0xb
 1575 0043 01       		.uleb128 0x1
 1576 0044 13       		.uleb128 0x13
 1577 0045 00       		.byte	0
 1578 0046 00       		.byte	0
 1579 0047 06       		.uleb128 0x6
 1580 0048 0D       		.uleb128 0xd
 1581 0049 00       		.byte	0
 1582 004a 03       		.uleb128 0x3
 1583 004b 0E       		.uleb128 0xe
 1584 004c 3A       		.uleb128 0x3a
ARM GAS  /tmp/ccXZYxI7.s 			page 29


 1585 004d 0B       		.uleb128 0xb
 1586 004e 3B       		.uleb128 0x3b
 1587 004f 0B       		.uleb128 0xb
 1588 0050 49       		.uleb128 0x49
 1589 0051 13       		.uleb128 0x13
 1590 0052 38       		.uleb128 0x38
 1591 0053 0A       		.uleb128 0xa
 1592 0054 00       		.byte	0
 1593 0055 00       		.byte	0
 1594 0056 07       		.uleb128 0x7
 1595 0057 0D       		.uleb128 0xd
 1596 0058 00       		.byte	0
 1597 0059 03       		.uleb128 0x3
 1598 005a 08       		.uleb128 0x8
 1599 005b 3A       		.uleb128 0x3a
 1600 005c 0B       		.uleb128 0xb
 1601 005d 3B       		.uleb128 0x3b
 1602 005e 0B       		.uleb128 0xb
 1603 005f 49       		.uleb128 0x49
 1604 0060 13       		.uleb128 0x13
 1605 0061 38       		.uleb128 0x38
 1606 0062 0A       		.uleb128 0xa
 1607 0063 00       		.byte	0
 1608 0064 00       		.byte	0
 1609 0065 08       		.uleb128 0x8
 1610 0066 13       		.uleb128 0x13
 1611 0067 01       		.byte	0x1
 1612 0068 0B       		.uleb128 0xb
 1613 0069 0B       		.uleb128 0xb
 1614 006a 3A       		.uleb128 0x3a
 1615 006b 0B       		.uleb128 0xb
 1616 006c 3B       		.uleb128 0x3b
 1617 006d 0B       		.uleb128 0xb
 1618 006e 01       		.uleb128 0x1
 1619 006f 13       		.uleb128 0x13
 1620 0070 00       		.byte	0
 1621 0071 00       		.byte	0
 1622 0072 09       		.uleb128 0x9
 1623 0073 0F       		.uleb128 0xf
 1624 0074 00       		.byte	0
 1625 0075 0B       		.uleb128 0xb
 1626 0076 0B       		.uleb128 0xb
 1627 0077 49       		.uleb128 0x49
 1628 0078 13       		.uleb128 0x13
 1629 0079 00       		.byte	0
 1630 007a 00       		.byte	0
 1631 007b 0A       		.uleb128 0xa
 1632 007c 0F       		.uleb128 0xf
 1633 007d 00       		.byte	0
 1634 007e 0B       		.uleb128 0xb
 1635 007f 0B       		.uleb128 0xb
 1636 0080 00       		.byte	0
 1637 0081 00       		.byte	0
 1638 0082 0B       		.uleb128 0xb
 1639 0083 0D       		.uleb128 0xd
 1640 0084 00       		.byte	0
 1641 0085 03       		.uleb128 0x3
ARM GAS  /tmp/ccXZYxI7.s 			page 30


 1642 0086 08       		.uleb128 0x8
 1643 0087 3A       		.uleb128 0x3a
 1644 0088 0B       		.uleb128 0xb
 1645 0089 3B       		.uleb128 0x3b
 1646 008a 05       		.uleb128 0x5
 1647 008b 49       		.uleb128 0x49
 1648 008c 13       		.uleb128 0x13
 1649 008d 38       		.uleb128 0x38
 1650 008e 0A       		.uleb128 0xa
 1651 008f 00       		.byte	0
 1652 0090 00       		.byte	0
 1653 0091 0C       		.uleb128 0xc
 1654 0092 13       		.uleb128 0x13
 1655 0093 01       		.byte	0x1
 1656 0094 03       		.uleb128 0x3
 1657 0095 0E       		.uleb128 0xe
 1658 0096 0B       		.uleb128 0xb
 1659 0097 0B       		.uleb128 0xb
 1660 0098 3A       		.uleb128 0x3a
 1661 0099 0B       		.uleb128 0xb
 1662 009a 3B       		.uleb128 0x3b
 1663 009b 05       		.uleb128 0x5
 1664 009c 01       		.uleb128 0x1
 1665 009d 13       		.uleb128 0x13
 1666 009e 00       		.byte	0
 1667 009f 00       		.byte	0
 1668 00a0 0D       		.uleb128 0xd
 1669 00a1 35       		.uleb128 0x35
 1670 00a2 00       		.byte	0
 1671 00a3 49       		.uleb128 0x49
 1672 00a4 13       		.uleb128 0x13
 1673 00a5 00       		.byte	0
 1674 00a6 00       		.byte	0
 1675 00a7 0E       		.uleb128 0xe
 1676 00a8 17       		.uleb128 0x17
 1677 00a9 01       		.byte	0x1
 1678 00aa 0B       		.uleb128 0xb
 1679 00ab 0B       		.uleb128 0xb
 1680 00ac 3A       		.uleb128 0x3a
 1681 00ad 0B       		.uleb128 0xb
 1682 00ae 3B       		.uleb128 0x3b
 1683 00af 0B       		.uleb128 0xb
 1684 00b0 01       		.uleb128 0x1
 1685 00b1 13       		.uleb128 0x13
 1686 00b2 00       		.byte	0
 1687 00b3 00       		.byte	0
 1688 00b4 0F       		.uleb128 0xf
 1689 00b5 0D       		.uleb128 0xd
 1690 00b6 00       		.byte	0
 1691 00b7 03       		.uleb128 0x3
 1692 00b8 0E       		.uleb128 0xe
 1693 00b9 3A       		.uleb128 0x3a
 1694 00ba 0B       		.uleb128 0xb
 1695 00bb 3B       		.uleb128 0x3b
 1696 00bc 0B       		.uleb128 0xb
 1697 00bd 49       		.uleb128 0x49
 1698 00be 13       		.uleb128 0x13
ARM GAS  /tmp/ccXZYxI7.s 			page 31


 1699 00bf 00       		.byte	0
 1700 00c0 00       		.byte	0
 1701 00c1 10       		.uleb128 0x10
 1702 00c2 26       		.uleb128 0x26
 1703 00c3 00       		.byte	0
 1704 00c4 49       		.uleb128 0x49
 1705 00c5 13       		.uleb128 0x13
 1706 00c6 00       		.byte	0
 1707 00c7 00       		.byte	0
 1708 00c8 11       		.uleb128 0x11
 1709 00c9 13       		.uleb128 0x13
 1710 00ca 01       		.byte	0x1
 1711 00cb 0B       		.uleb128 0xb
 1712 00cc 0B       		.uleb128 0xb
 1713 00cd 3A       		.uleb128 0x3a
 1714 00ce 0B       		.uleb128 0xb
 1715 00cf 3B       		.uleb128 0x3b
 1716 00d0 05       		.uleb128 0x5
 1717 00d1 01       		.uleb128 0x1
 1718 00d2 13       		.uleb128 0x13
 1719 00d3 00       		.byte	0
 1720 00d4 00       		.byte	0
 1721 00d5 12       		.uleb128 0x12
 1722 00d6 0D       		.uleb128 0xd
 1723 00d7 00       		.byte	0
 1724 00d8 03       		.uleb128 0x3
 1725 00d9 0E       		.uleb128 0xe
 1726 00da 3A       		.uleb128 0x3a
 1727 00db 0B       		.uleb128 0xb
 1728 00dc 3B       		.uleb128 0x3b
 1729 00dd 05       		.uleb128 0x5
 1730 00de 49       		.uleb128 0x49
 1731 00df 13       		.uleb128 0x13
 1732 00e0 38       		.uleb128 0x38
 1733 00e1 0A       		.uleb128 0xa
 1734 00e2 00       		.byte	0
 1735 00e3 00       		.byte	0
 1736 00e4 13       		.uleb128 0x13
 1737 00e5 16       		.uleb128 0x16
 1738 00e6 00       		.byte	0
 1739 00e7 03       		.uleb128 0x3
 1740 00e8 0E       		.uleb128 0xe
 1741 00e9 3A       		.uleb128 0x3a
 1742 00ea 0B       		.uleb128 0xb
 1743 00eb 3B       		.uleb128 0x3b
 1744 00ec 05       		.uleb128 0x5
 1745 00ed 49       		.uleb128 0x49
 1746 00ee 13       		.uleb128 0x13
 1747 00ef 00       		.byte	0
 1748 00f0 00       		.byte	0
 1749 00f1 14       		.uleb128 0x14
 1750 00f2 04       		.uleb128 0x4
 1751 00f3 01       		.byte	0x1
 1752 00f4 0B       		.uleb128 0xb
 1753 00f5 0B       		.uleb128 0xb
 1754 00f6 3A       		.uleb128 0x3a
 1755 00f7 0B       		.uleb128 0xb
ARM GAS  /tmp/ccXZYxI7.s 			page 32


 1756 00f8 3B       		.uleb128 0x3b
 1757 00f9 0B       		.uleb128 0xb
 1758 00fa 01       		.uleb128 0x1
 1759 00fb 13       		.uleb128 0x13
 1760 00fc 00       		.byte	0
 1761 00fd 00       		.byte	0
 1762 00fe 15       		.uleb128 0x15
 1763 00ff 28       		.uleb128 0x28
 1764 0100 00       		.byte	0
 1765 0101 03       		.uleb128 0x3
 1766 0102 0E       		.uleb128 0xe
 1767 0103 1C       		.uleb128 0x1c
 1768 0104 0D       		.uleb128 0xd
 1769 0105 00       		.byte	0
 1770 0106 00       		.byte	0
 1771 0107 16       		.uleb128 0x16
 1772 0108 04       		.uleb128 0x4
 1773 0109 01       		.byte	0x1
 1774 010a 0B       		.uleb128 0xb
 1775 010b 0B       		.uleb128 0xb
 1776 010c 3A       		.uleb128 0x3a
 1777 010d 0B       		.uleb128 0xb
 1778 010e 3B       		.uleb128 0x3b
 1779 010f 05       		.uleb128 0x5
 1780 0110 01       		.uleb128 0x1
 1781 0111 13       		.uleb128 0x13
 1782 0112 00       		.byte	0
 1783 0113 00       		.byte	0
 1784 0114 17       		.uleb128 0x17
 1785 0115 15       		.uleb128 0x15
 1786 0116 01       		.byte	0x1
 1787 0117 27       		.uleb128 0x27
 1788 0118 0C       		.uleb128 0xc
 1789 0119 01       		.uleb128 0x1
 1790 011a 13       		.uleb128 0x13
 1791 011b 00       		.byte	0
 1792 011c 00       		.byte	0
 1793 011d 18       		.uleb128 0x18
 1794 011e 05       		.uleb128 0x5
 1795 011f 00       		.byte	0
 1796 0120 49       		.uleb128 0x49
 1797 0121 13       		.uleb128 0x13
 1798 0122 00       		.byte	0
 1799 0123 00       		.byte	0
 1800 0124 19       		.uleb128 0x19
 1801 0125 01       		.uleb128 0x1
 1802 0126 01       		.byte	0x1
 1803 0127 49       		.uleb128 0x49
 1804 0128 13       		.uleb128 0x13
 1805 0129 01       		.uleb128 0x1
 1806 012a 13       		.uleb128 0x13
 1807 012b 00       		.byte	0
 1808 012c 00       		.byte	0
 1809 012d 1A       		.uleb128 0x1a
 1810 012e 21       		.uleb128 0x21
 1811 012f 00       		.byte	0
 1812 0130 49       		.uleb128 0x49
ARM GAS  /tmp/ccXZYxI7.s 			page 33


 1813 0131 13       		.uleb128 0x13
 1814 0132 2F       		.uleb128 0x2f
 1815 0133 0B       		.uleb128 0xb
 1816 0134 00       		.byte	0
 1817 0135 00       		.byte	0
 1818 0136 1B       		.uleb128 0x1b
 1819 0137 2E       		.uleb128 0x2e
 1820 0138 01       		.byte	0x1
 1821 0139 03       		.uleb128 0x3
 1822 013a 0E       		.uleb128 0xe
 1823 013b 3A       		.uleb128 0x3a
 1824 013c 0B       		.uleb128 0xb
 1825 013d 3B       		.uleb128 0x3b
 1826 013e 0B       		.uleb128 0xb
 1827 013f 27       		.uleb128 0x27
 1828 0140 0C       		.uleb128 0xc
 1829 0141 49       		.uleb128 0x49
 1830 0142 13       		.uleb128 0x13
 1831 0143 11       		.uleb128 0x11
 1832 0144 01       		.uleb128 0x1
 1833 0145 12       		.uleb128 0x12
 1834 0146 01       		.uleb128 0x1
 1835 0147 40       		.uleb128 0x40
 1836 0148 06       		.uleb128 0x6
 1837 0149 01       		.uleb128 0x1
 1838 014a 13       		.uleb128 0x13
 1839 014b 00       		.byte	0
 1840 014c 00       		.byte	0
 1841 014d 1C       		.uleb128 0x1c
 1842 014e 05       		.uleb128 0x5
 1843 014f 00       		.byte	0
 1844 0150 03       		.uleb128 0x3
 1845 0151 08       		.uleb128 0x8
 1846 0152 3A       		.uleb128 0x3a
 1847 0153 0B       		.uleb128 0xb
 1848 0154 3B       		.uleb128 0x3b
 1849 0155 0B       		.uleb128 0xb
 1850 0156 49       		.uleb128 0x49
 1851 0157 13       		.uleb128 0x13
 1852 0158 02       		.uleb128 0x2
 1853 0159 06       		.uleb128 0x6
 1854 015a 00       		.byte	0
 1855 015b 00       		.byte	0
 1856 015c 1D       		.uleb128 0x1d
 1857 015d 34       		.uleb128 0x34
 1858 015e 00       		.byte	0
 1859 015f 03       		.uleb128 0x3
 1860 0160 08       		.uleb128 0x8
 1861 0161 3A       		.uleb128 0x3a
 1862 0162 0B       		.uleb128 0xb
 1863 0163 3B       		.uleb128 0x3b
 1864 0164 0B       		.uleb128 0xb
 1865 0165 49       		.uleb128 0x49
 1866 0166 13       		.uleb128 0x13
 1867 0167 02       		.uleb128 0x2
 1868 0168 0A       		.uleb128 0xa
 1869 0169 00       		.byte	0
ARM GAS  /tmp/ccXZYxI7.s 			page 34


 1870 016a 00       		.byte	0
 1871 016b 1E       		.uleb128 0x1e
 1872 016c 2E       		.uleb128 0x2e
 1873 016d 00       		.byte	0
 1874 016e 3F       		.uleb128 0x3f
 1875 016f 0C       		.uleb128 0xc
 1876 0170 03       		.uleb128 0x3
 1877 0171 0E       		.uleb128 0xe
 1878 0172 3A       		.uleb128 0x3a
 1879 0173 0B       		.uleb128 0xb
 1880 0174 3B       		.uleb128 0x3b
 1881 0175 0B       		.uleb128 0xb
 1882 0176 27       		.uleb128 0x27
 1883 0177 0C       		.uleb128 0xc
 1884 0178 11       		.uleb128 0x11
 1885 0179 01       		.uleb128 0x1
 1886 017a 12       		.uleb128 0x12
 1887 017b 01       		.uleb128 0x1
 1888 017c 40       		.uleb128 0x40
 1889 017d 06       		.uleb128 0x6
 1890 017e 00       		.byte	0
 1891 017f 00       		.byte	0
 1892 0180 1F       		.uleb128 0x1f
 1893 0181 34       		.uleb128 0x34
 1894 0182 00       		.byte	0
 1895 0183 03       		.uleb128 0x3
 1896 0184 0E       		.uleb128 0xe
 1897 0185 3A       		.uleb128 0x3a
 1898 0186 0B       		.uleb128 0xb
 1899 0187 3B       		.uleb128 0x3b
 1900 0188 0B       		.uleb128 0xb
 1901 0189 49       		.uleb128 0x49
 1902 018a 13       		.uleb128 0x13
 1903 018b 02       		.uleb128 0x2
 1904 018c 0A       		.uleb128 0xa
 1905 018d 00       		.byte	0
 1906 018e 00       		.byte	0
 1907 018f 20       		.uleb128 0x20
 1908 0190 34       		.uleb128 0x34
 1909 0191 00       		.byte	0
 1910 0192 03       		.uleb128 0x3
 1911 0193 0E       		.uleb128 0xe
 1912 0194 3A       		.uleb128 0x3a
 1913 0195 0B       		.uleb128 0xb
 1914 0196 3B       		.uleb128 0x3b
 1915 0197 05       		.uleb128 0x5
 1916 0198 49       		.uleb128 0x49
 1917 0199 13       		.uleb128 0x13
 1918 019a 3F       		.uleb128 0x3f
 1919 019b 0C       		.uleb128 0xc
 1920 019c 3C       		.uleb128 0x3c
 1921 019d 0C       		.uleb128 0xc
 1922 019e 00       		.byte	0
 1923 019f 00       		.byte	0
 1924 01a0 21       		.uleb128 0x21
 1925 01a1 34       		.uleb128 0x34
 1926 01a2 00       		.byte	0
ARM GAS  /tmp/ccXZYxI7.s 			page 35


 1927 01a3 03       		.uleb128 0x3
 1928 01a4 0E       		.uleb128 0xe
 1929 01a5 3A       		.uleb128 0x3a
 1930 01a6 0B       		.uleb128 0xb
 1931 01a7 3B       		.uleb128 0x3b
 1932 01a8 0B       		.uleb128 0xb
 1933 01a9 49       		.uleb128 0x49
 1934 01aa 13       		.uleb128 0x13
 1935 01ab 3F       		.uleb128 0x3f
 1936 01ac 0C       		.uleb128 0xc
 1937 01ad 3C       		.uleb128 0x3c
 1938 01ae 0C       		.uleb128 0xc
 1939 01af 00       		.byte	0
 1940 01b0 00       		.byte	0
 1941 01b1 00       		.byte	0
 1942              		.section	.debug_loc,"",%progbits
 1943              	.Ldebug_loc0:
 1944              	.LLST0:
 1945 0000 00000000 		.4byte	.LFB117
 1946 0004 02000000 		.4byte	.LCFI0
 1947 0008 0200     		.2byte	0x2
 1948 000a 7D       		.byte	0x7d
 1949 000b 00       		.sleb128 0
 1950 000c 02000000 		.4byte	.LCFI0
 1951 0010 08000000 		.4byte	.LCFI1
 1952 0014 0200     		.2byte	0x2
 1953 0016 7D       		.byte	0x7d
 1954 0017 0C       		.sleb128 12
 1955 0018 08000000 		.4byte	.LCFI1
 1956 001c 68000000 		.4byte	.LFE117
 1957 0020 0300     		.2byte	0x3
 1958 0022 7D       		.byte	0x7d
 1959 0023 C000     		.sleb128 64
 1960 0025 00000000 		.4byte	0
 1961 0029 00000000 		.4byte	0
 1962              	.LLST1:
 1963 002d 00000000 		.4byte	.LVL0
 1964 0031 06000000 		.4byte	.LVL1
 1965 0035 0100     		.2byte	0x1
 1966 0037 50       		.byte	0x50
 1967 0038 00000000 		.4byte	0
 1968 003c 00000000 		.4byte	0
 1969              	.LLST2:
 1970 0040 00000000 		.4byte	.LFB118
 1971 0044 02000000 		.4byte	.LCFI2
 1972 0048 0200     		.2byte	0x2
 1973 004a 7D       		.byte	0x7d
 1974 004b 00       		.sleb128 0
 1975 004c 02000000 		.4byte	.LCFI2
 1976 0050 08000000 		.4byte	.LCFI3
 1977 0054 0200     		.2byte	0x2
 1978 0056 7D       		.byte	0x7d
 1979 0057 08       		.sleb128 8
 1980 0058 08000000 		.4byte	.LCFI3
 1981 005c 26000000 		.4byte	.LFE118
 1982 0060 0200     		.2byte	0x2
 1983 0062 7D       		.byte	0x7d
ARM GAS  /tmp/ccXZYxI7.s 			page 36


 1984 0063 10       		.sleb128 16
 1985 0064 00000000 		.4byte	0
 1986 0068 00000000 		.4byte	0
 1987              		.section	.debug_aranges,"",%progbits
 1988 0000 24000000 		.4byte	0x24
 1989 0004 0200     		.2byte	0x2
 1990 0006 00000000 		.4byte	.Ldebug_info0
 1991 000a 04       		.byte	0x4
 1992 000b 00       		.byte	0
 1993 000c 0000     		.2byte	0
 1994 000e 0000     		.2byte	0
 1995 0010 00000000 		.4byte	.LFB117
 1996 0014 68000000 		.4byte	.LFE117-.LFB117
 1997 0018 00000000 		.4byte	.LFB118
 1998 001c 26000000 		.4byte	.LFE118-.LFB118
 1999 0020 00000000 		.4byte	0
 2000 0024 00000000 		.4byte	0
 2001              		.section	.debug_ranges,"",%progbits
 2002              	.Ldebug_ranges0:
 2003 0000 00000000 		.4byte	.LFB117
 2004 0004 68000000 		.4byte	.LFE117
 2005 0008 00000000 		.4byte	.LFB118
 2006 000c 26000000 		.4byte	.LFE118
 2007 0010 00000000 		.4byte	0
 2008 0014 00000000 		.4byte	0
 2009              		.section	.debug_line,"",%progbits
 2010              	.Ldebug_line0:
 2011 0000 AE020000 		.section	.debug_str,"MS",%progbits,1
 2011      02006F02 
 2011      00000201 
 2011      FB0E0D00 
 2011      01010101 
 2012              	.LASF73:
 2013 0000 4D304152 		.ascii	"M0AR\000"
 2013      00
 2014              	.LASF2:
 2015 0005 73697A65 		.ascii	"size_t\000"
 2015      5F7400
 2016              	.LASF52:
 2017 000c 7264796D 		.ascii	"rdymsg\000"
 2017      736700
 2018              	.LASF128:
 2019 0013 6164635F 		.ascii	"adc_grpcfg\000"
 2019      67727063 
 2019      666700
 2020              	.LASF103:
 2021 001e 646D616D 		.ascii	"dmamode\000"
 2021      6F646500 
 2022              	.LASF126:
 2023 0026 49724461 		.ascii	"IrData\000"
 2023      746100
 2024              	.LASF88:
 2025 002d 61646373 		.ascii	"adcstate_t\000"
 2025      74617465 
 2025      5F7400
 2026              	.LASF80:
 2027 0038 76656374 		.ascii	"vector\000"
ARM GAS  /tmp/ccXZYxI7.s 			page 37


 2027      6F7200
 2028              	.LASF127:
 2029 003f 69725F64 		.ascii	"ir_data\000"
 2029      61746100 
 2030              	.LASF76:
 2031 0047 73747265 		.ascii	"stream\000"
 2031      616D00
 2032              	.LASF135:
 2033 004e 2F686F6D 		.ascii	"/home/mikel/workspace/ros/PacBot/PacBot/FirmwareWit"
 2033      652F6D69 
 2033      6B656C2F 
 2033      776F726B 
 2033      73706163 
 2034 0081 68495200 		.ascii	"hIR\000"
 2035              	.LASF123:
 2036 0085 736F7574 		.ascii	"south\000"
 2036      6800
 2037              	.LASF14:
 2038 008b 6C6F6E67 		.ascii	"long long unsigned int\000"
 2038      206C6F6E 
 2038      6720756E 
 2038      7369676E 
 2038      65642069 
 2039              	.LASF53:
 2040 00a2 65786974 		.ascii	"exitcode\000"
 2040      636F6465 
 2040      00
 2041              	.LASF82:
 2042 00ab 4144435F 		.ascii	"ADC_UNINIT\000"
 2042      554E494E 
 2042      495400
 2043              	.LASF130:
 2044 00b6 49544D5F 		.ascii	"ITM_RxBuffer\000"
 2044      52784275 
 2044      66666572 
 2044      00
 2045              	.LASF26:
 2046 00c3 705F7072 		.ascii	"p_prio\000"
 2046      696F00
 2047              	.LASF66:
 2048 00ca 4A535152 		.ascii	"JSQR\000"
 2048      00
 2049              	.LASF12:
 2050 00cf 6C6F6E67 		.ascii	"long long int\000"
 2050      206C6F6E 
 2050      6720696E 
 2050      7400
 2051              	.LASF1:
 2052 00dd 7369676E 		.ascii	"signed char\000"
 2052      65642063 
 2052      68617200 
 2053              	.LASF41:
 2054 00e9 705F6D70 		.ascii	"p_mpool\000"
 2054      6F6F6C00 
 2055              	.LASF15:
 2056 00f1 626F6F6C 		.ascii	"bool_t\000"
 2056      5F7400
ARM GAS  /tmp/ccXZYxI7.s 			page 38


 2057              	.LASF49:
 2058 00f8 6D5F7175 		.ascii	"m_queue\000"
 2058      65756500 
 2059              	.LASF93:
 2060 0100 61646365 		.ascii	"adcerror_t\000"
 2060      72726F72 
 2060      5F7400
 2061              	.LASF102:
 2062 010b 646D6173 		.ascii	"dmastp\000"
 2062      747000
 2063              	.LASF95:
 2064 0112 73746174 		.ascii	"state\000"
 2064      6500
 2065              	.LASF106:
 2066 0118 63697263 		.ascii	"circular\000"
 2066      756C6172 
 2066      00
 2067              	.LASF9:
 2068 0121 6C6F6E67 		.ascii	"long int\000"
 2068      20696E74 
 2068      00
 2069              	.LASF91:
 2070 012a 4144435F 		.ascii	"ADC_ERR_DMAFAILURE\000"
 2070      4552525F 
 2070      444D4146 
 2070      41494C55 
 2070      524500
 2071              	.LASF105:
 2072 013d 61646365 		.ascii	"adcerrorcallback_t\000"
 2072      72726F72 
 2072      63616C6C 
 2072      6261636B 
 2072      5F7400
 2073              	.LASF17:
 2074 0150 74737461 		.ascii	"tstate_t\000"
 2074      74655F74 
 2074      00
 2075              	.LASF100:
 2076 0159 74687265 		.ascii	"thread\000"
 2076      616400
 2077              	.LASF122:
 2078 0160 6E6F7274 		.ascii	"north\000"
 2078      6800
 2079              	.LASF6:
 2080 0166 75696E74 		.ascii	"uint16_t\000"
 2080      31365F74 
 2080      00
 2081              	.LASF34:
 2082 016f 705F7469 		.ascii	"p_time\000"
 2082      6D6500
 2083              	.LASF71:
 2084 0176 4144435F 		.ascii	"ADC_TypeDef\000"
 2084      54797065 
 2084      44656600 
 2085              	.LASF28:
 2086 0182 705F6E65 		.ascii	"p_newer\000"
 2086      77657200 
ARM GAS  /tmp/ccXZYxI7.s 			page 39


 2087              	.LASF108:
 2088 018a 656E645F 		.ascii	"end_cb\000"
 2088      636200
 2089              	.LASF104:
 2090 0191 61646363 		.ascii	"adccallback_t\000"
 2090      616C6C62 
 2090      61636B5F 
 2090      7400
 2091              	.LASF89:
 2092 019f 61646373 		.ascii	"adcsample_t\000"
 2092      616D706C 
 2092      655F7400 
 2093              	.LASF44:
 2094 01ab 72656761 		.ascii	"regarm_t\000"
 2094      726D5F74 
 2094      00
 2095              	.LASF79:
 2096 01b4 73656C66 		.ascii	"selfindex\000"
 2096      696E6465 
 2096      7800
 2097              	.LASF116:
 2098 01be 64756D6D 		.ascii	"dummy\000"
 2098      7900
 2099              	.LASF92:
 2100 01c4 4144435F 		.ascii	"ADC_ERR_OVERFLOW\000"
 2100      4552525F 
 2100      4F564552 
 2100      464C4F57 
 2100      00
 2101              	.LASF85:
 2102 01d5 4144435F 		.ascii	"ADC_ACTIVE\000"
 2102      41435449 
 2102      564500
 2103              	.LASF0:
 2104 01e0 756E7369 		.ascii	"unsigned int\000"
 2104      676E6564 
 2104      20696E74 
 2104      00
 2105              	.LASF136:
 2106 01ed 69725468 		.ascii	"irThread\000"
 2106      72656164 
 2106      00
 2107              	.LASF36:
 2108 01f6 705F6D73 		.ascii	"p_msgqueue\000"
 2108      67717565 
 2108      756500
 2109              	.LASF94:
 2110 0201 41444344 		.ascii	"ADCDriver\000"
 2110      72697665 
 2110      7200
 2111              	.LASF78:
 2112 020b 69736869 		.ascii	"ishift\000"
 2112      667400
 2113              	.LASF7:
 2114 0212 73686F72 		.ascii	"short unsigned int\000"
 2114      7420756E 
 2114      7369676E 
ARM GAS  /tmp/ccXZYxI7.s 			page 40


 2114      65642069 
 2114      6E7400
 2115              	.LASF84:
 2116 0225 4144435F 		.ascii	"ADC_READY\000"
 2116      52454144 
 2116      5900
 2117              	.LASF98:
 2118 022f 64657074 		.ascii	"depth\000"
 2118      6800
 2119              	.LASF20:
 2120 0235 6D73675F 		.ascii	"msg_t\000"
 2120      7400
 2121              	.LASF16:
 2122 023b 746D6F64 		.ascii	"tmode_t\000"
 2122      655F7400 
 2123              	.LASF107:
 2124 0243 6E756D5F 		.ascii	"num_channels\000"
 2124      6368616E 
 2124      6E656C73 
 2124      00
 2125              	.LASF43:
 2126 0250 54687265 		.ascii	"ThreadsList\000"
 2126      6164734C 
 2126      69737400 
 2127              	.LASF21:
 2128 025c 6576656E 		.ascii	"eventmask_t\000"
 2128      746D6173 
 2128      6B5F7400 
 2129              	.LASF45:
 2130 0268 73746B61 		.ascii	"stkalign_t\000"
 2130      6C69676E 
 2130      5F7400
 2131              	.LASF137:
 2132 0273 73746172 		.ascii	"startIrThread\000"
 2132      74497254 
 2132      68726561 
 2132      6400
 2133              	.LASF99:
 2134 0281 67727070 		.ascii	"grpp\000"
 2134      00
 2135              	.LASF59:
 2136 0286 4A4F4652 		.ascii	"JOFR1\000"
 2136      3100
 2137              	.LASF60:
 2138 028c 4A4F4652 		.ascii	"JOFR2\000"
 2138      3200
 2139              	.LASF61:
 2140 0292 4A4F4652 		.ascii	"JOFR3\000"
 2140      3300
 2141              	.LASF97:
 2142 0298 73616D70 		.ascii	"samples\000"
 2142      6C657300 
 2143              	.LASF120:
 2144 02a0 636F6E74 		.ascii	"content\000"
 2144      656E7400 
 2145              	.LASF48:
 2146 02a8 4D757465 		.ascii	"Mutex\000"
ARM GAS  /tmp/ccXZYxI7.s 			page 41


 2146      7800
 2147              	.LASF83:
 2148 02ae 4144435F 		.ascii	"ADC_STOP\000"
 2148      53544F50 
 2148      00
 2149              	.LASF13:
 2150 02b7 75696E74 		.ascii	"uint64_t\000"
 2150      36345F74 
 2150      00
 2151              	.LASF29:
 2152 02c0 705F6F6C 		.ascii	"p_older\000"
 2152      64657200 
 2153              	.LASF42:
 2154 02c8 54687265 		.ascii	"ThreadsQueue\000"
 2154      61647351 
 2154      75657565 
 2154      00
 2155              	.LASF57:
 2156 02d5 534D5052 		.ascii	"SMPR1\000"
 2156      3100
 2157              	.LASF58:
 2158 02db 534D5052 		.ascii	"SMPR2\000"
 2158      3200
 2159              	.LASF51:
 2160 02e1 6D5F6E65 		.ascii	"m_next\000"
 2160      787400
 2161              	.LASF63:
 2162 02e8 53515231 		.ascii	"SQR1\000"
 2162      00
 2163              	.LASF64:
 2164 02ed 53515232 		.ascii	"SQR2\000"
 2164      00
 2165              	.LASF65:
 2166 02f2 53515233 		.ascii	"SQR3\000"
 2166      00
 2167              	.LASF18:
 2168 02f7 74726566 		.ascii	"trefs_t\000"
 2168      735F7400 
 2169              	.LASF25:
 2170 02ff 705F7072 		.ascii	"p_prev\000"
 2170      657600
 2171              	.LASF81:
 2172 0306 73746D33 		.ascii	"stm32_dma_stream_t\000"
 2172      325F646D 
 2172      615F7374 
 2172      7265616D 
 2172      5F7400
 2173              	.LASF19:
 2174 0319 74707269 		.ascii	"tprio_t\000"
 2174      6F5F7400 
 2175              	.LASF101:
 2176 0321 6D757465 		.ascii	"mutex\000"
 2176      7800
 2177              	.LASF8:
 2178 0327 696E7433 		.ascii	"int32_t\000"
 2178      325F7400 
 2179              	.LASF4:
ARM GAS  /tmp/ccXZYxI7.s 			page 42


 2180 032f 756E7369 		.ascii	"unsigned char\000"
 2180      676E6564 
 2180      20636861 
 2180      7200
 2181              	.LASF121:
 2182 033d 43697263 		.ascii	"CircularBuffer\000"
 2182      756C6172 
 2182      42756666 
 2182      657200
 2183              	.LASF39:
 2184 034c 705F6D74 		.ascii	"p_mtxlist\000"
 2184      786C6973 
 2184      7400
 2185              	.LASF5:
 2186 0356 73686F72 		.ascii	"short int\000"
 2186      7420696E 
 2186      7400
 2187              	.LASF31:
 2188 0360 705F7374 		.ascii	"p_state\000"
 2188      61746500 
 2189              	.LASF109:
 2190 0368 6572726F 		.ascii	"error_cb\000"
 2190      725F6362 
 2190      00
 2191              	.LASF55:
 2192 0371 65776D61 		.ascii	"ewmask\000"
 2192      736B00
 2193              	.LASF24:
 2194 0378 705F6E65 		.ascii	"p_next\000"
 2194      787400
 2195              	.LASF32:
 2196 037f 705F666C 		.ascii	"p_flags\000"
 2196      61677300 
 2197              	.LASF62:
 2198 0387 4A4F4652 		.ascii	"JOFR4\000"
 2198      3400
 2199              	.LASF23:
 2200 038d 54687265 		.ascii	"Thread\000"
 2200      616400
 2201              	.LASF118:
 2202 0394 43697263 		.ascii	"CircularBuffer_s\000"
 2202      756C6172 
 2202      42756666 
 2202      65725F73 
 2202      00
 2203              	.LASF38:
 2204 03a5 705F6570 		.ascii	"p_epending\000"
 2204      656E6469 
 2204      6E6700
 2205              	.LASF77:
 2206 03b0 69666372 		.ascii	"ifcr\000"
 2206      00
 2207              	.LASF132:
 2208 03b5 6F757470 		.ascii	"outputBuffer\000"
 2208      75744275 
 2208      66666572 
 2208      00
ARM GAS  /tmp/ccXZYxI7.s 			page 43


 2209              	.LASF131:
 2210 03c2 41444344 		.ascii	"ADCD1\000"
 2210      3100
 2211              	.LASF117:
 2212 03c8 41444343 		.ascii	"ADCConfig\000"
 2212      6F6E6669 
 2212      6700
 2213              	.LASF134:
 2214 03d2 2E2F7372 		.ascii	"./src/ir.c\000"
 2214      632F6972 
 2214      2E6300
 2215              	.LASF133:
 2216 03dd 474E5520 		.ascii	"GNU C 4.6.3\000"
 2216      4320342E 
 2216      362E3300 
 2217              	.LASF11:
 2218 03e9 6C6F6E67 		.ascii	"long unsigned int\000"
 2218      20756E73 
 2218      69676E65 
 2218      6420696E 
 2218      7400
 2219              	.LASF56:
 2220 03fb 63686172 		.ascii	"char\000"
 2220      00
 2221              	.LASF96:
 2222 0400 636F6E66 		.ascii	"config\000"
 2222      696700
 2223              	.LASF124:
 2224 0407 77657374 		.ascii	"west\000"
 2224      00
 2225              	.LASF112:
 2226 040c 73717231 		.ascii	"sqr1\000"
 2226      00
 2227              	.LASF113:
 2228 0411 73717232 		.ascii	"sqr2\000"
 2228      00
 2229              	.LASF114:
 2230 0416 73717233 		.ascii	"sqr3\000"
 2230      00
 2231              	.LASF22:
 2232 041b 73797374 		.ascii	"systime_t\000"
 2232      696D655F 
 2232      7400
 2233              	.LASF40:
 2234 0425 705F7265 		.ascii	"p_realprio\000"
 2234      616C7072 
 2234      696F00
 2235              	.LASF72:
 2236 0430 4E445452 		.ascii	"NDTR\000"
 2236      00
 2237              	.LASF75:
 2238 0435 444D415F 		.ascii	"DMA_Stream_TypeDef\000"
 2238      53747265 
 2238      616D5F54 
 2238      79706544 
 2238      656600
 2239              	.LASF47:
ARM GAS  /tmp/ccXZYxI7.s 			page 44


 2240 0448 636F6E74 		.ascii	"context\000"
 2240      65787400 
 2241              	.LASF46:
 2242 0450 696E7463 		.ascii	"intctx\000"
 2242      747800
 2243              	.LASF74:
 2244 0457 4D314152 		.ascii	"M1AR\000"
 2244      00
 2245              	.LASF87:
 2246 045c 4144435F 		.ascii	"ADC_ERROR\000"
 2246      4552524F 
 2246      5200
 2247              	.LASF10:
 2248 0466 75696E74 		.ascii	"uint32_t\000"
 2248      33325F74 
 2248      00
 2249              	.LASF125:
 2250 046f 65617374 		.ascii	"east\000"
 2250      00
 2251              	.LASF33:
 2252 0474 705F7265 		.ascii	"p_refs\000"
 2252      667300
 2253              	.LASF110:
 2254 047b 736D7072 		.ascii	"smpr1\000"
 2254      3100
 2255              	.LASF111:
 2256 0481 736D7072 		.ascii	"smpr2\000"
 2256      3200
 2257              	.LASF3:
 2258 0487 75696E74 		.ascii	"uint8_t\000"
 2258      385F7400 
 2259              	.LASF115:
 2260 048f 41444343 		.ascii	"ADCConversionGroup\000"
 2260      6F6E7665 
 2260      7273696F 
 2260      6E47726F 
 2260      757000
 2261              	.LASF67:
 2262 04a2 4A445231 		.ascii	"JDR1\000"
 2262      00
 2263              	.LASF68:
 2264 04a7 4A445232 		.ascii	"JDR2\000"
 2264      00
 2265              	.LASF69:
 2266 04ac 4A445233 		.ascii	"JDR3\000"
 2266      00
 2267              	.LASF70:
 2268 04b1 4A445234 		.ascii	"JDR4\000"
 2268      00
 2269              	.LASF54:
 2270 04b6 77746F62 		.ascii	"wtobjp\000"
 2270      6A7000
 2271              	.LASF86:
 2272 04bd 4144435F 		.ascii	"ADC_COMPLETE\000"
 2272      434F4D50 
 2272      4C455445 
 2272      00
ARM GAS  /tmp/ccXZYxI7.s 			page 45


 2273              	.LASF30:
 2274 04ca 705F6E61 		.ascii	"p_name\000"
 2274      6D6500
 2275              	.LASF129:
 2276 04d1 6972576F 		.ascii	"irWorkingArea\000"
 2276      726B696E 
 2276      67417265 
 2276      6100
 2277              	.LASF90:
 2278 04df 6164635F 		.ascii	"adc_channels_num_t\000"
 2278      6368616E 
 2278      6E656C73 
 2278      5F6E756D 
 2278      5F7400
 2279              	.LASF37:
 2280 04f2 705F6D73 		.ascii	"p_msg\000"
 2280      6700
 2281              	.LASF119:
 2282 04f8 73746172 		.ascii	"start\000"
 2282      7400
 2283              	.LASF50:
 2284 04fe 6D5F6F77 		.ascii	"m_owner\000"
 2284      6E657200 
 2285              	.LASF27:
 2286 0506 705F6374 		.ascii	"p_ctx\000"
 2286      7800
 2287              	.LASF35:
 2288 050c 705F7761 		.ascii	"p_waiting\000"
 2288      6974696E 
 2288      6700
 2289              		.ident	"GCC: (Sourcery CodeBench Lite 2012.03-56) 4.6.3"
ARM GAS  /tmp/ccXZYxI7.s 			page 46


DEFINED SYMBOLS
                            *ABS*:00000000 ir.c
     /tmp/ccXZYxI7.s:21     .text.irThread:00000000 $t
     /tmp/ccXZYxI7.s:26     .text.irThread:00000000 irThread
     /tmp/ccXZYxI7.s:138    .rodata.adc_grpcfg:00000000 .LANCHOR0
     /tmp/ccXZYxI7.s:156    .bss.ir_data:00000000 .LANCHOR1
     /tmp/ccXZYxI7.s:134    .rodata.str1.4:00000000 .LC0
     /tmp/ccXZYxI7.s:87     .text.startIrThread:00000000 $t
     /tmp/ccXZYxI7.s:93     .text.startIrThread:00000000 startIrThread
     /tmp/ccXZYxI7.s:127    .bss.irWorkingArea:00000000 .LANCHOR2
     /tmp/ccXZYxI7.s:126    .bss.irWorkingArea:00000000 $d
     /tmp/ccXZYxI7.s:130    .bss.irWorkingArea:00000000 irWorkingArea
     /tmp/ccXZYxI7.s:133    .rodata.str1.4:00000000 $d
     /tmp/ccXZYxI7.s:137    .rodata.adc_grpcfg:00000000 $d
     /tmp/ccXZYxI7.s:141    .rodata.adc_grpcfg:00000000 adc_grpcfg
     /tmp/ccXZYxI7.s:155    .bss.ir_data:00000000 $d
     /tmp/ccXZYxI7.s:159    .bss.ir_data:00000000 ir_data
                     .debug_frame:00000010 $d

UNDEFINED SYMBOLS
ADCD1
adcStart
adcStartConversion
chsprintf
outputBuffer
bufferPutString
chThdSleep
chThdCreateStatic
