ARM GAS  /tmp/ccMwYgwb.s 			page 1


   1              		.syntax unified
   2              		.cpu cortex-m4
   3              		.eabi_attribute 27, 3
   4              		.eabi_attribute 28, 1
   5              		.fpu fpv4-sp-d16
   6              		.eabi_attribute 20, 1
   7              		.eabi_attribute 21, 1
   8              		.eabi_attribute 23, 3
   9              		.eabi_attribute 24, 1
  10              		.eabi_attribute 25, 1
  11              		.eabi_attribute 26, 1
  12              		.eabi_attribute 30, 2
  13              		.eabi_attribute 34, 1
  14              		.eabi_attribute 18, 4
  15              		.thumb
  16              		.file	"Rfid.c"
  17              		.text
  18              	.Ltext0:
  19              		.cfi_sections	.debug_frame
  20              		.section	.text.rfidThread,"ax",%progbits
  21              		.align	2
  22              		.p2align 4,,15
  23              		.thumb
  24              		.thumb_func
  25              		.type	rfidThread, %function
  26              	rfidThread:
  27              	.LFB117:
  28              		.file 1 "./src/Rfid.c"
  29              		.loc 1 24 0
  30              		.cfi_startproc
  31              		@ args = 0, pretend = 0, frame = 16
  32              		@ frame_needed = 1, uses_anonymous_args = 0
  33              	.LVL0:
  34 0000 2DE9F041 		push	{r4, r5, r6, r7, r8, lr}
  35              	.LCFI0:
  36              		.cfi_def_cfa_offset 24
  37              		.cfi_offset 14, -4
  38              		.cfi_offset 8, -8
  39              		.cfi_offset 7, -12
  40              		.cfi_offset 6, -16
  41              		.cfi_offset 5, -20
  42              		.cfi_offset 4, -24
  43              		.loc 1 29 0
  44 0004 40F20000 		movw	r0, #:lower16:.LANCHOR0
  45              	.LVL1:
  46              		.loc 1 24 0
  47 0008 84B0     		sub	sp, sp, #16
  48              	.LCFI1:
  49              		.cfi_def_cfa_offset 40
  50              		.loc 1 29 0
  51 000a C0F20000 		movt	r0, #:upper16:.LANCHOR0
  52 000e 07C8     		ldmia	r0, {r0, r1, r2}
  53              		.loc 1 24 0
  54 0010 00AF     		add	r7, sp, #0
  55              	.LCFI2:
  56              		.cfi_def_cfa_register 7
  57              		.loc 1 29 0
ARM GAS  /tmp/ccMwYgwb.s 			page 2


  58 0012 3B1D     		adds	r3, r7, #4
  59 0014 83E80700 		stmia	r3, {r0, r1, r2}
  60              		.loc 1 32 0
  61 0018 88B0     		sub	sp, sp, #32
  62              		.loc 1 35 0
  63 001a 40F20000 		movw	r0, #:lower16:SD3
  64              		.loc 1 32 0
  65 001e 6C46     		mov	r4, sp
  66              	.LVL2:
  67              		.loc 1 35 0
  68 0020 C0F20000 		movt	r0, #:upper16:SD3
  69              		.loc 1 33 0
  70 0024 8AB0     		sub	sp, sp, #40
  71              	.LVL3:
  72              		.loc 1 35 0
  73 0026 1946     		mov	r1, r3
  74 0028 FFF7FEFF 		bl	sdStart
  75              		.loc 1 33 0
  76 002c 6D46     		mov	r5, sp
  77              	.LVL4:
  78 002e A61C     		adds	r6, r4, #2
  79              		.loc 1 48 0
  80 0030 4FF00008 		mov	r8, #0
  81              	.L2:
  82              		.loc 1 38 0 discriminator 1
  83 0034 2146     		mov	r1, r4
  84 0036 4FF0FF33 		mov	r3, #-1
  85 003a 1122     		movs	r2, #17
  86 003c 0A48     		ldr	r0, .L4
  87 003e FFF7FEFF 		bl	chIQReadTimeout
  88              		.loc 1 49 0 discriminator 1
  89 0042 40F20001 		movw	r1, #:lower16:.LC1
  90 0046 2846     		mov	r0, r5
  91 0048 C0F20001 		movt	r1, #:upper16:.LC1
  92 004c 3246     		mov	r2, r6
  93              		.loc 1 48 0 discriminator 1
  94 004e 84F80E80 		strb	r8, [r4, #14]
  95              		.loc 1 49 0 discriminator 1
  96 0052 FFF7FEFF 		bl	chsprintf
  97              		.loc 1 51 0 discriminator 1
  98 0056 40F20000 		movw	r0, #:lower16:outputBuffer
  99 005a 2946     		mov	r1, r5
 100 005c C0F20000 		movt	r0, #:upper16:outputBuffer
 101 0060 FFF7FEFF 		bl	bufferPutString
 102 0064 E6E7     		b	.L2
 103              	.L5:
 104 0066 00BF     		.align	2
 105              	.L4:
 106 0068 10000000 		.word	SD3+16
 107              		.cfi_endproc
 108              	.LFE117:
 109              		.size	rfidThread, .-rfidThread
 110 006c AFF30080 		.section	.text.startRfidThread,"ax",%progbits
 111              		.align	2
 112              		.p2align 4,,15
 113              		.global	startRfidThread
 114              		.thumb
ARM GAS  /tmp/ccMwYgwb.s 			page 3


 115              		.thumb_func
 116              		.type	startRfidThread, %function
 117              	startRfidThread:
 118              	.LFB118:
 119              		.loc 1 57 0
 120              		.cfi_startproc
 121              		@ args = 0, pretend = 0, frame = 0
 122              		@ frame_needed = 0, uses_anonymous_args = 0
 123 0000 10B5     		push	{r4, lr}
 124              	.LCFI3:
 125              		.cfi_def_cfa_offset 8
 126              		.cfi_offset 14, -4
 127              		.cfi_offset 4, -8
 128              		.loc 1 58 0
 129 0002 40F20000 		movw	r0, #:lower16:.LANCHOR1
 130              		.loc 1 57 0
 131 0006 82B0     		sub	sp, sp, #8
 132              	.LCFI4:
 133              		.cfi_def_cfa_offset 16
 134              		.loc 1 58 0
 135 0008 40F20003 		movw	r3, #:lower16:rfidThread
 136 000c 0024     		movs	r4, #0
 137 000e 4FF49661 		mov	r1, #1200
 138 0012 4022     		movs	r2, #64
 139 0014 C0F20003 		movt	r3, #:upper16:rfidThread
 140 0018 C0F20000 		movt	r0, #:upper16:.LANCHOR1
 141 001c 0094     		str	r4, [sp, #0]
 142 001e FFF7FEFF 		bl	chThdCreateStatic
 143              		.loc 1 60 0
 144 0022 02B0     		add	sp, sp, #8
 145 0024 10BD     		pop	{r4, pc}
 146              		.cfi_endproc
 147              	.LFE118:
 148              		.size	startRfidThread, .-startRfidThread
 149 0026 00BFAFF3 		.section	.rodata
 149      0080AFF3 
 149      0080
 150              		.align	2
 151              		.set	.LANCHOR0,. + 0
 152              	.LC0:
 153 0000 80250000 		.word	9600
 154 0004 0000     		.short	0
 155 0006 0040     		.short	16384
 156 0008 0000     		.short	0
 157 000a 0000     		.space	2
 158              		.section	.bss.rfidWorkingArea,"aw",%nobits
 159              		.align	3
 160              		.set	.LANCHOR1,. + 0
 161              		.type	rfidWorkingArea, %object
 162              		.size	rfidWorkingArea, 1200
 163              	rfidWorkingArea:
 164 0000 00000000 		.space	1200
 164      00000000 
 164      00000000 
 164      00000000 
 164      00000000 
 165              		.section	.rodata.str1.4,"aMS",%progbits,1
ARM GAS  /tmp/ccMwYgwb.s 			page 4


 166              		.align	2
 167              	.LC1:
 168 0000 5B524649 		.ascii	"[RFID] %s\000"
 168      445D2025 
 168      7300
 169 000a 0000     		.text
 170              	.Letext0:
 171              		.file 2 "/opt/arm/bin/../lib/gcc/arm-none-eabi/4.6.3/include/stddef.h"
 172              		.file 3 "/opt/arm/bin/../lib/gcc/arm-none-eabi/4.6.3/../../../../arm-none-eabi/include/stdint.h"
 173              		.file 4 "/opt/ChibiOS/ChibiOS_2.4.4/os/ports/GCC/ARMCMx/chtypes.h"
 174              		.file 5 "/opt/ChibiOS/ChibiOS_2.4.4/os/kernel/include/chlists.h"
 175              		.file 6 "/opt/ChibiOS/ChibiOS_2.4.4/os/kernel/include/chthreads.h"
 176              		.file 7 "/opt/ChibiOS/ChibiOS_2.4.4/os/ports/GCC/ARMCMx/chcore_v7m.h"
 177              		.file 8 "/opt/ChibiOS/ChibiOS_2.4.4/os/kernel/include/chmtx.h"
 178              		.file 9 "/opt/ChibiOS/ChibiOS_2.4.4/os/kernel/include/chevents.h"
 179              		.file 10 "/opt/ChibiOS/ChibiOS_2.4.4/os/kernel/include/chqueues.h"
 180              		.file 11 "/opt/ChibiOS/ChibiOS_2.4.4/os/kernel/include/chioch.h"
 181              		.file 12 "/opt/ChibiOS/ChibiOS_2.4.4/os/hal/platforms/STM32F4xx/stm32f4xx.h"
 182              		.file 13 "/opt/ChibiOS/ChibiOS_2.4.4/os/hal/include/serial.h"
 183              		.file 14 "/opt/ChibiOS/ChibiOS_2.4.4/os/hal/platforms/STM32/serial_lld.h"
 184              		.file 15 "./include/CircularBuffer.h"
 185              		.file 16 "/opt/ChibiOS/ChibiOS_2.4.4/os/ports/common/ARMCMx/CMSIS/include/core_cm4.h"
 186              		.file 17 "./include/FirmwareSpykee.h"