ARM GAS  /tmp/ccMwYgwb.s 			page 1


   1              		.syntax unified
   2              		.cpu cortex-m4
   3              		.eabi_attribute 27, 3
   4              		.eabi_attribute 28, 1
   5              		.fpu fpv4-sp-d16
   6              		.eabi_attribute 20, 1
   7              		.eabi_attribute 21, 1
   8              		.eabi_attribute 23, 3
   9              		.eabi_attribute 24, 1
  10              		.eabi_attribute 25, 1
  11              		.eabi_attribute 26, 1
  12              		.eabi_attribute 30, 2
  13              		.eabi_attribute 34, 1
  14              		.eabi_attribute 18, 4
  15              		.thumb
  16              		.file	"Rfid.c"
  17              		.text
  18              	.Ltext0:
  19              		.cfi_sections	.debug_frame
  20              		.section	.text.rfidThread,"ax",%progbits
  21              		.align	2
  22              		.p2align 4,,15
  23              		.thumb
  24              		.thumb_func
  25              		.type	rfidThread, %function
  26              	rfidThread:
  27              	.LFB117:
  28              		.file 1 "./src/Rfid.c"
  29              		.loc 1 24 0
  30              		.cfi_startproc
  31              		@ args = 0, pretend = 0, frame = 16
  32              		@ frame_needed = 1, uses_anonymous_args = 0
  33              	.LVL0:
  34 0000 2DE9F041 		push	{r4, r5, r6, r7, r8, lr}
  35              	.LCFI0:
  36              		.cfi_def_cfa_offset 24
  37              		.cfi_offset 14, -4
  38              		.cfi_offset 8, -8
  39              		.cfi_offset 7, -12
  40              		.cfi_offset 6, -16
  41              		.cfi_offset 5, -20
  42              		.cfi_offset 4, -24
  43              		.loc 1 29 0
  44 0004 40F20000 		movw	r0, #:lower16:.LANCHOR0
  45              	.LVL1:
  46              		.loc 1 24 0
  47 0008 84B0     		sub	sp, sp, #16
  48              	.LCFI1:
  49              		.cfi_def_cfa_offset 40
  50              		.loc 1 29 0
  51 000a C0F20000 		movt	r0, #:upper16:.LANCHOR0
  52 000e 07C8     		ldmia	r0, {r0, r1, r2}
  53              		.loc 1 24 0
  54 0010 00AF     		add	r7, sp, #0
  55              	.LCFI2:
  56              		.cfi_def_cfa_register 7
  57              		.loc 1 29 0
ARM GAS  /tmp/ccMwYgwb.s 			page 2


  58 0012 3B1D     		adds	r3, r7, #4
  59 0014 83E80700 		stmia	r3, {r0, r1, r2}
  60              		.loc 1 32 0
  61 0018 88B0     		sub	sp, sp, #32
  62              		.loc 1 35 0
  63 001a 40F20000 		movw	r0, #:lower16:SD3
  64              		.loc 1 32 0
  65 001e 6C46     		mov	r4, sp
  66              	.LVL2:
  67              		.loc 1 35 0
  68 0020 C0F20000 		movt	r0, #:upper16:SD3
  69              		.loc 1 33 0
  70 0024 8AB0     		sub	sp, sp, #40
  71              	.LVL3:
  72              		.loc 1 35 0
  73 0026 1946     		mov	r1, r3
  74 0028 FFF7FEFF 		bl	sdStart
  75              		.loc 1 33 0
  76 002c 6D46     		mov	r5, sp
  77              	.LVL4:
  78 002e A61C     		adds	r6, r4, #2
  79              		.loc 1 48 0
  80 0030 4FF00008 		mov	r8, #0
  81              	.L2:
  82              		.loc 1 38 0 discriminator 1
  83 0034 2146     		mov	r1, r4
  84 0036 4FF0FF33 		mov	r3, #-1
  85 003a 1122     		movs	r2, #17
  86 003c 0A48     		ldr	r0, .L4
  87 003e FFF7FEFF 		bl	chIQReadTimeout
  88              		.loc 1 49 0 discriminator 1
  89 0042 40F20001 		movw	r1, #:lower16:.LC1
  90 0046 2846     		mov	r0, r5
  91 0048 C0F20001 		movt	r1, #:upper16:.LC1
  92 004c 3246     		mov	r2, r6
  93              		.loc 1 48 0 discriminator 1
  94 004e 84F80E80 		strb	r8, [r4, #14]
  95              		.loc 1 49 0 discriminator 1
  96 0052 FFF7FEFF 		bl	chsprintf
  97              		.loc 1 51 0 discriminator 1
  98 0056 40F20000 		movw	r0, #:lower16:outputBuffer
  99 005a 2946     		mov	r1, r5
 100 005c C0F20000 		movt	r0, #:upper16:outputBuffer
 101 0060 FFF7FEFF 		bl	bufferPutString
 102 0064 E6E7     		b	.L2
 103              	.L5:
 104 0066 00BF     		.align	2
 105              	.L4:
 106 0068 10000000 		.word	SD3+16
 107              		.cfi_endproc
 108              	.LFE117:
 109              		.size	rfidThread, .-rfidThread
 110 006c AFF30080 		.section	.text.startRfidThread,"ax",%progbits
 111              		.align	2
 112              		.p2align 4,,15
 113              		.global	startRfidThread
 114              		.thumb
ARM GAS  /tmp/ccMwYgwb.s 			page 3


 115              		.thumb_func
 116              		.type	startRfidThread, %function
 117              	startRfidThread:
 118              	.LFB118:
 119              		.loc 1 57 0
 120              		.cfi_startproc
 121              		@ args = 0, pretend = 0, frame = 0
 122              		@ frame_needed = 0, uses_anonymous_args = 0
 123 0000 10B5     		push	{r4, lr}
 124              	.LCFI3:
 125              		.cfi_def_cfa_offset 8
 126              		.cfi_offset 14, -4
 127              		.cfi_offset 4, -8
 128              		.loc 1 58 0
 129 0002 40F20000 		movw	r0, #:lower16:.LANCHOR1
 130              		.loc 1 57 0
 131 0006 82B0     		sub	sp, sp, #8
 132              	.LCFI4:
 133              		.cfi_def_cfa_offset 16
 134              		.loc 1 58 0
 135 0008 40F20003 		movw	r3, #:lower16:rfidThread
 136 000c 0024     		movs	r4, #0
 137 000e 4FF49661 		mov	r1, #1200
 138 0012 4022     		movs	r2, #64
 139 0014 C0F20003 		movt	r3, #:upper16:rfidThread
 140 0018 C0F20000 		movt	r0, #:upper16:.LANCHOR1
 141 001c 0094     		str	r4, [sp, #0]
 142 001e FFF7FEFF 		bl	chThdCreateStatic
 143              		.loc 1 60 0
 144 0022 02B0     		add	sp, sp, #8
 145 0024 10BD     		pop	{r4, pc}
 146              		.cfi_endproc
 147              	.LFE118:
 148              		.size	startRfidThread, .-startRfidThread
 149 0026 00BFAFF3 		.section	.rodata
 149      0080AFF3 
 149      0080
 150              		.align	2
 151              		.set	.LANCHOR0,. + 0
 152              	.LC0:
 153 0000 80250000 		.word	9600
 154 0004 0000     		.short	0
 155 0006 0040     		.short	16384
 156 0008 0000     		.short	0
 157 000a 0000     		.space	2
 158              		.section	.bss.rfidWorkingArea,"aw",%nobits
 159              		.align	3
 160              		.set	.LANCHOR1,. + 0
 161              		.type	rfidWorkingArea, %object
 162              		.size	rfidWorkingArea, 1200
 163              	rfidWorkingArea:
 164 0000 00000000 		.space	1200
 164      00000000 
 164      00000000 
 164      00000000 
 164      00000000 
 165              		.section	.rodata.str1.4,"aMS",%progbits,1
ARM GAS  /tmp/ccMwYgwb.s 			page 4


 166              		.align	2
 167              	.LC1:
 168 0000 5B524649 		.ascii	"[RFID] %s\000"
 168      445D2025 
 168      7300
 169 000a 0000     		.text
 170              	.Letext0:
 171              		.file 2 "/opt/arm/bin/../lib/gcc/arm-none-eabi/4.6.3/include/stddef.h"
 172              		.file 3 "/opt/arm/bin/../lib/gcc/arm-none-eabi/4.6.3/../../../../arm-none-eabi/include/stdint.h"
 173              		.file 4 "/opt/ChibiOS/ChibiOS_2.4.4/os/ports/GCC/ARMCMx/chtypes.h"
 174              		.file 5 "/opt/ChibiOS/ChibiOS_2.4.4/os/kernel/include/chlists.h"
 175              		.file 6 "/opt/ChibiOS/ChibiOS_2.4.4/os/kernel/include/chthreads.h"
 176              		.file 7 "/opt/ChibiOS/ChibiOS_2.4.4/os/ports/GCC/ARMCMx/chcore_v7m.h"
 177              		.file 8 "/opt/ChibiOS/ChibiOS_2.4.4/os/kernel/include/chmtx.h"
 178              		.file 9 "/opt/ChibiOS/ChibiOS_2.4.4/os/kernel/include/chevents.h"
 179              		.file 10 "/opt/ChibiOS/ChibiOS_2.4.4/os/kernel/include/chqueues.h"
 180              		.file 11 "/opt/ChibiOS/ChibiOS_2.4.4/os/kernel/include/chioch.h"
 181              		.file 12 "/opt/ChibiOS/ChibiOS_2.4.4/os/hal/platforms/STM32F4xx/stm32f4xx.h"
 182              		.file 13 "/opt/ChibiOS/ChibiOS_2.4.4/os/hal/include/serial.h"
 183              		.file 14 "/opt/ChibiOS/ChibiOS_2.4.4/os/hal/platforms/STM32/serial_lld.h"
 184              		.file 15 "./include/CircularBuffer.h"
 185              		.file 16 "/opt/ChibiOS/ChibiOS_2.4.4/os/ports/common/ARMCMx/CMSIS/include/core_cm4.h"
 186              		.file 17 "./include/FirmwareSpykee.h"
 187              		.section	.debug_info,"",%progbits
 188              	.Ldebug_info0:
 189 0000 130A0000 		.4byte	0xa13
 190 0004 0200     		.2byte	0x2
 191 0006 00000000 		.4byte	.Ldebug_abbrev0
 192 000a 04       		.byte	0x4
 193 000b 01       		.uleb128 0x1
 194 000c E2030000 		.4byte	.LASF121
 195 0010 01       		.byte	0x1
 196 0011 A6000000 		.4byte	.LASF122
 197 0015 41000000 		.4byte	.LASF123
 198 0019 00000000 		.4byte	0
 199 001d 00000000 		.4byte	0
 200 0021 00000000 		.4byte	.Ldebug_ranges0+0
 201 0025 00000000 		.4byte	.Ldebug_line0
 202 0029 02       		.uleb128 0x2
 203 002a 04       		.byte	0x4
 204 002b 05       		.byte	0x5
 205 002c 696E7400 		.ascii	"int\000"
 206 0030 03       		.uleb128 0x3
 207 0031 09000000 		.4byte	.LASF2
 208 0035 02       		.byte	0x2
 209 0036 D4       		.byte	0xd4
 210 0037 3B000000 		.4byte	0x3b
 211 003b 04       		.uleb128 0x4
 212 003c 04       		.byte	0x4
 213 003d 07       		.byte	0x7
 214 003e 81010000 		.4byte	.LASF0
 215 0042 04       		.uleb128 0x4
 216 0043 01       		.byte	0x1
 217 0044 06       		.byte	0x6
 218 0045 E5000000 		.4byte	.LASF1
 219 0049 03       		.uleb128 0x3
 220 004a 7B040000 		.4byte	.LASF3
ARM GAS  /tmp/ccMwYgwb.s 			page 5


 221 004e 03       		.byte	0x3
 222 004f 2A       		.byte	0x2a
 223 0050 54000000 		.4byte	0x54
 224 0054 04       		.uleb128 0x4
 225 0055 01       		.byte	0x1
 226 0056 08       		.byte	0x8
 227 0057 0C030000 		.4byte	.LASF4
 228 005b 04       		.uleb128 0x4
 229 005c 02       		.byte	0x2
 230 005d 05       		.byte	0x5
 231 005e 3F030000 		.4byte	.LASF5
 232 0062 03       		.uleb128 0x3
 233 0063 8E010000 		.4byte	.LASF6
 234 0067 03       		.byte	0x3
 235 0068 36       		.byte	0x36
 236 0069 6D000000 		.4byte	0x6d
 237 006d 04       		.uleb128 0x4
 238 006e 02       		.byte	0x2
 239 006f 07       		.byte	0x7
 240 0070 BF010000 		.4byte	.LASF7
 241 0074 03       		.uleb128 0x3
 242 0075 04030000 		.4byte	.LASF8
 243 0079 03       		.byte	0x3
 244 007a 4F       		.byte	0x4f
 245 007b 7F000000 		.4byte	0x7f
 246 007f 04       		.uleb128 0x4
 247 0080 04       		.byte	0x4
 248 0081 05       		.byte	0x5
 249 0082 13010000 		.4byte	.LASF9
 250 0086 03       		.uleb128 0x3
 251 0087 4E040000 		.4byte	.LASF10
 252 008b 03       		.byte	0x3
 253 008c 50       		.byte	0x50
 254 008d 91000000 		.4byte	0x91
 255 0091 04       		.uleb128 0x4
 256 0092 04       		.byte	0x4
 257 0093 07       		.byte	0x7
 258 0094 EE030000 		.4byte	.LASF11
 259 0098 04       		.uleb128 0x4
 260 0099 08       		.byte	0x8
 261 009a 05       		.byte	0x5
 262 009b D7000000 		.4byte	.LASF12
 263 009f 03       		.uleb128 0x3
 264 00a0 17000000 		.4byte	.LASF13
 265 00a4 03       		.byte	0x3
 266 00a5 78       		.byte	0x78
 267 00a6 AA000000 		.4byte	0xaa
 268 00aa 04       		.uleb128 0x4
 269 00ab 08       		.byte	0x8
 270 00ac 07       		.byte	0x7
 271 00ad 86000000 		.4byte	.LASF14
 272 00b1 03       		.uleb128 0x3
 273 00b2 78000000 		.4byte	.LASF15
 274 00b6 03       		.byte	0x3
 275 00b7 A6       		.byte	0xa6
 276 00b8 3B000000 		.4byte	0x3b
 277 00bc 03       		.uleb128 0x3
ARM GAS  /tmp/ccMwYgwb.s 			page 6


 278 00bd FE000000 		.4byte	.LASF16
 279 00c1 04       		.byte	0x4
 280 00c2 2E       		.byte	0x2e
 281 00c3 74000000 		.4byte	0x74
 282 00c7 03       		.uleb128 0x3
 283 00c8 F4010000 		.4byte	.LASF17
 284 00cc 04       		.byte	0x4
 285 00cd 2F       		.byte	0x2f
 286 00ce 49000000 		.4byte	0x49
 287 00d2 03       		.uleb128 0x3
 288 00d3 28010000 		.4byte	.LASF18
 289 00d7 04       		.byte	0x4
 290 00d8 30       		.byte	0x30
 291 00d9 49000000 		.4byte	0x49
 292 00dd 03       		.uleb128 0x3
 293 00de A3020000 		.4byte	.LASF19
 294 00e2 04       		.byte	0x4
 295 00e3 31       		.byte	0x31
 296 00e4 49000000 		.4byte	0x49
 297 00e8 03       		.uleb128 0x3
 298 00e9 EE020000 		.4byte	.LASF20
 299 00ed 04       		.byte	0x4
 300 00ee 32       		.byte	0x32
 301 00ef 86000000 		.4byte	0x86
 302 00f3 03       		.uleb128 0x3
 303 00f4 D2010000 		.4byte	.LASF21
 304 00f8 04       		.byte	0x4
 305 00f9 33       		.byte	0x33
 306 00fa 74000000 		.4byte	0x74
 307 00fe 03       		.uleb128 0x3
 308 00ff 08020000 		.4byte	.LASF22
 309 0103 04       		.byte	0x4
 310 0104 35       		.byte	0x35
 311 0105 86000000 		.4byte	0x86
 312 0109 03       		.uleb128 0x3
 313 010a 18040000 		.4byte	.LASF23
 314 010e 04       		.byte	0x4
 315 010f 36       		.byte	0x36
 316 0110 86000000 		.4byte	0x86
 317 0114 03       		.uleb128 0x3
 318 0115 77030000 		.4byte	.LASF24
 319 0119 05       		.byte	0x5
 320 011a 2A       		.byte	0x2a
 321 011b 1F010000 		.4byte	0x11f
 322 011f 05       		.uleb128 0x5
 323 0120 77030000 		.4byte	.LASF24
 324 0124 48       		.byte	0x48
 325 0125 06       		.byte	0x6
 326 0126 5E       		.byte	0x5e
 327 0127 36020000 		.4byte	0x236
 328 012b 06       		.uleb128 0x6
 329 012c 58030000 		.4byte	.LASF25
 330 0130 06       		.byte	0x6
 331 0131 5F       		.byte	0x5f
 332 0132 5B020000 		.4byte	0x25b
 333 0136 02       		.byte	0x2
 334 0137 23       		.byte	0x23
ARM GAS  /tmp/ccMwYgwb.s 			page 7


 335 0138 00       		.uleb128 0
 336 0139 06       		.uleb128 0x6
 337 013a DD020000 		.4byte	.LASF26
 338 013e 06       		.byte	0x6
 339 013f 61       		.byte	0x61
 340 0140 5B020000 		.4byte	0x25b
 341 0144 02       		.byte	0x2
 342 0145 23       		.byte	0x23
 343 0146 04       		.uleb128 0x4
 344 0147 06       		.uleb128 0x6
 345 0148 C0000000 		.4byte	.LASF27
 346 014c 06       		.byte	0x6
 347 014d 63       		.byte	0x63
 348 014e E8000000 		.4byte	0xe8
 349 0152 02       		.byte	0x2
 350 0153 23       		.byte	0x23
 351 0154 08       		.uleb128 0x8
 352 0155 06       		.uleb128 0x6
 353 0156 DA040000 		.4byte	.LASF28
 354 015a 06       		.byte	0x6
 355 015b 64       		.byte	0x64
 356 015c 33030000 		.4byte	0x333
 357 0160 02       		.byte	0x2
 358 0161 23       		.byte	0x23
 359 0162 0C       		.uleb128 0xc
 360 0163 06       		.uleb128 0x6
 361 0164 50010000 		.4byte	.LASF29
 362 0168 06       		.byte	0x6
 363 0169 66       		.byte	0x66
 364 016a 5B020000 		.4byte	0x25b
 365 016e 02       		.byte	0x2
 366 016f 23       		.byte	0x23
 367 0170 10       		.uleb128 0x10
 368 0171 06       		.uleb128 0x6
 369 0172 6F020000 		.4byte	.LASF30
 370 0176 06       		.byte	0x6
 371 0177 67       		.byte	0x67
 372 0178 5B020000 		.4byte	0x25b
 373 017c 02       		.byte	0x2
 374 017d 23       		.byte	0x23
 375 017e 14       		.uleb128 0x14
 376 017f 06       		.uleb128 0x6
 377 0180 5D040000 		.4byte	.LASF31
 378 0184 06       		.byte	0x6
 379 0185 6E       		.byte	0x6e
 380 0186 46040000 		.4byte	0x446
 381 018a 02       		.byte	0x2
 382 018b 23       		.byte	0x23
 383 018c 18       		.uleb128 0x18
 384 018d 06       		.uleb128 0x6
 385 018e 49030000 		.4byte	.LASF32
 386 0192 06       		.byte	0x6
 387 0193 79       		.byte	0x79
 388 0194 D2000000 		.4byte	0xd2
 389 0198 02       		.byte	0x2
 390 0199 23       		.byte	0x23
 391 019a 1C       		.uleb128 0x1c
ARM GAS  /tmp/ccMwYgwb.s 			page 8


 392 019b 06       		.uleb128 0x6
 393 019c 5F030000 		.4byte	.LASF33
 394 01a0 06       		.byte	0x6
 395 01a1 7D       		.byte	0x7d
 396 01a2 C7000000 		.4byte	0xc7
 397 01a6 02       		.byte	0x2
 398 01a7 23       		.byte	0x23
 399 01a8 1D       		.uleb128 0x1d
 400 01a9 06       		.uleb128 0x6
 401 01aa 31010000 		.4byte	.LASF34
 402 01ae 06       		.byte	0x6
 403 01af 82       		.byte	0x82
 404 01b0 DD000000 		.4byte	0xdd
 405 01b4 02       		.byte	0x2
 406 01b5 23       		.byte	0x23
 407 01b6 1E       		.uleb128 0x1e
 408 01b7 06       		.uleb128 0x6
 409 01b8 49010000 		.4byte	.LASF35
 410 01bc 06       		.byte	0x6
 411 01bd 89       		.byte	0x89
 412 01be 56030000 		.4byte	0x356
 413 01c2 02       		.byte	0x2
 414 01c3 23       		.byte	0x23
 415 01c4 20       		.uleb128 0x20
 416 01c5 07       		.uleb128 0x7
 417 01c6 705F7500 		.ascii	"p_u\000"
 418 01ca 06       		.byte	0x6
 419 01cb AE       		.byte	0xae
 420 01cc 11040000 		.4byte	0x411
 421 01d0 02       		.byte	0x2
 422 01d1 23       		.byte	0x23
 423 01d2 24       		.uleb128 0x24
 424 01d3 06       		.uleb128 0x6
 425 01d4 E0040000 		.4byte	.LASF36
 426 01d8 06       		.byte	0x6
 427 01d9 B3       		.byte	0xb3
 428 01da 83020000 		.4byte	0x283
 429 01de 02       		.byte	0x2
 430 01df 23       		.byte	0x23
 431 01e0 28       		.uleb128 0x28
 432 01e1 06       		.uleb128 0x6
 433 01e2 AE010000 		.4byte	.LASF37
 434 01e6 06       		.byte	0x6
 435 01e7 B9       		.byte	0xb9
 436 01e8 61020000 		.4byte	0x261
 437 01ec 02       		.byte	0x2
 438 01ed 23       		.byte	0x23
 439 01ee 2C       		.uleb128 0x2c
 440 01ef 06       		.uleb128 0x6
 441 01f0 75040000 		.4byte	.LASF38
 442 01f4 06       		.byte	0x6
 443 01f5 BD       		.byte	0xbd
 444 01f6 F3000000 		.4byte	0xf3
 445 01fa 02       		.byte	0x2
 446 01fb 23       		.byte	0x23
 447 01fc 34       		.uleb128 0x34
 448 01fd 06       		.uleb128 0x6
ARM GAS  /tmp/ccMwYgwb.s 			page 9


 449 01fe 8F030000 		.4byte	.LASF39
 450 0202 06       		.byte	0x6
 451 0203 C3       		.byte	0xc3
 452 0204 FE000000 		.4byte	0xfe
 453 0208 02       		.byte	0x2
 454 0209 23       		.byte	0x23
 455 020a 38       		.uleb128 0x38
 456 020b 06       		.uleb128 0x6
 457 020c 35030000 		.4byte	.LASF40
 458 0210 06       		.byte	0x6
 459 0211 CA       		.byte	0xca
 460 0212 58040000 		.4byte	0x458
 461 0216 02       		.byte	0x2
 462 0217 23       		.byte	0x23
 463 0218 3C       		.uleb128 0x3c
 464 0219 06       		.uleb128 0x6
 465 021a 22040000 		.4byte	.LASF41
 466 021e 06       		.byte	0x6
 467 021f CE       		.byte	0xce
 468 0220 E8000000 		.4byte	0xe8
 469 0224 02       		.byte	0x2
 470 0225 23       		.byte	0x23
 471 0226 40       		.uleb128 0x40
 472 0227 06       		.uleb128 0x6
 473 0228 F6000000 		.4byte	.LASF42
 474 022c 06       		.byte	0x6
 475 022d D4       		.byte	0xd4
 476 022e 99020000 		.4byte	0x299
 477 0232 02       		.byte	0x2
 478 0233 23       		.byte	0x23
 479 0234 44       		.uleb128 0x44
 480 0235 00       		.byte	0
 481 0236 08       		.uleb128 0x8
 482 0237 08       		.byte	0x8
 483 0238 05       		.byte	0x5
 484 0239 61       		.byte	0x61
 485 023a 5B020000 		.4byte	0x25b
 486 023e 06       		.uleb128 0x6
 487 023f 58030000 		.4byte	.LASF25
 488 0243 05       		.byte	0x5
 489 0244 62       		.byte	0x62
 490 0245 5B020000 		.4byte	0x25b
 491 0249 02       		.byte	0x2
 492 024a 23       		.byte	0x23
 493 024b 00       		.uleb128 0
 494 024c 06       		.uleb128 0x6
 495 024d DD020000 		.4byte	.LASF26
 496 0251 05       		.byte	0x5
 497 0252 64       		.byte	0x64
 498 0253 5B020000 		.4byte	0x25b
 499 0257 02       		.byte	0x2
 500 0258 23       		.byte	0x23
 501 0259 04       		.uleb128 0x4
 502 025a 00       		.byte	0
 503 025b 09       		.uleb128 0x9
 504 025c 04       		.byte	0x4
 505 025d 14010000 		.4byte	0x114
ARM GAS  /tmp/ccMwYgwb.s 			page 10


 506 0261 03       		.uleb128 0x3
 507 0262 81020000 		.4byte	.LASF43
 508 0266 05       		.byte	0x5
 509 0267 66       		.byte	0x66
 510 0268 36020000 		.4byte	0x236
 511 026c 08       		.uleb128 0x8
 512 026d 04       		.byte	0x4
 513 026e 05       		.byte	0x5
 514 026f 6B       		.byte	0x6b
 515 0270 83020000 		.4byte	0x283
 516 0274 06       		.uleb128 0x6
 517 0275 58030000 		.4byte	.LASF25
 518 0279 05       		.byte	0x5
 519 027a 6D       		.byte	0x6d
 520 027b 5B020000 		.4byte	0x25b
 521 027f 02       		.byte	0x2
 522 0280 23       		.byte	0x23
 523 0281 00       		.uleb128 0
 524 0282 00       		.byte	0
 525 0283 03       		.uleb128 0x3
 526 0284 FC010000 		.4byte	.LASF44
 527 0288 05       		.byte	0x5
 528 0289 70       		.byte	0x70
 529 028a 6C020000 		.4byte	0x26c
 530 028e 03       		.uleb128 0x3
 531 028f 66010000 		.4byte	.LASF45
 532 0293 07       		.byte	0x7
 533 0294 D7       		.byte	0xd7
 534 0295 99020000 		.4byte	0x299
 535 0299 0A       		.uleb128 0xa
 536 029a 04       		.byte	0x4
 537 029b 03       		.uleb128 0x3
 538 029c 2B020000 		.4byte	.LASF46
 539 02a0 07       		.byte	0x7
 540 02a1 DD       		.byte	0xdd
 541 02a2 9F000000 		.4byte	0x9f
 542 02a6 05       		.uleb128 0x5
 543 02a7 3E040000 		.4byte	.LASF47
 544 02ab 24       		.byte	0x24
 545 02ac 07       		.byte	0x7
 546 02ad FE       		.byte	0xfe
 547 02ae 33030000 		.4byte	0x333
 548 02b2 0B       		.uleb128 0xb
 549 02b3 723400   		.ascii	"r4\000"
 550 02b6 07       		.byte	0x7
 551 02b7 1101     		.2byte	0x111
 552 02b9 8E020000 		.4byte	0x28e
 553 02bd 02       		.byte	0x2
 554 02be 23       		.byte	0x23
 555 02bf 00       		.uleb128 0
 556 02c0 0B       		.uleb128 0xb
 557 02c1 723500   		.ascii	"r5\000"
 558 02c4 07       		.byte	0x7
 559 02c5 1201     		.2byte	0x112
 560 02c7 8E020000 		.4byte	0x28e
 561 02cb 02       		.byte	0x2
 562 02cc 23       		.byte	0x23
ARM GAS  /tmp/ccMwYgwb.s 			page 11


 563 02cd 04       		.uleb128 0x4
 564 02ce 0B       		.uleb128 0xb
 565 02cf 723600   		.ascii	"r6\000"
 566 02d2 07       		.byte	0x7
 567 02d3 1301     		.2byte	0x113
 568 02d5 8E020000 		.4byte	0x28e
 569 02d9 02       		.byte	0x2
 570 02da 23       		.byte	0x23
 571 02db 08       		.uleb128 0x8
 572 02dc 0B       		.uleb128 0xb
 573 02dd 723700   		.ascii	"r7\000"
 574 02e0 07       		.byte	0x7
 575 02e1 1401     		.2byte	0x114
 576 02e3 8E020000 		.4byte	0x28e
 577 02e7 02       		.byte	0x2
 578 02e8 23       		.byte	0x23
 579 02e9 0C       		.uleb128 0xc
 580 02ea 0B       		.uleb128 0xb
 581 02eb 723800   		.ascii	"r8\000"
 582 02ee 07       		.byte	0x7
 583 02ef 1501     		.2byte	0x115
 584 02f1 8E020000 		.4byte	0x28e
 585 02f5 02       		.byte	0x2
 586 02f6 23       		.byte	0x23
 587 02f7 10       		.uleb128 0x10
 588 02f8 0B       		.uleb128 0xb
 589 02f9 723900   		.ascii	"r9\000"
 590 02fc 07       		.byte	0x7
 591 02fd 1601     		.2byte	0x116
 592 02ff 8E020000 		.4byte	0x28e
 593 0303 02       		.byte	0x2
 594 0304 23       		.byte	0x23
 595 0305 14       		.uleb128 0x14
 596 0306 0B       		.uleb128 0xb
 597 0307 72313000 		.ascii	"r10\000"
 598 030b 07       		.byte	0x7
 599 030c 1701     		.2byte	0x117
 600 030e 8E020000 		.4byte	0x28e
 601 0312 02       		.byte	0x2
 602 0313 23       		.byte	0x23
 603 0314 18       		.uleb128 0x18
 604 0315 0B       		.uleb128 0xb
 605 0316 72313100 		.ascii	"r11\000"
 606 031a 07       		.byte	0x7
 607 031b 1801     		.2byte	0x118
 608 031d 8E020000 		.4byte	0x28e
 609 0321 02       		.byte	0x2
 610 0322 23       		.byte	0x23
 611 0323 1C       		.uleb128 0x1c
 612 0324 0B       		.uleb128 0xb
 613 0325 6C7200   		.ascii	"lr\000"
 614 0328 07       		.byte	0x7
 615 0329 1901     		.2byte	0x119
 616 032b 8E020000 		.4byte	0x28e
 617 032f 02       		.byte	0x2
 618 0330 23       		.byte	0x23
 619 0331 20       		.uleb128 0x20
ARM GAS  /tmp/ccMwYgwb.s 			page 12


 620 0332 00       		.byte	0
 621 0333 0C       		.uleb128 0xc
 622 0334 36040000 		.4byte	.LASF48
 623 0338 04       		.byte	0x4
 624 0339 07       		.byte	0x7
 625 033a 2301     		.2byte	0x123
 626 033c 50030000 		.4byte	0x350
 627 0340 0B       		.uleb128 0xb
 628 0341 72313300 		.ascii	"r13\000"
 629 0345 07       		.byte	0x7
 630 0346 2401     		.2byte	0x124
 631 0348 50030000 		.4byte	0x350
 632 034c 02       		.byte	0x2
 633 034d 23       		.byte	0x23
 634 034e 00       		.uleb128 0
 635 034f 00       		.byte	0
 636 0350 09       		.uleb128 0x9
 637 0351 04       		.byte	0x4
 638 0352 A6020000 		.4byte	0x2a6
 639 0356 0D       		.uleb128 0xd
 640 0357 09010000 		.4byte	0x109
 641 035b 05       		.uleb128 0x5
 642 035c 69020000 		.4byte	.LASF49
 643 0360 10       		.byte	0x10
 644 0361 08       		.byte	0x8
 645 0362 2C       		.byte	0x2c
 646 0363 92030000 		.4byte	0x392
 647 0367 06       		.uleb128 0x6
 648 0368 05010000 		.4byte	.LASF50
 649 036c 08       		.byte	0x8
 650 036d 2D       		.byte	0x2d
 651 036e 61020000 		.4byte	0x261
 652 0372 02       		.byte	0x2
 653 0373 23       		.byte	0x23
 654 0374 00       		.uleb128 0
 655 0375 06       		.uleb128 0x6
 656 0376 D2040000 		.4byte	.LASF51
 657 037a 08       		.byte	0x8
 658 037b 2F       		.byte	0x2f
 659 037c 5B020000 		.4byte	0x25b
 660 0380 02       		.byte	0x2
 661 0381 23       		.byte	0x23
 662 0382 08       		.uleb128 0x8
 663 0383 06       		.uleb128 0x6
 664 0384 11040000 		.4byte	.LASF52
 665 0388 08       		.byte	0x8
 666 0389 31       		.byte	0x31
 667 038a 92030000 		.4byte	0x392
 668 038e 02       		.byte	0x2
 669 038f 23       		.byte	0x23
 670 0390 0C       		.uleb128 0xc
 671 0391 00       		.byte	0
 672 0392 09       		.uleb128 0x9
 673 0393 04       		.byte	0x4
 674 0394 5B030000 		.4byte	0x35b
 675 0398 03       		.uleb128 0x3
 676 0399 69020000 		.4byte	.LASF49
ARM GAS  /tmp/ccMwYgwb.s 			page 13


 677 039d 08       		.byte	0x8
 678 039e 33       		.byte	0x33
 679 039f 5B030000 		.4byte	0x35b
 680 03a3 03       		.uleb128 0x3
 681 03a4 94040000 		.4byte	.LASF53
 682 03a8 09       		.byte	0x9
 683 03a9 29       		.byte	0x29
 684 03aa AE030000 		.4byte	0x3ae
 685 03ae 05       		.uleb128 0x5
 686 03af 94040000 		.4byte	.LASF53
 687 03b3 0C       		.byte	0xc
 688 03b4 09       		.byte	0x9
 689 03b5 2E       		.byte	0x2e
 690 03b6 E5030000 		.4byte	0x3e5
 691 03ba 06       		.uleb128 0x6
 692 03bb 67030000 		.4byte	.LASF54
 693 03bf 09       		.byte	0x9
 694 03c0 2F       		.byte	0x2f
 695 03c1 E5030000 		.4byte	0x3e5
 696 03c5 02       		.byte	0x2
 697 03c6 23       		.byte	0x23
 698 03c7 00       		.uleb128 0
 699 03c8 06       		.uleb128 0x6
 700 03c9 1A030000 		.4byte	.LASF55
 701 03cd 09       		.byte	0x9
 702 03ce 32       		.byte	0x32
 703 03cf 5B020000 		.4byte	0x25b
 704 03d3 02       		.byte	0x2
 705 03d4 23       		.byte	0x23
 706 03d5 04       		.uleb128 0x4
 707 03d6 06       		.uleb128 0x6
 708 03d7 8E020000 		.4byte	.LASF56
 709 03db 09       		.byte	0x9
 710 03dc 34       		.byte	0x34
 711 03dd FE000000 		.4byte	0xfe
 712 03e1 02       		.byte	0x2
 713 03e2 23       		.byte	0x23
 714 03e3 08       		.uleb128 0x8
 715 03e4 00       		.byte	0
 716 03e5 09       		.uleb128 0x9
 717 03e6 04       		.byte	0x4
 718 03e7 A3030000 		.4byte	0x3a3
 719 03eb 05       		.uleb128 0x5
 720 03ec 6F010000 		.4byte	.LASF57
 721 03f0 04       		.byte	0x4
 722 03f1 09       		.byte	0x9
 723 03f2 3C       		.byte	0x3c
 724 03f3 06040000 		.4byte	0x406
 725 03f7 06       		.uleb128 0x6
 726 03f8 64040000 		.4byte	.LASF58
 727 03fc 09       		.byte	0x9
 728 03fd 3D       		.byte	0x3d
 729 03fe E5030000 		.4byte	0x3e5
 730 0402 02       		.byte	0x2
 731 0403 23       		.byte	0x23
 732 0404 00       		.uleb128 0
 733 0405 00       		.byte	0
ARM GAS  /tmp/ccMwYgwb.s 			page 14


 734 0406 03       		.uleb128 0x3
 735 0407 6F010000 		.4byte	.LASF57
 736 040b 09       		.byte	0x9
 737 040c 40       		.byte	0x40
 738 040d EB030000 		.4byte	0x3eb
 739 0411 0E       		.uleb128 0xe
 740 0412 04       		.byte	0x4
 741 0413 06       		.byte	0x6
 742 0414 90       		.byte	0x90
 743 0415 46040000 		.4byte	0x446
 744 0419 0F       		.uleb128 0xf
 745 041a 10000000 		.4byte	.LASF59
 746 041e 06       		.byte	0x6
 747 041f 97       		.byte	0x97
 748 0420 F3000000 		.4byte	0xf3
 749 0424 0F       		.uleb128 0xf
 750 0425 9D000000 		.4byte	.LASF60
 751 0429 06       		.byte	0x6
 752 042a 9E       		.byte	0x9e
 753 042b F3000000 		.4byte	0xf3
 754 042f 0F       		.uleb128 0xf
 755 0430 A2040000 		.4byte	.LASF61
 756 0434 06       		.byte	0x6
 757 0435 A5       		.byte	0xa5
 758 0436 99020000 		.4byte	0x299
 759 043a 0F       		.uleb128 0xf
 760 043b 51030000 		.4byte	.LASF62
 761 043f 06       		.byte	0x6
 762 0440 AC       		.byte	0xac
 763 0441 FE000000 		.4byte	0xfe
 764 0445 00       		.byte	0
 765 0446 09       		.uleb128 0x9
 766 0447 04       		.byte	0x4
 767 0448 4C040000 		.4byte	0x44c
 768 044c 10       		.uleb128 0x10
 769 044d 51040000 		.4byte	0x451
 770 0451 04       		.uleb128 0x4
 771 0452 01       		.byte	0x1
 772 0453 08       		.byte	0x8
 773 0454 05040000 		.4byte	.LASF63
 774 0458 09       		.uleb128 0x9
 775 0459 04       		.byte	0x4
 776 045a 98030000 		.4byte	0x398
 777 045e 03       		.uleb128 0x3
 778 045f 1E020000 		.4byte	.LASF64
 779 0463 0A       		.byte	0xa
 780 0464 37       		.byte	0x37
 781 0465 69040000 		.4byte	0x469
 782 0469 05       		.uleb128 0x5
 783 046a 1E020000 		.4byte	.LASF64
 784 046e 20       		.byte	0x20
 785 046f 0A       		.byte	0xa
 786 0470 45       		.byte	0x45
 787 0471 D8040000 		.4byte	0x4d8
 788 0475 06       		.uleb128 0x6
 789 0476 CD000000 		.4byte	.LASF65
 790 047a 0A       		.byte	0xa
ARM GAS  /tmp/ccMwYgwb.s 			page 15


 791 047b 46       		.byte	0x46
 792 047c 61020000 		.4byte	0x261
 793 0480 02       		.byte	0x2
 794 0481 23       		.byte	0x23
 795 0482 00       		.uleb128 0
 796 0483 06       		.uleb128 0x6
 797 0484 5F020000 		.4byte	.LASF66
 798 0488 0A       		.byte	0xa
 799 0489 47       		.byte	0x47
 800 048a 30000000 		.4byte	0x30
 801 048e 02       		.byte	0x2
 802 048f 23       		.byte	0x23
 803 0490 08       		.uleb128 0x8
 804 0491 06       		.uleb128 0x6
 805 0492 38010000 		.4byte	.LASF67
 806 0496 0A       		.byte	0xa
 807 0497 48       		.byte	0x48
 808 0498 FB040000 		.4byte	0x4fb
 809 049c 02       		.byte	0x2
 810 049d 23       		.byte	0x23
 811 049e 0C       		.uleb128 0xc
 812 049f 06       		.uleb128 0x6
 813 04a0 57040000 		.4byte	.LASF68
 814 04a4 0A       		.byte	0xa
 815 04a5 49       		.byte	0x49
 816 04a6 FB040000 		.4byte	0x4fb
 817 04aa 02       		.byte	0x2
 818 04ab 23       		.byte	0x23
 819 04ac 10       		.uleb128 0x10
 820 04ad 06       		.uleb128 0x6
 821 04ae 41010000 		.4byte	.LASF69
 822 04b2 0A       		.byte	0xa
 823 04b3 4B       		.byte	0x4b
 824 04b4 FB040000 		.4byte	0x4fb
 825 04b8 02       		.byte	0x2
 826 04b9 23       		.byte	0x23
 827 04ba 14       		.uleb128 0x14
 828 04bb 06       		.uleb128 0x6
 829 04bc F6020000 		.4byte	.LASF70
 830 04c0 0A       		.byte	0xa
 831 04c1 4C       		.byte	0x4c
 832 04c2 FB040000 		.4byte	0x4fb
 833 04c6 02       		.byte	0x2
 834 04c7 23       		.byte	0x23
 835 04c8 18       		.uleb128 0x18
 836 04c9 06       		.uleb128 0x6
 837 04ca 6C040000 		.4byte	.LASF71
 838 04ce 0A       		.byte	0xa
 839 04cf 4D       		.byte	0x4d
 840 04d0 D8040000 		.4byte	0x4d8
 841 04d4 02       		.byte	0x2
 842 04d5 23       		.byte	0x23
 843 04d6 1C       		.uleb128 0x1c
 844 04d7 00       		.byte	0
 845 04d8 03       		.uleb128 0x3
 846 04d9 14020000 		.4byte	.LASF72
 847 04dd 0A       		.byte	0xa
ARM GAS  /tmp/ccMwYgwb.s 			page 16


 848 04de 3A       		.byte	0x3a
 849 04df E3040000 		.4byte	0x4e3
 850 04e3 09       		.uleb128 0x9
 851 04e4 04       		.byte	0x4
 852 04e5 E9040000 		.4byte	0x4e9
 853 04e9 11       		.uleb128 0x11
 854 04ea 01       		.byte	0x1
 855 04eb F5040000 		.4byte	0x4f5
 856 04ef 12       		.uleb128 0x12
 857 04f0 F5040000 		.4byte	0x4f5
 858 04f4 00       		.byte	0
 859 04f5 09       		.uleb128 0x9
 860 04f6 04       		.byte	0x4
 861 04f7 5E040000 		.4byte	0x45e
 862 04fb 09       		.uleb128 0x9
 863 04fc 04       		.byte	0x4
 864 04fd 49000000 		.4byte	0x49
 865 0501 03       		.uleb128 0x3
 866 0502 83040000 		.4byte	.LASF73
 867 0506 0A       		.byte	0xa
 868 0507 76       		.byte	0x76
 869 0508 5E040000 		.4byte	0x45e
 870 050c 03       		.uleb128 0x3
 871 050d 20000000 		.4byte	.LASF74
 872 0511 0A       		.byte	0xa
 873 0512 E6       		.byte	0xe6
 874 0513 5E040000 		.4byte	0x45e
 875 0517 13       		.uleb128 0x13
 876 0518 01       		.byte	0x1
 877 0519 30000000 		.4byte	0x30
 878 051d 31050000 		.4byte	0x531
 879 0521 12       		.uleb128 0x12
 880 0522 99020000 		.4byte	0x299
 881 0526 12       		.uleb128 0x12
 882 0527 31050000 		.4byte	0x531
 883 052b 12       		.uleb128 0x12
 884 052c 30000000 		.4byte	0x30
 885 0530 00       		.byte	0
 886 0531 09       		.uleb128 0x9
 887 0532 04       		.byte	0x4
 888 0533 37050000 		.4byte	0x537
 889 0537 10       		.uleb128 0x10
 890 0538 49000000 		.4byte	0x49
 891 053c 09       		.uleb128 0x9
 892 053d 04       		.byte	0x4
 893 053e 17050000 		.4byte	0x517
 894 0542 13       		.uleb128 0x13
 895 0543 01       		.byte	0x1
 896 0544 30000000 		.4byte	0x30
 897 0548 5C050000 		.4byte	0x55c
 898 054c 12       		.uleb128 0x12
 899 054d 99020000 		.4byte	0x299
 900 0551 12       		.uleb128 0x12
 901 0552 FB040000 		.4byte	0x4fb
 902 0556 12       		.uleb128 0x12
 903 0557 30000000 		.4byte	0x30
 904 055b 00       		.byte	0
ARM GAS  /tmp/ccMwYgwb.s 			page 17


 905 055c 09       		.uleb128 0x9
 906 055d 04       		.byte	0x4
 907 055e 42050000 		.4byte	0x542
 908 0562 13       		.uleb128 0x13
 909 0563 01       		.byte	0x1
 910 0564 BC000000 		.4byte	0xbc
 911 0568 72050000 		.4byte	0x572
 912 056c 12       		.uleb128 0x12
 913 056d 99020000 		.4byte	0x299
 914 0571 00       		.byte	0
 915 0572 09       		.uleb128 0x9
 916 0573 04       		.byte	0x4
 917 0574 62050000 		.4byte	0x562
 918 0578 13       		.uleb128 0x13
 919 0579 01       		.byte	0x1
 920 057a F3000000 		.4byte	0xf3
 921 057e 92050000 		.4byte	0x592
 922 0582 12       		.uleb128 0x12
 923 0583 99020000 		.4byte	0x299
 924 0587 12       		.uleb128 0x12
 925 0588 49000000 		.4byte	0x49
 926 058c 12       		.uleb128 0x12
 927 058d 09010000 		.4byte	0x109
 928 0591 00       		.byte	0
 929 0592 09       		.uleb128 0x9
 930 0593 04       		.byte	0x4
 931 0594 78050000 		.4byte	0x578
 932 0598 13       		.uleb128 0x13
 933 0599 01       		.byte	0x1
 934 059a F3000000 		.4byte	0xf3
 935 059e AD050000 		.4byte	0x5ad
 936 05a2 12       		.uleb128 0x12
 937 05a3 99020000 		.4byte	0x299
 938 05a7 12       		.uleb128 0x12
 939 05a8 09010000 		.4byte	0x109
 940 05ac 00       		.byte	0
 941 05ad 09       		.uleb128 0x9
 942 05ae 04       		.byte	0x4
 943 05af 98050000 		.4byte	0x598
 944 05b3 13       		.uleb128 0x13
 945 05b4 01       		.byte	0x1
 946 05b5 30000000 		.4byte	0x30
 947 05b9 D2050000 		.4byte	0x5d2
 948 05bd 12       		.uleb128 0x12
 949 05be 99020000 		.4byte	0x299
 950 05c2 12       		.uleb128 0x12
 951 05c3 31050000 		.4byte	0x531
 952 05c7 12       		.uleb128 0x12
 953 05c8 30000000 		.4byte	0x30
 954 05cc 12       		.uleb128 0x12
 955 05cd 09010000 		.4byte	0x109
 956 05d1 00       		.byte	0
 957 05d2 09       		.uleb128 0x9
 958 05d3 04       		.byte	0x4
 959 05d4 B3050000 		.4byte	0x5b3
 960 05d8 13       		.uleb128 0x13
 961 05d9 01       		.byte	0x1
ARM GAS  /tmp/ccMwYgwb.s 			page 18


 962 05da 30000000 		.4byte	0x30
 963 05de F7050000 		.4byte	0x5f7
 964 05e2 12       		.uleb128 0x12
 965 05e3 99020000 		.4byte	0x299
 966 05e7 12       		.uleb128 0x12
 967 05e8 FB040000 		.4byte	0x4fb
 968 05ec 12       		.uleb128 0x12
 969 05ed 30000000 		.4byte	0x30
 970 05f1 12       		.uleb128 0x12
 971 05f2 09010000 		.4byte	0x109
 972 05f6 00       		.byte	0
 973 05f7 09       		.uleb128 0x9
 974 05f8 04       		.byte	0x4
 975 05f9 D8050000 		.4byte	0x5d8
 976 05fd 14       		.uleb128 0x14
 977 05fe 77020000 		.4byte	.LASF75
 978 0602 0B       		.byte	0xb
 979 0603 0B01     		.2byte	0x10b
 980 0605 B1000000 		.4byte	0xb1
 981 0609 13       		.uleb128 0x13
 982 060a 01       		.byte	0x1
 983 060b FD050000 		.4byte	0x5fd
 984 060f 19060000 		.4byte	0x619
 985 0613 12       		.uleb128 0x12
 986 0614 99020000 		.4byte	0x299
 987 0618 00       		.byte	0
 988 0619 09       		.uleb128 0x9
 989 061a 04       		.byte	0x4
 990 061b 09060000 		.4byte	0x609
 991 061f 0D       		.uleb128 0xd
 992 0620 62000000 		.4byte	0x62
 993 0624 0D       		.uleb128 0xd
 994 0625 74000000 		.4byte	0x74
 995 0629 15       		.uleb128 0x15
 996 062a 1C       		.byte	0x1c
 997 062b 0C       		.byte	0xc
 998 062c 9303     		.2byte	0x393
 999 062e 03070000 		.4byte	0x703
 1000 0632 0B       		.uleb128 0xb
 1001 0633 535200   		.ascii	"SR\000"
 1002 0636 0C       		.byte	0xc
 1003 0637 9503     		.2byte	0x395
 1004 0639 1F060000 		.4byte	0x61f
 1005 063d 02       		.byte	0x2
 1006 063e 23       		.byte	0x23
 1007 063f 00       		.uleb128 0
 1008 0640 16       		.uleb128 0x16
 1009 0641 AB020000 		.4byte	.LASF76
 1010 0645 0C       		.byte	0xc
 1011 0646 9603     		.2byte	0x396
 1012 0648 62000000 		.4byte	0x62
 1013 064c 02       		.byte	0x2
 1014 064d 23       		.byte	0x23
 1015 064e 02       		.uleb128 0x2
 1016 064f 0B       		.uleb128 0xb
 1017 0650 445200   		.ascii	"DR\000"
 1018 0653 0C       		.byte	0xc
ARM GAS  /tmp/ccMwYgwb.s 			page 19


 1019 0654 9703     		.2byte	0x397
 1020 0656 1F060000 		.4byte	0x61f
 1021 065a 02       		.byte	0x2
 1022 065b 23       		.byte	0x23
 1023 065c 04       		.uleb128 0x4
 1024 065d 16       		.uleb128 0x16
 1025 065e B5020000 		.4byte	.LASF77
 1026 0662 0C       		.byte	0xc
 1027 0663 9803     		.2byte	0x398
 1028 0665 62000000 		.4byte	0x62
 1029 0669 02       		.byte	0x2
 1030 066a 23       		.byte	0x23
 1031 066b 06       		.uleb128 0x6
 1032 066c 0B       		.uleb128 0xb
 1033 066d 42525200 		.ascii	"BRR\000"
 1034 0671 0C       		.byte	0xc
 1035 0672 9903     		.2byte	0x399
 1036 0674 1F060000 		.4byte	0x61f
 1037 0678 02       		.byte	0x2
 1038 0679 23       		.byte	0x23
 1039 067a 08       		.uleb128 0x8
 1040 067b 16       		.uleb128 0x16
 1041 067c BF020000 		.4byte	.LASF78
 1042 0680 0C       		.byte	0xc
 1043 0681 9A03     		.2byte	0x39a
 1044 0683 62000000 		.4byte	0x62
 1045 0687 02       		.byte	0x2
 1046 0688 23       		.byte	0x23
 1047 0689 0A       		.uleb128 0xa
 1048 068a 0B       		.uleb128 0xb
 1049 068b 43523100 		.ascii	"CR1\000"
 1050 068f 0C       		.byte	0xc
 1051 0690 9B03     		.2byte	0x39b
 1052 0692 1F060000 		.4byte	0x61f
 1053 0696 02       		.byte	0x2
 1054 0697 23       		.byte	0x23
 1055 0698 0C       		.uleb128 0xc
 1056 0699 16       		.uleb128 0x16
 1057 069a C9020000 		.4byte	.LASF79
 1058 069e 0C       		.byte	0xc
 1059 069f 9C03     		.2byte	0x39c
 1060 06a1 62000000 		.4byte	0x62
 1061 06a5 02       		.byte	0x2
 1062 06a6 23       		.byte	0x23
 1063 06a7 0E       		.uleb128 0xe
 1064 06a8 0B       		.uleb128 0xb
 1065 06a9 43523200 		.ascii	"CR2\000"
 1066 06ad 0C       		.byte	0xc
 1067 06ae 9D03     		.2byte	0x39d
 1068 06b0 1F060000 		.4byte	0x61f
 1069 06b4 02       		.byte	0x2
 1070 06b5 23       		.byte	0x23
 1071 06b6 10       		.uleb128 0x10
 1072 06b7 16       		.uleb128 0x16
 1073 06b8 D3020000 		.4byte	.LASF80
 1074 06bc 0C       		.byte	0xc
 1075 06bd 9E03     		.2byte	0x39e
ARM GAS  /tmp/ccMwYgwb.s 			page 20


 1076 06bf 62000000 		.4byte	0x62
 1077 06c3 02       		.byte	0x2
 1078 06c4 23       		.byte	0x23
 1079 06c5 12       		.uleb128 0x12
 1080 06c6 0B       		.uleb128 0xb
 1081 06c7 43523300 		.ascii	"CR3\000"
 1082 06cb 0C       		.byte	0xc
 1083 06cc 9F03     		.2byte	0x39f
 1084 06ce 1F060000 		.4byte	0x61f
 1085 06d2 02       		.byte	0x2
 1086 06d3 23       		.byte	0x23
 1087 06d4 14       		.uleb128 0x14
 1088 06d5 16       		.uleb128 0x16
 1089 06d6 A4030000 		.4byte	.LASF81
 1090 06da 0C       		.byte	0xc
 1091 06db A003     		.2byte	0x3a0
 1092 06dd 62000000 		.4byte	0x62
 1093 06e1 02       		.byte	0x2
 1094 06e2 23       		.byte	0x23
 1095 06e3 16       		.uleb128 0x16
 1096 06e4 16       		.uleb128 0x16
 1097 06e5 F1000000 		.4byte	.LASF82
 1098 06e9 0C       		.byte	0xc
 1099 06ea A103     		.2byte	0x3a1
 1100 06ec 1F060000 		.4byte	0x61f
 1101 06f0 02       		.byte	0x2
 1102 06f1 23       		.byte	0x23
 1103 06f2 18       		.uleb128 0x18
 1104 06f3 16       		.uleb128 0x16
 1105 06f4 E4020000 		.4byte	.LASF83
 1106 06f8 0C       		.byte	0xc
 1107 06f9 A203     		.2byte	0x3a2
 1108 06fb 62000000 		.4byte	0x62
 1109 06ff 02       		.byte	0x2
 1110 0700 23       		.byte	0x23
 1111 0701 1A       		.uleb128 0x1a
 1112 0702 00       		.byte	0
 1113 0703 14       		.uleb128 0x14
 1114 0704 DF010000 		.4byte	.LASF84
 1115 0708 0C       		.byte	0xc
 1116 0709 A303     		.2byte	0x3a3
 1117 070b 29060000 		.4byte	0x629
 1118 070f 17       		.uleb128 0x17
 1119 0710 01       		.byte	0x1
 1120 0711 0D       		.byte	0xd
 1121 0712 64       		.byte	0x64
 1122 0713 2A070000 		.4byte	0x72a
 1123 0717 18       		.uleb128 0x18
 1124 0718 9A030000 		.4byte	.LASF85
 1125 071c 00       		.sleb128 0
 1126 071d 18       		.uleb128 0x18
 1127 071e 6F030000 		.4byte	.LASF86
 1128 0722 01       		.sleb128 1
 1129 0723 18       		.uleb128 0x18
 1130 0724 45040000 		.4byte	.LASF87
 1131 0728 02       		.sleb128 2
 1132 0729 00       		.byte	0
ARM GAS  /tmp/ccMwYgwb.s 			page 21


 1133 072a 03       		.uleb128 0x3
 1134 072b BB030000 		.4byte	.LASF88
 1135 072f 0D       		.byte	0xd
 1136 0730 68       		.byte	0x68
 1137 0731 0F070000 		.4byte	0x70f
 1138 0735 03       		.uleb128 0x3
 1139 0736 C5030000 		.4byte	.LASF89
 1140 073a 0D       		.byte	0xd
 1141 073b 6D       		.byte	0x6d
 1142 073c 40070000 		.4byte	0x740
 1143 0740 05       		.uleb128 0x5
 1144 0741 C5030000 		.4byte	.LASF89
 1145 0745 74       		.byte	0x74
 1146 0746 0D       		.byte	0xd
 1147 0747 87       		.byte	0x87
 1148 0748 C9070000 		.4byte	0x7c9
 1149 074c 07       		.uleb128 0x7
 1150 074d 766D7400 		.ascii	"vmt\000"
 1151 0751 0D       		.byte	0xd
 1152 0752 89       		.byte	0x89
 1153 0753 A0080000 		.4byte	0x8a0
 1154 0757 02       		.byte	0x2
 1155 0758 23       		.byte	0x23
 1156 0759 00       		.uleb128 0
 1157 075a 06       		.uleb128 0x6
 1158 075b B9010000 		.4byte	.LASF90
 1159 075f 0D       		.byte	0xd
 1160 0760 8A       		.byte	0x8a
 1161 0761 06040000 		.4byte	0x406
 1162 0765 02       		.byte	0x2
 1163 0766 23       		.byte	0x23
 1164 0767 04       		.uleb128 0x4
 1165 0768 06       		.uleb128 0x6
 1166 0769 8E040000 		.4byte	.LASF91
 1167 076d 0D       		.byte	0xd
 1168 076e 8A       		.byte	0x8a
 1169 076f FD050000 		.4byte	0x5fd
 1170 0773 02       		.byte	0x2
 1171 0774 23       		.byte	0x23
 1172 0775 08       		.uleb128 0x8
 1173 0776 06       		.uleb128 0x6
 1174 0777 0D010000 		.4byte	.LASF92
 1175 077b 0D       		.byte	0xd
 1176 077c 8A       		.byte	0x8a
 1177 077d 2A070000 		.4byte	0x72a
 1178 0781 02       		.byte	0x2
 1179 0782 23       		.byte	0x23
 1180 0783 0C       		.uleb128 0xc
 1181 0784 06       		.uleb128 0x6
 1182 0785 A7010000 		.4byte	.LASF93
 1183 0789 0D       		.byte	0xd
 1184 078a 8A       		.byte	0x8a
 1185 078b 01050000 		.4byte	0x501
 1186 078f 02       		.byte	0x2
 1187 0790 23       		.byte	0x23
 1188 0791 10       		.uleb128 0x10
 1189 0792 06       		.uleb128 0x6
ARM GAS  /tmp/ccMwYgwb.s 			page 22


 1190 0793 D8010000 		.4byte	.LASF94
 1191 0797 0D       		.byte	0xd
 1192 0798 8A       		.byte	0x8a
 1193 0799 0C050000 		.4byte	0x50c
 1194 079d 02       		.byte	0x2
 1195 079e 23       		.byte	0x23
 1196 079f 30       		.uleb128 0x30
 1197 07a0 07       		.uleb128 0x7
 1198 07a1 696200   		.ascii	"ib\000"
 1199 07a4 0D       		.byte	0xd
 1200 07a5 8A       		.byte	0x8a
 1201 07a6 AB080000 		.4byte	0x8ab
 1202 07aa 02       		.byte	0x2
 1203 07ab 23       		.byte	0x23
 1204 07ac 50       		.uleb128 0x50
 1205 07ad 07       		.uleb128 0x7
 1206 07ae 6F6200   		.ascii	"ob\000"
 1207 07b1 0D       		.byte	0xd
 1208 07b2 8A       		.byte	0x8a
 1209 07b3 AB080000 		.4byte	0x8ab
 1210 07b7 02       		.byte	0x2
 1211 07b8 23       		.byte	0x23
 1212 07b9 60       		.uleb128 0x60
 1213 07ba 06       		.uleb128 0x6
 1214 07bb 7B010000 		.4byte	.LASF95
 1215 07bf 0D       		.byte	0xd
 1216 07c0 8A       		.byte	0x8a
 1217 07c1 BB080000 		.4byte	0x8bb
 1218 07c5 02       		.byte	0x2
 1219 07c6 23       		.byte	0x23
 1220 07c7 70       		.uleb128 0x70
 1221 07c8 00       		.byte	0
 1222 07c9 08       		.uleb128 0x8
 1223 07ca 0C       		.byte	0xc
 1224 07cb 0E       		.byte	0xe
 1225 07cc C4       		.byte	0xc4
 1226 07cd 0A080000 		.4byte	0x80a
 1227 07d1 06       		.uleb128 0x6
 1228 07d2 00000000 		.4byte	.LASF96
 1229 07d6 0E       		.byte	0xe
 1230 07d7 C8       		.byte	0xc8
 1231 07d8 86000000 		.4byte	0x86
 1232 07dc 02       		.byte	0x2
 1233 07dd 23       		.byte	0x23
 1234 07de 00       		.uleb128 0
 1235 07df 06       		.uleb128 0x6
 1236 07e0 BD040000 		.4byte	.LASF97
 1237 07e4 0E       		.byte	0xe
 1238 07e5 CC       		.byte	0xcc
 1239 07e6 62000000 		.4byte	0x62
 1240 07ea 02       		.byte	0x2
 1241 07eb 23       		.byte	0x23
 1242 07ec 04       		.uleb128 0x4
 1243 07ed 06       		.uleb128 0x6
 1244 07ee C4040000 		.4byte	.LASF98
 1245 07f2 0E       		.byte	0xe
 1246 07f3 D0       		.byte	0xd0
ARM GAS  /tmp/ccMwYgwb.s 			page 23


 1247 07f4 62000000 		.4byte	0x62
 1248 07f8 02       		.byte	0x2
 1249 07f9 23       		.byte	0x23
 1250 07fa 06       		.uleb128 0x6
 1251 07fb 06       		.uleb128 0x6
 1252 07fc CB040000 		.4byte	.LASF99
 1253 0800 0E       		.byte	0xe
 1254 0801 D4       		.byte	0xd4
 1255 0802 62000000 		.4byte	0x62
 1256 0806 02       		.byte	0x2
 1257 0807 23       		.byte	0x23
 1258 0808 08       		.uleb128 0x8
 1259 0809 00       		.byte	0
 1260 080a 03       		.uleb128 0x3
 1261 080b 96020000 		.4byte	.LASF100
 1262 080f 0E       		.byte	0xe
 1263 0810 D5       		.byte	0xd5
 1264 0811 C9070000 		.4byte	0x7c9
 1265 0815 05       		.uleb128 0x5
 1266 0816 97010000 		.4byte	.LASF101
 1267 081a 24       		.byte	0x24
 1268 081b 0D       		.byte	0xd
 1269 081c 7C       		.byte	0x7c
 1270 081d A0080000 		.4byte	0x8a0
 1271 0821 06       		.uleb128 0x6
 1272 0822 36020000 		.4byte	.LASF102
 1273 0826 0D       		.byte	0xd
 1274 0827 7D       		.byte	0x7d
 1275 0828 3C050000 		.4byte	0x53c
 1276 082c 02       		.byte	0x2
 1277 082d 23       		.byte	0x23
 1278 082e 00       		.uleb128 0
 1279 082f 06       		.uleb128 0x6
 1280 0830 00040000 		.4byte	.LASF103
 1281 0834 0D       		.byte	0xd
 1282 0835 7D       		.byte	0x7d
 1283 0836 5C050000 		.4byte	0x55c
 1284 083a 02       		.byte	0x2
 1285 083b 23       		.byte	0x23
 1286 083c 04       		.uleb128 0x4
 1287 083d 06       		.uleb128 0x6
 1288 083e 58010000 		.4byte	.LASF104
 1289 0842 0D       		.byte	0xd
 1290 0843 7D       		.byte	0x7d
 1291 0844 72050000 		.4byte	0x572
 1292 0848 02       		.byte	0x2
 1293 0849 23       		.byte	0x23
 1294 084a 08       		.uleb128 0x8
 1295 084b 06       		.uleb128 0x6
 1296 084c A9040000 		.4byte	.LASF105
 1297 0850 0D       		.byte	0xd
 1298 0851 7D       		.byte	0x7d
 1299 0852 72050000 		.4byte	0x572
 1300 0856 02       		.byte	0x2
 1301 0857 23       		.byte	0x23
 1302 0858 0C       		.uleb128 0xc
 1303 0859 07       		.uleb128 0x7
ARM GAS  /tmp/ccMwYgwb.s 			page 24


 1304 085a 70757400 		.ascii	"put\000"
 1305 085e 0D       		.byte	0xd
 1306 085f 7D       		.byte	0x7d
 1307 0860 92050000 		.4byte	0x592
 1308 0864 02       		.byte	0x2
 1309 0865 23       		.byte	0x23
 1310 0866 10       		.uleb128 0x10
 1311 0867 07       		.uleb128 0x7
 1312 0868 67657400 		.ascii	"get\000"
 1313 086c 0D       		.byte	0xd
 1314 086d 7D       		.byte	0x7d
 1315 086e AD050000 		.4byte	0x5ad
 1316 0872 02       		.byte	0x2
 1317 0873 23       		.byte	0x23
 1318 0874 14       		.uleb128 0x14
 1319 0875 06       		.uleb128 0x6
 1320 0876 ED010000 		.4byte	.LASF106
 1321 087a 0D       		.byte	0xd
 1322 087b 7D       		.byte	0x7d
 1323 087c D2050000 		.4byte	0x5d2
 1324 0880 02       		.byte	0x2
 1325 0881 23       		.byte	0x23
 1326 0882 18       		.uleb128 0x18
 1327 0883 06       		.uleb128 0x6
 1328 0884 C7000000 		.4byte	.LASF107
 1329 0888 0D       		.byte	0xd
 1330 0889 7D       		.byte	0x7d
 1331 088a F7050000 		.4byte	0x5f7
 1332 088e 02       		.byte	0x2
 1333 088f 23       		.byte	0x23
 1334 0890 1C       		.uleb128 0x1c
 1335 0891 06       		.uleb128 0x6
 1336 0892 2D040000 		.4byte	.LASF108
 1337 0896 0D       		.byte	0xd
 1338 0897 7D       		.byte	0x7d
 1339 0898 19060000 		.4byte	0x619
 1340 089c 02       		.byte	0x2
 1341 089d 23       		.byte	0x23
 1342 089e 20       		.uleb128 0x20
 1343 089f 00       		.byte	0
 1344 08a0 09       		.uleb128 0x9
 1345 08a1 04       		.byte	0x4
 1346 08a2 A6080000 		.4byte	0x8a6
 1347 08a6 10       		.uleb128 0x10
 1348 08a7 15080000 		.4byte	0x815
 1349 08ab 19       		.uleb128 0x19
 1350 08ac 49000000 		.4byte	0x49
 1351 08b0 BB080000 		.4byte	0x8bb
 1352 08b4 1A       		.uleb128 0x1a
 1353 08b5 3B000000 		.4byte	0x3b
 1354 08b9 0F       		.byte	0xf
 1355 08ba 00       		.byte	0
 1356 08bb 09       		.uleb128 0x9
 1357 08bc 04       		.byte	0x4
 1358 08bd 03070000 		.4byte	0x703
 1359 08c1 05       		.uleb128 0x5
 1360 08c2 7E030000 		.4byte	.LASF109
ARM GAS  /tmp/ccMwYgwb.s 			page 25


 1361 08c6 B0       		.byte	0xb0
 1362 08c7 0F       		.byte	0xf
 1363 08c8 15       		.byte	0x15
 1364 08c9 07090000 		.4byte	0x907
 1365 08cd 06       		.uleb128 0x6
 1366 08ce B7040000 		.4byte	.LASF110
 1367 08d2 0F       		.byte	0xf
 1368 08d3 16       		.byte	0x16
 1369 08d4 29000000 		.4byte	0x29
 1370 08d8 02       		.byte	0x2
 1371 08d9 23       		.byte	0x23
 1372 08da 00       		.uleb128 0
 1373 08db 07       		.uleb128 0x7
 1374 08dc 656E6400 		.ascii	"end\000"
 1375 08e0 0F       		.byte	0xf
 1376 08e1 17       		.byte	0x17
 1377 08e2 29000000 		.4byte	0x29
 1378 08e6 02       		.byte	0x2
 1379 08e7 23       		.byte	0x23
 1380 08e8 04       		.uleb128 0x4
 1381 08e9 06       		.uleb128 0x6
 1382 08ea 57020000 		.4byte	.LASF111
 1383 08ee 0F       		.byte	0xf
 1384 08ef 18       		.byte	0x18
 1385 08f0 07090000 		.4byte	0x907
 1386 08f4 02       		.byte	0x2
 1387 08f5 23       		.byte	0x23
 1388 08f6 08       		.uleb128 0x8
 1389 08f7 06       		.uleb128 0x6
 1390 08f8 FE020000 		.4byte	.LASF112
 1391 08fc 0F       		.byte	0xf
 1392 08fd 19       		.byte	0x19
 1393 08fe 98030000 		.4byte	0x398
 1394 0902 03       		.byte	0x3
 1395 0903 23       		.byte	0x23
 1396 0904 A001     		.uleb128 0xa0
 1397 0906 00       		.byte	0
 1398 0907 19       		.uleb128 0x19
 1399 0908 51040000 		.4byte	0x451
 1400 090c 17090000 		.4byte	0x917
 1401 0910 1A       		.uleb128 0x1a
 1402 0911 3B000000 		.4byte	0x3b
 1403 0915 95       		.byte	0x95
 1404 0916 00       		.byte	0
 1405 0917 03       		.uleb128 0x3
 1406 0918 26030000 		.4byte	.LASF113
 1407 091c 0F       		.byte	0xf
 1408 091d 1A       		.byte	0x1a
 1409 091e C1080000 		.4byte	0x8c1
 1410 0922 1B       		.uleb128 0x1b
 1411 0923 4C020000 		.4byte	.LASF124
 1412 0927 01       		.byte	0x1
 1413 0928 17       		.byte	0x17
 1414 0929 01       		.byte	0x1
 1415 092a F3000000 		.4byte	0xf3
 1416 092e 00000000 		.4byte	.LFB117
 1417 0932 6C000000 		.4byte	.LFE117
ARM GAS  /tmp/ccMwYgwb.s 			page 26


 1418 0936 00000000 		.4byte	.LLST0
 1419 093a 92090000 		.4byte	0x992
 1420 093e 1C       		.uleb128 0x1c
 1421 093f 61726700 		.ascii	"arg\000"
 1422 0943 01       		.byte	0x1
 1423 0944 17       		.byte	0x17
 1424 0945 99020000 		.4byte	0x299
 1425 0949 38000000 		.4byte	.LLST1
 1426 094d 1D       		.uleb128 0x1d
 1427 094e 3C020000 		.4byte	.LASF114
 1428 0952 01       		.byte	0x1
 1429 0953 1A       		.byte	0x1a
 1430 0954 92090000 		.4byte	0x992
 1431 0958 10       		.byte	0x10
 1432 0959 1E       		.uleb128 0x1e
 1433 095a 1C010000 		.4byte	.LASF115
 1434 095e 01       		.byte	0x1
 1435 095f 1B       		.byte	0x1b
 1436 0960 92090000 		.4byte	0x992
 1437 0964 8025     		.2byte	0x2580
 1438 0966 1F       		.uleb128 0x1f
 1439 0967 0A040000 		.4byte	.LASF116
 1440 096b 01       		.byte	0x1
 1441 096c 1D       		.byte	0x1d
 1442 096d 0A080000 		.4byte	0x80a
 1443 0971 02       		.byte	0x2
 1444 0972 91       		.byte	0x91
 1445 0973 5C       		.sleb128 -36
 1446 0974 20       		.uleb128 0x20
 1447 0975 62756600 		.ascii	"buf\000"
 1448 0979 01       		.byte	0x1
 1449 097a 20       		.byte	0x20
 1450 097b 97090000 		.4byte	0x997
 1451 097f 4B000000 		.4byte	.LLST2
 1452 0983 1F       		.uleb128 0x1f
 1453 0984 2C000000 		.4byte	.LASF117
 1454 0988 01       		.byte	0x1
 1455 0989 21       		.byte	0x21
 1456 098a A7090000 		.4byte	0x9a7
 1457 098e 02       		.byte	0x2
 1458 098f 7D       		.byte	0x7d
 1459 0990 00       		.sleb128 0
 1460 0991 00       		.byte	0
 1461 0992 10       		.uleb128 0x10
 1462 0993 29000000 		.4byte	0x29
 1463 0997 19       		.uleb128 0x19
 1464 0998 51040000 		.4byte	0x451
 1465 099c A7090000 		.4byte	0x9a7
 1466 09a0 1A       		.uleb128 0x1a
 1467 09a1 3B000000 		.4byte	0x3b
 1468 09a5 11       		.byte	0x11
 1469 09a6 00       		.byte	0
 1470 09a7 19       		.uleb128 0x19
 1471 09a8 51040000 		.4byte	0x451
 1472 09ac B7090000 		.4byte	0x9b7
 1473 09b0 1A       		.uleb128 0x1a
 1474 09b1 3B000000 		.4byte	0x3b
ARM GAS  /tmp/ccMwYgwb.s 			page 27


 1475 09b5 19       		.byte	0x19
 1476 09b6 00       		.byte	0
 1477 09b7 21       		.uleb128 0x21
 1478 09b8 01       		.byte	0x1
 1479 09b9 D2030000 		.4byte	.LASF125
 1480 09bd 01       		.byte	0x1
 1481 09be 38       		.byte	0x38
 1482 09bf 01       		.byte	0x1
 1483 09c0 00000000 		.4byte	.LFB118
 1484 09c4 26000000 		.4byte	.LFE118
 1485 09c8 6B000000 		.4byte	.LLST3
 1486 09cc 19       		.uleb128 0x19
 1487 09cd 9B020000 		.4byte	0x29b
 1488 09d1 DC090000 		.4byte	0x9dc
 1489 09d5 1A       		.uleb128 0x1a
 1490 09d6 3B000000 		.4byte	0x3b
 1491 09da 95       		.byte	0x95
 1492 09db 00       		.byte	0
 1493 09dc 1F       		.uleb128 0x1f
 1494 09dd 31000000 		.4byte	.LASF118
 1495 09e1 01       		.byte	0x1
 1496 09e2 14       		.byte	0x14
 1497 09e3 CC090000 		.4byte	0x9cc
 1498 09e7 05       		.byte	0x5
 1499 09e8 03       		.byte	0x3
 1500 09e9 00000000 		.4byte	rfidWorkingArea
 1501 09ed 22       		.uleb128 0x22
 1502 09ee B3000000 		.4byte	.LASF119
 1503 09f2 10       		.byte	0x10
 1504 09f3 1A05     		.2byte	0x51a
 1505 09f5 24060000 		.4byte	0x624
 1506 09f9 01       		.byte	0x1
 1507 09fa 01       		.byte	0x1
 1508 09fb 23       		.uleb128 0x23
 1509 09fc 53443300 		.ascii	"SD3\000"
 1510 0a00 0E       		.byte	0xe
 1511 0a01 0101     		.2byte	0x101
 1512 0a03 35070000 		.4byte	0x735
 1513 0a07 01       		.byte	0x1
 1514 0a08 01       		.byte	0x1
 1515 0a09 24       		.uleb128 0x24
 1516 0a0a AE030000 		.4byte	.LASF120
 1517 0a0e 11       		.byte	0x11
 1518 0a0f 32       		.byte	0x32
 1519 0a10 17090000 		.4byte	0x917
 1520 0a14 01       		.byte	0x1
 1521 0a15 01       		.byte	0x1
 1522 0a16 00       		.byte	0
 1523              		.section	.debug_abbrev,"",%progbits
 1524              	.Ldebug_abbrev0:
 1525 0000 01       		.uleb128 0x1
 1526 0001 11       		.uleb128 0x11
 1527 0002 01       		.byte	0x1
 1528 0003 25       		.uleb128 0x25
 1529 0004 0E       		.uleb128 0xe
 1530 0005 13       		.uleb128 0x13
 1531 0006 0B       		.uleb128 0xb
ARM GAS  /tmp/ccMwYgwb.s 			page 28


 1532 0007 03       		.uleb128 0x3
 1533 0008 0E       		.uleb128 0xe
 1534 0009 1B       		.uleb128 0x1b
 1535 000a 0E       		.uleb128 0xe
 1536 000b 11       		.uleb128 0x11
 1537 000c 01       		.uleb128 0x1
 1538 000d 52       		.uleb128 0x52
 1539 000e 01       		.uleb128 0x1
 1540 000f 55       		.uleb128 0x55
 1541 0010 06       		.uleb128 0x6
 1542 0011 10       		.uleb128 0x10
 1543 0012 06       		.uleb128 0x6
 1544 0013 00       		.byte	0
 1545 0014 00       		.byte	0
 1546 0015 02       		.uleb128 0x2
 1547 0016 24       		.uleb128 0x24
 1548 0017 00       		.byte	0
 1549 0018 0B       		.uleb128 0xb
 1550 0019 0B       		.uleb128 0xb
 1551 001a 3E       		.uleb128 0x3e
 1552 001b 0B       		.uleb128 0xb
 1553 001c 03       		.uleb128 0x3
 1554 001d 08       		.uleb128 0x8
 1555 001e 00       		.byte	0
 1556 001f 00       		.byte	0
 1557 0020 03       		.uleb128 0x3
 1558 0021 16       		.uleb128 0x16
 1559 0022 00       		.byte	0
 1560 0023 03       		.uleb128 0x3
 1561 0024 0E       		.uleb128 0xe
 1562 0025 3A       		.uleb128 0x3a
 1563 0026 0B       		.uleb128 0xb
 1564 0027 3B       		.uleb128 0x3b
 1565 0028 0B       		.uleb128 0xb
 1566 0029 49       		.uleb128 0x49
 1567 002a 13       		.uleb128 0x13
 1568 002b 00       		.byte	0
 1569 002c 00       		.byte	0
 1570 002d 04       		.uleb128 0x4
 1571 002e 24       		.uleb128 0x24
 1572 002f 00       		.byte	0
 1573 0030 0B       		.uleb128 0xb
 1574 0031 0B       		.uleb128 0xb
 1575 0032 3E       		.uleb128 0x3e
 1576 0033 0B       		.uleb128 0xb
 1577 0034 03       		.uleb128 0x3
 1578 0035 0E       		.uleb128 0xe
 1579 0036 00       		.byte	0
 1580 0037 00       		.byte	0
 1581 0038 05       		.uleb128 0x5
 1582 0039 13       		.uleb128 0x13
 1583 003a 01       		.byte	0x1
 1584 003b 03       		.uleb128 0x3
 1585 003c 0E       		.uleb128 0xe
 1586 003d 0B       		.uleb128 0xb
 1587 003e 0B       		.uleb128 0xb
 1588 003f 3A       		.uleb128 0x3a
ARM GAS  /tmp/ccMwYgwb.s 			page 29


 1589 0040 0B       		.uleb128 0xb
 1590 0041 3B       		.uleb128 0x3b
 1591 0042 0B       		.uleb128 0xb
 1592 0043 01       		.uleb128 0x1
 1593 0044 13       		.uleb128 0x13
 1594 0045 00       		.byte	0
 1595 0046 00       		.byte	0
 1596 0047 06       		.uleb128 0x6
 1597 0048 0D       		.uleb128 0xd
 1598 0049 00       		.byte	0
 1599 004a 03       		.uleb128 0x3
 1600 004b 0E       		.uleb128 0xe
 1601 004c 3A       		.uleb128 0x3a
 1602 004d 0B       		.uleb128 0xb
 1603 004e 3B       		.uleb128 0x3b
 1604 004f 0B       		.uleb128 0xb
 1605 0050 49       		.uleb128 0x49
 1606 0051 13       		.uleb128 0x13
 1607 0052 38       		.uleb128 0x38
 1608 0053 0A       		.uleb128 0xa
 1609 0054 00       		.byte	0
 1610 0055 00       		.byte	0
 1611 0056 07       		.uleb128 0x7
 1612 0057 0D       		.uleb128 0xd
 1613 0058 00       		.byte	0
 1614 0059 03       		.uleb128 0x3
 1615 005a 08       		.uleb128 0x8
 1616 005b 3A       		.uleb128 0x3a
 1617 005c 0B       		.uleb128 0xb
 1618 005d 3B       		.uleb128 0x3b
 1619 005e 0B       		.uleb128 0xb
 1620 005f 49       		.uleb128 0x49
 1621 0060 13       		.uleb128 0x13
 1622 0061 38       		.uleb128 0x38
 1623 0062 0A       		.uleb128 0xa
 1624 0063 00       		.byte	0
 1625 0064 00       		.byte	0
 1626 0065 08       		.uleb128 0x8
 1627 0066 13       		.uleb128 0x13
 1628 0067 01       		.byte	0x1
 1629 0068 0B       		.uleb128 0xb
 1630 0069 0B       		.uleb128 0xb
 1631 006a 3A       		.uleb128 0x3a
 1632 006b 0B       		.uleb128 0xb
 1633 006c 3B       		.uleb128 0x3b
 1634 006d 0B       		.uleb128 0xb
 1635 006e 01       		.uleb128 0x1
 1636 006f 13       		.uleb128 0x13
 1637 0070 00       		.byte	0
 1638 0071 00       		.byte	0
 1639 0072 09       		.uleb128 0x9
 1640 0073 0F       		.uleb128 0xf
 1641 0074 00       		.byte	0
 1642 0075 0B       		.uleb128 0xb
 1643 0076 0B       		.uleb128 0xb
 1644 0077 49       		.uleb128 0x49
 1645 0078 13       		.uleb128 0x13
ARM GAS  /tmp/ccMwYgwb.s 			page 30


 1646 0079 00       		.byte	0
 1647 007a 00       		.byte	0
 1648 007b 0A       		.uleb128 0xa
 1649 007c 0F       		.uleb128 0xf
 1650 007d 00       		.byte	0
 1651 007e 0B       		.uleb128 0xb
 1652 007f 0B       		.uleb128 0xb
 1653 0080 00       		.byte	0
 1654 0081 00       		.byte	0
 1655 0082 0B       		.uleb128 0xb
 1656 0083 0D       		.uleb128 0xd
 1657 0084 00       		.byte	0
 1658 0085 03       		.uleb128 0x3
 1659 0086 08       		.uleb128 0x8
 1660 0087 3A       		.uleb128 0x3a
 1661 0088 0B       		.uleb128 0xb
 1662 0089 3B       		.uleb128 0x3b
 1663 008a 05       		.uleb128 0x5
 1664 008b 49       		.uleb128 0x49
 1665 008c 13       		.uleb128 0x13
 1666 008d 38       		.uleb128 0x38
 1667 008e 0A       		.uleb128 0xa
 1668 008f 00       		.byte	0
 1669 0090 00       		.byte	0
 1670 0091 0C       		.uleb128 0xc
 1671 0092 13       		.uleb128 0x13
 1672 0093 01       		.byte	0x1
 1673 0094 03       		.uleb128 0x3
 1674 0095 0E       		.uleb128 0xe
 1675 0096 0B       		.uleb128 0xb
 1676 0097 0B       		.uleb128 0xb
 1677 0098 3A       		.uleb128 0x3a
 1678 0099 0B       		.uleb128 0xb
 1679 009a 3B       		.uleb128 0x3b
 1680 009b 05       		.uleb128 0x5
 1681 009c 01       		.uleb128 0x1
 1682 009d 13       		.uleb128 0x13
 1683 009e 00       		.byte	0
 1684 009f 00       		.byte	0
 1685 00a0 0D       		.uleb128 0xd
 1686 00a1 35       		.uleb128 0x35
 1687 00a2 00       		.byte	0
 1688 00a3 49       		.uleb128 0x49
 1689 00a4 13       		.uleb128 0x13
 1690 00a5 00       		.byte	0
 1691 00a6 00       		.byte	0
 1692 00a7 0E       		.uleb128 0xe
 1693 00a8 17       		.uleb128 0x17
 1694 00a9 01       		.byte	0x1
 1695 00aa 0B       		.uleb128 0xb
 1696 00ab 0B       		.uleb128 0xb
 1697 00ac 3A       		.uleb128 0x3a
 1698 00ad 0B       		.uleb128 0xb
 1699 00ae 3B       		.uleb128 0x3b
 1700 00af 0B       		.uleb128 0xb
 1701 00b0 01       		.uleb128 0x1
 1702 00b1 13       		.uleb128 0x13
ARM GAS  /tmp/ccMwYgwb.s 			page 31


 1703 00b2 00       		.byte	0
 1704 00b3 00       		.byte	0
 1705 00b4 0F       		.uleb128 0xf
 1706 00b5 0D       		.uleb128 0xd
 1707 00b6 00       		.byte	0
 1708 00b7 03       		.uleb128 0x3
 1709 00b8 0E       		.uleb128 0xe
 1710 00b9 3A       		.uleb128 0x3a
 1711 00ba 0B       		.uleb128 0xb
 1712 00bb 3B       		.uleb128 0x3b
 1713 00bc 0B       		.uleb128 0xb
 1714 00bd 49       		.uleb128 0x49
 1715 00be 13       		.uleb128 0x13
 1716 00bf 00       		.byte	0
 1717 00c0 00       		.byte	0
 1718 00c1 10       		.uleb128 0x10
 1719 00c2 26       		.uleb128 0x26
 1720 00c3 00       		.byte	0
 1721 00c4 49       		.uleb128 0x49
 1722 00c5 13       		.uleb128 0x13
 1723 00c6 00       		.byte	0
 1724 00c7 00       		.byte	0
 1725 00c8 11       		.uleb128 0x11
 1726 00c9 15       		.uleb128 0x15
 1727 00ca 01       		.byte	0x1
 1728 00cb 27       		.uleb128 0x27
 1729 00cc 0C       		.uleb128 0xc
 1730 00cd 01       		.uleb128 0x1
 1731 00ce 13       		.uleb128 0x13
 1732 00cf 00       		.byte	0
 1733 00d0 00       		.byte	0
 1734 00d1 12       		.uleb128 0x12
 1735 00d2 05       		.uleb128 0x5
 1736 00d3 00       		.byte	0
 1737 00d4 49       		.uleb128 0x49
 1738 00d5 13       		.uleb128 0x13
 1739 00d6 00       		.byte	0
 1740 00d7 00       		.byte	0
 1741 00d8 13       		.uleb128 0x13
 1742 00d9 15       		.uleb128 0x15
 1743 00da 01       		.byte	0x1
 1744 00db 27       		.uleb128 0x27
 1745 00dc 0C       		.uleb128 0xc
 1746 00dd 49       		.uleb128 0x49
 1747 00de 13       		.uleb128 0x13
 1748 00df 01       		.uleb128 0x1
 1749 00e0 13       		.uleb128 0x13
 1750 00e1 00       		.byte	0
 1751 00e2 00       		.byte	0
 1752 00e3 14       		.uleb128 0x14
 1753 00e4 16       		.uleb128 0x16
 1754 00e5 00       		.byte	0
 1755 00e6 03       		.uleb128 0x3
 1756 00e7 0E       		.uleb128 0xe
 1757 00e8 3A       		.uleb128 0x3a
 1758 00e9 0B       		.uleb128 0xb
 1759 00ea 3B       		.uleb128 0x3b
ARM GAS  /tmp/ccMwYgwb.s 			page 32


 1760 00eb 05       		.uleb128 0x5
 1761 00ec 49       		.uleb128 0x49
 1762 00ed 13       		.uleb128 0x13
 1763 00ee 00       		.byte	0
 1764 00ef 00       		.byte	0
 1765 00f0 15       		.uleb128 0x15
 1766 00f1 13       		.uleb128 0x13
 1767 00f2 01       		.byte	0x1
 1768 00f3 0B       		.uleb128 0xb
 1769 00f4 0B       		.uleb128 0xb
 1770 00f5 3A       		.uleb128 0x3a
 1771 00f6 0B       		.uleb128 0xb
 1772 00f7 3B       		.uleb128 0x3b
 1773 00f8 05       		.uleb128 0x5
 1774 00f9 01       		.uleb128 0x1
 1775 00fa 13       		.uleb128 0x13
 1776 00fb 00       		.byte	0
 1777 00fc 00       		.byte	0
 1778 00fd 16       		.uleb128 0x16
 1779 00fe 0D       		.uleb128 0xd
 1780 00ff 00       		.byte	0
 1781 0100 03       		.uleb128 0x3
 1782 0101 0E       		.uleb128 0xe
 1783 0102 3A       		.uleb128 0x3a
 1784 0103 0B       		.uleb128 0xb
 1785 0104 3B       		.uleb128 0x3b
 1786 0105 05       		.uleb128 0x5
 1787 0106 49       		.uleb128 0x49
 1788 0107 13       		.uleb128 0x13
 1789 0108 38       		.uleb128 0x38
 1790 0109 0A       		.uleb128 0xa
 1791 010a 00       		.byte	0
 1792 010b 00       		.byte	0
 1793 010c 17       		.uleb128 0x17
 1794 010d 04       		.uleb128 0x4
 1795 010e 01       		.byte	0x1
 1796 010f 0B       		.uleb128 0xb
 1797 0110 0B       		.uleb128 0xb
 1798 0111 3A       		.uleb128 0x3a
 1799 0112 0B       		.uleb128 0xb
 1800 0113 3B       		.uleb128 0x3b
 1801 0114 0B       		.uleb128 0xb
 1802 0115 01       		.uleb128 0x1
 1803 0116 13       		.uleb128 0x13
 1804 0117 00       		.byte	0
 1805 0118 00       		.byte	0
 1806 0119 18       		.uleb128 0x18
 1807 011a 28       		.uleb128 0x28
 1808 011b 00       		.byte	0
 1809 011c 03       		.uleb128 0x3
 1810 011d 0E       		.uleb128 0xe
 1811 011e 1C       		.uleb128 0x1c
 1812 011f 0D       		.uleb128 0xd
 1813 0120 00       		.byte	0
 1814 0121 00       		.byte	0
 1815 0122 19       		.uleb128 0x19
 1816 0123 01       		.uleb128 0x1
ARM GAS  /tmp/ccMwYgwb.s 			page 33


 1817 0124 01       		.byte	0x1
 1818 0125 49       		.uleb128 0x49
 1819 0126 13       		.uleb128 0x13
 1820 0127 01       		.uleb128 0x1
 1821 0128 13       		.uleb128 0x13
 1822 0129 00       		.byte	0
 1823 012a 00       		.byte	0
 1824 012b 1A       		.uleb128 0x1a
 1825 012c 21       		.uleb128 0x21
 1826 012d 00       		.byte	0
 1827 012e 49       		.uleb128 0x49
 1828 012f 13       		.uleb128 0x13
 1829 0130 2F       		.uleb128 0x2f
 1830 0131 0B       		.uleb128 0xb
 1831 0132 00       		.byte	0
 1832 0133 00       		.byte	0
 1833 0134 1B       		.uleb128 0x1b
 1834 0135 2E       		.uleb128 0x2e
 1835 0136 01       		.byte	0x1
 1836 0137 03       		.uleb128 0x3
 1837 0138 0E       		.uleb128 0xe
 1838 0139 3A       		.uleb128 0x3a
 1839 013a 0B       		.uleb128 0xb
 1840 013b 3B       		.uleb128 0x3b
 1841 013c 0B       		.uleb128 0xb
 1842 013d 27       		.uleb128 0x27
 1843 013e 0C       		.uleb128 0xc
 1844 013f 49       		.uleb128 0x49
 1845 0140 13       		.uleb128 0x13
 1846 0141 11       		.uleb128 0x11
 1847 0142 01       		.uleb128 0x1
 1848 0143 12       		.uleb128 0x12
 1849 0144 01       		.uleb128 0x1
 1850 0145 40       		.uleb128 0x40
 1851 0146 06       		.uleb128 0x6
 1852 0147 01       		.uleb128 0x1
 1853 0148 13       		.uleb128 0x13
 1854 0149 00       		.byte	0
 1855 014a 00       		.byte	0
 1856 014b 1C       		.uleb128 0x1c
 1857 014c 05       		.uleb128 0x5
 1858 014d 00       		.byte	0
 1859 014e 03       		.uleb128 0x3
 1860 014f 08       		.uleb128 0x8
 1861 0150 3A       		.uleb128 0x3a
 1862 0151 0B       		.uleb128 0xb
 1863 0152 3B       		.uleb128 0x3b
 1864 0153 0B       		.uleb128 0xb
 1865 0154 49       		.uleb128 0x49
 1866 0155 13       		.uleb128 0x13
 1867 0156 02       		.uleb128 0x2
 1868 0157 06       		.uleb128 0x6
 1869 0158 00       		.byte	0
 1870 0159 00       		.byte	0
 1871 015a 1D       		.uleb128 0x1d
 1872 015b 34       		.uleb128 0x34
 1873 015c 00       		.byte	0
ARM GAS  /tmp/ccMwYgwb.s 			page 34


 1874 015d 03       		.uleb128 0x3
 1875 015e 0E       		.uleb128 0xe
 1876 015f 3A       		.uleb128 0x3a
 1877 0160 0B       		.uleb128 0xb
 1878 0161 3B       		.uleb128 0x3b
 1879 0162 0B       		.uleb128 0xb
 1880 0163 49       		.uleb128 0x49
 1881 0164 13       		.uleb128 0x13
 1882 0165 1C       		.uleb128 0x1c
 1883 0166 0B       		.uleb128 0xb
 1884 0167 00       		.byte	0
 1885 0168 00       		.byte	0
 1886 0169 1E       		.uleb128 0x1e
 1887 016a 34       		.uleb128 0x34
 1888 016b 00       		.byte	0
 1889 016c 03       		.uleb128 0x3
 1890 016d 0E       		.uleb128 0xe
 1891 016e 3A       		.uleb128 0x3a
 1892 016f 0B       		.uleb128 0xb
 1893 0170 3B       		.uleb128 0x3b
 1894 0171 0B       		.uleb128 0xb
 1895 0172 49       		.uleb128 0x49
 1896 0173 13       		.uleb128 0x13
 1897 0174 1C       		.uleb128 0x1c
 1898 0175 05       		.uleb128 0x5
 1899 0176 00       		.byte	0
 1900 0177 00       		.byte	0
 1901 0178 1F       		.uleb128 0x1f
 1902 0179 34       		.uleb128 0x34
 1903 017a 00       		.byte	0
 1904 017b 03       		.uleb128 0x3
 1905 017c 0E       		.uleb128 0xe
 1906 017d 3A       		.uleb128 0x3a
 1907 017e 0B       		.uleb128 0xb
 1908 017f 3B       		.uleb128 0x3b
 1909 0180 0B       		.uleb128 0xb
 1910 0181 49       		.uleb128 0x49
 1911 0182 13       		.uleb128 0x13
 1912 0183 02       		.uleb128 0x2
 1913 0184 0A       		.uleb128 0xa
 1914 0185 00       		.byte	0
 1915 0186 00       		.byte	0
 1916 0187 20       		.uleb128 0x20
 1917 0188 34       		.uleb128 0x34
 1918 0189 00       		.byte	0
 1919 018a 03       		.uleb128 0x3
 1920 018b 08       		.uleb128 0x8
 1921 018c 3A       		.uleb128 0x3a
 1922 018d 0B       		.uleb128 0xb
 1923 018e 3B       		.uleb128 0x3b
 1924 018f 0B       		.uleb128 0xb
 1925 0190 49       		.uleb128 0x49
 1926 0191 13       		.uleb128 0x13
 1927 0192 02       		.uleb128 0x2
 1928 0193 06       		.uleb128 0x6
 1929 0194 00       		.byte	0
 1930 0195 00       		.byte	0
ARM GAS  /tmp/ccMwYgwb.s 			page 35


 1931 0196 21       		.uleb128 0x21
 1932 0197 2E       		.uleb128 0x2e
 1933 0198 00       		.byte	0
 1934 0199 3F       		.uleb128 0x3f
 1935 019a 0C       		.uleb128 0xc
 1936 019b 03       		.uleb128 0x3
 1937 019c 0E       		.uleb128 0xe
 1938 019d 3A       		.uleb128 0x3a
 1939 019e 0B       		.uleb128 0xb
 1940 019f 3B       		.uleb128 0x3b
 1941 01a0 0B       		.uleb128 0xb
 1942 01a1 27       		.uleb128 0x27
 1943 01a2 0C       		.uleb128 0xc
 1944 01a3 11       		.uleb128 0x11
 1945 01a4 01       		.uleb128 0x1
 1946 01a5 12       		.uleb128 0x12
 1947 01a6 01       		.uleb128 0x1
 1948 01a7 40       		.uleb128 0x40
 1949 01a8 06       		.uleb128 0x6
 1950 01a9 00       		.byte	0
 1951 01aa 00       		.byte	0
 1952 01ab 22       		.uleb128 0x22
 1953 01ac 34       		.uleb128 0x34
 1954 01ad 00       		.byte	0
 1955 01ae 03       		.uleb128 0x3
 1956 01af 0E       		.uleb128 0xe
 1957 01b0 3A       		.uleb128 0x3a
 1958 01b1 0B       		.uleb128 0xb
 1959 01b2 3B       		.uleb128 0x3b
 1960 01b3 05       		.uleb128 0x5
 1961 01b4 49       		.uleb128 0x49
 1962 01b5 13       		.uleb128 0x13
 1963 01b6 3F       		.uleb128 0x3f
 1964 01b7 0C       		.uleb128 0xc
 1965 01b8 3C       		.uleb128 0x3c
 1966 01b9 0C       		.uleb128 0xc
 1967 01ba 00       		.byte	0
 1968 01bb 00       		.byte	0
 1969 01bc 23       		.uleb128 0x23
 1970 01bd 34       		.uleb128 0x34
 1971 01be 00       		.byte	0
 1972 01bf 03       		.uleb128 0x3
 1973 01c0 08       		.uleb128 0x8
 1974 01c1 3A       		.uleb128 0x3a
 1975 01c2 0B       		.uleb128 0xb
 1976 01c3 3B       		.uleb128 0x3b
 1977 01c4 05       		.uleb128 0x5
 1978 01c5 49       		.uleb128 0x49
 1979 01c6 13       		.uleb128 0x13
 1980 01c7 3F       		.uleb128 0x3f
 1981 01c8 0C       		.uleb128 0xc
 1982 01c9 3C       		.uleb128 0x3c
 1983 01ca 0C       		.uleb128 0xc
 1984 01cb 00       		.byte	0
 1985 01cc 00       		.byte	0
 1986 01cd 24       		.uleb128 0x24
 1987 01ce 34       		.uleb128 0x34
ARM GAS  /tmp/ccMwYgwb.s 			page 36


 1988 01cf 00       		.byte	0
 1989 01d0 03       		.uleb128 0x3
 1990 01d1 0E       		.uleb128 0xe
 1991 01d2 3A       		.uleb128 0x3a
 1992 01d3 0B       		.uleb128 0xb
 1993 01d4 3B       		.uleb128 0x3b
 1994 01d5 0B       		.uleb128 0xb
 1995 01d6 49       		.uleb128 0x49
 1996 01d7 13       		.uleb128 0x13
 1997 01d8 3F       		.uleb128 0x3f
 1998 01d9 0C       		.uleb128 0xc
 1999 01da 3C       		.uleb128 0x3c
 2000 01db 0C       		.uleb128 0xc
 2001 01dc 00       		.byte	0
 2002 01dd 00       		.byte	0
 2003 01de 00       		.byte	0
 2004              		.section	.debug_loc,"",%progbits
 2005              	.Ldebug_loc0:
 2006              	.LLST0:
 2007 0000 00000000 		.4byte	.LFB117
 2008 0004 04000000 		.4byte	.LCFI0
 2009 0008 0200     		.2byte	0x2
 2010 000a 7D       		.byte	0x7d
 2011 000b 00       		.sleb128 0
 2012 000c 04000000 		.4byte	.LCFI0
 2013 0010 0A000000 		.4byte	.LCFI1
 2014 0014 0200     		.2byte	0x2
 2015 0016 7D       		.byte	0x7d
 2016 0017 18       		.sleb128 24
 2017 0018 0A000000 		.4byte	.LCFI1
 2018 001c 12000000 		.4byte	.LCFI2
 2019 0020 0200     		.2byte	0x2
 2020 0022 7D       		.byte	0x7d
 2021 0023 28       		.sleb128 40
 2022 0024 12000000 		.4byte	.LCFI2
 2023 0028 6C000000 		.4byte	.LFE117
 2024 002c 0200     		.2byte	0x2
 2025 002e 77       		.byte	0x77
 2026 002f 28       		.sleb128 40
 2027 0030 00000000 		.4byte	0
 2028 0034 00000000 		.4byte	0
 2029              	.LLST1:
 2030 0038 00000000 		.4byte	.LVL0
 2031 003c 08000000 		.4byte	.LVL1
 2032 0040 0100     		.2byte	0x1
 2033 0042 50       		.byte	0x50
 2034 0043 00000000 		.4byte	0
 2035 0047 00000000 		.4byte	0
 2036              	.LLST2:
 2037 004b 20000000 		.4byte	.LVL2
 2038 004f 26000000 		.4byte	.LVL3
 2039 0053 0200     		.2byte	0x2
 2040 0055 7D       		.byte	0x7d
 2041 0056 00       		.sleb128 0
 2042 0057 26000000 		.4byte	.LVL3
 2043 005b 6C000000 		.4byte	.LFE117
 2044 005f 0200     		.2byte	0x2
ARM GAS  /tmp/ccMwYgwb.s 			page 37


 2045 0061 74       		.byte	0x74
 2046 0062 00       		.sleb128 0
 2047 0063 00000000 		.4byte	0
 2048 0067 00000000 		.4byte	0
 2049              	.LLST3:
 2050 006b 00000000 		.4byte	.LFB118
 2051 006f 02000000 		.4byte	.LCFI3
 2052 0073 0200     		.2byte	0x2
 2053 0075 7D       		.byte	0x7d
 2054 0076 00       		.sleb128 0
 2055 0077 02000000 		.4byte	.LCFI3
 2056 007b 08000000 		.4byte	.LCFI4
 2057 007f 0200     		.2byte	0x2
 2058 0081 7D       		.byte	0x7d
 2059 0082 08       		.sleb128 8
 2060 0083 08000000 		.4byte	.LCFI4
 2061 0087 26000000 		.4byte	.LFE118
 2062 008b 0200     		.2byte	0x2
 2063 008d 7D       		.byte	0x7d
 2064 008e 10       		.sleb128 16
 2065 008f 00000000 		.4byte	0
 2066 0093 00000000 		.4byte	0
 2067              		.section	.debug_aranges,"",%progbits
 2068 0000 24000000 		.4byte	0x24
 2069 0004 0200     		.2byte	0x2
 2070 0006 00000000 		.4byte	.Ldebug_info0
 2071 000a 04       		.byte	0x4
 2072 000b 00       		.byte	0
 2073 000c 0000     		.2byte	0
 2074 000e 0000     		.2byte	0
 2075 0010 00000000 		.4byte	.LFB117
 2076 0014 6C000000 		.4byte	.LFE117-.LFB117
 2077 0018 00000000 		.4byte	.LFB118
 2078 001c 26000000 		.4byte	.LFE118-.LFB118
 2079 0020 00000000 		.4byte	0
 2080 0024 00000000 		.4byte	0
 2081              		.section	.debug_ranges,"",%progbits
 2082              	.Ldebug_ranges0:
 2083 0000 00000000 		.4byte	.LFB117
 2084 0004 6C000000 		.4byte	.LFE117
 2085 0008 00000000 		.4byte	.LFB118
 2086 000c 26000000 		.4byte	.LFE118
 2087 0010 00000000 		.4byte	0
 2088 0014 00000000 		.4byte	0
 2089              		.section	.debug_line,"",%progbits
 2090              	.Ldebug_line0:
 2091 0000 16030000 		.section	.debug_str,"MS",%progbits,1
 2091      0200C202 
 2091      00000201 
 2091      FB0E0D00 
 2091      01010101 
 2092              	.LASF96:
 2093 0000 73635F73 		.ascii	"sc_speed\000"
 2093      70656564 
 2093      00
 2094              	.LASF2:
 2095 0009 73697A65 		.ascii	"size_t\000"
ARM GAS  /tmp/ccMwYgwb.s 			page 38


 2095      5F7400
 2096              	.LASF59:
 2097 0010 7264796D 		.ascii	"rdymsg\000"
 2097      736700
 2098              	.LASF13:
 2099 0017 75696E74 		.ascii	"uint64_t\000"
 2099      36345F74 
 2099      00
 2100              	.LASF74:
 2101 0020 4F757470 		.ascii	"OutputQueue\000"
 2101      75745175 
 2101      65756500 
 2102              	.LASF117:
 2103 002c 62756632 		.ascii	"buf2\000"
 2103      00
 2104              	.LASF118:
 2105 0031 72666964 		.ascii	"rfidWorkingArea\000"
 2105      576F726B 
 2105      696E6741 
 2105      72656100 
 2106              	.LASF123:
 2107 0041 2F686F6D 		.ascii	"/home/mikel/workspace/ros/PacBot/PacBot/FirmwareWit"
 2107      652F6D69 
 2107      6B656C2F 
 2107      776F726B 
 2107      73706163 
 2108 0074 68495200 		.ascii	"hIR\000"
 2109              	.LASF15:
 2110 0078 75696E74 		.ascii	"uint_fast16_t\000"
 2110      5F666173 
 2110      7431365F 
 2110      7400
 2111              	.LASF14:
 2112 0086 6C6F6E67 		.ascii	"long long unsigned int\000"
 2112      206C6F6E 
 2112      6720756E 
 2112      7369676E 
 2112      65642069 
 2113              	.LASF60:
 2114 009d 65786974 		.ascii	"exitcode\000"
 2114      636F6465 
 2114      00
 2115              	.LASF122:
 2116 00a6 2E2F7372 		.ascii	"./src/Rfid.c\000"
 2116      632F5266 
 2116      69642E63 
 2116      00
 2117              	.LASF119:
 2118 00b3 49544D5F 		.ascii	"ITM_RxBuffer\000"
 2118      52784275 
 2118      66666572 
 2118      00
 2119              	.LASF27:
 2120 00c0 705F7072 		.ascii	"p_prio\000"
 2120      696F00
 2121              	.LASF107:
 2122 00c7 72656164 		.ascii	"readt\000"
ARM GAS  /tmp/ccMwYgwb.s 			page 39


 2122      7400
 2123              	.LASF65:
 2124 00cd 715F7761 		.ascii	"q_waiting\000"
 2124      6974696E 
 2124      6700
 2125              	.LASF12:
 2126 00d7 6C6F6E67 		.ascii	"long long int\000"
 2126      206C6F6E 
 2126      6720696E 
 2126      7400
 2127              	.LASF1:
 2128 00e5 7369676E 		.ascii	"signed char\000"
 2128      65642063 
 2128      68617200 
 2129              	.LASF82:
 2130 00f1 47545052 		.ascii	"GTPR\000"
 2130      00
 2131              	.LASF42:
 2132 00f6 705F6D70 		.ascii	"p_mpool\000"
 2132      6F6F6C00 
 2133              	.LASF16:
 2134 00fe 626F6F6C 		.ascii	"bool_t\000"
 2134      5F7400
 2135              	.LASF50:
 2136 0105 6D5F7175 		.ascii	"m_queue\000"
 2136      65756500 
 2137              	.LASF92:
 2138 010d 73746174 		.ascii	"state\000"
 2138      6500
 2139              	.LASF9:
 2140 0113 6C6F6E67 		.ascii	"long int\000"
 2140      20696E74 
 2140      00
 2141              	.LASF115:
 2142 011c 72666964 		.ascii	"rfidBitrate\000"
 2142      42697472 
 2142      61746500 
 2143              	.LASF18:
 2144 0128 74737461 		.ascii	"tstate_t\000"
 2144      74655F74 
 2144      00
 2145              	.LASF34:
 2146 0131 705F7265 		.ascii	"p_refs\000"
 2146      667300
 2147              	.LASF67:
 2148 0138 715F6275 		.ascii	"q_buffer\000"
 2148      66666572 
 2148      00
 2149              	.LASF69:
 2150 0141 715F7772 		.ascii	"q_wrptr\000"
 2150      70747200 
 2151              	.LASF35:
 2152 0149 705F7469 		.ascii	"p_time\000"
 2152      6D6500
 2153              	.LASF29:
 2154 0150 705F6E65 		.ascii	"p_newer\000"
 2154      77657200 
ARM GAS  /tmp/ccMwYgwb.s 			page 40


 2155              	.LASF104:
 2156 0158 70757477 		.ascii	"putwouldblock\000"
 2156      6F756C64 
 2156      626C6F63 
 2156      6B00
 2157              	.LASF45:
 2158 0166 72656761 		.ascii	"regarm_t\000"
 2158      726D5F74 
 2158      00
 2159              	.LASF57:
 2160 016f 4576656E 		.ascii	"EventSource\000"
 2160      74536F75 
 2160      72636500 
 2161              	.LASF95:
 2162 017b 75736172 		.ascii	"usart\000"
 2162      7400
 2163              	.LASF0:
 2164 0181 756E7369 		.ascii	"unsigned int\000"
 2164      676E6564 
 2164      20696E74 
 2164      00
 2165              	.LASF6:
 2166 018e 75696E74 		.ascii	"uint16_t\000"
 2166      31365F74 
 2166      00
 2167              	.LASF101:
 2168 0197 53657269 		.ascii	"SerialDriverVMT\000"
 2168      616C4472 
 2168      69766572 
 2168      564D5400 
 2169              	.LASF93:
 2170 01a7 69717565 		.ascii	"iqueue\000"
 2170      756500
 2171              	.LASF37:
 2172 01ae 705F6D73 		.ascii	"p_msgqueue\000"
 2172      67717565 
 2172      756500
 2173              	.LASF90:
 2174 01b9 6576656E 		.ascii	"event\000"
 2174      7400
 2175              	.LASF7:
 2176 01bf 73686F72 		.ascii	"short unsigned int\000"
 2176      7420756E 
 2176      7369676E 
 2176      65642069 
 2176      6E7400
 2177              	.LASF21:
 2178 01d2 6D73675F 		.ascii	"msg_t\000"
 2178      7400
 2179              	.LASF94:
 2180 01d8 6F717565 		.ascii	"oqueue\000"
 2180      756500
 2181              	.LASF84:
 2182 01df 55534152 		.ascii	"USART_TypeDef\000"
 2182      545F5479 
 2182      70654465 
 2182      6600
ARM GAS  /tmp/ccMwYgwb.s 			page 41


 2183              	.LASF106:
 2184 01ed 77726974 		.ascii	"writet\000"
 2184      657400
 2185              	.LASF17:
 2186 01f4 746D6F64 		.ascii	"tmode_t\000"
 2186      655F7400 
 2187              	.LASF44:
 2188 01fc 54687265 		.ascii	"ThreadsList\000"
 2188      6164734C 
 2188      69737400 
 2189              	.LASF22:
 2190 0208 6576656E 		.ascii	"eventmask_t\000"
 2190      746D6173 
 2190      6B5F7400 
 2191              	.LASF72:
 2192 0214 716E6F74 		.ascii	"qnotify_t\000"
 2192      6966795F 
 2192      7400
 2193              	.LASF64:
 2194 021e 47656E65 		.ascii	"GenericQueue\000"
 2194      72696351 
 2194      75657565 
 2194      00
 2195              	.LASF46:
 2196 022b 73746B61 		.ascii	"stkalign_t\000"
 2196      6C69676E 
 2196      5F7400
 2197              	.LASF102:
 2198 0236 77726974 		.ascii	"write\000"
 2198      6500
 2199              	.LASF114:
 2200 023c 72666964 		.ascii	"rfidMessageSize\000"
 2200      4D657373 
 2200      61676553 
 2200      697A6500 
 2201              	.LASF124:
 2202 024c 72666964 		.ascii	"rfidThread\000"
 2202      54687265 
 2202      616400
 2203              	.LASF111:
 2204 0257 636F6E74 		.ascii	"content\000"
 2204      656E7400 
 2205              	.LASF66:
 2206 025f 715F636F 		.ascii	"q_counter\000"
 2206      756E7465 
 2206      7200
 2207              	.LASF49:
 2208 0269 4D757465 		.ascii	"Mutex\000"
 2208      7800
 2209              	.LASF30:
 2210 026f 705F6F6C 		.ascii	"p_older\000"
 2210      64657200 
 2211              	.LASF75:
 2212 0277 696F666C 		.ascii	"ioflags_t\000"
 2212      6167735F 
 2212      7400
 2213              	.LASF43:
ARM GAS  /tmp/ccMwYgwb.s 			page 42


 2214 0281 54687265 		.ascii	"ThreadsQueue\000"
 2214      61647351 
 2214      75657565 
 2214      00
 2215              	.LASF56:
 2216 028e 656C5F6D 		.ascii	"el_mask\000"
 2216      61736B00 
 2217              	.LASF100:
 2218 0296 53657269 		.ascii	"SerialConfig\000"
 2218      616C436F 
 2218      6E666967 
 2218      00
 2219              	.LASF19:
 2220 02a3 74726566 		.ascii	"trefs_t\000"
 2220      735F7400 
 2221              	.LASF76:
 2222 02ab 52455345 		.ascii	"RESERVED0\000"
 2222      52564544 
 2222      3000
 2223              	.LASF77:
 2224 02b5 52455345 		.ascii	"RESERVED1\000"
 2224      52564544 
 2224      3100
 2225              	.LASF78:
 2226 02bf 52455345 		.ascii	"RESERVED2\000"
 2226      52564544 
 2226      3200
 2227              	.LASF79:
 2228 02c9 52455345 		.ascii	"RESERVED3\000"
 2228      52564544 
 2228      3300
 2229              	.LASF80:
 2230 02d3 52455345 		.ascii	"RESERVED4\000"
 2230      52564544 
 2230      3400
 2231              	.LASF26:
 2232 02dd 705F7072 		.ascii	"p_prev\000"
 2232      657600
 2233              	.LASF83:
 2234 02e4 52455345 		.ascii	"RESERVED6\000"
 2234      52564544 
 2234      3600
 2235              	.LASF20:
 2236 02ee 74707269 		.ascii	"tprio_t\000"
 2236      6F5F7400 
 2237              	.LASF70:
 2238 02f6 715F7264 		.ascii	"q_rdptr\000"
 2238      70747200 
 2239              	.LASF112:
 2240 02fe 6D757465 		.ascii	"mutex\000"
 2240      7800
 2241              	.LASF8:
 2242 0304 696E7433 		.ascii	"int32_t\000"
 2242      325F7400 
 2243              	.LASF4:
 2244 030c 756E7369 		.ascii	"unsigned char\000"
 2244      676E6564 
ARM GAS  /tmp/ccMwYgwb.s 			page 43


 2244      20636861 
 2244      7200
 2245              	.LASF55:
 2246 031a 656C5F6C 		.ascii	"el_listener\000"
 2246      69737465 
 2246      6E657200 
 2247              	.LASF113:
 2248 0326 43697263 		.ascii	"CircularBuffer\000"
 2248      756C6172 
 2248      42756666 
 2248      657200
 2249              	.LASF40:
 2250 0335 705F6D74 		.ascii	"p_mtxlist\000"
 2250      786C6973 
 2250      7400
 2251              	.LASF5:
 2252 033f 73686F72 		.ascii	"short int\000"
 2252      7420696E 
 2252      7400
 2253              	.LASF32:
 2254 0349 705F7374 		.ascii	"p_state\000"
 2254      61746500 
 2255              	.LASF62:
 2256 0351 65776D61 		.ascii	"ewmask\000"
 2256      736B00
 2257              	.LASF25:
 2258 0358 705F6E65 		.ascii	"p_next\000"
 2258      787400
 2259              	.LASF33:
 2260 035f 705F666C 		.ascii	"p_flags\000"
 2260      61677300 
 2261              	.LASF54:
 2262 0367 656C5F6E 		.ascii	"el_next\000"
 2262      65787400 
 2263              	.LASF86:
 2264 036f 53445F53 		.ascii	"SD_STOP\000"
 2264      544F5000 
 2265              	.LASF24:
 2266 0377 54687265 		.ascii	"Thread\000"
 2266      616400
 2267              	.LASF109:
 2268 037e 43697263 		.ascii	"CircularBuffer_s\000"
 2268      756C6172 
 2268      42756666 
 2268      65725F73 
 2268      00
 2269              	.LASF39:
 2270 038f 705F6570 		.ascii	"p_epending\000"
 2270      656E6469 
 2270      6E6700
 2271              	.LASF85:
 2272 039a 53445F55 		.ascii	"SD_UNINIT\000"
 2272      4E494E49 
 2272      5400
 2273              	.LASF81:
 2274 03a4 52455345 		.ascii	"RESERVED5\000"
 2274      52564544 
ARM GAS  /tmp/ccMwYgwb.s 			page 44


 2274      3500
 2275              	.LASF120:
 2276 03ae 6F757470 		.ascii	"outputBuffer\000"
 2276      75744275 
 2276      66666572 
 2276      00
 2277              	.LASF88:
 2278 03bb 73647374 		.ascii	"sdstate_t\000"
 2278      6174655F 
 2278      7400
 2279              	.LASF89:
 2280 03c5 53657269 		.ascii	"SerialDriver\000"
 2280      616C4472 
 2280      69766572 
 2280      00
 2281              	.LASF125:
 2282 03d2 73746172 		.ascii	"startRfidThread\000"
 2282      74526669 
 2282      64546872 
 2282      65616400 
 2283              	.LASF121:
 2284 03e2 474E5520 		.ascii	"GNU C 4.6.3\000"
 2284      4320342E 
 2284      362E3300 
 2285              	.LASF11:
 2286 03ee 6C6F6E67 		.ascii	"long unsigned int\000"
 2286      20756E73 
 2286      69676E65 
 2286      6420696E 
 2286      7400
 2287              	.LASF103:
 2288 0400 72656164 		.ascii	"read\000"
 2288      00
 2289              	.LASF63:
 2290 0405 63686172 		.ascii	"char\000"
 2290      00
 2291              	.LASF116:
 2292 040a 636F6E66 		.ascii	"config\000"
 2292      696700
 2293              	.LASF52:
 2294 0411 6D5F6E65 		.ascii	"m_next\000"
 2294      787400
 2295              	.LASF23:
 2296 0418 73797374 		.ascii	"systime_t\000"
 2296      696D655F 
 2296      7400
 2297              	.LASF41:
 2298 0422 705F7265 		.ascii	"p_realprio\000"
 2298      616C7072 
 2298      696F00
 2299              	.LASF108:
 2300 042d 67657466 		.ascii	"getflags\000"
 2300      6C616773 
 2300      00
 2301              	.LASF48:
 2302 0436 636F6E74 		.ascii	"context\000"
 2302      65787400 
ARM GAS  /tmp/ccMwYgwb.s 			page 45


 2303              	.LASF47:
 2304 043e 696E7463 		.ascii	"intctx\000"
 2304      747800
 2305              	.LASF87:
 2306 0445 53445F52 		.ascii	"SD_READY\000"
 2306      45414459 
 2306      00
 2307              	.LASF10:
 2308 044e 75696E74 		.ascii	"uint32_t\000"
 2308      33325F74 
 2308      00
 2309              	.LASF68:
 2310 0457 715F746F 		.ascii	"q_top\000"
 2310      7000
 2311              	.LASF31:
 2312 045d 705F6E61 		.ascii	"p_name\000"
 2312      6D6500
 2313              	.LASF58:
 2314 0464 65735F6E 		.ascii	"es_next\000"
 2314      65787400 
 2315              	.LASF71:
 2316 046c 715F6E6F 		.ascii	"q_notify\000"
 2316      74696679 
 2316      00
 2317              	.LASF38:
 2318 0475 705F6D73 		.ascii	"p_msg\000"
 2318      6700
 2319              	.LASF3:
 2320 047b 75696E74 		.ascii	"uint8_t\000"
 2320      385F7400 
 2321              	.LASF73:
 2322 0483 496E7075 		.ascii	"InputQueue\000"
 2322      74517565 
 2322      756500
 2323              	.LASF91:
 2324 048e 666C6167 		.ascii	"flags\000"
 2324      7300
 2325              	.LASF53:
 2326 0494 4576656E 		.ascii	"EventListener\000"
 2326      744C6973 
 2326      74656E65 
 2326      7200
 2327              	.LASF61:
 2328 04a2 77746F62 		.ascii	"wtobjp\000"
 2328      6A7000
 2329              	.LASF105:
 2330 04a9 67657477 		.ascii	"getwouldblock\000"
 2330      6F756C64 
 2330      626C6F63 
 2330      6B00
 2331              	.LASF110:
 2332 04b7 73746172 		.ascii	"start\000"
 2332      7400
 2333              	.LASF97:
 2334 04bd 73635F63 		.ascii	"sc_cr1\000"
 2334      723100
 2335              	.LASF98:
ARM GAS  /tmp/ccMwYgwb.s 			page 46


 2336 04c4 73635F63 		.ascii	"sc_cr2\000"
 2336      723200
 2337              	.LASF99:
 2338 04cb 73635F63 		.ascii	"sc_cr3\000"
 2338      723300
 2339              	.LASF51:
 2340 04d2 6D5F6F77 		.ascii	"m_owner\000"
 2340      6E657200 
 2341              	.LASF28:
 2342 04da 705F6374 		.ascii	"p_ctx\000"
 2342      7800
 2343              	.LASF36:
 2344 04e0 705F7761 		.ascii	"p_waiting\000"
 2344      6974696E 
 2344      6700
 2345              		.ident	"GCC: (Sourcery CodeBench Lite 2012.03-56) 4.6.3"
ARM GAS  /tmp/ccMwYgwb.s 			page 47


DEFINED SYMBOLS
                            *ABS*:00000000 Rfid.c
     /tmp/ccMwYgwb.s:21     .text.rfidThread:00000000 $t
     /tmp/ccMwYgwb.s:26     .text.rfidThread:00000000 rfidThread
     /tmp/ccMwYgwb.s:151    .rodata:00000000 .LANCHOR0
     /tmp/ccMwYgwb.s:167    .rodata.str1.4:00000000 .LC1
     /tmp/ccMwYgwb.s:106    .text.rfidThread:00000068 $d
     /tmp/ccMwYgwb.s:111    .text.startRfidThread:00000000 $t
     /tmp/ccMwYgwb.s:117    .text.startRfidThread:00000000 startRfidThread
     /tmp/ccMwYgwb.s:160    .bss.rfidWorkingArea:00000000 .LANCHOR1
     /tmp/ccMwYgwb.s:150    .rodata:00000000 $d
     /tmp/ccMwYgwb.s:159    .bss.rfidWorkingArea:00000000 $d
     /tmp/ccMwYgwb.s:163    .bss.rfidWorkingArea:00000000 rfidWorkingArea
     /tmp/ccMwYgwb.s:166    .rodata.str1.4:00000000 $d
                     .debug_frame:00000010 $d
     /tmp/ccMwYgwb.s:110    .text.rfidThread:0000006c $t

UNDEFINED SYMBOLS
SD3
sdStart
chIQReadTimeout
chsprintf
outputBuffer
bufferPutString
chThdCreateStatic
