ARM GAS  /tmp/ccxqq0Hi.s 			page 1


   1              		.syntax unified
   2              		.cpu cortex-m4
   3              		.eabi_attribute 27, 3
   4              		.eabi_attribute 28, 1
   5              		.fpu fpv4-sp-d16
   6              		.eabi_attribute 20, 1
   7              		.eabi_attribute 21, 1
   8              		.eabi_attribute 23, 3
   9              		.eabi_attribute 24, 1
  10              		.eabi_attribute 25, 1
  11              		.eabi_attribute 26, 1
  12              		.eabi_attribute 30, 2
  13              		.eabi_attribute 34, 1
  14              		.eabi_attribute 18, 4
  15              		.thumb
  16              		.file	"serial_lld.c"
  17              		.text
  18              	.Ltext0:
  19              		.cfi_sections	.debug_frame
  20              		.section	.text.notify1,"ax",%progbits
  21              		.align	2
  22              		.p2align 4,,15
  23              		.thumb
  24              		.thumb_func
  25              		.type	notify1, %function
  26              	notify1:
  27              	.LFB121:
  28              		.file 1 "/opt/ChibiOS/ChibiOS_2.4.4/os/hal/platforms/STM32/serial_lld.c"
  29              		.loc 1 217 0
  30              		.cfi_startproc
  31              		@ args = 0, pretend = 0, frame = 0
  32              		@ frame_needed = 0, uses_anonymous_args = 0
  33              		@ link register save eliminated.
  34              	.LVL0:
  35              		.loc 1 220 0
  36 0000 4FF48053 		mov	r3, #4096
  37 0004 C4F20103 		movt	r3, 16385
  38 0008 9989     		ldrh	r1, [r3, #12]
  39 000a 88B2     		uxth	r0, r1
  40              	.LVL1:
  41 000c 40F08002 		orr	r2, r0, #128
  42 0010 9A81     		strh	r2, [r3, #12]	@ movhi
  43              		.loc 1 221 0
  44 0012 7047     		bx	lr
  45              		.cfi_endproc
  46              	.LFE121:
  47              		.size	notify1, .-notify1
  48 0014 AFF30080 		.section	.text.notify2,"ax",%progbits
  48      AFF30080 
  48      AFF30080 
  49              		.align	2
  50              		.p2align 4,,15
  51              		.thumb
  52              		.thumb_func
  53              		.type	notify2, %function
  54              	notify2:
  55              	.LFB122:
ARM GAS  /tmp/ccxqq0Hi.s 			page 2


  56              		.loc 1 225 0
  57              		.cfi_startproc
  58              		@ args = 0, pretend = 0, frame = 0
  59              		@ frame_needed = 0, uses_anonymous_args = 0
  60              		@ link register save eliminated.
  61              	.LVL2:
  62              		.loc 1 228 0
  63 0000 4FF48843 		mov	r3, #17408
  64 0004 C4F20003 		movt	r3, 16384
  65 0008 9989     		ldrh	r1, [r3, #12]
  66 000a 88B2     		uxth	r0, r1
  67              	.LVL3:
  68 000c 40F08002 		orr	r2, r0, #128
  69 0010 9A81     		strh	r2, [r3, #12]	@ movhi
  70              		.loc 1 229 0
  71 0012 7047     		bx	lr
  72              		.cfi_endproc
  73              	.LFE122:
  74              		.size	notify2, .-notify2
  75 0014 AFF30080 		.section	.text.notify3,"ax",%progbits
  75      AFF30080 
  75      AFF30080 
  76              		.align	2
  77              		.p2align 4,,15
  78              		.thumb
  79              		.thumb_func
  80              		.type	notify3, %function
  81              	notify3:
  82              	.LFB123:
  83              		.loc 1 233 0
  84              		.cfi_startproc
  85              		@ args = 0, pretend = 0, frame = 0
  86              		@ frame_needed = 0, uses_anonymous_args = 0
  87              		@ link register save eliminated.
  88              	.LVL4:
  89              		.loc 1 236 0
  90 0000 4FF49043 		mov	r3, #18432
  91 0004 C4F20003 		movt	r3, 16384
  92 0008 9989     		ldrh	r1, [r3, #12]
  93 000a 88B2     		uxth	r0, r1
  94              	.LVL5:
  95 000c 40F08002 		orr	r2, r0, #128
  96 0010 9A81     		strh	r2, [r3, #12]	@ movhi
  97              		.loc 1 237 0
  98 0012 7047     		bx	lr
  99              		.cfi_endproc
 100              	.LFE123:
 101              		.size	notify3, .-notify3
 102 0014 AFF30080 		.section	.text.serve_interrupt,"ax",%progbits
 102      AFF30080 
 102      AFF30080 
 103              		.align	2
 104              		.p2align 4,,15
 105              		.thumb
 106              		.thumb_func
 107              		.type	serve_interrupt, %function
 108              	serve_interrupt:
ARM GAS  /tmp/ccxqq0Hi.s 			page 3


 109              	.LFB120:
 110              		.loc 1 170 0
 111              		.cfi_startproc
 112              		@ args = 0, pretend = 0, frame = 0
 113              		@ frame_needed = 0, uses_anonymous_args = 0
 114              	.LVL6:
 115 0000 2DE9F041 		push	{r4, r5, r6, r7, r8, lr}
 116              	.LCFI0:
 117              		.cfi_def_cfa_offset 24
 118              		.cfi_offset 14, -4
 119              		.cfi_offset 8, -8
 120              		.cfi_offset 7, -12
 121              		.cfi_offset 6, -16
 122              		.cfi_offset 5, -20
 123              		.cfi_offset 4, -24
 124              		.loc 1 171 0
 125 0004 066F     		ldr	r6, [r0, #112]
 126              	.LVL7:
 127              		.loc 1 172 0
 128 0006 B789     		ldrh	r7, [r6, #12]
 129              		.loc 1 173 0
 130 0008 3488     		ldrh	r4, [r6, #0]
 131              		.loc 1 174 0
 132 000a B6F80480 		ldrh	r8, [r6, #4]
 133              		.loc 1 173 0
 134 000e A4B2     		uxth	r4, r4
 135              		.loc 1 177 0
 136 0010 2207     		lsls	r2, r4, #28
 137              		.loc 1 170 0
 138 0012 0546     		mov	r5, r0
 139              		.loc 1 172 0
 140 0014 BFB2     		uxth	r7, r7
 141              	.LVL8:
 142              		.loc 1 177 0
 143 0016 1ED0     		beq	.L5
 144              	.LVL9:
 145              	.LBB19:
 146              	.LBB20:
 147              		.loc 1 152 0
 148 0018 14F0080C 		ands	ip, r4, #8
 149              		.loc 1 153 0
 150 001c 18BF     		it	ne
 151 001e 4FF0800C 		movne	ip, #128
 152              	.LVL10:
 153              		.loc 1 154 0
 154 0022 E307     		lsls	r3, r4, #31
 155              		.loc 1 155 0
 156 0024 48BF     		it	mi
 157 0026 4CF0200C 		orrmi	ip, ip, #32
 158              	.LVL11:
 159              		.loc 1 156 0
 160 002a A007     		lsls	r0, r4, #30
 161              	.LVL12:
 162              		.loc 1 157 0
 163 002c 48BF     		it	mi
 164 002e 4CF0400C 		orrmi	ip, ip, #64
 165              	.LVL13:
ARM GAS  /tmp/ccxqq0Hi.s 			page 4


 166              		.loc 1 158 0
 167 0032 6107     		lsls	r1, r4, #29
 168              		.loc 1 159 0
 169 0034 48BF     		it	mi
 170 0036 4CF4807C 		orrmi	ip, ip, #256
 171              	.LVL14:
 172              	.LBB21:
 173              		.loc 1 160 0
 174 003a 2023     		movs	r3, #32
 175              	.LVL15:
 176              	@ 160 "/opt/ChibiOS/ChibiOS_2.4.4/os/hal/platforms/STM32/serial_lld.c" 1
 177 003c 83F31188 		msr     BASEPRI, r3
 178              	@ 0 "" 2
 179              	.LVL16:
 180              		.thumb
 181              	.LBE21:
 182              		.loc 1 161 0
 183 0040 AB68     		ldr	r3, [r5, #8]
 184              	.LVL17:
 185 0042 43EA0C02 		orr	r2, r3, ip
 186 0046 AA60     		str	r2, [r5, #8]
 187 0048 281D     		adds	r0, r5, #4
 188 004a 0021     		movs	r1, #0
 189 004c FFF7FEFF 		bl	chEvtBroadcastFlagsI
 190              	.LVL18:
 191              	.LBB22:
 192              		.loc 1 162 0
 193 0050 0023     		movs	r3, #0
 194              	.LVL19:
 195              	@ 162 "/opt/ChibiOS/ChibiOS_2.4.4/os/hal/platforms/STM32/serial_lld.c" 1
 196 0052 83F31188 		msr     BASEPRI, r3
 197              	@ 0 "" 2
 198              	.LVL20:
 199              		.thumb
 200              	.L5:
 201              	.LBE22:
 202              	.LBE20:
 203              	.LBE19:
 204              		.loc 1 180 0
 205 0056 E305     		lsls	r3, r4, #23
 206              	.LVL21:
 207 0058 2ED4     		bmi	.L18
 208              	.LVL22:
 209              	.L10:
 210              		.loc 1 187 0
 211 005a A006     		lsls	r0, r4, #26
 212 005c 20D4     		bmi	.L19
 213              	.LVL23:
 214              	.L11:
 215              		.loc 1 193 0
 216 005e 3906     		lsls	r1, r7, #24
 217 0060 01D5     		bpl	.L12
 218              		.loc 1 193 0 is_stmt 0 discriminator 1
 219 0062 2206     		lsls	r2, r4, #24
 220 0064 3ED4     		bmi	.L20
 221              	.LVL24:
 222              	.L12:
ARM GAS  /tmp/ccxqq0Hi.s 			page 5


 223              		.loc 1 206 0 is_stmt 1
 224 0066 6306     		lsls	r3, r4, #25
 225              	.LVL25:
 226 0068 18D5     		bpl	.L4
 227              	.LBB23:
 228              		.loc 1 207 0
 229 006a 2023     		movs	r3, #32
 230              	.LVL26:
 231              	@ 207 "/opt/ChibiOS/ChibiOS_2.4.4/os/hal/platforms/STM32/serial_lld.c" 1
 232 006c 83F31188 		msr     BASEPRI, r3
 233              	@ 0 "" 2
 234              	.LVL27:
 235              		.thumb
 236              	.LBE23:
 237              		.loc 1 208 0
 238 0070 A868     		ldr	r0, [r5, #8]
 239 0072 40F01003 		orr	r3, r0, #16
 240              	.LVL28:
 241 0076 AB60     		str	r3, [r5, #8]
 242 0078 281D     		adds	r0, r5, #4
 243 007a 0021     		movs	r1, #0
 244 007c FFF7FEFF 		bl	chEvtBroadcastFlagsI
 245              	.LBB24:
 246              		.loc 1 209 0
 247 0080 0023     		movs	r3, #0
 248              	.LVL29:
 249              	@ 209 "/opt/ChibiOS/ChibiOS_2.4.4/os/hal/platforms/STM32/serial_lld.c" 1
 250 0082 83F31188 		msr     BASEPRI, r3
 251              	@ 0 "" 2
 252              	.LVL30:
 253              		.thumb
 254              	.LBE24:
 255              		.loc 1 210 0
 256 0086 4FF6BF72 		movw	r2, #65471
 257 008a 07EA0201 		and	r1, r7, r2
 258 008e B181     		strh	r1, [r6, #12]	@ movhi
 259              		.loc 1 211 0
 260 0090 3088     		ldrh	r0, [r6, #0]
 261 0092 20F04003 		bic	r3, r0, #64
 262              	.LVL31:
 263 0096 1A04     		lsls	r2, r3, #16
 264 0098 110C     		lsrs	r1, r2, #16
 265 009a 3180     		strh	r1, [r6, #0]	@ movhi
 266              	.L4:
 267 009c BDE8F081 		pop	{r4, r5, r6, r7, r8, pc}
 268              	.LVL32:
 269              	.L19:
 270              	.LBB25:
 271              		.loc 1 188 0
 272 00a0 2023     		movs	r3, #32
 273              	.LVL33:
 274              	@ 188 "/opt/ChibiOS/ChibiOS_2.4.4/os/hal/platforms/STM32/serial_lld.c" 1
 275 00a2 83F31188 		msr     BASEPRI, r3
 276              	@ 0 "" 2
 277              	.LVL34:
 278              		.thumb
 279              	.LBE25:
ARM GAS  /tmp/ccxqq0Hi.s 			page 6


 280              		.loc 1 189 0
 281 00a6 2846     		mov	r0, r5
 282 00a8 5FFA88F1 		uxtb	r1, r8
 283 00ac FFF7FEFF 		bl	sdIncomingDataI
 284              	.LVL35:
 285              	.LBB26:
 286              		.loc 1 190 0
 287 00b0 0023     		movs	r3, #0
 288              	@ 190 "/opt/ChibiOS/ChibiOS_2.4.4/os/hal/platforms/STM32/serial_lld.c" 1
 289 00b2 83F31188 		msr     BASEPRI, r3
 290              	@ 0 "" 2
 291              	.LVL36:
 292              		.thumb
 293 00b6 D2E7     		b	.L11
 294              	.LVL37:
 295              	.L18:
 296              	.LBE26:
 297              	.LBB27:
 298              		.loc 1 181 0
 299 00b8 2023     		movs	r3, #32
 300              	.LVL38:
 301              	@ 181 "/opt/ChibiOS/ChibiOS_2.4.4/os/hal/platforms/STM32/serial_lld.c" 1
 302 00ba 83F31188 		msr     BASEPRI, r3
 303              	@ 0 "" 2
 304              	.LVL39:
 305              		.thumb
 306              	.LBE27:
 307              		.loc 1 182 0
 308 00be A868     		ldr	r0, [r5, #8]
 309 00c0 40F40073 		orr	r3, r0, #512
 310              	.LVL40:
 311 00c4 AB60     		str	r3, [r5, #8]
 312 00c6 281D     		adds	r0, r5, #4
 313 00c8 0021     		movs	r1, #0
 314 00ca FFF7FEFF 		bl	chEvtBroadcastFlagsI
 315              	.LBB28:
 316              		.loc 1 183 0
 317 00ce 0023     		movs	r3, #0
 318              	@ 183 "/opt/ChibiOS/ChibiOS_2.4.4/os/hal/platforms/STM32/serial_lld.c" 1
 319 00d0 83F31188 		msr     BASEPRI, r3
 320              	@ 0 "" 2
 321              	.LVL41:
 322              		.thumb
 323              	.LBE28:
 324              		.loc 1 184 0
 325 00d4 B6F800C0 		ldrh	ip, [r6, #0]
 326 00d8 2CF48072 		bic	r2, ip, #256
 327 00dc 1104     		lsls	r1, r2, #16
 328 00de 080C     		lsrs	r0, r1, #16
 329 00e0 3080     		strh	r0, [r6, #0]	@ movhi
 330 00e2 BAE7     		b	.L10
 331              	.LVL42:
 332              	.L20:
 333              	.LBB29:
 334              	.LBB30:
 335              		.loc 1 195 0
 336 00e4 2023     		movs	r3, #32
ARM GAS  /tmp/ccxqq0Hi.s 			page 7


 337              	.LVL43:
 338              	@ 195 "/opt/ChibiOS/ChibiOS_2.4.4/os/hal/platforms/STM32/serial_lld.c" 1
 339 00e6 83F31188 		msr     BASEPRI, r3
 340              	@ 0 "" 2
 341              	.LVL44:
 342              		.thumb
 343              	.LBE30:
 344              		.loc 1 196 0
 345 00ea 05F13000 		add	r0, r5, #48
 346 00ee FFF7FEFF 		bl	chOQGetI
 347              	.LVL45:
 348              		.loc 1 197 0
 349 00f2 0028     		cmp	r0, #0
 350              		.loc 1 202 0
 351 00f4 A8BF     		it	ge
 352 00f6 B080     		strhge	r0, [r6, #4]	@ movhi
 353              		.loc 1 197 0
 354 00f8 03DB     		blt	.L21
 355              	.LVL46:
 356              	.L14:
 357              	.LBB31:
 358              		.loc 1 203 0
 359 00fa 0023     		movs	r3, #0
 360              	@ 203 "/opt/ChibiOS/ChibiOS_2.4.4/os/hal/platforms/STM32/serial_lld.c" 1
 361 00fc 83F31188 		msr     BASEPRI, r3
 362              	@ 0 "" 2
 363              	.LVL47:
 364              		.thumb
 365 0100 B1E7     		b	.L12
 366              	.LVL48:
 367              	.L21:
 368              	.LBE31:
 369              		.loc 1 198 0
 370 0102 A868     		ldr	r0, [r5, #8]
 371              	.LVL49:
 372 0104 40F00803 		orr	r3, r0, #8
 373 0108 0021     		movs	r1, #0
 374 010a AB60     		str	r3, [r5, #8]
 375 010c 281D     		adds	r0, r5, #4
 376 010e FFF7FEFF 		bl	chEvtBroadcastFlagsI
 377              		.loc 1 199 0
 378 0112 27F0C002 		bic	r2, r7, #192
 379 0116 42F04001 		orr	r1, r2, #64
 380 011a B181     		strh	r1, [r6, #12]	@ movhi
 381 011c EDE7     		b	.L14
 382              	.LBE29:
 383              		.cfi_endproc
 384              	.LFE120:
 385              		.size	serve_interrupt, .-serve_interrupt
 386 011e 00BF     		.section	.text.VectorD4,"ax",%progbits
 387              		.align	2
 388              		.p2align 4,,15
 389              		.global	VectorD4
 390              		.thumb
 391              		.thumb_func
 392              		.type	VectorD4, %function
 393              	VectorD4:
ARM GAS  /tmp/ccxqq0Hi.s 			page 8


 394              	.LFB124:
 395              		.loc 1 274 0
 396              		.cfi_startproc
 397              		@ args = 0, pretend = 0, frame = 0
 398              		@ frame_needed = 0, uses_anonymous_args = 0
 399 0000 08B5     		push	{r3, lr}
 400              	.LCFI1:
 401              		.cfi_def_cfa_offset 8
 402              		.cfi_offset 14, -4
 403              		.cfi_offset 3, -8
 404              		.loc 1 278 0
 405 0002 40F20000 		movw	r0, #:lower16:.LANCHOR0
 406 0006 C0F20000 		movt	r0, #:upper16:.LANCHOR0
 407 000a FFF7FEFF 		bl	serve_interrupt
 408              		.loc 1 281 0
 409 000e BDE80840 		pop	{r3, lr}
 410              		.loc 1 280 0
 411 0012 FFF7FEBF 		b	_port_irq_epilogue
 412              		.cfi_endproc
 413              	.LFE124:
 414              		.size	VectorD4, .-VectorD4
 415 0016 00BFAFF3 		.section	.text.VectorD8,"ax",%progbits
 415      0080AFF3 
 415      0080
 416              		.align	2
 417              		.p2align 4,,15
 418              		.global	VectorD8
 419              		.thumb
 420              		.thumb_func
 421              		.type	VectorD8, %function
 422              	VectorD8:
 423              	.LFB125:
 424              		.loc 1 290 0
 425              		.cfi_startproc
 426              		@ args = 0, pretend = 0, frame = 0
 427              		@ frame_needed = 0, uses_anonymous_args = 0
 428 0000 08B5     		push	{r3, lr}
 429              	.LCFI2:
 430              		.cfi_def_cfa_offset 8
 431              		.cfi_offset 14, -4
 432              		.cfi_offset 3, -8
 433              		.loc 1 294 0
 434 0002 40F20000 		movw	r0, #:lower16:.LANCHOR1
 435 0006 C0F20000 		movt	r0, #:upper16:.LANCHOR1
 436 000a FFF7FEFF 		bl	serve_interrupt
 437              		.loc 1 297 0
 438 000e BDE80840 		pop	{r3, lr}
 439              		.loc 1 296 0
 440 0012 FFF7FEBF 		b	_port_irq_epilogue
 441              		.cfi_endproc
 442              	.LFE125:
 443              		.size	VectorD8, .-VectorD8
 444 0016 00BFAFF3 		.section	.text.VectorDC,"ax",%progbits
 444      0080AFF3 
 444      0080
 445              		.align	2
 446              		.p2align 4,,15
ARM GAS  /tmp/ccxqq0Hi.s 			page 9


 447              		.global	VectorDC
 448              		.thumb
 449              		.thumb_func
 450              		.type	VectorDC, %function
 451              	VectorDC:
 452              	.LFB126:
 453              		.loc 1 306 0
 454              		.cfi_startproc
 455              		@ args = 0, pretend = 0, frame = 0
 456              		@ frame_needed = 0, uses_anonymous_args = 0
 457 0000 08B5     		push	{r3, lr}
 458              	.LCFI3:
 459              		.cfi_def_cfa_offset 8
 460              		.cfi_offset 14, -4
 461              		.cfi_offset 3, -8
 462              		.loc 1 310 0
 463 0002 40F20000 		movw	r0, #:lower16:.LANCHOR2
 464 0006 C0F20000 		movt	r0, #:upper16:.LANCHOR2
 465 000a FFF7FEFF 		bl	serve_interrupt
 466              		.loc 1 313 0
 467 000e BDE80840 		pop	{r3, lr}
 468              		.loc 1 312 0
 469 0012 FFF7FEBF 		b	_port_irq_epilogue
 470              		.cfi_endproc
 471              	.LFE126:
 472              		.size	VectorDC, .-VectorDC
 473 0016 00BFAFF3 		.section	.text.sd_lld_init,"ax",%progbits
 473      0080AFF3 
 473      0080
 474              		.align	2
 475              		.p2align 4,,15
 476              		.global	sd_lld_init
 477              		.thumb
 478              		.thumb_func
 479              		.type	sd_lld_init, %function
 480              	sd_lld_init:
 481              	.LFB127:
 482              		.loc 1 373 0
 483              		.cfi_startproc
 484              		@ args = 0, pretend = 0, frame = 0
 485              		@ frame_needed = 0, uses_anonymous_args = 0
 486 0000 70B5     		push	{r4, r5, r6, lr}
 487              	.LCFI4:
 488              		.cfi_def_cfa_offset 16
 489              		.cfi_offset 14, -4
 490              		.cfi_offset 6, -8
 491              		.cfi_offset 5, -12
 492              		.cfi_offset 4, -16
 493              		.loc 1 376 0
 494 0002 40F20006 		movw	r6, #:lower16:.LANCHOR0
 495 0006 C0F20006 		movt	r6, #:upper16:.LANCHOR0
 496 000a 40F20002 		movw	r2, #:lower16:notify1
 497 000e 3046     		mov	r0, r6
 498 0010 0021     		movs	r1, #0
 499 0012 C0F20002 		movt	r2, #:upper16:notify1
 500              		.loc 1 381 0
 501 0016 40F20005 		movw	r5, #:lower16:.LANCHOR1
ARM GAS  /tmp/ccxqq0Hi.s 			page 10


 502              		.loc 1 376 0
 503 001a FFF7FEFF 		bl	sdObjectInit
 504              		.loc 1 381 0
 505 001e C0F20005 		movt	r5, #:upper16:.LANCHOR1
 506              		.loc 1 377 0
 507 0022 4FF48053 		mov	r3, #4096
 508              		.loc 1 381 0
 509 0026 40F20002 		movw	r2, #:lower16:notify2
 510              		.loc 1 377 0
 511 002a C4F20103 		movt	r3, 16385
 512              		.loc 1 381 0
 513 002e 2846     		mov	r0, r5
 514 0030 0021     		movs	r1, #0
 515 0032 C0F20002 		movt	r2, #:upper16:notify2
 516              		.loc 1 386 0
 517 0036 40F20004 		movw	r4, #:lower16:.LANCHOR2
 518 003a C0F20004 		movt	r4, #:upper16:.LANCHOR2
 519              		.loc 1 377 0
 520 003e 3367     		str	r3, [r6, #112]
 521              		.loc 1 381 0
 522 0040 FFF7FEFF 		bl	sdObjectInit
 523              		.loc 1 382 0
 524 0044 4FF48843 		mov	r3, #17408
 525              		.loc 1 386 0
 526 0048 40F20002 		movw	r2, #:lower16:notify3
 527              		.loc 1 382 0
 528 004c C4F20003 		movt	r3, 16384
 529              		.loc 1 386 0
 530 0050 2046     		mov	r0, r4
 531 0052 0021     		movs	r1, #0
 532 0054 C0F20002 		movt	r2, #:upper16:notify3
 533              		.loc 1 382 0
 534 0058 2B67     		str	r3, [r5, #112]
 535              		.loc 1 386 0
 536 005a FFF7FEFF 		bl	sdObjectInit
 537              		.loc 1 387 0
 538 005e 4FF49043 		mov	r3, #18432
 539 0062 C4F20003 		movt	r3, 16384
 540 0066 2367     		str	r3, [r4, #112]
 541              		.loc 1 404 0
 542 0068 70BD     		pop	{r4, r5, r6, pc}
 543              		.cfi_endproc
 544              	.LFE127:
 545              		.size	sd_lld_init, .-sd_lld_init
 546 006a 00BFAFF3 		.section	.text.sd_lld_start,"ax",%progbits
 546      0080
 547              		.align	2
 548              		.p2align 4,,15
 549              		.global	sd_lld_start
 550              		.thumb
 551              		.thumb_func
 552              		.type	sd_lld_start, %function
 553              	sd_lld_start:
 554              	.LFB128:
 555              		.loc 1 416 0
 556              		.cfi_startproc
 557              		@ args = 0, pretend = 0, frame = 0
ARM GAS  /tmp/ccxqq0Hi.s 			page 11


 558              		@ frame_needed = 0, uses_anonymous_args = 0
 559              	.LVL50:
 560 0000 38B5     		push	{r3, r4, r5, lr}
 561              	.LCFI5:
 562              		.cfi_def_cfa_offset 16
 563              		.cfi_offset 14, -4
 564              		.cfi_offset 5, -8
 565              		.cfi_offset 4, -12
 566              		.cfi_offset 3, -16
 567              		.loc 1 419 0
 568 0002 40F20004 		movw	r4, #:lower16:.LANCHOR3
 569              		.loc 1 421 0
 570 0006 037B     		ldrb	r3, [r0, #12]	@ zero_extendqisi2
 571              		.loc 1 419 0
 572 0008 C0F20004 		movt	r4, #:upper16:.LANCHOR3
 573 000c 0029     		cmp	r1, #0
 574 000e 18BF     		it	ne
 575 0010 0C46     		movne	r4, r1
 576              		.loc 1 421 0
 577 0012 012B     		cmp	r3, #1
 578              		.loc 1 416 0
 579 0014 0546     		mov	r5, r0
 580              		.loc 1 421 0
 581 0016 38D0     		beq	.L34
 582              	.LVL51:
 583              	.L28:
 584              	.LBB32:
 585              	.LBB33:
 586              		.loc 1 100 0
 587 0018 2B6F     		ldr	r3, [r5, #112]
 588              	.LVL52:
 589              		.loc 1 106 0
 590 001a 4FF48051 		mov	r1, #4096
 591 001e C4F20101 		movt	r1, 16385
 592 0022 581A     		subs	r0, r3, r1
 593 0024 D0F1000C 		rsbs	ip, r0, #0
 594 0028 4FF4A052 		mov	r2, #5120
 595 002c 4CEB0001 		adc	r1, ip, r0
 596 0030 C4F20102 		movt	r2, 16385
 597 0034 9342     		cmp	r3, r2
 598 0036 14BF     		ite	ne
 599 0038 0846     		movne	r0, r1
 600 003a 41F00100 		orreq	r0, r1, #1
 601              		.loc 1 110 0
 602 003e 2168     		ldr	r1, [r4, #0]
 603              		.loc 1 106 0
 604 0040 D8B9     		cbnz	r0, .L35
 605              		.loc 1 112 0
 606 0042 4DF6806C 		movw	ip, #56960
 607 0046 C0F2802C 		movt	ip, 640
 608 004a BCFBF1F1 		udiv	r1, ip, r1
 609 004e 1981     		strh	r1, [r3, #8]	@ movhi
 610              	.L32:
 611              		.loc 1 119 0
 612 0050 A088     		ldrh	r0, [r4, #4]
 613              		.loc 1 117 0
 614 0052 E188     		ldrh	r1, [r4, #6]
ARM GAS  /tmp/ccxqq0Hi.s 			page 12


 615              		.loc 1 118 0
 616 0054 B4F808C0 		ldrh	ip, [r4, #8]
 617              		.loc 1 119 0
 618 0058 40F40452 		orr	r2, r0, #8448
 619              		.loc 1 117 0
 620 005c 41F04000 		orr	r0, r1, #64
 621              		.loc 1 118 0
 622 0060 4CF00101 		orr	r1, ip, #1
 623              		.loc 1 119 0
 624 0064 42F02C0C 		orr	ip, r2, #44
 625              		.loc 1 122 0
 626 0068 0022     		movs	r2, #0
 627              		.loc 1 117 0
 628 006a 1882     		strh	r0, [r3, #16]	@ movhi
 629              		.loc 1 118 0
 630 006c 9982     		strh	r1, [r3, #20]	@ movhi
 631              		.loc 1 119 0
 632 006e A3F80CC0 		strh	ip, [r3, #12]	@ movhi
 633              		.loc 1 122 0
 634 0072 1A80     		strh	r2, [r3, #0]	@ movhi
 635              		.loc 1 123 0
 636 0074 1A88     		ldrh	r2, [r3, #0]
 637              		.loc 1 124 0
 638 0076 9B88     		ldrh	r3, [r3, #4]
 639              	.LBE33:
 640              	.LBE32:
 641              		.loc 1 466 0
 642 0078 38BD     		pop	{r3, r4, r5, pc}
 643              	.L35:
 644              	.LBB35:
 645              	.LBB34:
 646              		.loc 1 110 0
 647 007a 4FF43D40 		mov	r0, #48384
 648 007e C0F20150 		movt	r0, 1281
 649 0082 B0FBF1F2 		udiv	r2, r0, r1
 650 0086 1A81     		strh	r2, [r3, #8]	@ movhi
 651 0088 E2E7     		b	.L32
 652              	.LVL53:
 653              	.L34:
 654              	.LBE34:
 655              	.LBE35:
 656              		.loc 1 423 0
 657 008a 40F20001 		movw	r1, #:lower16:.LANCHOR0
 658              	.LVL54:
 659 008e C0F20001 		movt	r1, #:upper16:.LANCHOR0
 660 0092 8842     		cmp	r0, r1
 661 0094 1AD0     		beq	.L36
 662              		.loc 1 430 0
 663 0096 40F20001 		movw	r1, #:lower16:.LANCHOR1
 664 009a C0F20001 		movt	r1, #:upper16:.LANCHOR1
 665 009e 8842     		cmp	r0, r1
 666 00a0 23D0     		beq	.L37
 667              		.loc 1 437 0
 668 00a2 40F20001 		movw	r1, #:lower16:.LANCHOR2
 669 00a6 C0F20001 		movt	r1, #:upper16:.LANCHOR2
 670 00aa 8842     		cmp	r0, r1
 671 00ac B4D1     		bne	.L28
ARM GAS  /tmp/ccxqq0Hi.s 			page 13


 672              		.loc 1 438 0
 673 00ae 4FF4605C 		mov	ip, #14336
 674 00b2 C4F2020C 		movt	ip, 16386
 675              		.loc 1 439 0
 676 00b6 2720     		movs	r0, #39
 677              		.loc 1 438 0
 678 00b8 DCF84030 		ldr	r3, [ip, #64]
 679 00bc 43F48022 		orr	r2, r3, #262144
 680 00c0 CCF84020 		str	r2, [ip, #64]
 681              		.loc 1 439 0
 682 00c4 C021     		movs	r1, #192
 683 00c6 FFF7FEFF 		bl	nvicEnableVector
 684 00ca A5E7     		b	.L28
 685              	.L36:
 686              		.loc 1 424 0
 687 00cc 4FF4605C 		mov	ip, #14336
 688 00d0 C4F2020C 		movt	ip, 16386
 689              		.loc 1 425 0
 690 00d4 2520     		movs	r0, #37
 691              		.loc 1 424 0
 692 00d6 DCF84430 		ldr	r3, [ip, #68]
 693 00da 43F01002 		orr	r2, r3, #16
 694 00de CCF84420 		str	r2, [ip, #68]
 695              		.loc 1 425 0
 696 00e2 C021     		movs	r1, #192
 697 00e4 FFF7FEFF 		bl	nvicEnableVector
 698 00e8 96E7     		b	.L28
 699              	.L37:
 700              		.loc 1 431 0
 701 00ea 4FF4605E 		mov	lr, #14336
 702 00ee C4F2020E 		movt	lr, 16386
 703              		.loc 1 432 0
 704 00f2 2620     		movs	r0, #38
 705              		.loc 1 431 0
 706 00f4 DEF84030 		ldr	r3, [lr, #64]
 707 00f8 43F40032 		orr	r2, r3, #131072
 708 00fc CEF84020 		str	r2, [lr, #64]
 709              		.loc 1 432 0
 710 0100 C021     		movs	r1, #192
 711 0102 FFF7FEFF 		bl	nvicEnableVector
 712 0106 87E7     		b	.L28
 713              		.cfi_endproc
 714              	.LFE128:
 715              		.size	sd_lld_start, .-sd_lld_start
 716 0108 AFF30080 		.section	.text.sd_lld_stop,"ax",%progbits
 716      AFF30080 
 717              		.align	2
 718              		.p2align 4,,15
 719              		.global	sd_lld_stop
 720              		.thumb
 721              		.thumb_func
 722              		.type	sd_lld_stop, %function
 723              	sd_lld_stop:
 724              	.LFB129:
 725              		.loc 1 477 0
 726              		.cfi_startproc
 727              		@ args = 0, pretend = 0, frame = 0
ARM GAS  /tmp/ccxqq0Hi.s 			page 14


 728              		@ frame_needed = 0, uses_anonymous_args = 0
 729              		@ link register save eliminated.
 730              	.LVL55:
 731              		.loc 1 479 0
 732 0000 037B     		ldrb	r3, [r0, #12]	@ zero_extendqisi2
 733 0002 022B     		cmp	r3, #2
 734 0004 00D0     		beq	.L42
 735              	.L38:
 736 0006 7047     		bx	lr
 737              	.LVL56:
 738              	.L42:
 739              		.loc 1 482 0
 740 0008 40F2000C 		movw	ip, #:lower16:.LANCHOR0
 741              	.LVL57:
 742              		.loc 1 480 0
 743 000c 026F     		ldr	r2, [r0, #112]
 744              	.LVL58:
 745              		.loc 1 482 0
 746 000e C0F2000C 		movt	ip, #:upper16:.LANCHOR0
 747              	.LBB36:
 748              	.LBB37:
 749              		.loc 1 135 0
 750 0012 0021     		movs	r1, #0
 751              	.LBE37:
 752              	.LBE36:
 753              		.loc 1 482 0
 754 0014 6045     		cmp	r0, ip
 755              	.LBB39:
 756              	.LBB38:
 757              		.loc 1 135 0
 758 0016 9181     		strh	r1, [r2, #12]	@ movhi
 759              		.loc 1 136 0
 760 0018 1182     		strh	r1, [r2, #16]	@ movhi
 761              		.loc 1 137 0
 762 001a 9182     		strh	r1, [r2, #20]	@ movhi
 763              	.LBE38:
 764              	.LBE39:
 765              		.loc 1 482 0
 766 001c 18D0     		beq	.L43
 767              		.loc 1 489 0
 768 001e 40F20001 		movw	r1, #:lower16:.LANCHOR1
 769 0022 C0F20001 		movt	r1, #:upper16:.LANCHOR1
 770 0026 8842     		cmp	r0, r1
 771 0028 1DD0     		beq	.L44
 772              		.loc 1 496 0
 773 002a 40F20001 		movw	r1, #:lower16:.LANCHOR2
 774 002e C0F20001 		movt	r1, #:upper16:.LANCHOR2
 775 0032 8842     		cmp	r0, r1
 776 0034 E7D1     		bne	.L38
 777              		.loc 1 497 0
 778 0036 4FF4605C 		mov	ip, #14336
 779 003a C4F2020C 		movt	ip, 16386
 780              		.loc 1 498 0
 781 003e 2720     		movs	r0, #39
 782              	.LVL59:
 783              		.loc 1 497 0
 784 0040 DCF84030 		ldr	r3, [ip, #64]
ARM GAS  /tmp/ccxqq0Hi.s 			page 15


 785 0044 23F48022 		bic	r2, r3, #262144
 786              	.LVL60:
 787 0048 CCF84020 		str	r2, [ip, #64]
 788              		.loc 1 524 0
 789              		.loc 1 498 0
 790 004c FFF7FEBF 		b	nvicDisableVector
 791              	.LVL61:
 792              	.L43:
 793              		.loc 1 483 0
 794 0050 4FF46053 		mov	r3, #14336
 795 0054 C4F20203 		movt	r3, 16386
 796              		.loc 1 484 0
 797 0058 2520     		movs	r0, #37
 798              	.LVL62:
 799              		.loc 1 483 0
 800 005a 5A6C     		ldr	r2, [r3, #68]
 801              	.LVL63:
 802 005c 22F01001 		bic	r1, r2, #16
 803 0060 5964     		str	r1, [r3, #68]
 804              		.loc 1 524 0
 805              		.loc 1 484 0
 806 0062 FFF7FEBF 		b	nvicDisableVector
 807              	.LVL64:
 808              	.L44:
 809              		.loc 1 490 0
 810 0066 4FF4605C 		mov	ip, #14336
 811 006a C4F2020C 		movt	ip, 16386
 812              		.loc 1 491 0
 813 006e 2620     		movs	r0, #38
 814              	.LVL65:
 815              		.loc 1 490 0
 816 0070 DCF84030 		ldr	r3, [ip, #64]
 817 0074 23F40032 		bic	r2, r3, #131072
 818              	.LVL66:
 819 0078 CCF84020 		str	r2, [ip, #64]
 820              		.loc 1 524 0
 821              		.loc 1 491 0
 822 007c FFF7FEBF 		b	nvicDisableVector
 823              		.cfi_endproc
 824              	.LFE129:
 825              		.size	sd_lld_stop, .-sd_lld_stop
 826              		.global	SD3
 827              		.global	SD2
 828              		.global	SD1
 829              		.section	.rodata.default_config,"a",%progbits
 830              		.align	2
 831              		.set	.LANCHOR3,. + 0
 832              		.type	default_config, %object
 833              		.size	default_config, 12
 834              	default_config:
 835 0000 00960000 		.word	38400
 836 0004 0000     		.short	0
 837 0006 0040     		.short	16384
 838 0008 0000     		.short	0
 839 000a 0000     		.space	2
 840              		.section	.bss.SD1,"aw",%nobits
 841              		.align	2
ARM GAS  /tmp/ccxqq0Hi.s 			page 16


 842              		.set	.LANCHOR0,. + 0
 843              		.type	SD1, %object
 844              		.size	SD1, 116
 845              	SD1:
 846 0000 00000000 		.space	116
 846      00000000 
 846      00000000 
 846      00000000 
 846      00000000 
 847              		.section	.bss.SD2,"aw",%nobits
 848              		.align	2
 849              		.set	.LANCHOR1,. + 0
 850              		.type	SD2, %object
 851              		.size	SD2, 116
 852              	SD2:
 853 0000 00000000 		.space	116
 853      00000000 
 853      00000000 
 853      00000000 
 853      00000000 
 854              		.section	.bss.SD3,"aw",%nobits
 855              		.align	2
 856              		.set	.LANCHOR2,. + 0
 857              		.type	SD3, %object
 858              		.size	SD3, 116
 859              	SD3:
 860 0000 00000000 		.space	116
 860      00000000 
 860      00000000 
 860      00000000 
 860      00000000 
 861              		.text
 862              	.Letext0:
 863              		.file 2 "/opt/arm/bin/../lib/gcc/arm-none-eabi/4.6.3/include/stddef.h"
 864              		.file 3 "/opt/arm/bin/../lib/gcc/arm-none-eabi/4.6.3/../../../../arm-none-eabi/include/stdint.h"
 865              		.file 4 "/opt/ChibiOS/ChibiOS_2.4.4/os/ports/GCC/ARMCMx/chtypes.h"
 866              		.file 5 "/opt/ChibiOS/ChibiOS_2.4.4/os/kernel/include/chlists.h"
 867              		.file 6 "/opt/ChibiOS/ChibiOS_2.4.4/os/kernel/include/chthreads.h"
 868              		.file 7 "/opt/ChibiOS/ChibiOS_2.4.4/os/ports/GCC/ARMCMx/chcore_v7m.h"
 869              		.file 8 "/opt/ChibiOS/ChibiOS_2.4.4/os/kernel/include/chmtx.h"
 870              		.file 9 "/opt/ChibiOS/ChibiOS_2.4.4/os/kernel/include/chevents.h"
 871              		.file 10 "/opt/ChibiOS/ChibiOS_2.4.4/os/kernel/include/chqueues.h"
 872              		.file 11 "/opt/ChibiOS/ChibiOS_2.4.4/os/kernel/include/chioch.h"
 873              		.file 12 "/opt/ChibiOS/ChibiOS_2.4.4/os/hal/platforms/STM32F4xx/stm32f4xx.h"
 874              		.file 13 "/opt/ChibiOS/ChibiOS_2.4.4/os/hal/include/serial.h"
 875              		.file 14 "/opt/ChibiOS/ChibiOS_2.4.4/os/hal/platforms/STM32/serial_lld.h"
 876              		.file 15 "/opt/ChibiOS/ChibiOS_2.4.4/os/ports/common/ARMCMx/CMSIS/include/core_cm4.h"