ARM GAS  /tmp/ccxqq0Hi.s 			page 1


   1              		.syntax unified
   2              		.cpu cortex-m4
   3              		.eabi_attribute 27, 3
   4              		.eabi_attribute 28, 1
   5              		.fpu fpv4-sp-d16
   6              		.eabi_attribute 20, 1
   7              		.eabi_attribute 21, 1
   8              		.eabi_attribute 23, 3
   9              		.eabi_attribute 24, 1
  10              		.eabi_attribute 25, 1
  11              		.eabi_attribute 26, 1
  12              		.eabi_attribute 30, 2
  13              		.eabi_attribute 34, 1
  14              		.eabi_attribute 18, 4
  15              		.thumb
  16              		.file	"serial_lld.c"
  17              		.text
  18              	.Ltext0:
  19              		.cfi_sections	.debug_frame
  20              		.section	.text.notify1,"ax",%progbits
  21              		.align	2
  22              		.p2align 4,,15
  23              		.thumb
  24              		.thumb_func
  25              		.type	notify1, %function
  26              	notify1:
  27              	.LFB121:
  28              		.file 1 "/opt/ChibiOS/ChibiOS_2.4.4/os/hal/platforms/STM32/serial_lld.c"
  29              		.loc 1 217 0
  30              		.cfi_startproc
  31              		@ args = 0, pretend = 0, frame = 0
  32              		@ frame_needed = 0, uses_anonymous_args = 0
  33              		@ link register save eliminated.
  34              	.LVL0:
  35              		.loc 1 220 0
  36 0000 4FF48053 		mov	r3, #4096
  37 0004 C4F20103 		movt	r3, 16385
  38 0008 9989     		ldrh	r1, [r3, #12]
  39 000a 88B2     		uxth	r0, r1
  40              	.LVL1:
  41 000c 40F08002 		orr	r2, r0, #128
  42 0010 9A81     		strh	r2, [r3, #12]	@ movhi
  43              		.loc 1 221 0
  44 0012 7047     		bx	lr
  45              		.cfi_endproc
  46              	.LFE121:
  47              		.size	notify1, .-notify1
  48 0014 AFF30080 		.section	.text.notify2,"ax",%progbits
  48      AFF30080 
  48      AFF30080 
  49              		.align	2
  50              		.p2align 4,,15
  51              		.thumb
  52              		.thumb_func
  53              		.type	notify2, %function
  54              	notify2:
  55              	.LFB122:
ARM GAS  /tmp/ccxqq0Hi.s 			page 2


  56              		.loc 1 225 0
  57              		.cfi_startproc
  58              		@ args = 0, pretend = 0, frame = 0
  59              		@ frame_needed = 0, uses_anonymous_args = 0
  60              		@ link register save eliminated.
  61              	.LVL2:
  62              		.loc 1 228 0
  63 0000 4FF48843 		mov	r3, #17408
  64 0004 C4F20003 		movt	r3, 16384
  65 0008 9989     		ldrh	r1, [r3, #12]
  66 000a 88B2     		uxth	r0, r1
  67              	.LVL3:
  68 000c 40F08002 		orr	r2, r0, #128
  69 0010 9A81     		strh	r2, [r3, #12]	@ movhi
  70              		.loc 1 229 0
  71 0012 7047     		bx	lr
  72              		.cfi_endproc
  73              	.LFE122:
  74              		.size	notify2, .-notify2
  75 0014 AFF30080 		.section	.text.notify3,"ax",%progbits
  75      AFF30080 
  75      AFF30080 
  76              		.align	2
  77              		.p2align 4,,15
  78              		.thumb
  79              		.thumb_func
  80              		.type	notify3, %function
  81              	notify3:
  82              	.LFB123:
  83              		.loc 1 233 0
  84              		.cfi_startproc
  85              		@ args = 0, pretend = 0, frame = 0
  86              		@ frame_needed = 0, uses_anonymous_args = 0
  87              		@ link register save eliminated.
  88              	.LVL4:
  89              		.loc 1 236 0
  90 0000 4FF49043 		mov	r3, #18432
  91 0004 C4F20003 		movt	r3, 16384
  92 0008 9989     		ldrh	r1, [r3, #12]
  93 000a 88B2     		uxth	r0, r1
  94              	.LVL5:
  95 000c 40F08002 		orr	r2, r0, #128
  96 0010 9A81     		strh	r2, [r3, #12]	@ movhi
  97              		.loc 1 237 0
  98 0012 7047     		bx	lr
  99              		.cfi_endproc
 100              	.LFE123:
 101              		.size	notify3, .-notify3
 102 0014 AFF30080 		.section	.text.serve_interrupt,"ax",%progbits
 102      AFF30080 
 102      AFF30080 
 103              		.align	2
 104              		.p2align 4,,15
 105              		.thumb
 106              		.thumb_func
 107              		.type	serve_interrupt, %function
 108              	serve_interrupt:
ARM GAS  /tmp/ccxqq0Hi.s 			page 3


 109              	.LFB120:
 110              		.loc 1 170 0
 111              		.cfi_startproc
 112              		@ args = 0, pretend = 0, frame = 0
 113              		@ frame_needed = 0, uses_anonymous_args = 0
 114              	.LVL6:
 115 0000 2DE9F041 		push	{r4, r5, r6, r7, r8, lr}
 116              	.LCFI0:
 117              		.cfi_def_cfa_offset 24
 118              		.cfi_offset 14, -4
 119              		.cfi_offset 8, -8
 120              		.cfi_offset 7, -12
 121              		.cfi_offset 6, -16
 122              		.cfi_offset 5, -20
 123              		.cfi_offset 4, -24
 124              		.loc 1 171 0
 125 0004 066F     		ldr	r6, [r0, #112]
 126              	.LVL7:
 127              		.loc 1 172 0
 128 0006 B789     		ldrh	r7, [r6, #12]
 129              		.loc 1 173 0
 130 0008 3488     		ldrh	r4, [r6, #0]
 131              		.loc 1 174 0
 132 000a B6F80480 		ldrh	r8, [r6, #4]
 133              		.loc 1 173 0
 134 000e A4B2     		uxth	r4, r4
 135              		.loc 1 177 0
 136 0010 2207     		lsls	r2, r4, #28
 137              		.loc 1 170 0
 138 0012 0546     		mov	r5, r0
 139              		.loc 1 172 0
 140 0014 BFB2     		uxth	r7, r7
 141              	.LVL8:
 142              		.loc 1 177 0
 143 0016 1ED0     		beq	.L5
 144              	.LVL9:
 145              	.LBB19:
 146              	.LBB20:
 147              		.loc 1 152 0
 148 0018 14F0080C 		ands	ip, r4, #8
 149              		.loc 1 153 0
 150 001c 18BF     		it	ne
 151 001e 4FF0800C 		movne	ip, #128
 152              	.LVL10:
 153              		.loc 1 154 0
 154 0022 E307     		lsls	r3, r4, #31
 155              		.loc 1 155 0
 156 0024 48BF     		it	mi
 157 0026 4CF0200C 		orrmi	ip, ip, #32
 158              	.LVL11:
 159              		.loc 1 156 0
 160 002a A007     		lsls	r0, r4, #30
 161              	.LVL12:
 162              		.loc 1 157 0
 163 002c 48BF     		it	mi
 164 002e 4CF0400C 		orrmi	ip, ip, #64
 165              	.LVL13:
ARM GAS  /tmp/ccxqq0Hi.s 			page 4


 166              		.loc 1 158 0
 167 0032 6107     		lsls	r1, r4, #29
 168              		.loc 1 159 0
 169 0034 48BF     		it	mi
 170 0036 4CF4807C 		orrmi	ip, ip, #256
 171              	.LVL14:
 172              	.LBB21:
 173              		.loc 1 160 0
 174 003a 2023     		movs	r3, #32
 175              	.LVL15:
 176              	@ 160 "/opt/ChibiOS/ChibiOS_2.4.4/os/hal/platforms/STM32/serial_lld.c" 1
 177 003c 83F31188 		msr     BASEPRI, r3
 178              	@ 0 "" 2
 179              	.LVL16:
 180              		.thumb
 181              	.LBE21:
 182              		.loc 1 161 0
 183 0040 AB68     		ldr	r3, [r5, #8]
 184              	.LVL17:
 185 0042 43EA0C02 		orr	r2, r3, ip
 186 0046 AA60     		str	r2, [r5, #8]
 187 0048 281D     		adds	r0, r5, #4
 188 004a 0021     		movs	r1, #0
 189 004c FFF7FEFF 		bl	chEvtBroadcastFlagsI
 190              	.LVL18:
 191              	.LBB22:
 192              		.loc 1 162 0
 193 0050 0023     		movs	r3, #0
 194              	.LVL19:
 195              	@ 162 "/opt/ChibiOS/ChibiOS_2.4.4/os/hal/platforms/STM32/serial_lld.c" 1
 196 0052 83F31188 		msr     BASEPRI, r3
 197              	@ 0 "" 2
 198              	.LVL20:
 199              		.thumb
 200              	.L5:
 201              	.LBE22:
 202              	.LBE20:
 203              	.LBE19:
 204              		.loc 1 180 0
 205 0056 E305     		lsls	r3, r4, #23
 206              	.LVL21:
 207 0058 2ED4     		bmi	.L18
 208              	.LVL22:
 209              	.L10:
 210              		.loc 1 187 0
 211 005a A006     		lsls	r0, r4, #26
 212 005c 20D4     		bmi	.L19
 213              	.LVL23:
 214              	.L11:
 215              		.loc 1 193 0
 216 005e 3906     		lsls	r1, r7, #24
 217 0060 01D5     		bpl	.L12
 218              		.loc 1 193 0 is_stmt 0 discriminator 1
 219 0062 2206     		lsls	r2, r4, #24
 220 0064 3ED4     		bmi	.L20
 221              	.LVL24:
 222              	.L12:
ARM GAS  /tmp/ccxqq0Hi.s 			page 5


 223              		.loc 1 206 0 is_stmt 1
 224 0066 6306     		lsls	r3, r4, #25
 225              	.LVL25:
 226 0068 18D5     		bpl	.L4
 227              	.LBB23:
 228              		.loc 1 207 0
 229 006a 2023     		movs	r3, #32
 230              	.LVL26:
 231              	@ 207 "/opt/ChibiOS/ChibiOS_2.4.4/os/hal/platforms/STM32/serial_lld.c" 1
 232 006c 83F31188 		msr     BASEPRI, r3
 233              	@ 0 "" 2
 234              	.LVL27:
 235              		.thumb
 236              	.LBE23:
 237              		.loc 1 208 0
 238 0070 A868     		ldr	r0, [r5, #8]
 239 0072 40F01003 		orr	r3, r0, #16
 240              	.LVL28:
 241 0076 AB60     		str	r3, [r5, #8]
 242 0078 281D     		adds	r0, r5, #4
 243 007a 0021     		movs	r1, #0
 244 007c FFF7FEFF 		bl	chEvtBroadcastFlagsI
 245              	.LBB24:
 246              		.loc 1 209 0
 247 0080 0023     		movs	r3, #0
 248              	.LVL29:
 249              	@ 209 "/opt/ChibiOS/ChibiOS_2.4.4/os/hal/platforms/STM32/serial_lld.c" 1
 250 0082 83F31188 		msr     BASEPRI, r3
 251              	@ 0 "" 2
 252              	.LVL30:
 253              		.thumb
 254              	.LBE24:
 255              		.loc 1 210 0
 256 0086 4FF6BF72 		movw	r2, #65471
 257 008a 07EA0201 		and	r1, r7, r2
 258 008e B181     		strh	r1, [r6, #12]	@ movhi
 259              		.loc 1 211 0
 260 0090 3088     		ldrh	r0, [r6, #0]
 261 0092 20F04003 		bic	r3, r0, #64
 262              	.LVL31:
 263 0096 1A04     		lsls	r2, r3, #16
 264 0098 110C     		lsrs	r1, r2, #16
 265 009a 3180     		strh	r1, [r6, #0]	@ movhi
 266              	.L4:
 267 009c BDE8F081 		pop	{r4, r5, r6, r7, r8, pc}
 268              	.LVL32:
 269              	.L19:
 270              	.LBB25:
 271              		.loc 1 188 0
 272 00a0 2023     		movs	r3, #32
 273              	.LVL33:
 274              	@ 188 "/opt/ChibiOS/ChibiOS_2.4.4/os/hal/platforms/STM32/serial_lld.c" 1
 275 00a2 83F31188 		msr     BASEPRI, r3
 276              	@ 0 "" 2
 277              	.LVL34:
 278              		.thumb
 279              	.LBE25:
ARM GAS  /tmp/ccxqq0Hi.s 			page 6


 280              		.loc 1 189 0
 281 00a6 2846     		mov	r0, r5
 282 00a8 5FFA88F1 		uxtb	r1, r8
 283 00ac FFF7FEFF 		bl	sdIncomingDataI
 284              	.LVL35:
 285              	.LBB26:
 286              		.loc 1 190 0
 287 00b0 0023     		movs	r3, #0
 288              	@ 190 "/opt/ChibiOS/ChibiOS_2.4.4/os/hal/platforms/STM32/serial_lld.c" 1
 289 00b2 83F31188 		msr     BASEPRI, r3
 290              	@ 0 "" 2
 291              	.LVL36:
 292              		.thumb
 293 00b6 D2E7     		b	.L11
 294              	.LVL37:
 295              	.L18:
 296              	.LBE26:
 297              	.LBB27:
 298              		.loc 1 181 0
 299 00b8 2023     		movs	r3, #32
 300              	.LVL38:
 301              	@ 181 "/opt/ChibiOS/ChibiOS_2.4.4/os/hal/platforms/STM32/serial_lld.c" 1
 302 00ba 83F31188 		msr     BASEPRI, r3
 303              	@ 0 "" 2
 304              	.LVL39:
 305              		.thumb
 306              	.LBE27:
 307              		.loc 1 182 0
 308 00be A868     		ldr	r0, [r5, #8]
 309 00c0 40F40073 		orr	r3, r0, #512
 310              	.LVL40:
 311 00c4 AB60     		str	r3, [r5, #8]
 312 00c6 281D     		adds	r0, r5, #4
 313 00c8 0021     		movs	r1, #0
 314 00ca FFF7FEFF 		bl	chEvtBroadcastFlagsI
 315              	.LBB28:
 316              		.loc 1 183 0
 317 00ce 0023     		movs	r3, #0
 318              	@ 183 "/opt/ChibiOS/ChibiOS_2.4.4/os/hal/platforms/STM32/serial_lld.c" 1
 319 00d0 83F31188 		msr     BASEPRI, r3
 320              	@ 0 "" 2
 321              	.LVL41:
 322              		.thumb
 323              	.LBE28:
 324              		.loc 1 184 0
 325 00d4 B6F800C0 		ldrh	ip, [r6, #0]
 326 00d8 2CF48072 		bic	r2, ip, #256
 327 00dc 1104     		lsls	r1, r2, #16
 328 00de 080C     		lsrs	r0, r1, #16
 329 00e0 3080     		strh	r0, [r6, #0]	@ movhi
 330 00e2 BAE7     		b	.L10
 331              	.LVL42:
 332              	.L20:
 333              	.LBB29:
 334              	.LBB30:
 335              		.loc 1 195 0
 336 00e4 2023     		movs	r3, #32
ARM GAS  /tmp/ccxqq0Hi.s 			page 7


 337              	.LVL43:
 338              	@ 195 "/opt/ChibiOS/ChibiOS_2.4.4/os/hal/platforms/STM32/serial_lld.c" 1
 339 00e6 83F31188 		msr     BASEPRI, r3
 340              	@ 0 "" 2
 341              	.LVL44:
 342              		.thumb
 343              	.LBE30:
 344              		.loc 1 196 0
 345 00ea 05F13000 		add	r0, r5, #48
 346 00ee FFF7FEFF 		bl	chOQGetI
 347              	.LVL45:
 348              		.loc 1 197 0
 349 00f2 0028     		cmp	r0, #0
 350              		.loc 1 202 0
 351 00f4 A8BF     		it	ge
 352 00f6 B080     		strhge	r0, [r6, #4]	@ movhi
 353              		.loc 1 197 0
 354 00f8 03DB     		blt	.L21
 355              	.LVL46:
 356              	.L14:
 357              	.LBB31:
 358              		.loc 1 203 0
 359 00fa 0023     		movs	r3, #0
 360              	@ 203 "/opt/ChibiOS/ChibiOS_2.4.4/os/hal/platforms/STM32/serial_lld.c" 1
 361 00fc 83F31188 		msr     BASEPRI, r3
 362              	@ 0 "" 2
 363              	.LVL47:
 364              		.thumb
 365 0100 B1E7     		b	.L12
 366              	.LVL48:
 367              	.L21:
 368              	.LBE31:
 369              		.loc 1 198 0
 370 0102 A868     		ldr	r0, [r5, #8]
 371              	.LVL49:
 372 0104 40F00803 		orr	r3, r0, #8
 373 0108 0021     		movs	r1, #0
 374 010a AB60     		str	r3, [r5, #8]
 375 010c 281D     		adds	r0, r5, #4
 376 010e FFF7FEFF 		bl	chEvtBroadcastFlagsI
 377              		.loc 1 199 0
 378 0112 27F0C002 		bic	r2, r7, #192
 379 0116 42F04001 		orr	r1, r2, #64
 380 011a B181     		strh	r1, [r6, #12]	@ movhi
 381 011c EDE7     		b	.L14
 382              	.LBE29:
 383              		.cfi_endproc
 384              	.LFE120:
 385              		.size	serve_interrupt, .-serve_interrupt
 386 011e 00BF     		.section	.text.VectorD4,"ax",%progbits
 387              		.align	2
 388              		.p2align 4,,15
 389              		.global	VectorD4
 390              		.thumb
 391              		.thumb_func
 392              		.type	VectorD4, %function
 393              	VectorD4:
ARM GAS  /tmp/ccxqq0Hi.s 			page 8


 394              	.LFB124:
 395              		.loc 1 274 0
 396              		.cfi_startproc
 397              		@ args = 0, pretend = 0, frame = 0
 398              		@ frame_needed = 0, uses_anonymous_args = 0
 399 0000 08B5     		push	{r3, lr}
 400              	.LCFI1:
 401              		.cfi_def_cfa_offset 8
 402              		.cfi_offset 14, -4
 403              		.cfi_offset 3, -8
 404              		.loc 1 278 0
 405 0002 40F20000 		movw	r0, #:lower16:.LANCHOR0
 406 0006 C0F20000 		movt	r0, #:upper16:.LANCHOR0
 407 000a FFF7FEFF 		bl	serve_interrupt
 408              		.loc 1 281 0
 409 000e BDE80840 		pop	{r3, lr}
 410              		.loc 1 280 0
 411 0012 FFF7FEBF 		b	_port_irq_epilogue
 412              		.cfi_endproc
 413              	.LFE124:
 414              		.size	VectorD4, .-VectorD4
 415 0016 00BFAFF3 		.section	.text.VectorD8,"ax",%progbits
 415      0080AFF3 
 415      0080
 416              		.align	2
 417              		.p2align 4,,15
 418              		.global	VectorD8
 419              		.thumb
 420              		.thumb_func
 421              		.type	VectorD8, %function
 422              	VectorD8:
 423              	.LFB125:
 424              		.loc 1 290 0
 425              		.cfi_startproc
 426              		@ args = 0, pretend = 0, frame = 0
 427              		@ frame_needed = 0, uses_anonymous_args = 0
 428 0000 08B5     		push	{r3, lr}
 429              	.LCFI2:
 430              		.cfi_def_cfa_offset 8
 431              		.cfi_offset 14, -4
 432              		.cfi_offset 3, -8
 433              		.loc 1 294 0
 434 0002 40F20000 		movw	r0, #:lower16:.LANCHOR1
 435 0006 C0F20000 		movt	r0, #:upper16:.LANCHOR1
 436 000a FFF7FEFF 		bl	serve_interrupt
 437              		.loc 1 297 0
 438 000e BDE80840 		pop	{r3, lr}
 439              		.loc 1 296 0
 440 0012 FFF7FEBF 		b	_port_irq_epilogue
 441              		.cfi_endproc
 442              	.LFE125:
 443              		.size	VectorD8, .-VectorD8
 444 0016 00BFAFF3 		.section	.text.VectorDC,"ax",%progbits
 444      0080AFF3 
 444      0080
 445              		.align	2
 446              		.p2align 4,,15
ARM GAS  /tmp/ccxqq0Hi.s 			page 9


 447              		.global	VectorDC
 448              		.thumb
 449              		.thumb_func
 450              		.type	VectorDC, %function
 451              	VectorDC:
 452              	.LFB126:
 453              		.loc 1 306 0
 454              		.cfi_startproc
 455              		@ args = 0, pretend = 0, frame = 0
 456              		@ frame_needed = 0, uses_anonymous_args = 0
 457 0000 08B5     		push	{r3, lr}
 458              	.LCFI3:
 459              		.cfi_def_cfa_offset 8
 460              		.cfi_offset 14, -4
 461              		.cfi_offset 3, -8
 462              		.loc 1 310 0
 463 0002 40F20000 		movw	r0, #:lower16:.LANCHOR2
 464 0006 C0F20000 		movt	r0, #:upper16:.LANCHOR2
 465 000a FFF7FEFF 		bl	serve_interrupt
 466              		.loc 1 313 0
 467 000e BDE80840 		pop	{r3, lr}
 468              		.loc 1 312 0
 469 0012 FFF7FEBF 		b	_port_irq_epilogue
 470              		.cfi_endproc
 471              	.LFE126:
 472              		.size	VectorDC, .-VectorDC
 473 0016 00BFAFF3 		.section	.text.sd_lld_init,"ax",%progbits
 473      0080AFF3 
 473      0080
 474              		.align	2
 475              		.p2align 4,,15
 476              		.global	sd_lld_init
 477              		.thumb
 478              		.thumb_func
 479              		.type	sd_lld_init, %function
 480              	sd_lld_init:
 481              	.LFB127:
 482              		.loc 1 373 0
 483              		.cfi_startproc
 484              		@ args = 0, pretend = 0, frame = 0
 485              		@ frame_needed = 0, uses_anonymous_args = 0
 486 0000 70B5     		push	{r4, r5, r6, lr}
 487              	.LCFI4:
 488              		.cfi_def_cfa_offset 16
 489              		.cfi_offset 14, -4
 490              		.cfi_offset 6, -8
 491              		.cfi_offset 5, -12
 492              		.cfi_offset 4, -16
 493              		.loc 1 376 0
 494 0002 40F20006 		movw	r6, #:lower16:.LANCHOR0
 495 0006 C0F20006 		movt	r6, #:upper16:.LANCHOR0
 496 000a 40F20002 		movw	r2, #:lower16:notify1
 497 000e 3046     		mov	r0, r6
 498 0010 0021     		movs	r1, #0
 499 0012 C0F20002 		movt	r2, #:upper16:notify1
 500              		.loc 1 381 0
 501 0016 40F20005 		movw	r5, #:lower16:.LANCHOR1
ARM GAS  /tmp/ccxqq0Hi.s 			page 10


 502              		.loc 1 376 0
 503 001a FFF7FEFF 		bl	sdObjectInit
 504              		.loc 1 381 0
 505 001e C0F20005 		movt	r5, #:upper16:.LANCHOR1
 506              		.loc 1 377 0
 507 0022 4FF48053 		mov	r3, #4096
 508              		.loc 1 381 0
 509 0026 40F20002 		movw	r2, #:lower16:notify2
 510              		.loc 1 377 0
 511 002a C4F20103 		movt	r3, 16385
 512              		.loc 1 381 0
 513 002e 2846     		mov	r0, r5
 514 0030 0021     		movs	r1, #0
 515 0032 C0F20002 		movt	r2, #:upper16:notify2
 516              		.loc 1 386 0
 517 0036 40F20004 		movw	r4, #:lower16:.LANCHOR2
 518 003a C0F20004 		movt	r4, #:upper16:.LANCHOR2
 519              		.loc 1 377 0
 520 003e 3367     		str	r3, [r6, #112]
 521              		.loc 1 381 0
 522 0040 FFF7FEFF 		bl	sdObjectInit
 523              		.loc 1 382 0
 524 0044 4FF48843 		mov	r3, #17408
 525              		.loc 1 386 0
 526 0048 40F20002 		movw	r2, #:lower16:notify3
 527              		.loc 1 382 0
 528 004c C4F20003 		movt	r3, 16384
 529              		.loc 1 386 0
 530 0050 2046     		mov	r0, r4
 531 0052 0021     		movs	r1, #0
 532 0054 C0F20002 		movt	r2, #:upper16:notify3
 533              		.loc 1 382 0
 534 0058 2B67     		str	r3, [r5, #112]
 535              		.loc 1 386 0
 536 005a FFF7FEFF 		bl	sdObjectInit
 537              		.loc 1 387 0
 538 005e 4FF49043 		mov	r3, #18432
 539 0062 C4F20003 		movt	r3, 16384
 540 0066 2367     		str	r3, [r4, #112]
 541              		.loc 1 404 0
 542 0068 70BD     		pop	{r4, r5, r6, pc}
 543              		.cfi_endproc
 544              	.LFE127:
 545              		.size	sd_lld_init, .-sd_lld_init
 546 006a 00BFAFF3 		.section	.text.sd_lld_start,"ax",%progbits
 546      0080
 547              		.align	2
 548              		.p2align 4,,15
 549              		.global	sd_lld_start
 550              		.thumb
 551              		.thumb_func
 552              		.type	sd_lld_start, %function
 553              	sd_lld_start:
 554              	.LFB128:
 555              		.loc 1 416 0
 556              		.cfi_startproc
 557              		@ args = 0, pretend = 0, frame = 0
ARM GAS  /tmp/ccxqq0Hi.s 			page 11


 558              		@ frame_needed = 0, uses_anonymous_args = 0
 559              	.LVL50:
 560 0000 38B5     		push	{r3, r4, r5, lr}
 561              	.LCFI5:
 562              		.cfi_def_cfa_offset 16
 563              		.cfi_offset 14, -4
 564              		.cfi_offset 5, -8
 565              		.cfi_offset 4, -12
 566              		.cfi_offset 3, -16
 567              		.loc 1 419 0
 568 0002 40F20004 		movw	r4, #:lower16:.LANCHOR3
 569              		.loc 1 421 0
 570 0006 037B     		ldrb	r3, [r0, #12]	@ zero_extendqisi2
 571              		.loc 1 419 0
 572 0008 C0F20004 		movt	r4, #:upper16:.LANCHOR3
 573 000c 0029     		cmp	r1, #0
 574 000e 18BF     		it	ne
 575 0010 0C46     		movne	r4, r1
 576              		.loc 1 421 0
 577 0012 012B     		cmp	r3, #1
 578              		.loc 1 416 0
 579 0014 0546     		mov	r5, r0
 580              		.loc 1 421 0
 581 0016 38D0     		beq	.L34
 582              	.LVL51:
 583              	.L28:
 584              	.LBB32:
 585              	.LBB33:
 586              		.loc 1 100 0
 587 0018 2B6F     		ldr	r3, [r5, #112]
 588              	.LVL52:
 589              		.loc 1 106 0
 590 001a 4FF48051 		mov	r1, #4096
 591 001e C4F20101 		movt	r1, 16385
 592 0022 581A     		subs	r0, r3, r1
 593 0024 D0F1000C 		rsbs	ip, r0, #0
 594 0028 4FF4A052 		mov	r2, #5120
 595 002c 4CEB0001 		adc	r1, ip, r0
 596 0030 C4F20102 		movt	r2, 16385
 597 0034 9342     		cmp	r3, r2
 598 0036 14BF     		ite	ne
 599 0038 0846     		movne	r0, r1
 600 003a 41F00100 		orreq	r0, r1, #1
 601              		.loc 1 110 0
 602 003e 2168     		ldr	r1, [r4, #0]
 603              		.loc 1 106 0
 604 0040 D8B9     		cbnz	r0, .L35
 605              		.loc 1 112 0
 606 0042 4DF6806C 		movw	ip, #56960
 607 0046 C0F2802C 		movt	ip, 640
 608 004a BCFBF1F1 		udiv	r1, ip, r1
 609 004e 1981     		strh	r1, [r3, #8]	@ movhi
 610              	.L32:
 611              		.loc 1 119 0
 612 0050 A088     		ldrh	r0, [r4, #4]
 613              		.loc 1 117 0
 614 0052 E188     		ldrh	r1, [r4, #6]
ARM GAS  /tmp/ccxqq0Hi.s 			page 12


 615              		.loc 1 118 0
 616 0054 B4F808C0 		ldrh	ip, [r4, #8]
 617              		.loc 1 119 0
 618 0058 40F40452 		orr	r2, r0, #8448
 619              		.loc 1 117 0
 620 005c 41F04000 		orr	r0, r1, #64
 621              		.loc 1 118 0
 622 0060 4CF00101 		orr	r1, ip, #1
 623              		.loc 1 119 0
 624 0064 42F02C0C 		orr	ip, r2, #44
 625              		.loc 1 122 0
 626 0068 0022     		movs	r2, #0
 627              		.loc 1 117 0
 628 006a 1882     		strh	r0, [r3, #16]	@ movhi
 629              		.loc 1 118 0
 630 006c 9982     		strh	r1, [r3, #20]	@ movhi
 631              		.loc 1 119 0
 632 006e A3F80CC0 		strh	ip, [r3, #12]	@ movhi
 633              		.loc 1 122 0
 634 0072 1A80     		strh	r2, [r3, #0]	@ movhi
 635              		.loc 1 123 0
 636 0074 1A88     		ldrh	r2, [r3, #0]
 637              		.loc 1 124 0
 638 0076 9B88     		ldrh	r3, [r3, #4]
 639              	.LBE33:
 640              	.LBE32:
 641              		.loc 1 466 0
 642 0078 38BD     		pop	{r3, r4, r5, pc}
 643              	.L35:
 644              	.LBB35:
 645              	.LBB34:
 646              		.loc 1 110 0
 647 007a 4FF43D40 		mov	r0, #48384
 648 007e C0F20150 		movt	r0, 1281
 649 0082 B0FBF1F2 		udiv	r2, r0, r1
 650 0086 1A81     		strh	r2, [r3, #8]	@ movhi
 651 0088 E2E7     		b	.L32
 652              	.LVL53:
 653              	.L34:
 654              	.LBE34:
 655              	.LBE35:
 656              		.loc 1 423 0
 657 008a 40F20001 		movw	r1, #:lower16:.LANCHOR0
 658              	.LVL54:
 659 008e C0F20001 		movt	r1, #:upper16:.LANCHOR0
 660 0092 8842     		cmp	r0, r1
 661 0094 1AD0     		beq	.L36
 662              		.loc 1 430 0
 663 0096 40F20001 		movw	r1, #:lower16:.LANCHOR1
 664 009a C0F20001 		movt	r1, #:upper16:.LANCHOR1
 665 009e 8842     		cmp	r0, r1
 666 00a0 23D0     		beq	.L37
 667              		.loc 1 437 0
 668 00a2 40F20001 		movw	r1, #:lower16:.LANCHOR2
 669 00a6 C0F20001 		movt	r1, #:upper16:.LANCHOR2
 670 00aa 8842     		cmp	r0, r1
 671 00ac B4D1     		bne	.L28
ARM GAS  /tmp/ccxqq0Hi.s 			page 13


 672              		.loc 1 438 0
 673 00ae 4FF4605C 		mov	ip, #14336
 674 00b2 C4F2020C 		movt	ip, 16386
 675              		.loc 1 439 0
 676 00b6 2720     		movs	r0, #39
 677              		.loc 1 438 0
 678 00b8 DCF84030 		ldr	r3, [ip, #64]
 679 00bc 43F48022 		orr	r2, r3, #262144
 680 00c0 CCF84020 		str	r2, [ip, #64]
 681              		.loc 1 439 0
 682 00c4 C021     		movs	r1, #192
 683 00c6 FFF7FEFF 		bl	nvicEnableVector
 684 00ca A5E7     		b	.L28
 685              	.L36:
 686              		.loc 1 424 0
 687 00cc 4FF4605C 		mov	ip, #14336
 688 00d0 C4F2020C 		movt	ip, 16386
 689              		.loc 1 425 0
 690 00d4 2520     		movs	r0, #37
 691              		.loc 1 424 0
 692 00d6 DCF84430 		ldr	r3, [ip, #68]
 693 00da 43F01002 		orr	r2, r3, #16
 694 00de CCF84420 		str	r2, [ip, #68]
 695              		.loc 1 425 0
 696 00e2 C021     		movs	r1, #192
 697 00e4 FFF7FEFF 		bl	nvicEnableVector
 698 00e8 96E7     		b	.L28
 699              	.L37:
 700              		.loc 1 431 0
 701 00ea 4FF4605E 		mov	lr, #14336
 702 00ee C4F2020E 		movt	lr, 16386
 703              		.loc 1 432 0
 704 00f2 2620     		movs	r0, #38
 705              		.loc 1 431 0
 706 00f4 DEF84030 		ldr	r3, [lr, #64]
 707 00f8 43F40032 		orr	r2, r3, #131072
 708 00fc CEF84020 		str	r2, [lr, #64]
 709              		.loc 1 432 0
 710 0100 C021     		movs	r1, #192
 711 0102 FFF7FEFF 		bl	nvicEnableVector
 712 0106 87E7     		b	.L28
 713              		.cfi_endproc
 714              	.LFE128:
 715              		.size	sd_lld_start, .-sd_lld_start
 716 0108 AFF30080 		.section	.text.sd_lld_stop,"ax",%progbits
 716      AFF30080 
 717              		.align	2
 718              		.p2align 4,,15
 719              		.global	sd_lld_stop
 720              		.thumb
 721              		.thumb_func
 722              		.type	sd_lld_stop, %function
 723              	sd_lld_stop:
 724              	.LFB129:
 725              		.loc 1 477 0
 726              		.cfi_startproc
 727              		@ args = 0, pretend = 0, frame = 0
ARM GAS  /tmp/ccxqq0Hi.s 			page 14


 728              		@ frame_needed = 0, uses_anonymous_args = 0
 729              		@ link register save eliminated.
 730              	.LVL55:
 731              		.loc 1 479 0
 732 0000 037B     		ldrb	r3, [r0, #12]	@ zero_extendqisi2
 733 0002 022B     		cmp	r3, #2
 734 0004 00D0     		beq	.L42
 735              	.L38:
 736 0006 7047     		bx	lr
 737              	.LVL56:
 738              	.L42:
 739              		.loc 1 482 0
 740 0008 40F2000C 		movw	ip, #:lower16:.LANCHOR0
 741              	.LVL57:
 742              		.loc 1 480 0
 743 000c 026F     		ldr	r2, [r0, #112]
 744              	.LVL58:
 745              		.loc 1 482 0
 746 000e C0F2000C 		movt	ip, #:upper16:.LANCHOR0
 747              	.LBB36:
 748              	.LBB37:
 749              		.loc 1 135 0
 750 0012 0021     		movs	r1, #0
 751              	.LBE37:
 752              	.LBE36:
 753              		.loc 1 482 0
 754 0014 6045     		cmp	r0, ip
 755              	.LBB39:
 756              	.LBB38:
 757              		.loc 1 135 0
 758 0016 9181     		strh	r1, [r2, #12]	@ movhi
 759              		.loc 1 136 0
 760 0018 1182     		strh	r1, [r2, #16]	@ movhi
 761              		.loc 1 137 0
 762 001a 9182     		strh	r1, [r2, #20]	@ movhi
 763              	.LBE38:
 764              	.LBE39:
 765              		.loc 1 482 0
 766 001c 18D0     		beq	.L43
 767              		.loc 1 489 0
 768 001e 40F20001 		movw	r1, #:lower16:.LANCHOR1
 769 0022 C0F20001 		movt	r1, #:upper16:.LANCHOR1
 770 0026 8842     		cmp	r0, r1
 771 0028 1DD0     		beq	.L44
 772              		.loc 1 496 0
 773 002a 40F20001 		movw	r1, #:lower16:.LANCHOR2
 774 002e C0F20001 		movt	r1, #:upper16:.LANCHOR2
 775 0032 8842     		cmp	r0, r1
 776 0034 E7D1     		bne	.L38
 777              		.loc 1 497 0
 778 0036 4FF4605C 		mov	ip, #14336
 779 003a C4F2020C 		movt	ip, 16386
 780              		.loc 1 498 0
 781 003e 2720     		movs	r0, #39
 782              	.LVL59:
 783              		.loc 1 497 0
 784 0040 DCF84030 		ldr	r3, [ip, #64]
ARM GAS  /tmp/ccxqq0Hi.s 			page 15


 785 0044 23F48022 		bic	r2, r3, #262144
 786              	.LVL60:
 787 0048 CCF84020 		str	r2, [ip, #64]
 788              		.loc 1 524 0
 789              		.loc 1 498 0
 790 004c FFF7FEBF 		b	nvicDisableVector
 791              	.LVL61:
 792              	.L43:
 793              		.loc 1 483 0
 794 0050 4FF46053 		mov	r3, #14336
 795 0054 C4F20203 		movt	r3, 16386
 796              		.loc 1 484 0
 797 0058 2520     		movs	r0, #37
 798              	.LVL62:
 799              		.loc 1 483 0
 800 005a 5A6C     		ldr	r2, [r3, #68]
 801              	.LVL63:
 802 005c 22F01001 		bic	r1, r2, #16
 803 0060 5964     		str	r1, [r3, #68]
 804              		.loc 1 524 0
 805              		.loc 1 484 0
 806 0062 FFF7FEBF 		b	nvicDisableVector
 807              	.LVL64:
 808              	.L44:
 809              		.loc 1 490 0
 810 0066 4FF4605C 		mov	ip, #14336
 811 006a C4F2020C 		movt	ip, 16386
 812              		.loc 1 491 0
 813 006e 2620     		movs	r0, #38
 814              	.LVL65:
 815              		.loc 1 490 0
 816 0070 DCF84030 		ldr	r3, [ip, #64]
 817 0074 23F40032 		bic	r2, r3, #131072
 818              	.LVL66:
 819 0078 CCF84020 		str	r2, [ip, #64]
 820              		.loc 1 524 0
 821              		.loc 1 491 0
 822 007c FFF7FEBF 		b	nvicDisableVector
 823              		.cfi_endproc
 824              	.LFE129:
 825              		.size	sd_lld_stop, .-sd_lld_stop
 826              		.global	SD3
 827              		.global	SD2
 828              		.global	SD1
 829              		.section	.rodata.default_config,"a",%progbits
 830              		.align	2
 831              		.set	.LANCHOR3,. + 0
 832              		.type	default_config, %object
 833              		.size	default_config, 12
 834              	default_config:
 835 0000 00960000 		.word	38400
 836 0004 0000     		.short	0
 837 0006 0040     		.short	16384
 838 0008 0000     		.short	0
 839 000a 0000     		.space	2
 840              		.section	.bss.SD1,"aw",%nobits
 841              		.align	2
ARM GAS  /tmp/ccxqq0Hi.s 			page 16


 842              		.set	.LANCHOR0,. + 0
 843              		.type	SD1, %object
 844              		.size	SD1, 116
 845              	SD1:
 846 0000 00000000 		.space	116
 846      00000000 
 846      00000000 
 846      00000000 
 846      00000000 
 847              		.section	.bss.SD2,"aw",%nobits
 848              		.align	2
 849              		.set	.LANCHOR1,. + 0
 850              		.type	SD2, %object
 851              		.size	SD2, 116
 852              	SD2:
 853 0000 00000000 		.space	116
 853      00000000 
 853      00000000 
 853      00000000 
 853      00000000 
 854              		.section	.bss.SD3,"aw",%nobits
 855              		.align	2
 856              		.set	.LANCHOR2,. + 0
 857              		.type	SD3, %object
 858              		.size	SD3, 116
 859              	SD3:
 860 0000 00000000 		.space	116
 860      00000000 
 860      00000000 
 860      00000000 
 860      00000000 
 861              		.text
 862              	.Letext0:
 863              		.file 2 "/opt/arm/bin/../lib/gcc/arm-none-eabi/4.6.3/include/stddef.h"
 864              		.file 3 "/opt/arm/bin/../lib/gcc/arm-none-eabi/4.6.3/../../../../arm-none-eabi/include/stdint.h"
 865              		.file 4 "/opt/ChibiOS/ChibiOS_2.4.4/os/ports/GCC/ARMCMx/chtypes.h"
 866              		.file 5 "/opt/ChibiOS/ChibiOS_2.4.4/os/kernel/include/chlists.h"
 867              		.file 6 "/opt/ChibiOS/ChibiOS_2.4.4/os/kernel/include/chthreads.h"
 868              		.file 7 "/opt/ChibiOS/ChibiOS_2.4.4/os/ports/GCC/ARMCMx/chcore_v7m.h"
 869              		.file 8 "/opt/ChibiOS/ChibiOS_2.4.4/os/kernel/include/chmtx.h"
 870              		.file 9 "/opt/ChibiOS/ChibiOS_2.4.4/os/kernel/include/chevents.h"
 871              		.file 10 "/opt/ChibiOS/ChibiOS_2.4.4/os/kernel/include/chqueues.h"
 872              		.file 11 "/opt/ChibiOS/ChibiOS_2.4.4/os/kernel/include/chioch.h"
 873              		.file 12 "/opt/ChibiOS/ChibiOS_2.4.4/os/hal/platforms/STM32F4xx/stm32f4xx.h"
 874              		.file 13 "/opt/ChibiOS/ChibiOS_2.4.4/os/hal/include/serial.h"
 875              		.file 14 "/opt/ChibiOS/ChibiOS_2.4.4/os/hal/platforms/STM32/serial_lld.h"
 876              		.file 15 "/opt/ChibiOS/ChibiOS_2.4.4/os/ports/common/ARMCMx/CMSIS/include/core_cm4.h"
 877              		.section	.debug_info,"",%progbits
 878              	.Ldebug_info0:
 879 0000 F2100000 		.4byte	0x10f2
 880 0004 0200     		.2byte	0x2
 881 0006 00000000 		.4byte	.Ldebug_abbrev0
 882 000a 04       		.byte	0x4
 883 000b 01       		.uleb128 0x1
 884 000c 40090000 		.4byte	.LASF234
 885 0010 01       		.byte	0x1
 886 0011 A6060000 		.4byte	.LASF235
ARM GAS  /tmp/ccxqq0Hi.s 			page 17


 887 0015 00000000 		.4byte	0
 888 0019 00000000 		.4byte	0
 889 001d 48000000 		.4byte	.Ldebug_ranges0+0x48
 890 0021 00000000 		.4byte	.Ldebug_line0
 891 0025 02       		.uleb128 0x2
 892 0026 04       		.byte	0x4
 893 0027 05       		.byte	0x5
 894 0028 696E7400 		.ascii	"int\000"
 895 002c 03       		.uleb128 0x3
 896 002d 00000000 		.4byte	.LASF2
 897 0031 02       		.byte	0x2
 898 0032 D4       		.byte	0xd4
 899 0033 37000000 		.4byte	0x37
 900 0037 04       		.uleb128 0x4
 901 0038 04       		.byte	0x4
 902 0039 07       		.byte	0x7
 903 003a F7050000 		.4byte	.LASF0
 904 003e 04       		.uleb128 0x4
 905 003f 01       		.byte	0x1
 906 0040 06       		.byte	0x6
 907 0041 1D020000 		.4byte	.LASF1
 908 0045 03       		.uleb128 0x3
 909 0046 30020000 		.4byte	.LASF3
 910 004a 03       		.byte	0x3
 911 004b 2A       		.byte	0x2a
 912 004c 50000000 		.4byte	0x50
 913 0050 04       		.uleb128 0x4
 914 0051 01       		.byte	0x1
 915 0052 08       		.byte	0x8
 916 0053 72020000 		.4byte	.LASF4
 917 0057 04       		.uleb128 0x4
 918 0058 02       		.byte	0x2
 919 0059 05       		.byte	0x5
 920 005a B3080000 		.4byte	.LASF5
 921 005e 03       		.uleb128 0x3
 922 005f 9B070000 		.4byte	.LASF6
 923 0063 03       		.byte	0x3
 924 0064 36       		.byte	0x36
 925 0065 69000000 		.4byte	0x69
 926 0069 04       		.uleb128 0x4
 927 006a 02       		.byte	0x2
 928 006b 07       		.byte	0x7
 929 006c BD090000 		.4byte	.LASF7
 930 0070 03       		.uleb128 0x3
 931 0071 48000000 		.4byte	.LASF8
 932 0075 03       		.byte	0x3
 933 0076 4F       		.byte	0x4f
 934 0077 7B000000 		.4byte	0x7b
 935 007b 04       		.uleb128 0x4
 936 007c 04       		.byte	0x4
 937 007d 05       		.byte	0x5
 938 007e 71010000 		.4byte	.LASF9
 939 0082 03       		.uleb128 0x3
 940 0083 5A090000 		.4byte	.LASF10
 941 0087 03       		.byte	0x3
 942 0088 50       		.byte	0x50
 943 0089 8D000000 		.4byte	0x8d
ARM GAS  /tmp/ccxqq0Hi.s 			page 18


 944 008d 04       		.uleb128 0x4
 945 008e 04       		.byte	0x4
 946 008f 07       		.byte	0x7
 947 0090 55040000 		.4byte	.LASF11
 948 0094 04       		.uleb128 0x4
 949 0095 08       		.byte	0x8
 950 0096 05       		.byte	0x5
 951 0097 3A050000 		.4byte	.LASF12
 952 009b 04       		.uleb128 0x4
 953 009c 08       		.byte	0x8
 954 009d 07       		.byte	0x7
 955 009e 7C070000 		.4byte	.LASF13
 956 00a2 03       		.uleb128 0x3
 957 00a3 87090000 		.4byte	.LASF14
 958 00a7 03       		.byte	0x3
 959 00a8 A6       		.byte	0xa6
 960 00a9 37000000 		.4byte	0x37
 961 00ad 03       		.uleb128 0x3
 962 00ae DF080000 		.4byte	.LASF15
 963 00b2 04       		.byte	0x4
 964 00b3 2E       		.byte	0x2e
 965 00b4 70000000 		.4byte	0x70
 966 00b8 03       		.uleb128 0x3
 967 00b9 17080000 		.4byte	.LASF16
 968 00bd 04       		.byte	0x4
 969 00be 2F       		.byte	0x2f
 970 00bf 45000000 		.4byte	0x45
 971 00c3 03       		.uleb128 0x3
 972 00c4 B1010000 		.4byte	.LASF17
 973 00c8 04       		.byte	0x4
 974 00c9 30       		.byte	0x30
 975 00ca 45000000 		.4byte	0x45
 976 00ce 03       		.uleb128 0x3
 977 00cf 16090000 		.4byte	.LASF18
 978 00d3 04       		.byte	0x4
 979 00d4 31       		.byte	0x31
 980 00d5 45000000 		.4byte	0x45
 981 00d9 03       		.uleb128 0x3
 982 00da 35000000 		.4byte	.LASF19
 983 00de 04       		.byte	0x4
 984 00df 32       		.byte	0x32
 985 00e0 82000000 		.4byte	0x82
 986 00e4 03       		.uleb128 0x3
 987 00e5 A4070000 		.4byte	.LASF20
 988 00e9 04       		.byte	0x4
 989 00ea 33       		.byte	0x33
 990 00eb 70000000 		.4byte	0x70
 991 00ef 03       		.uleb128 0x3
 992 00f0 38020000 		.4byte	.LASF21
 993 00f4 04       		.byte	0x4
 994 00f5 35       		.byte	0x35
 995 00f6 82000000 		.4byte	0x82
 996 00fa 03       		.uleb128 0x3
 997 00fb 1A000000 		.4byte	.LASF22
 998 00ff 04       		.byte	0x4
 999 0100 36       		.byte	0x36
 1000 0101 82000000 		.4byte	0x82
ARM GAS  /tmp/ccxqq0Hi.s 			page 19


 1001 0105 03       		.uleb128 0x3
 1002 0106 E6080000 		.4byte	.LASF23
 1003 010a 05       		.byte	0x5
 1004 010b 2A       		.byte	0x2a
 1005 010c 10010000 		.4byte	0x110
 1006 0110 05       		.uleb128 0x5
 1007 0111 E6080000 		.4byte	.LASF23
 1008 0115 48       		.byte	0x48
 1009 0116 06       		.byte	0x6
 1010 0117 5E       		.byte	0x5e
 1011 0118 27020000 		.4byte	0x227
 1012 011c 06       		.uleb128 0x6
 1013 011d 7A010000 		.4byte	.LASF24
 1014 0121 06       		.byte	0x6
 1015 0122 5F       		.byte	0x5f
 1016 0123 4C020000 		.4byte	0x24c
 1017 0127 02       		.byte	0x2
 1018 0128 23       		.byte	0x23
 1019 0129 00       		.uleb128 0
 1020 012a 06       		.uleb128 0x6
 1021 012b 89010000 		.4byte	.LASF25
 1022 012f 06       		.byte	0x6
 1023 0130 61       		.byte	0x61
 1024 0131 4C020000 		.4byte	0x24c
 1025 0135 02       		.byte	0x2
 1026 0136 23       		.byte	0x23
 1027 0137 04       		.uleb128 0x4
 1028 0138 06       		.uleb128 0x6
 1029 0139 08030000 		.4byte	.LASF26
 1030 013d 06       		.byte	0x6
 1031 013e 63       		.byte	0x63
 1032 013f D9000000 		.4byte	0xd9
 1033 0143 02       		.byte	0x2
 1034 0144 23       		.byte	0x23
 1035 0145 08       		.uleb128 0x8
 1036 0146 06       		.uleb128 0x6
 1037 0147 2F000000 		.4byte	.LASF27
 1038 014b 06       		.byte	0x6
 1039 014c 64       		.byte	0x64
 1040 014d 19030000 		.4byte	0x319
 1041 0151 02       		.byte	0x2
 1042 0152 23       		.byte	0x23
 1043 0153 0C       		.uleb128 0xc
 1044 0154 06       		.uleb128 0x6
 1045 0155 69010000 		.4byte	.LASF28
 1046 0159 06       		.byte	0x6
 1047 015a 66       		.byte	0x66
 1048 015b 4C020000 		.4byte	0x24c
 1049 015f 02       		.byte	0x2
 1050 0160 23       		.byte	0x23
 1051 0161 10       		.uleb128 0x10
 1052 0162 06       		.uleb128 0x6
 1053 0163 93070000 		.4byte	.LASF29
 1054 0167 06       		.byte	0x6
 1055 0168 67       		.byte	0x67
 1056 0169 4C020000 		.4byte	0x24c
 1057 016d 02       		.byte	0x2
ARM GAS  /tmp/ccxqq0Hi.s 			page 20


 1058 016e 23       		.byte	0x23
 1059 016f 14       		.uleb128 0x14
 1060 0170 06       		.uleb128 0x6
 1061 0171 530A0000 		.4byte	.LASF30
 1062 0175 06       		.byte	0x6
 1063 0176 6E       		.byte	0x6e
 1064 0177 31040000 		.4byte	0x431
 1065 017b 02       		.byte	0x2
 1066 017c 23       		.byte	0x23
 1067 017d 18       		.uleb128 0x18
 1068 017e 06       		.uleb128 0x6
 1069 017f 8D0A0000 		.4byte	.LASF31
 1070 0183 06       		.byte	0x6
 1071 0184 79       		.byte	0x79
 1072 0185 C3000000 		.4byte	0xc3
 1073 0189 02       		.byte	0x2
 1074 018a 23       		.byte	0x23
 1075 018b 1C       		.uleb128 0x1c
 1076 018c 06       		.uleb128 0x6
 1077 018d EA050000 		.4byte	.LASF32
 1078 0191 06       		.byte	0x6
 1079 0192 7D       		.byte	0x7d
 1080 0193 B8000000 		.4byte	0xb8
 1081 0197 02       		.byte	0x2
 1082 0198 23       		.byte	0x23
 1083 0199 1D       		.uleb128 0x1d
 1084 019a 06       		.uleb128 0x6
 1085 019b 27060000 		.4byte	.LASF33
 1086 019f 06       		.byte	0x6
 1087 01a0 82       		.byte	0x82
 1088 01a1 CE000000 		.4byte	0xce
 1089 01a5 02       		.byte	0x2
 1090 01a6 23       		.byte	0x23
 1091 01a7 1E       		.uleb128 0x1e
 1092 01a8 06       		.uleb128 0x6
 1093 01a9 88060000 		.4byte	.LASF34
 1094 01ad 06       		.byte	0x6
 1095 01ae 89       		.byte	0x89
 1096 01af 41030000 		.4byte	0x341
 1097 01b3 02       		.byte	0x2
 1098 01b4 23       		.byte	0x23
 1099 01b5 20       		.uleb128 0x20
 1100 01b6 07       		.uleb128 0x7
 1101 01b7 705F7500 		.ascii	"p_u\000"
 1102 01bb 06       		.byte	0x6
 1103 01bc AE       		.byte	0xae
 1104 01bd FC030000 		.4byte	0x3fc
 1105 01c1 02       		.byte	0x2
 1106 01c2 23       		.byte	0x23
 1107 01c3 24       		.uleb128 0x24
 1108 01c4 06       		.uleb128 0x6
 1109 01c5 B7050000 		.4byte	.LASF35
 1110 01c9 06       		.byte	0x6
 1111 01ca B3       		.byte	0xb3
 1112 01cb 74020000 		.4byte	0x274
 1113 01cf 02       		.byte	0x2
 1114 01d0 23       		.byte	0x23
ARM GAS  /tmp/ccxqq0Hi.s 			page 21


 1115 01d1 28       		.uleb128 0x28
 1116 01d2 06       		.uleb128 0x6
 1117 01d3 3D000000 		.4byte	.LASF36
 1118 01d7 06       		.byte	0x6
 1119 01d8 B9       		.byte	0xb9
 1120 01d9 52020000 		.4byte	0x252
 1121 01dd 02       		.byte	0x2
 1122 01de 23       		.byte	0x23
 1123 01df 2C       		.uleb128 0x2c
 1124 01e0 06       		.uleb128 0x6
 1125 01e1 7B0A0000 		.4byte	.LASF37
 1126 01e5 06       		.byte	0x6
 1127 01e6 BD       		.byte	0xbd
 1128 01e7 E4000000 		.4byte	0xe4
 1129 01eb 02       		.byte	0x2
 1130 01ec 23       		.byte	0x23
 1131 01ed 34       		.uleb128 0x34
 1132 01ee 06       		.uleb128 0x6
 1133 01ef 96030000 		.4byte	.LASF38
 1134 01f3 06       		.byte	0x6
 1135 01f4 C3       		.byte	0xc3
 1136 01f5 EF000000 		.4byte	0xef
 1137 01f9 02       		.byte	0x2
 1138 01fa 23       		.byte	0x23
 1139 01fb 38       		.uleb128 0x38
 1140 01fc 06       		.uleb128 0x6
 1141 01fd BA010000 		.4byte	.LASF39
 1142 0201 06       		.byte	0x6
 1143 0202 CA       		.byte	0xca
 1144 0203 43040000 		.4byte	0x443
 1145 0207 02       		.byte	0x2
 1146 0208 23       		.byte	0x23
 1147 0209 3C       		.uleb128 0x3c
 1148 020a 06       		.uleb128 0x6
 1149 020b EE060000 		.4byte	.LASF40
 1150 020f 06       		.byte	0x6
 1151 0210 CE       		.byte	0xce
 1152 0211 D9000000 		.4byte	0xd9
 1153 0215 02       		.byte	0x2
 1154 0216 23       		.byte	0x23
 1155 0217 40       		.uleb128 0x40
 1156 0218 06       		.uleb128 0x6
 1157 0219 12060000 		.4byte	.LASF41
 1158 021d 06       		.byte	0x6
 1159 021e D4       		.byte	0xd4
 1160 021f 8A020000 		.4byte	0x28a
 1161 0223 02       		.byte	0x2
 1162 0224 23       		.byte	0x23
 1163 0225 44       		.uleb128 0x44
 1164 0226 00       		.byte	0
 1165 0227 08       		.uleb128 0x8
 1166 0228 08       		.byte	0x8
 1167 0229 05       		.byte	0x5
 1168 022a 61       		.byte	0x61
 1169 022b 4C020000 		.4byte	0x24c
 1170 022f 06       		.uleb128 0x6
 1171 0230 7A010000 		.4byte	.LASF24
ARM GAS  /tmp/ccxqq0Hi.s 			page 22


 1172 0234 05       		.byte	0x5
 1173 0235 62       		.byte	0x62
 1174 0236 4C020000 		.4byte	0x24c
 1175 023a 02       		.byte	0x2
 1176 023b 23       		.byte	0x23
 1177 023c 00       		.uleb128 0
 1178 023d 06       		.uleb128 0x6
 1179 023e 89010000 		.4byte	.LASF25
 1180 0242 05       		.byte	0x5
 1181 0243 64       		.byte	0x64
 1182 0244 4C020000 		.4byte	0x24c
 1183 0248 02       		.byte	0x2
 1184 0249 23       		.byte	0x23
 1185 024a 04       		.uleb128 0x4
 1186 024b 00       		.byte	0
 1187 024c 09       		.uleb128 0x9
 1188 024d 04       		.byte	0x4
 1189 024e 05010000 		.4byte	0x105
 1190 0252 03       		.uleb128 0x3
 1191 0253 7A090000 		.4byte	.LASF42
 1192 0257 05       		.byte	0x5
 1193 0258 66       		.byte	0x66
 1194 0259 27020000 		.4byte	0x227
 1195 025d 08       		.uleb128 0x8
 1196 025e 04       		.byte	0x4
 1197 025f 05       		.byte	0x5
 1198 0260 6B       		.byte	0x6b
 1199 0261 74020000 		.4byte	0x274
 1200 0265 06       		.uleb128 0x6
 1201 0266 7A010000 		.4byte	.LASF24
 1202 026a 05       		.byte	0x5
 1203 026b 6D       		.byte	0x6d
 1204 026c 4C020000 		.4byte	0x24c
 1205 0270 02       		.byte	0x2
 1206 0271 23       		.byte	0x23
 1207 0272 00       		.uleb128 0
 1208 0273 00       		.byte	0
 1209 0274 03       		.uleb128 0x3
 1210 0275 37060000 		.4byte	.LASF43
 1211 0279 05       		.byte	0x5
 1212 027a 70       		.byte	0x70
 1213 027b 5D020000 		.4byte	0x25d
 1214 027f 03       		.uleb128 0x3
 1215 0280 E3010000 		.4byte	.LASF44
 1216 0284 07       		.byte	0x7
 1217 0285 D7       		.byte	0xd7
 1218 0286 8A020000 		.4byte	0x28a
 1219 028a 0A       		.uleb128 0xa
 1220 028b 04       		.byte	0x4
 1221 028c 05       		.uleb128 0x5
 1222 028d 8F030000 		.4byte	.LASF45
 1223 0291 24       		.byte	0x24
 1224 0292 07       		.byte	0x7
 1225 0293 FE       		.byte	0xfe
 1226 0294 19030000 		.4byte	0x319
 1227 0298 0B       		.uleb128 0xb
 1228 0299 723400   		.ascii	"r4\000"
ARM GAS  /tmp/ccxqq0Hi.s 			page 23


 1229 029c 07       		.byte	0x7
 1230 029d 1101     		.2byte	0x111
 1231 029f 7F020000 		.4byte	0x27f
 1232 02a3 02       		.byte	0x2
 1233 02a4 23       		.byte	0x23
 1234 02a5 00       		.uleb128 0
 1235 02a6 0B       		.uleb128 0xb
 1236 02a7 723500   		.ascii	"r5\000"
 1237 02aa 07       		.byte	0x7
 1238 02ab 1201     		.2byte	0x112
 1239 02ad 7F020000 		.4byte	0x27f
 1240 02b1 02       		.byte	0x2
 1241 02b2 23       		.byte	0x23
 1242 02b3 04       		.uleb128 0x4
 1243 02b4 0B       		.uleb128 0xb
 1244 02b5 723600   		.ascii	"r6\000"
 1245 02b8 07       		.byte	0x7
 1246 02b9 1301     		.2byte	0x113
 1247 02bb 7F020000 		.4byte	0x27f
 1248 02bf 02       		.byte	0x2
 1249 02c0 23       		.byte	0x23
 1250 02c1 08       		.uleb128 0x8
 1251 02c2 0B       		.uleb128 0xb
 1252 02c3 723700   		.ascii	"r7\000"
 1253 02c6 07       		.byte	0x7
 1254 02c7 1401     		.2byte	0x114
 1255 02c9 7F020000 		.4byte	0x27f
 1256 02cd 02       		.byte	0x2
 1257 02ce 23       		.byte	0x23
 1258 02cf 0C       		.uleb128 0xc
 1259 02d0 0B       		.uleb128 0xb
 1260 02d1 723800   		.ascii	"r8\000"
 1261 02d4 07       		.byte	0x7
 1262 02d5 1501     		.2byte	0x115
 1263 02d7 7F020000 		.4byte	0x27f
 1264 02db 02       		.byte	0x2
 1265 02dc 23       		.byte	0x23
 1266 02dd 10       		.uleb128 0x10
 1267 02de 0B       		.uleb128 0xb
 1268 02df 723900   		.ascii	"r9\000"
 1269 02e2 07       		.byte	0x7
 1270 02e3 1601     		.2byte	0x116
 1271 02e5 7F020000 		.4byte	0x27f
 1272 02e9 02       		.byte	0x2
 1273 02ea 23       		.byte	0x23
 1274 02eb 14       		.uleb128 0x14
 1275 02ec 0B       		.uleb128 0xb
 1276 02ed 72313000 		.ascii	"r10\000"
 1277 02f1 07       		.byte	0x7
 1278 02f2 1701     		.2byte	0x117
 1279 02f4 7F020000 		.4byte	0x27f
 1280 02f8 02       		.byte	0x2
 1281 02f9 23       		.byte	0x23
 1282 02fa 18       		.uleb128 0x18
 1283 02fb 0B       		.uleb128 0xb
 1284 02fc 72313100 		.ascii	"r11\000"
 1285 0300 07       		.byte	0x7
ARM GAS  /tmp/ccxqq0Hi.s 			page 24


 1286 0301 1801     		.2byte	0x118
 1287 0303 7F020000 		.4byte	0x27f
 1288 0307 02       		.byte	0x2
 1289 0308 23       		.byte	0x23
 1290 0309 1C       		.uleb128 0x1c
 1291 030a 0B       		.uleb128 0xb
 1292 030b 6C7200   		.ascii	"lr\000"
 1293 030e 07       		.byte	0x7
 1294 030f 1901     		.2byte	0x119
 1295 0311 7F020000 		.4byte	0x27f
 1296 0315 02       		.byte	0x2
 1297 0316 23       		.byte	0x23
 1298 0317 20       		.uleb128 0x20
 1299 0318 00       		.byte	0
 1300 0319 0C       		.uleb128 0xc
 1301 031a 44020000 		.4byte	.LASF46
 1302 031e 04       		.byte	0x4
 1303 031f 07       		.byte	0x7
 1304 0320 2301     		.2byte	0x123
 1305 0322 36030000 		.4byte	0x336
 1306 0326 0B       		.uleb128 0xb
 1307 0327 72313300 		.ascii	"r13\000"
 1308 032b 07       		.byte	0x7
 1309 032c 2401     		.2byte	0x124
 1310 032e 36030000 		.4byte	0x336
 1311 0332 02       		.byte	0x2
 1312 0333 23       		.byte	0x23
 1313 0334 00       		.uleb128 0
 1314 0335 00       		.byte	0
 1315 0336 09       		.uleb128 0x9
 1316 0337 04       		.byte	0x4
 1317 0338 8C020000 		.4byte	0x28c
 1318 033c 0D       		.uleb128 0xd
 1319 033d 82000000 		.4byte	0x82
 1320 0341 0D       		.uleb128 0xd
 1321 0342 FA000000 		.4byte	0xfa
 1322 0346 05       		.uleb128 0x5
 1323 0347 2A050000 		.4byte	.LASF47
 1324 034b 10       		.byte	0x10
 1325 034c 08       		.byte	0x8
 1326 034d 2C       		.byte	0x2c
 1327 034e 7D030000 		.4byte	0x37d
 1328 0352 06       		.uleb128 0x6
 1329 0353 62050000 		.4byte	.LASF48
 1330 0357 08       		.byte	0x8
 1331 0358 2D       		.byte	0x2d
 1332 0359 52020000 		.4byte	0x252
 1333 035d 02       		.byte	0x2
 1334 035e 23       		.byte	0x23
 1335 035f 00       		.uleb128 0
 1336 0360 06       		.uleb128 0x6
 1337 0361 F4000000 		.4byte	.LASF49
 1338 0365 08       		.byte	0x8
 1339 0366 2F       		.byte	0x2f
 1340 0367 4C020000 		.4byte	0x24c
 1341 036b 02       		.byte	0x2
 1342 036c 23       		.byte	0x23
ARM GAS  /tmp/ccxqq0Hi.s 			page 25


 1343 036d 08       		.uleb128 0x8
 1344 036e 06       		.uleb128 0x6
 1345 036f 5A0A0000 		.4byte	.LASF50
 1346 0373 08       		.byte	0x8
 1347 0374 31       		.byte	0x31
 1348 0375 7D030000 		.4byte	0x37d
 1349 0379 02       		.byte	0x2
 1350 037a 23       		.byte	0x23
 1351 037b 0C       		.uleb128 0xc
 1352 037c 00       		.byte	0
 1353 037d 09       		.uleb128 0x9
 1354 037e 04       		.byte	0x4
 1355 037f 46030000 		.4byte	0x346
 1356 0383 03       		.uleb128 0x3
 1357 0384 2A050000 		.4byte	.LASF47
 1358 0388 08       		.byte	0x8
 1359 0389 33       		.byte	0x33
 1360 038a 46030000 		.4byte	0x346
 1361 038e 03       		.uleb128 0x3
 1362 038f 4C090000 		.4byte	.LASF51
 1363 0393 09       		.byte	0x9
 1364 0394 29       		.byte	0x29
 1365 0395 99030000 		.4byte	0x399
 1366 0399 05       		.uleb128 0x5
 1367 039a 4C090000 		.4byte	.LASF51
 1368 039e 0C       		.byte	0xc
 1369 039f 09       		.byte	0x9
 1370 03a0 2E       		.byte	0x2e
 1371 03a1 D0030000 		.4byte	0x3d0
 1372 03a5 06       		.uleb128 0x6
 1373 03a6 9B040000 		.4byte	.LASF52
 1374 03aa 09       		.byte	0x9
 1375 03ab 2F       		.byte	0x2f
 1376 03ac D0030000 		.4byte	0x3d0
 1377 03b0 02       		.byte	0x2
 1378 03b1 23       		.byte	0x23
 1379 03b2 00       		.uleb128 0
 1380 03b3 06       		.uleb128 0x6
 1381 03b4 810A0000 		.4byte	.LASF53
 1382 03b8 09       		.byte	0x9
 1383 03b9 32       		.byte	0x32
 1384 03ba 4C020000 		.4byte	0x24c
 1385 03be 02       		.byte	0x2
 1386 03bf 23       		.byte	0x23
 1387 03c0 04       		.uleb128 0x4
 1388 03c1 06       		.uleb128 0x6
 1389 03c2 4B0A0000 		.4byte	.LASF54
 1390 03c6 09       		.byte	0x9
 1391 03c7 34       		.byte	0x34
 1392 03c8 EF000000 		.4byte	0xef
 1393 03cc 02       		.byte	0x2
 1394 03cd 23       		.byte	0x23
 1395 03ce 08       		.uleb128 0x8
 1396 03cf 00       		.byte	0
 1397 03d0 09       		.uleb128 0x9
 1398 03d1 04       		.byte	0x4
 1399 03d2 8E030000 		.4byte	0x38e
ARM GAS  /tmp/ccxqq0Hi.s 			page 26


 1400 03d6 05       		.uleb128 0x5
 1401 03d7 3F040000 		.4byte	.LASF55
 1402 03db 04       		.byte	0x4
 1403 03dc 09       		.byte	0x9
 1404 03dd 3C       		.byte	0x3c
 1405 03de F1030000 		.4byte	0x3f1
 1406 03e2 06       		.uleb128 0x6
 1407 03e3 03040000 		.4byte	.LASF56
 1408 03e7 09       		.byte	0x9
 1409 03e8 3D       		.byte	0x3d
 1410 03e9 D0030000 		.4byte	0x3d0
 1411 03ed 02       		.byte	0x2
 1412 03ee 23       		.byte	0x23
 1413 03ef 00       		.uleb128 0
 1414 03f0 00       		.byte	0
 1415 03f1 03       		.uleb128 0x3
 1416 03f2 3F040000 		.4byte	.LASF55
 1417 03f6 09       		.byte	0x9
 1418 03f7 40       		.byte	0x40
 1419 03f8 D6030000 		.4byte	0x3d6
 1420 03fc 0E       		.uleb128 0xe
 1421 03fd 04       		.byte	0x4
 1422 03fe 06       		.byte	0x6
 1423 03ff 90       		.byte	0x90
 1424 0400 31040000 		.4byte	0x431
 1425 0404 0F       		.uleb128 0xf
 1426 0405 AB090000 		.4byte	.LASF57
 1427 0409 06       		.byte	0x6
 1428 040a 97       		.byte	0x97
 1429 040b E4000000 		.4byte	0xe4
 1430 040f 0F       		.uleb128 0xf
 1431 0410 FC000000 		.4byte	.LASF58
 1432 0414 06       		.byte	0x6
 1433 0415 9E       		.byte	0x9e
 1434 0416 E4000000 		.4byte	0xe4
 1435 041a 0F       		.uleb128 0xf
 1436 041b 24030000 		.4byte	.LASF59
 1437 041f 06       		.byte	0x6
 1438 0420 A5       		.byte	0xa5
 1439 0421 8A020000 		.4byte	0x28a
 1440 0425 0F       		.uleb128 0xf
 1441 0426 29020000 		.4byte	.LASF60
 1442 042a 06       		.byte	0x6
 1443 042b AC       		.byte	0xac
 1444 042c EF000000 		.4byte	0xef
 1445 0430 00       		.byte	0
 1446 0431 09       		.uleb128 0x9
 1447 0432 04       		.byte	0x4
 1448 0433 37040000 		.4byte	0x437
 1449 0437 10       		.uleb128 0x10
 1450 0438 3C040000 		.4byte	0x43c
 1451 043c 04       		.uleb128 0x4
 1452 043d 01       		.byte	0x1
 1453 043e 08       		.byte	0x8
 1454 043f 03030000 		.4byte	.LASF61
 1455 0443 09       		.uleb128 0x9
 1456 0444 04       		.byte	0x4
ARM GAS  /tmp/ccxqq0Hi.s 			page 27


 1457 0445 83030000 		.4byte	0x383
 1458 0449 03       		.uleb128 0x3
 1459 044a 17030000 		.4byte	.LASF62
 1460 044e 0A       		.byte	0xa
 1461 044f 37       		.byte	0x37
 1462 0450 54040000 		.4byte	0x454
 1463 0454 05       		.uleb128 0x5
 1464 0455 17030000 		.4byte	.LASF62
 1465 0459 20       		.byte	0x20
 1466 045a 0A       		.byte	0xa
 1467 045b 45       		.byte	0x45
 1468 045c C3040000 		.4byte	0x4c3
 1469 0460 06       		.uleb128 0x6
 1470 0461 02080000 		.4byte	.LASF63
 1471 0465 0A       		.byte	0xa
 1472 0466 46       		.byte	0x46
 1473 0467 52020000 		.4byte	0x252
 1474 046b 02       		.byte	0x2
 1475 046c 23       		.byte	0x23
 1476 046d 00       		.uleb128 0
 1477 046e 06       		.uleb128 0x6
 1478 046f 0B040000 		.4byte	.LASF64
 1479 0473 0A       		.byte	0xa
 1480 0474 47       		.byte	0x47
 1481 0475 2C000000 		.4byte	0x2c
 1482 0479 02       		.byte	0x2
 1483 047a 23       		.byte	0x23
 1484 047b 08       		.uleb128 0x8
 1485 047c 06       		.uleb128 0x6
 1486 047d 57010000 		.4byte	.LASF65
 1487 0481 0A       		.byte	0xa
 1488 0482 48       		.byte	0x48
 1489 0483 E6040000 		.4byte	0x4e6
 1490 0487 02       		.byte	0x2
 1491 0488 23       		.byte	0x23
 1492 0489 0C       		.uleb128 0xc
 1493 048a 06       		.uleb128 0x6
 1494 048b 16010000 		.4byte	.LASF66
 1495 048f 0A       		.byte	0xa
 1496 0490 49       		.byte	0x49
 1497 0491 E6040000 		.4byte	0x4e6
 1498 0495 02       		.byte	0x2
 1499 0496 23       		.byte	0x23
 1500 0497 10       		.uleb128 0x10
 1501 0498 06       		.uleb128 0x6
 1502 0499 A3040000 		.4byte	.LASF67
 1503 049d 0A       		.byte	0xa
 1504 049e 4B       		.byte	0x4b
 1505 049f E6040000 		.4byte	0x4e6
 1506 04a3 02       		.byte	0x2
 1507 04a4 23       		.byte	0x23
 1508 04a5 14       		.uleb128 0x14
 1509 04a6 06       		.uleb128 0x6
 1510 04a7 81010000 		.4byte	.LASF68
 1511 04ab 0A       		.byte	0xa
 1512 04ac 4C       		.byte	0x4c
 1513 04ad E6040000 		.4byte	0x4e6
ARM GAS  /tmp/ccxqq0Hi.s 			page 28


 1514 04b1 02       		.byte	0x2
 1515 04b2 23       		.byte	0x23
 1516 04b3 18       		.uleb128 0x18
 1517 04b4 06       		.uleb128 0x6
 1518 04b5 60010000 		.4byte	.LASF69
 1519 04b9 0A       		.byte	0xa
 1520 04ba 4D       		.byte	0x4d
 1521 04bb C3040000 		.4byte	0x4c3
 1522 04bf 02       		.byte	0x2
 1523 04c0 23       		.byte	0x23
 1524 04c1 1C       		.uleb128 0x1c
 1525 04c2 00       		.byte	0
 1526 04c3 03       		.uleb128 0x3
 1527 04c4 AD050000 		.4byte	.LASF70
 1528 04c8 0A       		.byte	0xa
 1529 04c9 3A       		.byte	0x3a
 1530 04ca CE040000 		.4byte	0x4ce
 1531 04ce 09       		.uleb128 0x9
 1532 04cf 04       		.byte	0x4
 1533 04d0 D4040000 		.4byte	0x4d4
 1534 04d4 11       		.uleb128 0x11
 1535 04d5 01       		.byte	0x1
 1536 04d6 E0040000 		.4byte	0x4e0
 1537 04da 12       		.uleb128 0x12
 1538 04db E0040000 		.4byte	0x4e0
 1539 04df 00       		.byte	0
 1540 04e0 09       		.uleb128 0x9
 1541 04e1 04       		.byte	0x4
 1542 04e2 49040000 		.4byte	0x449
 1543 04e6 09       		.uleb128 0x9
 1544 04e7 04       		.byte	0x4
 1545 04e8 45000000 		.4byte	0x45
 1546 04ec 03       		.uleb128 0x3
 1547 04ed F3090000 		.4byte	.LASF71
 1548 04f1 0A       		.byte	0xa
 1549 04f2 76       		.byte	0x76
 1550 04f3 49040000 		.4byte	0x449
 1551 04f7 03       		.uleb128 0x3
 1552 04f8 4D030000 		.4byte	.LASF72
 1553 04fc 0A       		.byte	0xa
 1554 04fd E6       		.byte	0xe6
 1555 04fe 49040000 		.4byte	0x449
 1556 0502 13       		.uleb128 0x13
 1557 0503 01       		.byte	0x1
 1558 0504 2C000000 		.4byte	0x2c
 1559 0508 1C050000 		.4byte	0x51c
 1560 050c 12       		.uleb128 0x12
 1561 050d 8A020000 		.4byte	0x28a
 1562 0511 12       		.uleb128 0x12
 1563 0512 1C050000 		.4byte	0x51c
 1564 0516 12       		.uleb128 0x12
 1565 0517 2C000000 		.4byte	0x2c
 1566 051b 00       		.byte	0
 1567 051c 09       		.uleb128 0x9
 1568 051d 04       		.byte	0x4
 1569 051e 22050000 		.4byte	0x522
 1570 0522 10       		.uleb128 0x10
ARM GAS  /tmp/ccxqq0Hi.s 			page 29


 1571 0523 45000000 		.4byte	0x45
 1572 0527 09       		.uleb128 0x9
 1573 0528 04       		.byte	0x4
 1574 0529 02050000 		.4byte	0x502
 1575 052d 13       		.uleb128 0x13
 1576 052e 01       		.byte	0x1
 1577 052f 2C000000 		.4byte	0x2c
 1578 0533 47050000 		.4byte	0x547
 1579 0537 12       		.uleb128 0x12
 1580 0538 8A020000 		.4byte	0x28a
 1581 053c 12       		.uleb128 0x12
 1582 053d E6040000 		.4byte	0x4e6
 1583 0541 12       		.uleb128 0x12
 1584 0542 2C000000 		.4byte	0x2c
 1585 0546 00       		.byte	0
 1586 0547 09       		.uleb128 0x9
 1587 0548 04       		.byte	0x4
 1588 0549 2D050000 		.4byte	0x52d
 1589 054d 13       		.uleb128 0x13
 1590 054e 01       		.byte	0x1
 1591 054f AD000000 		.4byte	0xad
 1592 0553 5D050000 		.4byte	0x55d
 1593 0557 12       		.uleb128 0x12
 1594 0558 8A020000 		.4byte	0x28a
 1595 055c 00       		.byte	0
 1596 055d 09       		.uleb128 0x9
 1597 055e 04       		.byte	0x4
 1598 055f 4D050000 		.4byte	0x54d
 1599 0563 13       		.uleb128 0x13
 1600 0564 01       		.byte	0x1
 1601 0565 E4000000 		.4byte	0xe4
 1602 0569 7D050000 		.4byte	0x57d
 1603 056d 12       		.uleb128 0x12
 1604 056e 8A020000 		.4byte	0x28a
 1605 0572 12       		.uleb128 0x12
 1606 0573 45000000 		.4byte	0x45
 1607 0577 12       		.uleb128 0x12
 1608 0578 FA000000 		.4byte	0xfa
 1609 057c 00       		.byte	0
 1610 057d 09       		.uleb128 0x9
 1611 057e 04       		.byte	0x4
 1612 057f 63050000 		.4byte	0x563
 1613 0583 13       		.uleb128 0x13
 1614 0584 01       		.byte	0x1
 1615 0585 E4000000 		.4byte	0xe4
 1616 0589 98050000 		.4byte	0x598
 1617 058d 12       		.uleb128 0x12
 1618 058e 8A020000 		.4byte	0x28a
 1619 0592 12       		.uleb128 0x12
 1620 0593 FA000000 		.4byte	0xfa
 1621 0597 00       		.byte	0
 1622 0598 09       		.uleb128 0x9
 1623 0599 04       		.byte	0x4
 1624 059a 83050000 		.4byte	0x583
 1625 059e 13       		.uleb128 0x13
 1626 059f 01       		.byte	0x1
 1627 05a0 2C000000 		.4byte	0x2c
ARM GAS  /tmp/ccxqq0Hi.s 			page 30


 1628 05a4 BD050000 		.4byte	0x5bd
 1629 05a8 12       		.uleb128 0x12
 1630 05a9 8A020000 		.4byte	0x28a
 1631 05ad 12       		.uleb128 0x12
 1632 05ae 1C050000 		.4byte	0x51c
 1633 05b2 12       		.uleb128 0x12
 1634 05b3 2C000000 		.4byte	0x2c
 1635 05b7 12       		.uleb128 0x12
 1636 05b8 FA000000 		.4byte	0xfa
 1637 05bc 00       		.byte	0
 1638 05bd 09       		.uleb128 0x9
 1639 05be 04       		.byte	0x4
 1640 05bf 9E050000 		.4byte	0x59e
 1641 05c3 13       		.uleb128 0x13
 1642 05c4 01       		.byte	0x1
 1643 05c5 2C000000 		.4byte	0x2c
 1644 05c9 E2050000 		.4byte	0x5e2
 1645 05cd 12       		.uleb128 0x12
 1646 05ce 8A020000 		.4byte	0x28a
 1647 05d2 12       		.uleb128 0x12
 1648 05d3 E6040000 		.4byte	0x4e6
 1649 05d7 12       		.uleb128 0x12
 1650 05d8 2C000000 		.4byte	0x2c
 1651 05dc 12       		.uleb128 0x12
 1652 05dd FA000000 		.4byte	0xfa
 1653 05e1 00       		.byte	0
 1654 05e2 09       		.uleb128 0x9
 1655 05e3 04       		.byte	0x4
 1656 05e4 C3050000 		.4byte	0x5c3
 1657 05e8 14       		.uleb128 0x14
 1658 05e9 43060000 		.4byte	.LASF73
 1659 05ed 0B       		.byte	0xb
 1660 05ee 0B01     		.2byte	0x10b
 1661 05f0 A2000000 		.4byte	0xa2
 1662 05f4 13       		.uleb128 0x13
 1663 05f5 01       		.byte	0x1
 1664 05f6 E8050000 		.4byte	0x5e8
 1665 05fa 04060000 		.4byte	0x604
 1666 05fe 12       		.uleb128 0x12
 1667 05ff 8A020000 		.4byte	0x28a
 1668 0603 00       		.byte	0
 1669 0604 09       		.uleb128 0x9
 1670 0605 04       		.byte	0x4
 1671 0606 F4050000 		.4byte	0x5f4
 1672 060a 15       		.uleb128 0x15
 1673 060b 8F060000 		.4byte	.LASF236
 1674 060f 01       		.byte	0x1
 1675 0610 0C       		.byte	0xc
 1676 0611 8C       		.byte	0x8c
 1677 0612 45080000 		.4byte	0x845
 1678 0616 16       		.uleb128 0x16
 1679 0617 21040000 		.4byte	.LASF74
 1680 061b 72       		.sleb128 -14
 1681 061c 16       		.uleb128 0x16
 1682 061d 67040000 		.4byte	.LASF75
 1683 0621 74       		.sleb128 -12
 1684 0622 16       		.uleb128 0x16
ARM GAS  /tmp/ccxqq0Hi.s 			page 31


 1685 0623 D5040000 		.4byte	.LASF76
 1686 0627 75       		.sleb128 -11
 1687 0628 16       		.uleb128 0x16
 1688 0629 F3020000 		.4byte	.LASF77
 1689 062d 76       		.sleb128 -10
 1690 062e 16       		.uleb128 0x16
 1691 062f 7A050000 		.4byte	.LASF78
 1692 0633 7B       		.sleb128 -5
 1693 0634 16       		.uleb128 0x16
 1694 0635 55080000 		.4byte	.LASF79
 1695 0639 7C       		.sleb128 -4
 1696 063a 16       		.uleb128 0x16
 1697 063b 090A0000 		.4byte	.LASF80
 1698 063f 7E       		.sleb128 -2
 1699 0640 16       		.uleb128 0x16
 1700 0641 FE010000 		.4byte	.LASF81
 1701 0645 7F       		.sleb128 -1
 1702 0646 16       		.uleb128 0x16
 1703 0647 4B040000 		.4byte	.LASF82
 1704 064b 00       		.sleb128 0
 1705 064c 16       		.uleb128 0x16
 1706 064d EC070000 		.4byte	.LASF83
 1707 0651 01       		.sleb128 1
 1708 0652 16       		.uleb128 0x16
 1709 0653 7D040000 		.4byte	.LASF84
 1710 0657 02       		.sleb128 2
 1711 0658 16       		.uleb128 0x16
 1712 0659 32090000 		.4byte	.LASF85
 1713 065d 03       		.sleb128 3
 1714 065e 16       		.uleb128 0x16
 1715 065f 94000000 		.4byte	.LASF86
 1716 0663 04       		.sleb128 4
 1717 0664 16       		.uleb128 0x16
 1718 0665 BD080000 		.4byte	.LASF87
 1719 0669 05       		.sleb128 5
 1720 066a 16       		.uleb128 0x16
 1721 066b 0C080000 		.4byte	.LASF88
 1722 066f 06       		.sleb128 6
 1723 0670 16       		.uleb128 0x16
 1724 0671 C1030000 		.4byte	.LASF89
 1725 0675 07       		.sleb128 7
 1726 0676 16       		.uleb128 0x16
 1727 0677 C0070000 		.4byte	.LASF90
 1728 067b 08       		.sleb128 8
 1729 067c 16       		.uleb128 0x16
 1730 067d FE090000 		.4byte	.LASF91
 1731 0681 09       		.sleb128 9
 1732 0682 16       		.uleb128 0x16
 1733 0683 B2090000 		.4byte	.LASF92
 1734 0687 0A       		.sleb128 10
 1735 0688 16       		.uleb128 0x16
 1736 0689 19070000 		.4byte	.LASF93
 1737 068d 0B       		.sleb128 11
 1738 068e 16       		.uleb128 0x16
 1739 068f 57060000 		.4byte	.LASF94
 1740 0693 0C       		.sleb128 12
 1741 0694 16       		.uleb128 0x16
ARM GAS  /tmp/ccxqq0Hi.s 			page 32


 1742 0695 4C020000 		.4byte	.LASF95
 1743 0699 0D       		.sleb128 13
 1744 069a 16       		.uleb128 0x16
 1745 069b CD080000 		.4byte	.LASF96
 1746 069f 0E       		.sleb128 14
 1747 06a0 16       		.uleb128 0x16
 1748 06a1 1F080000 		.4byte	.LASF97
 1749 06a5 0F       		.sleb128 15
 1750 06a6 16       		.uleb128 0x16
 1751 06a7 D9030000 		.4byte	.LASF98
 1752 06ab 10       		.sleb128 16
 1753 06ac 16       		.uleb128 0x16
 1754 06ad 94060000 		.4byte	.LASF99
 1755 06b1 11       		.sleb128 17
 1756 06b2 16       		.uleb128 0x16
 1757 06b3 D9070000 		.4byte	.LASF100
 1758 06b7 12       		.sleb128 18
 1759 06b8 16       		.uleb128 0x16
 1760 06b9 CC030000 		.4byte	.LASF101
 1761 06bd 13       		.sleb128 19
 1762 06be 16       		.uleb128 0x16
 1763 06bf 2B030000 		.4byte	.LASF102
 1764 06c3 14       		.sleb128 20
 1765 06c4 16       		.uleb128 0x16
 1766 06c5 6C090000 		.4byte	.LASF103
 1767 06c9 15       		.sleb128 21
 1768 06ca 16       		.uleb128 0x16
 1769 06cb 8D040000 		.4byte	.LASF104
 1770 06cf 16       		.sleb128 22
 1771 06d0 16       		.uleb128 0x16
 1772 06d1 9E090000 		.4byte	.LASF105
 1773 06d5 17       		.sleb128 23
 1774 06d6 16       		.uleb128 0x16
 1775 06d7 02050000 		.4byte	.LASF106
 1776 06db 18       		.sleb128 24
 1777 06dc 16       		.uleb128 0x16
 1778 06dd ED080000 		.4byte	.LASF107
 1779 06e1 19       		.sleb128 25
 1780 06e2 16       		.uleb128 0x16
 1781 06e3 C4010000 		.4byte	.LASF108
 1782 06e7 1A       		.sleb128 26
 1783 06e8 16       		.uleb128 0x16
 1784 06e9 A6030000 		.4byte	.LASF109
 1785 06ed 1B       		.sleb128 27
 1786 06ee 16       		.uleb128 0x16
 1787 06ef B6000000 		.4byte	.LASF110
 1788 06f3 1C       		.sleb128 28
 1789 06f4 16       		.uleb128 0x16
 1790 06f5 AA070000 		.4byte	.LASF111
 1791 06f9 1D       		.sleb128 29
 1792 06fa 16       		.uleb128 0x16
 1793 06fb 59030000 		.4byte	.LASF112
 1794 06ff 1E       		.sleb128 30
 1795 0700 16       		.uleb128 0x16
 1796 0701 82030000 		.4byte	.LASF113
 1797 0705 1F       		.sleb128 31
 1798 0706 16       		.uleb128 0x16
ARM GAS  /tmp/ccxqq0Hi.s 			page 33


 1799 0707 B0020000 		.4byte	.LASF114
 1800 070b 20       		.sleb128 32
 1801 070c 16       		.uleb128 0x16
 1802 070d 1A060000 		.4byte	.LASF115
 1803 0711 21       		.sleb128 33
 1804 0712 16       		.uleb128 0x16
 1805 0713 C8040000 		.4byte	.LASF116
 1806 0717 22       		.sleb128 34
 1807 0718 16       		.uleb128 0x16
 1808 0719 70050000 		.4byte	.LASF117
 1809 071d 23       		.sleb128 35
 1810 071e 16       		.uleb128 0x16
 1811 071f 1C010000 		.4byte	.LASF118
 1812 0723 24       		.sleb128 36
 1813 0724 16       		.uleb128 0x16
 1814 0725 B4070000 		.4byte	.LASF119
 1815 0729 25       		.sleb128 37
 1816 072a 16       		.uleb128 0x16
 1817 072b 63030000 		.4byte	.LASF120
 1818 072f 26       		.sleb128 38
 1819 0730 16       		.uleb128 0x16
 1820 0731 0B020000 		.4byte	.LASF121
 1821 0735 27       		.sleb128 39
 1822 0736 16       		.uleb128 0x16
 1823 0737 6D070000 		.4byte	.LASF122
 1824 073b 28       		.sleb128 40
 1825 073c 16       		.uleb128 0x16
 1826 073d 3F070000 		.4byte	.LASF123
 1827 0741 29       		.sleb128 41
 1828 0742 16       		.uleb128 0x16
 1829 0743 D9050000 		.4byte	.LASF124
 1830 0747 2A       		.sleb128 42
 1831 0748 16       		.uleb128 0x16
 1832 0749 26010000 		.4byte	.LASF125
 1833 074d 2B       		.sleb128 43
 1834 074e 16       		.uleb128 0x16
 1835 074f 07000000 		.4byte	.LASF126
 1836 0753 2C       		.sleb128 44
 1837 0754 16       		.uleb128 0x16
 1838 0755 EB030000 		.4byte	.LASF127
 1839 0759 2D       		.sleb128 45
 1840 075a 16       		.uleb128 0x16
 1841 075b DC090000 		.4byte	.LASF128
 1842 075f 2E       		.sleb128 46
 1843 0760 16       		.uleb128 0x16
 1844 0761 280A0000 		.4byte	.LASF129
 1845 0765 2F       		.sleb128 47
 1846 0766 16       		.uleb128 0x16
 1847 0767 35040000 		.4byte	.LASF130
 1848 076b 30       		.sleb128 48
 1849 076c 16       		.uleb128 0x16
 1850 076d E9090000 		.4byte	.LASF131
 1851 0771 31       		.sleb128 49
 1852 0772 16       		.uleb128 0x16
 1853 0773 E9020000 		.4byte	.LASF132
 1854 0777 32       		.sleb128 50
 1855 0778 16       		.uleb128 0x16
ARM GAS  /tmp/ccxqq0Hi.s 			page 34


 1856 0779 8A000000 		.4byte	.LASF133
 1857 077d 33       		.sleb128 51
 1858 077e 16       		.uleb128 0x16
 1859 077f 98050000 		.4byte	.LASF134
 1860 0783 34       		.sleb128 52
 1861 0784 16       		.uleb128 0x16
 1862 0785 F7040000 		.4byte	.LASF135
 1863 0789 35       		.sleb128 53
 1864 078a 16       		.uleb128 0x16
 1865 078b 04060000 		.4byte	.LASF136
 1866 078f 36       		.sleb128 54
 1867 0790 16       		.uleb128 0x16
 1868 0791 30050000 		.4byte	.LASF137
 1869 0795 37       		.sleb128 55
 1870 0796 16       		.uleb128 0x16
 1871 0797 C1050000 		.4byte	.LASF138
 1872 079b 38       		.sleb128 56
 1873 079c 16       		.uleb128 0x16
 1874 079d 6F000000 		.4byte	.LASF139
 1875 07a1 39       		.sleb128 57
 1876 07a2 16       		.uleb128 0x16
 1877 07a3 690A0000 		.4byte	.LASF140
 1878 07a7 3A       		.sleb128 58
 1879 07a8 16       		.uleb128 0x16
 1880 07a9 69060000 		.4byte	.LASF141
 1881 07ad 3B       		.sleb128 59
 1882 07ae 16       		.uleb128 0x16
 1883 07af 80020000 		.4byte	.LASF142
 1884 07b3 3C       		.sleb128 60
 1885 07b4 16       		.uleb128 0x16
 1886 07b5 86080000 		.4byte	.LASF143
 1887 07b9 3D       		.sleb128 61
 1888 07ba 16       		.uleb128 0x16
 1889 07bb 48050000 		.4byte	.LASF144
 1890 07bf 3E       		.sleb128 62
 1891 07c0 16       		.uleb128 0x16
 1892 07c1 7B060000 		.4byte	.LASF145
 1893 07c5 3F       		.sleb128 63
 1894 07c6 16       		.uleb128 0x16
 1895 07c7 DA000000 		.4byte	.LASF146
 1896 07cb C000     		.sleb128 64
 1897 07cd 16       		.uleb128 0x16
 1898 07ce CB070000 		.4byte	.LASF147
 1899 07d2 C100     		.sleb128 65
 1900 07d4 16       		.uleb128 0x16
 1901 07d5 BD020000 		.4byte	.LASF148
 1902 07d9 C200     		.sleb128 66
 1903 07db 16       		.uleb128 0x16
 1904 07dc 15040000 		.4byte	.LASF149
 1905 07e0 C300     		.sleb128 67
 1906 07e2 16       		.uleb128 0x16
 1907 07e3 9F010000 		.4byte	.LASF150
 1908 07e7 C400     		.sleb128 68
 1909 07e9 16       		.uleb128 0x16
 1910 07ea 3B080000 		.4byte	.LASF151
 1911 07ee C500     		.sleb128 69
 1912 07f0 16       		.uleb128 0x16
ARM GAS  /tmp/ccxqq0Hi.s 			page 35


 1913 07f1 07070000 		.4byte	.LASF152
 1914 07f5 C600     		.sleb128 70
 1915 07f7 16       		.uleb128 0x16
 1916 07f8 E8000000 		.4byte	.LASF153
 1917 07fc C700     		.sleb128 71
 1918 07fe 16       		.uleb128 0x16
 1919 07ff 70080000 		.4byte	.LASF154
 1920 0803 C800     		.sleb128 72
 1921 0805 16       		.uleb128 0x16
 1922 0806 56070000 		.4byte	.LASF155
 1923 080a C900     		.sleb128 73
 1924 080c 16       		.uleb128 0x16
 1925 080d 1E090000 		.4byte	.LASF156
 1926 0811 CA00     		.sleb128 74
 1927 0813 16       		.uleb128 0x16
 1928 0814 150A0000 		.4byte	.LASF157
 1929 0818 CB00     		.sleb128 75
 1930 081a 16       		.uleb128 0x16
 1931 081b 05010000 		.4byte	.LASF158
 1932 081f CC00     		.sleb128 76
 1933 0821 16       		.uleb128 0x16
 1934 0822 56050000 		.4byte	.LASF159
 1935 0826 CD00     		.sleb128 77
 1936 0828 16       		.uleb128 0x16
 1937 0829 9F000000 		.4byte	.LASF160
 1938 082d CE00     		.sleb128 78
 1939 082f 16       		.uleb128 0x16
 1940 0830 63070000 		.4byte	.LASF161
 1941 0834 CF00     		.sleb128 79
 1942 0836 16       		.uleb128 0x16
 1943 0837 B3030000 		.4byte	.LASF162
 1944 083b D000     		.sleb128 80
 1945 083d 16       		.uleb128 0x16
 1946 083e 8F050000 		.4byte	.LASF163
 1947 0842 D100     		.sleb128 81
 1948 0844 00       		.byte	0
 1949 0845 17       		.uleb128 0x17
 1950 0846 82000000 		.4byte	0x82
 1951 084a 55080000 		.4byte	0x855
 1952 084e 18       		.uleb128 0x18
 1953 084f 37000000 		.4byte	0x37
 1954 0853 01       		.byte	0x1
 1955 0854 00       		.byte	0
 1956 0855 0D       		.uleb128 0xd
 1957 0856 5E000000 		.4byte	0x5e
 1958 085a 0D       		.uleb128 0xd
 1959 085b 70000000 		.4byte	0x70
 1960 085f 19       		.uleb128 0x19
 1961 0860 88       		.byte	0x88
 1962 0861 0C       		.byte	0xc
 1963 0862 DB02     		.2byte	0x2db
 1964 0864 2C0A0000 		.4byte	0xa2c
 1965 0868 0B       		.uleb128 0xb
 1966 0869 435200   		.ascii	"CR\000"
 1967 086c 0C       		.byte	0xc
 1968 086d DD02     		.2byte	0x2dd
 1969 086f 3C030000 		.4byte	0x33c
ARM GAS  /tmp/ccxqq0Hi.s 			page 36


 1970 0873 02       		.byte	0x2
 1971 0874 23       		.byte	0x23
 1972 0875 00       		.uleb128 0
 1973 0876 1A       		.uleb128 0x1a
 1974 0877 EF040000 		.4byte	.LASF164
 1975 087b 0C       		.byte	0xc
 1976 087c DE02     		.2byte	0x2de
 1977 087e 3C030000 		.4byte	0x33c
 1978 0882 02       		.byte	0x2
 1979 0883 23       		.byte	0x23
 1980 0884 04       		.uleb128 0x4
 1981 0885 1A       		.uleb128 0x1a
 1982 0886 A1030000 		.4byte	.LASF165
 1983 088a 0C       		.byte	0xc
 1984 088b DF02     		.2byte	0x2df
 1985 088d 3C030000 		.4byte	0x33c
 1986 0891 02       		.byte	0x2
 1987 0892 23       		.byte	0x23
 1988 0893 08       		.uleb128 0x8
 1989 0894 0B       		.uleb128 0xb
 1990 0895 43495200 		.ascii	"CIR\000"
 1991 0899 0C       		.byte	0xc
 1992 089a E002     		.2byte	0x2e0
 1993 089c 3C030000 		.4byte	0x33c
 1994 08a0 02       		.byte	0x2
 1995 08a1 23       		.byte	0x23
 1996 08a2 0C       		.uleb128 0xc
 1997 08a3 1A       		.uleb128 0x1a
 1998 08a4 3A0A0000 		.4byte	.LASF166
 1999 08a8 0C       		.byte	0xc
 2000 08a9 E102     		.2byte	0x2e1
 2001 08ab 3C030000 		.4byte	0x33c
 2002 08af 02       		.byte	0x2
 2003 08b0 23       		.byte	0x23
 2004 08b1 10       		.uleb128 0x10
 2005 08b2 1A       		.uleb128 0x1a
 2006 08b3 7D080000 		.4byte	.LASF167
 2007 08b7 0C       		.byte	0xc
 2008 08b8 E202     		.2byte	0x2e2
 2009 08ba 3C030000 		.4byte	0x33c
 2010 08be 02       		.byte	0x2
 2011 08bf 23       		.byte	0x23
 2012 08c0 14       		.uleb128 0x14
 2013 08c1 1A       		.uleb128 0x1a
 2014 08c2 E5060000 		.4byte	.LASF168
 2015 08c6 0C       		.byte	0xc
 2016 08c7 E302     		.2byte	0x2e3
 2017 08c9 3C030000 		.4byte	0x33c
 2018 08cd 02       		.byte	0x2
 2019 08ce 23       		.byte	0x23
 2020 08cf 18       		.uleb128 0x18
 2021 08d0 1A       		.uleb128 0x1a
 2022 08d1 5E020000 		.4byte	.LASF169
 2023 08d5 0C       		.byte	0xc
 2024 08d6 E402     		.2byte	0x2e4
 2025 08d8 82000000 		.4byte	0x82
 2026 08dc 02       		.byte	0x2
ARM GAS  /tmp/ccxqq0Hi.s 			page 37


 2027 08dd 23       		.byte	0x23
 2028 08de 1C       		.uleb128 0x1c
 2029 08df 1A       		.uleb128 0x1a
 2030 08e0 2B070000 		.4byte	.LASF170
 2031 08e4 0C       		.byte	0xc
 2032 08e5 E502     		.2byte	0x2e5
 2033 08e7 3C030000 		.4byte	0x33c
 2034 08eb 02       		.byte	0x2
 2035 08ec 23       		.byte	0x23
 2036 08ed 20       		.uleb128 0x20
 2037 08ee 1A       		.uleb128 0x1a
 2038 08ef 86050000 		.4byte	.LASF171
 2039 08f3 0C       		.byte	0xc
 2040 08f4 E602     		.2byte	0x2e6
 2041 08f6 3C030000 		.4byte	0x33c
 2042 08fa 02       		.byte	0x2
 2043 08fb 23       		.byte	0x23
 2044 08fc 24       		.uleb128 0x24
 2045 08fd 1A       		.uleb128 0x1a
 2046 08fe 68020000 		.4byte	.LASF172
 2047 0902 0C       		.byte	0xc
 2048 0903 E702     		.2byte	0x2e7
 2049 0905 45080000 		.4byte	0x845
 2050 0909 02       		.byte	0x2
 2051 090a 23       		.byte	0x23
 2052 090b 28       		.uleb128 0x28
 2053 090c 1A       		.uleb128 0x1a
 2054 090d 4D080000 		.4byte	.LASF173
 2055 0911 0C       		.byte	0xc
 2056 0912 E802     		.2byte	0x2e8
 2057 0914 3C030000 		.4byte	0x33c
 2058 0918 02       		.byte	0x2
 2059 0919 23       		.byte	0x23
 2060 091a 30       		.uleb128 0x30
 2061 091b 1A       		.uleb128 0x1a
 2062 091c 0F030000 		.4byte	.LASF174
 2063 0920 0C       		.byte	0xc
 2064 0921 E902     		.2byte	0x2e9
 2065 0923 3C030000 		.4byte	0x33c
 2066 0927 02       		.byte	0x2
 2067 0928 23       		.byte	0x23
 2068 0929 34       		.uleb128 0x34
 2069 092a 1A       		.uleb128 0x1a
 2070 092b 610A0000 		.4byte	.LASF175
 2071 092f 0C       		.byte	0xc
 2072 0930 EA02     		.2byte	0x2ea
 2073 0932 3C030000 		.4byte	0x33c
 2074 0936 02       		.byte	0x2
 2075 0937 23       		.byte	0x23
 2076 0938 38       		.uleb128 0x38
 2077 0939 1A       		.uleb128 0x1a
 2078 093a D5020000 		.4byte	.LASF176
 2079 093e 0C       		.byte	0xc
 2080 093f EB02     		.2byte	0x2eb
 2081 0941 82000000 		.4byte	0x82
 2082 0945 02       		.byte	0x2
 2083 0946 23       		.byte	0x23
ARM GAS  /tmp/ccxqq0Hi.s 			page 38


 2084 0947 3C       		.uleb128 0x3c
 2085 0948 1A       		.uleb128 0x1a
 2086 0949 4E070000 		.4byte	.LASF177
 2087 094d 0C       		.byte	0xc
 2088 094e EC02     		.2byte	0x2ec
 2089 0950 3C030000 		.4byte	0x33c
 2090 0954 02       		.byte	0x2
 2091 0955 23       		.byte	0x23
 2092 0956 40       		.uleb128 0x40
 2093 0957 1A       		.uleb128 0x1a
 2094 0958 EC010000 		.4byte	.LASF178
 2095 095c 0C       		.byte	0xc
 2096 095d ED02     		.2byte	0x2ed
 2097 095f 3C030000 		.4byte	0x33c
 2098 0963 02       		.byte	0x2
 2099 0964 23       		.byte	0x23
 2100 0965 44       		.uleb128 0x44
 2101 0966 1A       		.uleb128 0x1a
 2102 0967 DF020000 		.4byte	.LASF179
 2103 096b 0C       		.byte	0xc
 2104 096c EE02     		.2byte	0x2ee
 2105 096e 45080000 		.4byte	0x845
 2106 0972 02       		.byte	0x2
 2107 0973 23       		.byte	0x23
 2108 0974 48       		.uleb128 0x48
 2109 0975 1A       		.uleb128 0x1a
 2110 0976 F4010000 		.4byte	.LASF180
 2111 097a 0C       		.byte	0xc
 2112 097b EF02     		.2byte	0x2ef
 2113 097d 3C030000 		.4byte	0x33c
 2114 0981 02       		.byte	0x2
 2115 0982 23       		.byte	0x23
 2116 0983 50       		.uleb128 0x50
 2117 0984 1A       		.uleb128 0x1a
 2118 0985 3A010000 		.4byte	.LASF181
 2119 0989 0C       		.byte	0xc
 2120 098a F002     		.2byte	0x2f0
 2121 098c 3C030000 		.4byte	0x33c
 2122 0990 02       		.byte	0x2
 2123 0991 23       		.byte	0x23
 2124 0992 54       		.uleb128 0x54
 2125 0993 1A       		.uleb128 0x1a
 2126 0994 E2070000 		.4byte	.LASF182
 2127 0998 0C       		.byte	0xc
 2128 0999 F102     		.2byte	0x2f1
 2129 099b 3C030000 		.4byte	0x33c
 2130 099f 02       		.byte	0x2
 2131 09a0 23       		.byte	0x23
 2132 09a1 58       		.uleb128 0x58
 2133 09a2 1A       		.uleb128 0x1a
 2134 09a3 92020000 		.4byte	.LASF183
 2135 09a7 0C       		.byte	0xc
 2136 09a8 F202     		.2byte	0x2f2
 2137 09aa 82000000 		.4byte	0x82
 2138 09ae 02       		.byte	0x2
 2139 09af 23       		.byte	0x23
 2140 09b0 5C       		.uleb128 0x5c
ARM GAS  /tmp/ccxqq0Hi.s 			page 39


 2141 09b1 1A       		.uleb128 0x1a
 2142 09b2 4D060000 		.4byte	.LASF184
 2143 09b6 0C       		.byte	0xc
 2144 09b7 F302     		.2byte	0x2f3
 2145 09b9 3C030000 		.4byte	0x33c
 2146 09bd 02       		.byte	0x2
 2147 09be 23       		.byte	0x23
 2148 09bf 60       		.uleb128 0x60
 2149 09c0 1A       		.uleb128 0x1a
 2150 09c1 A3050000 		.4byte	.LASF185
 2151 09c5 0C       		.byte	0xc
 2152 09c6 F402     		.2byte	0x2f4
 2153 09c8 3C030000 		.4byte	0x33c
 2154 09cc 02       		.byte	0x2
 2155 09cd 23       		.byte	0x23
 2156 09ce 64       		.uleb128 0x64
 2157 09cf 1A       		.uleb128 0x1a
 2158 09d0 9C020000 		.4byte	.LASF186
 2159 09d4 0C       		.byte	0xc
 2160 09d5 F502     		.2byte	0x2f5
 2161 09d7 45080000 		.4byte	0x845
 2162 09db 02       		.byte	0x2
 2163 09dc 23       		.byte	0x23
 2164 09dd 68       		.uleb128 0x68
 2165 09de 1A       		.uleb128 0x1a
 2166 09df 7D030000 		.4byte	.LASF187
 2167 09e3 0C       		.byte	0xc
 2168 09e4 F602     		.2byte	0x2f6
 2169 09e6 3C030000 		.4byte	0x33c
 2170 09ea 02       		.byte	0x2
 2171 09eb 23       		.byte	0x23
 2172 09ec 70       		.uleb128 0x70
 2173 09ed 0B       		.uleb128 0xb
 2174 09ee 43535200 		.ascii	"CSR\000"
 2175 09f2 0C       		.byte	0xc
 2176 09f3 F702     		.2byte	0x2f7
 2177 09f5 3C030000 		.4byte	0x33c
 2178 09f9 02       		.byte	0x2
 2179 09fa 23       		.byte	0x23
 2180 09fb 74       		.uleb128 0x74
 2181 09fc 1A       		.uleb128 0x1a
 2182 09fd A6020000 		.4byte	.LASF188
 2183 0a01 0C       		.byte	0xc
 2184 0a02 F802     		.2byte	0x2f8
 2185 0a04 45080000 		.4byte	0x845
 2186 0a08 02       		.byte	0x2
 2187 0a09 23       		.byte	0x23
 2188 0a0a 78       		.uleb128 0x78
 2189 0a0b 1A       		.uleb128 0x1a
 2190 0a0c 6A050000 		.4byte	.LASF189
 2191 0a10 0C       		.byte	0xc
 2192 0a11 F902     		.2byte	0x2f9
 2193 0a13 3C030000 		.4byte	0x33c
 2194 0a17 03       		.byte	0x3
 2195 0a18 23       		.byte	0x23
 2196 0a19 8001     		.uleb128 0x80
 2197 0a1b 1A       		.uleb128 0x1a
ARM GAS  /tmp/ccxqq0Hi.s 			page 40


 2198 0a1c 24000000 		.4byte	.LASF190
 2199 0a20 0C       		.byte	0xc
 2200 0a21 FA02     		.2byte	0x2fa
 2201 0a23 3C030000 		.4byte	0x33c
 2202 0a27 03       		.byte	0x3
 2203 0a28 23       		.byte	0x23
 2204 0a29 8401     		.uleb128 0x84
 2205 0a2b 00       		.byte	0
 2206 0a2c 14       		.uleb128 0x14
 2207 0a2d A7080000 		.4byte	.LASF191
 2208 0a31 0C       		.byte	0xc
 2209 0a32 FB02     		.2byte	0x2fb
 2210 0a34 5F080000 		.4byte	0x85f
 2211 0a38 19       		.uleb128 0x19
 2212 0a39 1C       		.byte	0x1c
 2213 0a3a 0C       		.byte	0xc
 2214 0a3b 9303     		.2byte	0x393
 2215 0a3d 120B0000 		.4byte	0xb12
 2216 0a41 0B       		.uleb128 0xb
 2217 0a42 535200   		.ascii	"SR\000"
 2218 0a45 0C       		.byte	0xc
 2219 0a46 9503     		.2byte	0x395
 2220 0a48 55080000 		.4byte	0x855
 2221 0a4c 02       		.byte	0x2
 2222 0a4d 23       		.byte	0x23
 2223 0a4e 00       		.uleb128 0
 2224 0a4f 1A       		.uleb128 0x1a
 2225 0a50 5E020000 		.4byte	.LASF169
 2226 0a54 0C       		.byte	0xc
 2227 0a55 9603     		.2byte	0x396
 2228 0a57 5E000000 		.4byte	0x5e
 2229 0a5b 02       		.byte	0x2
 2230 0a5c 23       		.byte	0x23
 2231 0a5d 02       		.uleb128 0x2
 2232 0a5e 0B       		.uleb128 0xb
 2233 0a5f 445200   		.ascii	"DR\000"
 2234 0a62 0C       		.byte	0xc
 2235 0a63 9703     		.2byte	0x397
 2236 0a65 55080000 		.4byte	0x855
 2237 0a69 02       		.byte	0x2
 2238 0a6a 23       		.byte	0x23
 2239 0a6b 04       		.uleb128 0x4
 2240 0a6c 1A       		.uleb128 0x1a
 2241 0a6d 68020000 		.4byte	.LASF172
 2242 0a71 0C       		.byte	0xc
 2243 0a72 9803     		.2byte	0x398
 2244 0a74 5E000000 		.4byte	0x5e
 2245 0a78 02       		.byte	0x2
 2246 0a79 23       		.byte	0x23
 2247 0a7a 06       		.uleb128 0x6
 2248 0a7b 0B       		.uleb128 0xb
 2249 0a7c 42525200 		.ascii	"BRR\000"
 2250 0a80 0C       		.byte	0xc
 2251 0a81 9903     		.2byte	0x399
 2252 0a83 55080000 		.4byte	0x855
 2253 0a87 02       		.byte	0x2
 2254 0a88 23       		.byte	0x23
ARM GAS  /tmp/ccxqq0Hi.s 			page 41


 2255 0a89 08       		.uleb128 0x8
 2256 0a8a 1A       		.uleb128 0x1a
 2257 0a8b D5020000 		.4byte	.LASF176
 2258 0a8f 0C       		.byte	0xc
 2259 0a90 9A03     		.2byte	0x39a
 2260 0a92 5E000000 		.4byte	0x5e
 2261 0a96 02       		.byte	0x2
 2262 0a97 23       		.byte	0x23
 2263 0a98 0A       		.uleb128 0xa
 2264 0a99 0B       		.uleb128 0xb
 2265 0a9a 43523100 		.ascii	"CR1\000"
 2266 0a9e 0C       		.byte	0xc
 2267 0a9f 9B03     		.2byte	0x39b
 2268 0aa1 55080000 		.4byte	0x855
 2269 0aa5 02       		.byte	0x2
 2270 0aa6 23       		.byte	0x23
 2271 0aa7 0C       		.uleb128 0xc
 2272 0aa8 1A       		.uleb128 0x1a
 2273 0aa9 DF020000 		.4byte	.LASF179
 2274 0aad 0C       		.byte	0xc
 2275 0aae 9C03     		.2byte	0x39c
 2276 0ab0 5E000000 		.4byte	0x5e
 2277 0ab4 02       		.byte	0x2
 2278 0ab5 23       		.byte	0x23
 2279 0ab6 0E       		.uleb128 0xe
 2280 0ab7 0B       		.uleb128 0xb
 2281 0ab8 43523200 		.ascii	"CR2\000"
 2282 0abc 0C       		.byte	0xc
 2283 0abd 9D03     		.2byte	0x39d
 2284 0abf 55080000 		.4byte	0x855
 2285 0ac3 02       		.byte	0x2
 2286 0ac4 23       		.byte	0x23
 2287 0ac5 10       		.uleb128 0x10
 2288 0ac6 1A       		.uleb128 0x1a
 2289 0ac7 92020000 		.4byte	.LASF183
 2290 0acb 0C       		.byte	0xc
 2291 0acc 9E03     		.2byte	0x39e
 2292 0ace 5E000000 		.4byte	0x5e
 2293 0ad2 02       		.byte	0x2
 2294 0ad3 23       		.byte	0x23
 2295 0ad4 12       		.uleb128 0x12
 2296 0ad5 0B       		.uleb128 0xb
 2297 0ad6 43523300 		.ascii	"CR3\000"
 2298 0ada 0C       		.byte	0xc
 2299 0adb 9F03     		.2byte	0x39f
 2300 0add 55080000 		.4byte	0x855
 2301 0ae1 02       		.byte	0x2
 2302 0ae2 23       		.byte	0x23
 2303 0ae3 14       		.uleb128 0x14
 2304 0ae4 1A       		.uleb128 0x1a
 2305 0ae5 9C020000 		.4byte	.LASF186
 2306 0ae9 0C       		.byte	0xc
 2307 0aea A003     		.2byte	0x3a0
 2308 0aec 5E000000 		.4byte	0x5e
 2309 0af0 02       		.byte	0x2
 2310 0af1 23       		.byte	0x23
 2311 0af2 16       		.uleb128 0x16
ARM GAS  /tmp/ccxqq0Hi.s 			page 42


 2312 0af3 1A       		.uleb128 0x1a
 2313 0af4 64000000 		.4byte	.LASF192
 2314 0af8 0C       		.byte	0xc
 2315 0af9 A103     		.2byte	0x3a1
 2316 0afb 55080000 		.4byte	0x855
 2317 0aff 02       		.byte	0x2
 2318 0b00 23       		.byte	0x23
 2319 0b01 18       		.uleb128 0x18
 2320 0b02 1A       		.uleb128 0x1a
 2321 0b03 A6020000 		.4byte	.LASF188
 2322 0b07 0C       		.byte	0xc
 2323 0b08 A203     		.2byte	0x3a2
 2324 0b0a 5E000000 		.4byte	0x5e
 2325 0b0e 02       		.byte	0x2
 2326 0b0f 23       		.byte	0x23
 2327 0b10 1A       		.uleb128 0x1a
 2328 0b11 00       		.byte	0
 2329 0b12 14       		.uleb128 0x14
 2330 0b13 3F030000 		.4byte	.LASF193
 2331 0b17 0C       		.byte	0xc
 2332 0b18 A303     		.2byte	0x3a3
 2333 0b1a 380A0000 		.4byte	0xa38
 2334 0b1e 1B       		.uleb128 0x1b
 2335 0b1f 01       		.byte	0x1
 2336 0b20 0D       		.byte	0xd
 2337 0b21 64       		.byte	0x64
 2338 0b22 390B0000 		.4byte	0xb39
 2339 0b26 16       		.uleb128 0x16
 2340 0b27 CB020000 		.4byte	.LASF194
 2341 0b2b 00       		.sleb128 0
 2342 0b2c 16       		.uleb128 0x16
 2343 0b2d 430A0000 		.4byte	.LASF195
 2344 0b31 01       		.sleb128 1
 2345 0b32 16       		.uleb128 0x16
 2346 0b33 67080000 		.4byte	.LASF196
 2347 0b37 02       		.sleb128 2
 2348 0b38 00       		.byte	0
 2349 0b39 03       		.uleb128 0x3
 2350 0b3a 31080000 		.4byte	.LASF197
 2351 0b3e 0D       		.byte	0xd
 2352 0b3f 68       		.byte	0x68
 2353 0b40 1E0B0000 		.4byte	0xb1e
 2354 0b44 03       		.uleb128 0x3
 2355 0b45 F5070000 		.4byte	.LASF198
 2356 0b49 0D       		.byte	0xd
 2357 0b4a 6D       		.byte	0x6d
 2358 0b4b 4F0B0000 		.4byte	0xb4f
 2359 0b4f 05       		.uleb128 0x5
 2360 0b50 F5070000 		.4byte	.LASF198
 2361 0b54 74       		.byte	0x74
 2362 0b55 0D       		.byte	0xd
 2363 0b56 87       		.byte	0x87
 2364 0b57 D80B0000 		.4byte	0xbd8
 2365 0b5b 07       		.uleb128 0x7
 2366 0b5c 766D7400 		.ascii	"vmt\000"
 2367 0b60 0D       		.byte	0xd
 2368 0b61 89       		.byte	0x89
ARM GAS  /tmp/ccxqq0Hi.s 			page 43


 2369 0b62 AF0C0000 		.4byte	0xcaf
 2370 0b66 02       		.byte	0x2
 2371 0b67 23       		.byte	0x23
 2372 0b68 00       		.uleb128 0
 2373 0b69 06       		.uleb128 0x6
 2374 0b6a D3050000 		.4byte	.LASF199
 2375 0b6e 0D       		.byte	0xd
 2376 0b6f 8A       		.byte	0x8a
 2377 0b70 F1030000 		.4byte	0x3f1
 2378 0b74 02       		.byte	0x2
 2379 0b75 23       		.byte	0x23
 2380 0b76 04       		.uleb128 0x4
 2381 0b77 06       		.uleb128 0x6
 2382 0b78 39030000 		.4byte	.LASF200
 2383 0b7c 0D       		.byte	0xd
 2384 0b7d 8A       		.byte	0x8a
 2385 0b7e E8050000 		.4byte	0x5e8
 2386 0b82 02       		.byte	0x2
 2387 0b83 23       		.byte	0x23
 2388 0b84 08       		.uleb128 0x8
 2389 0b85 06       		.uleb128 0x6
 2390 0b86 B0000000 		.4byte	.LASF201
 2391 0b8a 0D       		.byte	0xd
 2392 0b8b 8A       		.byte	0x8a
 2393 0b8c 390B0000 		.4byte	0xb39
 2394 0b90 02       		.byte	0x2
 2395 0b91 23       		.byte	0x23
 2396 0b92 0C       		.uleb128 0xc
 2397 0b93 06       		.uleb128 0x6
 2398 0b94 C6080000 		.4byte	.LASF202
 2399 0b98 0D       		.byte	0xd
 2400 0b99 8A       		.byte	0x8a
 2401 0b9a EC040000 		.4byte	0x4ec
 2402 0b9e 02       		.byte	0x2
 2403 0b9f 23       		.byte	0x23
 2404 0ba0 10       		.uleb128 0x10
 2405 0ba1 06       		.uleb128 0x6
 2406 0ba2 DC010000 		.4byte	.LASF203
 2407 0ba6 0D       		.byte	0xd
 2408 0ba7 8A       		.byte	0x8a
 2409 0ba8 F7040000 		.4byte	0x4f7
 2410 0bac 02       		.byte	0x2
 2411 0bad 23       		.byte	0x23
 2412 0bae 30       		.uleb128 0x30
 2413 0baf 07       		.uleb128 0x7
 2414 0bb0 696200   		.ascii	"ib\000"
 2415 0bb3 0D       		.byte	0xd
 2416 0bb4 8A       		.byte	0x8a
 2417 0bb5 BA0C0000 		.4byte	0xcba
 2418 0bb9 02       		.byte	0x2
 2419 0bba 23       		.byte	0x23
 2420 0bbb 50       		.uleb128 0x50
 2421 0bbc 07       		.uleb128 0x7
 2422 0bbd 6F6200   		.ascii	"ob\000"
 2423 0bc0 0D       		.byte	0xd
 2424 0bc1 8A       		.byte	0x8a
 2425 0bc2 BA0C0000 		.4byte	0xcba
ARM GAS  /tmp/ccxqq0Hi.s 			page 44


 2426 0bc6 02       		.byte	0x2
 2427 0bc7 23       		.byte	0x23
 2428 0bc8 60       		.uleb128 0x60
 2429 0bc9 06       		.uleb128 0x6
 2430 0bca 17020000 		.4byte	.LASF204
 2431 0bce 0D       		.byte	0xd
 2432 0bcf 8A       		.byte	0x8a
 2433 0bd0 CA0C0000 		.4byte	0xcca
 2434 0bd4 02       		.byte	0x2
 2435 0bd5 23       		.byte	0x23
 2436 0bd6 70       		.uleb128 0x70
 2437 0bd7 00       		.byte	0
 2438 0bd8 08       		.uleb128 0x8
 2439 0bd9 0C       		.byte	0xc
 2440 0bda 0E       		.byte	0xe
 2441 0bdb C4       		.byte	0xc4
 2442 0bdc 190C0000 		.4byte	0xc19
 2443 0be0 06       		.uleb128 0x6
 2444 0be1 2E060000 		.4byte	.LASF205
 2445 0be5 0E       		.byte	0xe
 2446 0be6 C8       		.byte	0xc8
 2447 0be7 82000000 		.4byte	0x82
 2448 0beb 02       		.byte	0x2
 2449 0bec 23       		.byte	0x23
 2450 0bed 00       		.uleb128 0
 2451 0bee 06       		.uleb128 0x6
 2452 0bef 15050000 		.4byte	.LASF206
 2453 0bf3 0E       		.byte	0xe
 2454 0bf4 CC       		.byte	0xcc
 2455 0bf5 5E000000 		.4byte	0x5e
 2456 0bf9 02       		.byte	0x2
 2457 0bfa 23       		.byte	0x23
 2458 0bfb 04       		.uleb128 0x4
 2459 0bfc 06       		.uleb128 0x6
 2460 0bfd 1C050000 		.4byte	.LASF207
 2461 0c01 0E       		.byte	0xe
 2462 0c02 D0       		.byte	0xd0
 2463 0c03 5E000000 		.4byte	0x5e
 2464 0c07 02       		.byte	0x2
 2465 0c08 23       		.byte	0x23
 2466 0c09 06       		.uleb128 0x6
 2467 0c0a 06       		.uleb128 0x6
 2468 0c0b 23050000 		.4byte	.LASF208
 2469 0c0f 0E       		.byte	0xe
 2470 0c10 D4       		.byte	0xd4
 2471 0c11 5E000000 		.4byte	0x5e
 2472 0c15 02       		.byte	0x2
 2473 0c16 23       		.byte	0x23
 2474 0c17 08       		.uleb128 0x8
 2475 0c18 00       		.byte	0
 2476 0c19 03       		.uleb128 0x3
 2477 0c1a 50000000 		.4byte	.LASF209
 2478 0c1e 0E       		.byte	0xe
 2479 0c1f D5       		.byte	0xd5
 2480 0c20 D80B0000 		.4byte	0xbd8
 2481 0c24 05       		.uleb128 0x5
 2482 0c25 AB040000 		.4byte	.LASF210
ARM GAS  /tmp/ccxqq0Hi.s 			page 45


 2483 0c29 24       		.byte	0x24
 2484 0c2a 0D       		.byte	0xd
 2485 0c2b 7C       		.byte	0x7c
 2486 0c2c AF0C0000 		.4byte	0xcaf
 2487 0c30 06       		.uleb128 0x6
 2488 0c31 69000000 		.4byte	.LASF211
 2489 0c35 0D       		.byte	0xd
 2490 0c36 7D       		.byte	0x7d
 2491 0c37 27050000 		.4byte	0x527
 2492 0c3b 02       		.byte	0x2
 2493 0c3c 23       		.byte	0x23
 2494 0c3d 00       		.uleb128 0
 2495 0c3e 06       		.uleb128 0x6
 2496 0c3f F2050000 		.4byte	.LASF212
 2497 0c43 0D       		.byte	0xd
 2498 0c44 7D       		.byte	0x7d
 2499 0c45 47050000 		.4byte	0x547
 2500 0c49 02       		.byte	0x2
 2501 0c4a 23       		.byte	0x23
 2502 0c4b 04       		.uleb128 0x4
 2503 0c4c 06       		.uleb128 0x6
 2504 0c4d 6F030000 		.4byte	.LASF213
 2505 0c51 0D       		.byte	0xd
 2506 0c52 7D       		.byte	0x7d
 2507 0c53 5D050000 		.4byte	0x55d
 2508 0c57 02       		.byte	0x2
 2509 0c58 23       		.byte	0x23
 2510 0c59 08       		.uleb128 0x8
 2511 0c5a 06       		.uleb128 0x6
 2512 0c5b F9060000 		.4byte	.LASF214
 2513 0c5f 0D       		.byte	0xd
 2514 0c60 7D       		.byte	0x7d
 2515 0c61 5D050000 		.4byte	0x55d
 2516 0c65 02       		.byte	0x2
 2517 0c66 23       		.byte	0x23
 2518 0c67 0C       		.uleb128 0xc
 2519 0c68 07       		.uleb128 0x7
 2520 0c69 70757400 		.ascii	"put\000"
 2521 0c6d 0D       		.byte	0xd
 2522 0c6e 7D       		.byte	0x7d
 2523 0c6f 7D050000 		.4byte	0x57d
 2524 0c73 02       		.byte	0x2
 2525 0c74 23       		.byte	0x23
 2526 0c75 10       		.uleb128 0x10
 2527 0c76 07       		.uleb128 0x7
 2528 0c77 67657400 		.ascii	"get\000"
 2529 0c7b 0D       		.byte	0xd
 2530 0c7c 7D       		.byte	0x7d
 2531 0c7d 98050000 		.4byte	0x598
 2532 0c81 02       		.byte	0x2
 2533 0c82 23       		.byte	0x23
 2534 0c83 14       		.uleb128 0x14
 2535 0c84 06       		.uleb128 0x6
 2536 0c85 5D000000 		.4byte	.LASF215
 2537 0c89 0D       		.byte	0xd
 2538 0c8a 7D       		.byte	0x7d
 2539 0c8b BD050000 		.4byte	0x5bd
ARM GAS  /tmp/ccxqq0Hi.s 			page 46


 2540 0c8f 02       		.byte	0x2
 2541 0c90 23       		.byte	0x23
 2542 0c91 18       		.uleb128 0x18
 2543 0c92 06       		.uleb128 0x6
 2544 0c93 44010000 		.4byte	.LASF216
 2545 0c97 0D       		.byte	0xd
 2546 0c98 7D       		.byte	0x7d
 2547 0c99 E2050000 		.4byte	0x5e2
 2548 0c9d 02       		.byte	0x2
 2549 0c9e 23       		.byte	0x23
 2550 0c9f 1C       		.uleb128 0x1c
 2551 0ca0 06       		.uleb128 0x6
 2552 0ca1 0D090000 		.4byte	.LASF217
 2553 0ca5 0D       		.byte	0xd
 2554 0ca6 7D       		.byte	0x7d
 2555 0ca7 04060000 		.4byte	0x604
 2556 0cab 02       		.byte	0x2
 2557 0cac 23       		.byte	0x23
 2558 0cad 20       		.uleb128 0x20
 2559 0cae 00       		.byte	0
 2560 0caf 09       		.uleb128 0x9
 2561 0cb0 04       		.byte	0x4
 2562 0cb1 B50C0000 		.4byte	0xcb5
 2563 0cb5 10       		.uleb128 0x10
 2564 0cb6 240C0000 		.4byte	0xc24
 2565 0cba 17       		.uleb128 0x17
 2566 0cbb 45000000 		.4byte	0x45
 2567 0cbf CA0C0000 		.4byte	0xcca
 2568 0cc3 18       		.uleb128 0x18
 2569 0cc4 37000000 		.4byte	0x37
 2570 0cc8 0F       		.byte	0xf
 2571 0cc9 00       		.byte	0
 2572 0cca 09       		.uleb128 0x9
 2573 0ccb 04       		.byte	0x4
 2574 0ccc 120B0000 		.4byte	0xb12
 2575 0cd0 1C       		.uleb128 0x1c
 2576 0cd1 D0000000 		.4byte	.LASF218
 2577 0cd5 01       		.byte	0x1
 2578 0cd6 95       		.byte	0x95
 2579 0cd7 01       		.byte	0x1
 2580 0cd8 01       		.byte	0x1
 2581 0cd9 1C0D0000 		.4byte	0xd1c
 2582 0cdd 1D       		.uleb128 0x1d
 2583 0cde 73647000 		.ascii	"sdp\000"
 2584 0ce2 01       		.byte	0x1
 2585 0ce3 95       		.byte	0x95
 2586 0ce4 1C0D0000 		.4byte	0xd1c
 2587 0ce8 1D       		.uleb128 0x1d
 2588 0ce9 737200   		.ascii	"sr\000"
 2589 0cec 01       		.byte	0x1
 2590 0ced 95       		.byte	0x95
 2591 0cee 5E000000 		.4byte	0x5e
 2592 0cf2 1E       		.uleb128 0x1e
 2593 0cf3 73747300 		.ascii	"sts\000"
 2594 0cf7 01       		.byte	0x1
 2595 0cf8 96       		.byte	0x96
 2596 0cf9 E8050000 		.4byte	0x5e8
ARM GAS  /tmp/ccxqq0Hi.s 			page 47


 2597 0cfd 1F       		.uleb128 0x1f
 2598 0cfe 0E0D0000 		.4byte	0xd0e
 2599 0d02 1E       		.uleb128 0x1e
 2600 0d03 746D7000 		.ascii	"tmp\000"
 2601 0d07 01       		.byte	0x1
 2602 0d08 A0       		.byte	0xa0
 2603 0d09 82000000 		.4byte	0x82
 2604 0d0d 00       		.byte	0
 2605 0d0e 20       		.uleb128 0x20
 2606 0d0f 1E       		.uleb128 0x1e
 2607 0d10 746D7000 		.ascii	"tmp\000"
 2608 0d14 01       		.byte	0x1
 2609 0d15 A2       		.byte	0xa2
 2610 0d16 82000000 		.4byte	0x82
 2611 0d1a 00       		.byte	0
 2612 0d1b 00       		.byte	0
 2613 0d1c 09       		.uleb128 0x9
 2614 0d1d 04       		.byte	0x4
 2615 0d1e 440B0000 		.4byte	0xb44
 2616 0d22 1C       		.uleb128 0x1c
 2617 0d23 34070000 		.4byte	.LASF219
 2618 0d27 01       		.byte	0x1
 2619 0d28 63       		.byte	0x63
 2620 0d29 01       		.byte	0x1
 2621 0d2a 01       		.byte	0x1
 2622 0d2b 4F0D0000 		.4byte	0xd4f
 2623 0d2f 1D       		.uleb128 0x1d
 2624 0d30 73647000 		.ascii	"sdp\000"
 2625 0d34 01       		.byte	0x1
 2626 0d35 63       		.byte	0x63
 2627 0d36 1C0D0000 		.4byte	0xd1c
 2628 0d3a 21       		.uleb128 0x21
 2629 0d3b A9000000 		.4byte	.LASF220
 2630 0d3f 01       		.byte	0x1
 2631 0d40 63       		.byte	0x63
 2632 0d41 4F0D0000 		.4byte	0xd4f
 2633 0d45 1E       		.uleb128 0x1e
 2634 0d46 7500     		.ascii	"u\000"
 2635 0d48 01       		.byte	0x1
 2636 0d49 64       		.byte	0x64
 2637 0d4a CA0C0000 		.4byte	0xcca
 2638 0d4e 00       		.byte	0
 2639 0d4f 09       		.uleb128 0x9
 2640 0d50 04       		.byte	0x4
 2641 0d51 550D0000 		.4byte	0xd55
 2642 0d55 10       		.uleb128 0x10
 2643 0d56 190C0000 		.4byte	0xc19
 2644 0d5a 1C       		.uleb128 0x1c
 2645 0d5b BB040000 		.4byte	.LASF221
 2646 0d5f 01       		.byte	0x1
 2647 0d60 85       		.byte	0x85
 2648 0d61 01       		.byte	0x1
 2649 0d62 01       		.byte	0x1
 2650 0d63 710D0000 		.4byte	0xd71
 2651 0d67 1D       		.uleb128 0x1d
 2652 0d68 7500     		.ascii	"u\000"
 2653 0d6a 01       		.byte	0x1
ARM GAS  /tmp/ccxqq0Hi.s 			page 48


 2654 0d6b 85       		.byte	0x85
 2655 0d6c CA0C0000 		.4byte	0xcca
 2656 0d70 00       		.byte	0
 2657 0d71 22       		.uleb128 0x22
 2658 0d72 8F080000 		.4byte	.LASF222
 2659 0d76 01       		.byte	0x1
 2660 0d77 D9       		.byte	0xd9
 2661 0d78 01       		.byte	0x1
 2662 0d79 00000000 		.4byte	.LFB121
 2663 0d7d 14000000 		.4byte	.LFE121
 2664 0d81 02       		.byte	0x2
 2665 0d82 7D       		.byte	0x7d
 2666 0d83 00       		.sleb128 0
 2667 0d84 970D0000 		.4byte	0xd97
 2668 0d88 23       		.uleb128 0x23
 2669 0d89 717000   		.ascii	"qp\000"
 2670 0d8c 01       		.byte	0x1
 2671 0d8d D9       		.byte	0xd9
 2672 0d8e E0040000 		.4byte	0x4e0
 2673 0d92 00000000 		.4byte	.LLST0
 2674 0d96 00       		.byte	0
 2675 0d97 22       		.uleb128 0x22
 2676 0d98 97080000 		.4byte	.LASF223
 2677 0d9c 01       		.byte	0x1
 2678 0d9d E1       		.byte	0xe1
 2679 0d9e 01       		.byte	0x1
 2680 0d9f 00000000 		.4byte	.LFB122
 2681 0da3 14000000 		.4byte	.LFE122
 2682 0da7 02       		.byte	0x2
 2683 0da8 7D       		.byte	0x7d
 2684 0da9 00       		.sleb128 0
 2685 0daa BD0D0000 		.4byte	0xdbd
 2686 0dae 23       		.uleb128 0x23
 2687 0daf 717000   		.ascii	"qp\000"
 2688 0db2 01       		.byte	0x1
 2689 0db3 E1       		.byte	0xe1
 2690 0db4 E0040000 		.4byte	0x4e0
 2691 0db8 13000000 		.4byte	.LLST1
 2692 0dbc 00       		.byte	0
 2693 0dbd 22       		.uleb128 0x22
 2694 0dbe 9F080000 		.4byte	.LASF224
 2695 0dc2 01       		.byte	0x1
 2696 0dc3 E9       		.byte	0xe9
 2697 0dc4 01       		.byte	0x1
 2698 0dc5 00000000 		.4byte	.LFB123
 2699 0dc9 14000000 		.4byte	.LFE123
 2700 0dcd 02       		.byte	0x2
 2701 0dce 7D       		.byte	0x7d
 2702 0dcf 00       		.sleb128 0
 2703 0dd0 E30D0000 		.4byte	0xde3
 2704 0dd4 23       		.uleb128 0x23
 2705 0dd5 717000   		.ascii	"qp\000"
 2706 0dd8 01       		.byte	0x1
 2707 0dd9 E9       		.byte	0xe9
 2708 0dda E0040000 		.4byte	0x4e0
 2709 0dde 26000000 		.4byte	.LLST2
 2710 0de2 00       		.byte	0
ARM GAS  /tmp/ccxqq0Hi.s 			page 49


 2711 0de3 24       		.uleb128 0x24
 2712 0de4 C0000000 		.4byte	.LASF225
 2713 0de8 01       		.byte	0x1
 2714 0de9 AA       		.byte	0xaa
 2715 0dea 01       		.byte	0x1
 2716 0deb 00000000 		.4byte	.LFB120
 2717 0def 1E010000 		.4byte	.LFE120
 2718 0df3 39000000 		.4byte	.LLST3
 2719 0df7 9B0F0000 		.4byte	0xf9b
 2720 0dfb 23       		.uleb128 0x23
 2721 0dfc 73647000 		.ascii	"sdp\000"
 2722 0e00 01       		.byte	0x1
 2723 0e01 AA       		.byte	0xaa
 2724 0e02 1C0D0000 		.4byte	0xd1c
 2725 0e06 59000000 		.4byte	.LLST4
 2726 0e0a 25       		.uleb128 0x25
 2727 0e0b 7500     		.ascii	"u\000"
 2728 0e0d 01       		.byte	0x1
 2729 0e0e AB       		.byte	0xab
 2730 0e0f CA0C0000 		.4byte	0xcca
 2731 0e13 77000000 		.4byte	.LLST5
 2732 0e17 26       		.uleb128 0x26
 2733 0e18 63723100 		.ascii	"cr1\000"
 2734 0e1c 01       		.byte	0x1
 2735 0e1d AC       		.byte	0xac
 2736 0e1e 5E000000 		.4byte	0x5e
 2737 0e22 01       		.byte	0x1
 2738 0e23 57       		.byte	0x57
 2739 0e24 26       		.uleb128 0x26
 2740 0e25 737200   		.ascii	"sr\000"
 2741 0e28 01       		.byte	0x1
 2742 0e29 AD       		.byte	0xad
 2743 0e2a 5E000000 		.4byte	0x5e
 2744 0e2e 01       		.byte	0x1
 2745 0e2f 54       		.byte	0x54
 2746 0e30 26       		.uleb128 0x26
 2747 0e31 647200   		.ascii	"dr\000"
 2748 0e34 01       		.byte	0x1
 2749 0e35 AE       		.byte	0xae
 2750 0e36 5E000000 		.4byte	0x5e
 2751 0e3a 01       		.byte	0x1
 2752 0e3b 58       		.byte	0x58
 2753 0e3c 27       		.uleb128 0x27
 2754 0e3d D00C0000 		.4byte	0xcd0
 2755 0e41 18000000 		.4byte	.LBB19
 2756 0e45 56000000 		.4byte	.LBE19
 2757 0e49 01       		.byte	0x1
 2758 0e4a B2       		.byte	0xb2
 2759 0e4b 9F0E0000 		.4byte	0xe9f
 2760 0e4f 28       		.uleb128 0x28
 2761 0e50 E80C0000 		.4byte	0xce8
 2762 0e54 A4000000 		.4byte	.LLST6
 2763 0e58 28       		.uleb128 0x28
 2764 0e59 DD0C0000 		.4byte	0xcdd
 2765 0e5d B7000000 		.4byte	.LLST7
 2766 0e61 29       		.uleb128 0x29
 2767 0e62 18000000 		.4byte	.LBB20
ARM GAS  /tmp/ccxqq0Hi.s 			page 50


 2768 0e66 56000000 		.4byte	.LBE20
 2769 0e6a 2A       		.uleb128 0x2a
 2770 0e6b F20C0000 		.4byte	0xcf2
 2771 0e6f D5000000 		.4byte	.LLST8
 2772 0e73 2B       		.uleb128 0x2b
 2773 0e74 3A000000 		.4byte	.LBB21
 2774 0e78 40000000 		.4byte	.LBE21
 2775 0e7c 8A0E0000 		.4byte	0xe8a
 2776 0e80 2A       		.uleb128 0x2a
 2777 0e81 020D0000 		.4byte	0xd02
 2778 0e85 F4000000 		.4byte	.LLST9
 2779 0e89 00       		.byte	0
 2780 0e8a 29       		.uleb128 0x29
 2781 0e8b 50000000 		.4byte	.LBB22
 2782 0e8f 56000000 		.4byte	.LBE22
 2783 0e93 2A       		.uleb128 0x2a
 2784 0e94 0F0D0000 		.4byte	0xd0f
 2785 0e98 07010000 		.4byte	.LLST10
 2786 0e9c 00       		.byte	0
 2787 0e9d 00       		.byte	0
 2788 0e9e 00       		.byte	0
 2789 0e9f 2B       		.uleb128 0x2b
 2790 0ea0 6A000000 		.4byte	.LBB23
 2791 0ea4 70000000 		.4byte	.LBE23
 2792 0ea8 BC0E0000 		.4byte	0xebc
 2793 0eac 25       		.uleb128 0x25
 2794 0ead 746D7000 		.ascii	"tmp\000"
 2795 0eb1 01       		.byte	0x1
 2796 0eb2 CF       		.byte	0xcf
 2797 0eb3 82000000 		.4byte	0x82
 2798 0eb7 1A010000 		.4byte	.LLST11
 2799 0ebb 00       		.byte	0
 2800 0ebc 2B       		.uleb128 0x2b
 2801 0ebd 80000000 		.4byte	.LBB24
 2802 0ec1 86000000 		.4byte	.LBE24
 2803 0ec5 D90E0000 		.4byte	0xed9
 2804 0ec9 25       		.uleb128 0x25
 2805 0eca 746D7000 		.ascii	"tmp\000"
 2806 0ece 01       		.byte	0x1
 2807 0ecf D1       		.byte	0xd1
 2808 0ed0 82000000 		.4byte	0x82
 2809 0ed4 2D010000 		.4byte	.LLST12
 2810 0ed8 00       		.byte	0
 2811 0ed9 2B       		.uleb128 0x2b
 2812 0eda A0000000 		.4byte	.LBB25
 2813 0ede A6000000 		.4byte	.LBE25
 2814 0ee2 F60E0000 		.4byte	0xef6
 2815 0ee6 25       		.uleb128 0x25
 2816 0ee7 746D7000 		.ascii	"tmp\000"
 2817 0eeb 01       		.byte	0x1
 2818 0eec BC       		.byte	0xbc
 2819 0eed 82000000 		.4byte	0x82
 2820 0ef1 40010000 		.4byte	.LLST13
 2821 0ef5 00       		.byte	0
 2822 0ef6 2B       		.uleb128 0x2b
 2823 0ef7 B0000000 		.4byte	.LBB26
 2824 0efb B8000000 		.4byte	.LBE26
ARM GAS  /tmp/ccxqq0Hi.s 			page 51


 2825 0eff 130F0000 		.4byte	0xf13
 2826 0f03 25       		.uleb128 0x25
 2827 0f04 746D7000 		.ascii	"tmp\000"
 2828 0f08 01       		.byte	0x1
 2829 0f09 BE       		.byte	0xbe
 2830 0f0a 82000000 		.4byte	0x82
 2831 0f0e 53010000 		.4byte	.LLST14
 2832 0f12 00       		.byte	0
 2833 0f13 2B       		.uleb128 0x2b
 2834 0f14 B8000000 		.4byte	.LBB27
 2835 0f18 BE000000 		.4byte	.LBE27
 2836 0f1c 300F0000 		.4byte	0xf30
 2837 0f20 25       		.uleb128 0x25
 2838 0f21 746D7000 		.ascii	"tmp\000"
 2839 0f25 01       		.byte	0x1
 2840 0f26 B5       		.byte	0xb5
 2841 0f27 82000000 		.4byte	0x82
 2842 0f2b 7C010000 		.4byte	.LLST15
 2843 0f2f 00       		.byte	0
 2844 0f30 2B       		.uleb128 0x2b
 2845 0f31 CE000000 		.4byte	.LBB28
 2846 0f35 D4000000 		.4byte	.LBE28
 2847 0f39 4D0F0000 		.4byte	0xf4d
 2848 0f3d 25       		.uleb128 0x25
 2849 0f3e 746D7000 		.ascii	"tmp\000"
 2850 0f42 01       		.byte	0x1
 2851 0f43 B7       		.byte	0xb7
 2852 0f44 82000000 		.4byte	0x82
 2853 0f48 8F010000 		.4byte	.LLST16
 2854 0f4c 00       		.byte	0
 2855 0f4d 29       		.uleb128 0x29
 2856 0f4e E4000000 		.4byte	.LBB29
 2857 0f52 1E010000 		.4byte	.LBE29
 2858 0f56 25       		.uleb128 0x25
 2859 0f57 6200     		.ascii	"b\000"
 2860 0f59 01       		.byte	0x1
 2861 0f5a C2       		.byte	0xc2
 2862 0f5b E4000000 		.4byte	0xe4
 2863 0f5f B8010000 		.4byte	.LLST17
 2864 0f63 2B       		.uleb128 0x2b
 2865 0f64 E4000000 		.4byte	.LBB30
 2866 0f68 EA000000 		.4byte	.LBE30
 2867 0f6c 800F0000 		.4byte	0xf80
 2868 0f70 25       		.uleb128 0x25
 2869 0f71 746D7000 		.ascii	"tmp\000"
 2870 0f75 01       		.byte	0x1
 2871 0f76 C3       		.byte	0xc3
 2872 0f77 82000000 		.4byte	0x82
 2873 0f7b D6010000 		.4byte	.LLST18
 2874 0f7f 00       		.byte	0
 2875 0f80 29       		.uleb128 0x29
 2876 0f81 FA000000 		.4byte	.LBB31
 2877 0f85 02010000 		.4byte	.LBE31
 2878 0f89 25       		.uleb128 0x25
 2879 0f8a 746D7000 		.ascii	"tmp\000"
 2880 0f8e 01       		.byte	0x1
 2881 0f8f CB       		.byte	0xcb
ARM GAS  /tmp/ccxqq0Hi.s 			page 52


 2882 0f90 82000000 		.4byte	0x82
 2883 0f94 E9010000 		.4byte	.LLST19
 2884 0f98 00       		.byte	0
 2885 0f99 00       		.byte	0
 2886 0f9a 00       		.byte	0
 2887 0f9b 2C       		.uleb128 0x2c
 2888 0f9c 01       		.byte	0x1
 2889 0f9d 63090000 		.4byte	.LASF226
 2890 0fa1 01       		.byte	0x1
 2891 0fa2 1201     		.2byte	0x112
 2892 0fa4 01       		.byte	0x1
 2893 0fa5 00000000 		.4byte	.LFB124
 2894 0fa9 16000000 		.4byte	.LFE124
 2895 0fad 07020000 		.4byte	.LLST20
 2896 0fb1 2C       		.uleb128 0x2c
 2897 0fb2 01       		.byte	0x1
 2898 0fb3 81000000 		.4byte	.LASF227
 2899 0fb7 01       		.byte	0x1
 2900 0fb8 2201     		.2byte	0x122
 2901 0fba 01       		.byte	0x1
 2902 0fbb 00000000 		.4byte	.LFB125
 2903 0fbf 16000000 		.4byte	.LFE125
 2904 0fc3 27020000 		.4byte	.LLST21
 2905 0fc7 2C       		.uleb128 0x2c
 2906 0fc8 01       		.byte	0x1
 2907 0fc9 95090000 		.4byte	.LASF228
 2908 0fcd 01       		.byte	0x1
 2909 0fce 3201     		.2byte	0x132
 2910 0fd0 01       		.byte	0x1
 2911 0fd1 00000000 		.4byte	.LFB126
 2912 0fd5 16000000 		.4byte	.LFE126
 2913 0fd9 47020000 		.4byte	.LLST22
 2914 0fdd 2C       		.uleb128 0x2c
 2915 0fde 01       		.byte	0x1
 2916 0fdf E3040000 		.4byte	.LASF229
 2917 0fe3 01       		.byte	0x1
 2918 0fe4 7501     		.2byte	0x175
 2919 0fe6 01       		.byte	0x1
 2920 0fe7 00000000 		.4byte	.LFB127
 2921 0feb 6A000000 		.4byte	.LFE127
 2922 0fef 67020000 		.4byte	.LLST23
 2923 0ff3 2D       		.uleb128 0x2d
 2924 0ff4 01       		.byte	0x1
 2925 0ff5 4A010000 		.4byte	.LASF230
 2926 0ff9 01       		.byte	0x1
 2927 0ffa A001     		.2byte	0x1a0
 2928 0ffc 01       		.byte	0x1
 2929 0ffd 00000000 		.4byte	.LFB128
 2930 1001 08010000 		.4byte	.LFE128
 2931 1005 87020000 		.4byte	.LLST24
 2932 1009 5C100000 		.4byte	0x105c
 2933 100d 2E       		.uleb128 0x2e
 2934 100e 73647000 		.ascii	"sdp\000"
 2935 1012 01       		.byte	0x1
 2936 1013 A001     		.2byte	0x1a0
 2937 1015 1C0D0000 		.4byte	0xd1c
 2938 1019 A7020000 		.4byte	.LLST25
ARM GAS  /tmp/ccxqq0Hi.s 			page 53


 2939 101d 2F       		.uleb128 0x2f
 2940 101e A9000000 		.4byte	.LASF220
 2941 1022 01       		.byte	0x1
 2942 1023 A001     		.2byte	0x1a0
 2943 1025 4F0D0000 		.4byte	0xd4f
 2944 1029 C5020000 		.4byte	.LLST26
 2945 102d 30       		.uleb128 0x30
 2946 102e 220D0000 		.4byte	0xd22
 2947 1032 18000000 		.4byte	.LBB32
 2948 1036 00000000 		.4byte	.Ldebug_ranges0+0
 2949 103a 01       		.byte	0x1
 2950 103b D101     		.2byte	0x1d1
 2951 103d 31       		.uleb128 0x31
 2952 103e 3A0D0000 		.4byte	0xd3a
 2953 1042 28       		.uleb128 0x28
 2954 1043 2F0D0000 		.4byte	0xd2f
 2955 1047 E3020000 		.4byte	.LLST27
 2956 104b 32       		.uleb128 0x32
 2957 104c 18000000 		.4byte	.Ldebug_ranges0+0x18
 2958 1050 2A       		.uleb128 0x2a
 2959 1051 450D0000 		.4byte	0xd45
 2960 1055 F6020000 		.4byte	.LLST28
 2961 1059 00       		.byte	0
 2962 105a 00       		.byte	0
 2963 105b 00       		.byte	0
 2964 105c 33       		.uleb128 0x33
 2965 105d 01       		.byte	0x1
 2966 105e D0090000 		.4byte	.LASF231
 2967 1062 01       		.byte	0x1
 2968 1063 DD01     		.2byte	0x1dd
 2969 1065 01       		.byte	0x1
 2970 1066 00000000 		.4byte	.LFB129
 2971 106a 80000000 		.4byte	.LFE129
 2972 106e 02       		.byte	0x2
 2973 106f 7D       		.byte	0x7d
 2974 1070 00       		.sleb128 0
 2975 1071 A0100000 		.4byte	0x10a0
 2976 1075 2E       		.uleb128 0x2e
 2977 1076 73647000 		.ascii	"sdp\000"
 2978 107a 01       		.byte	0x1
 2979 107b DD01     		.2byte	0x1dd
 2980 107d 1C0D0000 		.4byte	0xd1c
 2981 1081 0B030000 		.4byte	.LLST29
 2982 1085 30       		.uleb128 0x30
 2983 1086 5A0D0000 		.4byte	0xd5a
 2984 108a 12000000 		.4byte	.LBB36
 2985 108e 30000000 		.4byte	.Ldebug_ranges0+0x30
 2986 1092 01       		.byte	0x1
 2987 1093 E001     		.2byte	0x1e0
 2988 1095 28       		.uleb128 0x28
 2989 1096 670D0000 		.4byte	0xd67
 2990 109a 3F030000 		.4byte	.LLST30
 2991 109e 00       		.byte	0
 2992 109f 00       		.byte	0
 2993 10a0 34       		.uleb128 0x34
 2994 10a1 90010000 		.4byte	.LASF232
 2995 10a5 01       		.byte	0x1
ARM GAS  /tmp/ccxqq0Hi.s 			page 54


 2996 10a6 50       		.byte	0x50
 2997 10a7 550D0000 		.4byte	0xd55
 2998 10ab 05       		.byte	0x5
 2999 10ac 03       		.byte	0x3
 3000 10ad 00000000 		.4byte	default_config
 3001 10b1 35       		.uleb128 0x35
 3002 10b2 00090000 		.4byte	.LASF233
 3003 10b6 0F       		.byte	0xf
 3004 10b7 1A05     		.2byte	0x51a
 3005 10b9 5A080000 		.4byte	0x85a
 3006 10bd 01       		.byte	0x1
 3007 10be 01       		.byte	0x1
 3008 10bf 36       		.uleb128 0x36
 3009 10c0 53443100 		.ascii	"SD1\000"
 3010 10c4 01       		.byte	0x1
 3011 10c5 2F       		.byte	0x2f
 3012 10c6 440B0000 		.4byte	0xb44
 3013 10ca 01       		.byte	0x1
 3014 10cb 05       		.byte	0x5
 3015 10cc 03       		.byte	0x3
 3016 10cd 00000000 		.4byte	SD1
 3017 10d1 36       		.uleb128 0x36
 3018 10d2 53443200 		.ascii	"SD2\000"
 3019 10d6 01       		.byte	0x1
 3020 10d7 34       		.byte	0x34
 3021 10d8 440B0000 		.4byte	0xb44
 3022 10dc 01       		.byte	0x1
 3023 10dd 05       		.byte	0x5
 3024 10de 03       		.byte	0x3
 3025 10df 00000000 		.4byte	SD2
 3026 10e3 36       		.uleb128 0x36
 3027 10e4 53443300 		.ascii	"SD3\000"
 3028 10e8 01       		.byte	0x1
 3029 10e9 39       		.byte	0x39
 3030 10ea 440B0000 		.4byte	0xb44
 3031 10ee 01       		.byte	0x1
 3032 10ef 05       		.byte	0x5
 3033 10f0 03       		.byte	0x3
 3034 10f1 00000000 		.4byte	SD3
 3035 10f5 00       		.byte	0
 3036              		.section	.debug_abbrev,"",%progbits
 3037              	.Ldebug_abbrev0:
 3038 0000 01       		.uleb128 0x1
 3039 0001 11       		.uleb128 0x11
 3040 0002 01       		.byte	0x1
 3041 0003 25       		.uleb128 0x25
 3042 0004 0E       		.uleb128 0xe
 3043 0005 13       		.uleb128 0x13
 3044 0006 0B       		.uleb128 0xb
 3045 0007 03       		.uleb128 0x3
 3046 0008 0E       		.uleb128 0xe
 3047 0009 11       		.uleb128 0x11
 3048 000a 01       		.uleb128 0x1
 3049 000b 52       		.uleb128 0x52
 3050 000c 01       		.uleb128 0x1
 3051 000d 55       		.uleb128 0x55
 3052 000e 06       		.uleb128 0x6
ARM GAS  /tmp/ccxqq0Hi.s 			page 55


 3053 000f 10       		.uleb128 0x10
 3054 0010 06       		.uleb128 0x6
 3055 0011 00       		.byte	0
 3056 0012 00       		.byte	0
 3057 0013 02       		.uleb128 0x2
 3058 0014 24       		.uleb128 0x24
 3059 0015 00       		.byte	0
 3060 0016 0B       		.uleb128 0xb
 3061 0017 0B       		.uleb128 0xb
 3062 0018 3E       		.uleb128 0x3e
 3063 0019 0B       		.uleb128 0xb
 3064 001a 03       		.uleb128 0x3
 3065 001b 08       		.uleb128 0x8
 3066 001c 00       		.byte	0
 3067 001d 00       		.byte	0
 3068 001e 03       		.uleb128 0x3
 3069 001f 16       		.uleb128 0x16
 3070 0020 00       		.byte	0
 3071 0021 03       		.uleb128 0x3
 3072 0022 0E       		.uleb128 0xe
 3073 0023 3A       		.uleb128 0x3a
 3074 0024 0B       		.uleb128 0xb
 3075 0025 3B       		.uleb128 0x3b
 3076 0026 0B       		.uleb128 0xb
 3077 0027 49       		.uleb128 0x49
 3078 0028 13       		.uleb128 0x13
 3079 0029 00       		.byte	0
 3080 002a 00       		.byte	0
 3081 002b 04       		.uleb128 0x4
 3082 002c 24       		.uleb128 0x24
 3083 002d 00       		.byte	0
 3084 002e 0B       		.uleb128 0xb
 3085 002f 0B       		.uleb128 0xb
 3086 0030 3E       		.uleb128 0x3e
 3087 0031 0B       		.uleb128 0xb
 3088 0032 03       		.uleb128 0x3
 3089 0033 0E       		.uleb128 0xe
 3090 0034 00       		.byte	0
 3091 0035 00       		.byte	0
 3092 0036 05       		.uleb128 0x5
 3093 0037 13       		.uleb128 0x13
 3094 0038 01       		.byte	0x1
 3095 0039 03       		.uleb128 0x3
 3096 003a 0E       		.uleb128 0xe
 3097 003b 0B       		.uleb128 0xb
 3098 003c 0B       		.uleb128 0xb
 3099 003d 3A       		.uleb128 0x3a
 3100 003e 0B       		.uleb128 0xb
 3101 003f 3B       		.uleb128 0x3b
 3102 0040 0B       		.uleb128 0xb
 3103 0041 01       		.uleb128 0x1
 3104 0042 13       		.uleb128 0x13
 3105 0043 00       		.byte	0
 3106 0044 00       		.byte	0
 3107 0045 06       		.uleb128 0x6
 3108 0046 0D       		.uleb128 0xd
 3109 0047 00       		.byte	0
ARM GAS  /tmp/ccxqq0Hi.s 			page 56


 3110 0048 03       		.uleb128 0x3
 3111 0049 0E       		.uleb128 0xe
 3112 004a 3A       		.uleb128 0x3a
 3113 004b 0B       		.uleb128 0xb
 3114 004c 3B       		.uleb128 0x3b
 3115 004d 0B       		.uleb128 0xb
 3116 004e 49       		.uleb128 0x49
 3117 004f 13       		.uleb128 0x13
 3118 0050 38       		.uleb128 0x38
 3119 0051 0A       		.uleb128 0xa
 3120 0052 00       		.byte	0
 3121 0053 00       		.byte	0
 3122 0054 07       		.uleb128 0x7
 3123 0055 0D       		.uleb128 0xd
 3124 0056 00       		.byte	0
 3125 0057 03       		.uleb128 0x3
 3126 0058 08       		.uleb128 0x8
 3127 0059 3A       		.uleb128 0x3a
 3128 005a 0B       		.uleb128 0xb
 3129 005b 3B       		.uleb128 0x3b
 3130 005c 0B       		.uleb128 0xb
 3131 005d 49       		.uleb128 0x49
 3132 005e 13       		.uleb128 0x13
 3133 005f 38       		.uleb128 0x38
 3134 0060 0A       		.uleb128 0xa
 3135 0061 00       		.byte	0
 3136 0062 00       		.byte	0
 3137 0063 08       		.uleb128 0x8
 3138 0064 13       		.uleb128 0x13
 3139 0065 01       		.byte	0x1
 3140 0066 0B       		.uleb128 0xb
 3141 0067 0B       		.uleb128 0xb
 3142 0068 3A       		.uleb128 0x3a
 3143 0069 0B       		.uleb128 0xb
 3144 006a 3B       		.uleb128 0x3b
 3145 006b 0B       		.uleb128 0xb
 3146 006c 01       		.uleb128 0x1
 3147 006d 13       		.uleb128 0x13
 3148 006e 00       		.byte	0
 3149 006f 00       		.byte	0
 3150 0070 09       		.uleb128 0x9
 3151 0071 0F       		.uleb128 0xf
 3152 0072 00       		.byte	0
 3153 0073 0B       		.uleb128 0xb
 3154 0074 0B       		.uleb128 0xb
 3155 0075 49       		.uleb128 0x49
 3156 0076 13       		.uleb128 0x13
 3157 0077 00       		.byte	0
 3158 0078 00       		.byte	0
 3159 0079 0A       		.uleb128 0xa
 3160 007a 0F       		.uleb128 0xf
 3161 007b 00       		.byte	0
 3162 007c 0B       		.uleb128 0xb
 3163 007d 0B       		.uleb128 0xb
 3164 007e 00       		.byte	0
 3165 007f 00       		.byte	0
 3166 0080 0B       		.uleb128 0xb
ARM GAS  /tmp/ccxqq0Hi.s 			page 57


 3167 0081 0D       		.uleb128 0xd
 3168 0082 00       		.byte	0
 3169 0083 03       		.uleb128 0x3
 3170 0084 08       		.uleb128 0x8
 3171 0085 3A       		.uleb128 0x3a
 3172 0086 0B       		.uleb128 0xb
 3173 0087 3B       		.uleb128 0x3b
 3174 0088 05       		.uleb128 0x5
 3175 0089 49       		.uleb128 0x49
 3176 008a 13       		.uleb128 0x13
 3177 008b 38       		.uleb128 0x38
 3178 008c 0A       		.uleb128 0xa
 3179 008d 00       		.byte	0
 3180 008e 00       		.byte	0
 3181 008f 0C       		.uleb128 0xc
 3182 0090 13       		.uleb128 0x13
 3183 0091 01       		.byte	0x1
 3184 0092 03       		.uleb128 0x3
 3185 0093 0E       		.uleb128 0xe
 3186 0094 0B       		.uleb128 0xb
 3187 0095 0B       		.uleb128 0xb
 3188 0096 3A       		.uleb128 0x3a
 3189 0097 0B       		.uleb128 0xb
 3190 0098 3B       		.uleb128 0x3b
 3191 0099 05       		.uleb128 0x5
 3192 009a 01       		.uleb128 0x1
 3193 009b 13       		.uleb128 0x13
 3194 009c 00       		.byte	0
 3195 009d 00       		.byte	0
 3196 009e 0D       		.uleb128 0xd
 3197 009f 35       		.uleb128 0x35
 3198 00a0 00       		.byte	0
 3199 00a1 49       		.uleb128 0x49
 3200 00a2 13       		.uleb128 0x13
 3201 00a3 00       		.byte	0
 3202 00a4 00       		.byte	0
 3203 00a5 0E       		.uleb128 0xe
 3204 00a6 17       		.uleb128 0x17
 3205 00a7 01       		.byte	0x1
 3206 00a8 0B       		.uleb128 0xb
 3207 00a9 0B       		.uleb128 0xb
 3208 00aa 3A       		.uleb128 0x3a
 3209 00ab 0B       		.uleb128 0xb
 3210 00ac 3B       		.uleb128 0x3b
 3211 00ad 0B       		.uleb128 0xb
 3212 00ae 01       		.uleb128 0x1
 3213 00af 13       		.uleb128 0x13
 3214 00b0 00       		.byte	0
 3215 00b1 00       		.byte	0
 3216 00b2 0F       		.uleb128 0xf
 3217 00b3 0D       		.uleb128 0xd
 3218 00b4 00       		.byte	0
 3219 00b5 03       		.uleb128 0x3
 3220 00b6 0E       		.uleb128 0xe
 3221 00b7 3A       		.uleb128 0x3a
 3222 00b8 0B       		.uleb128 0xb
 3223 00b9 3B       		.uleb128 0x3b
ARM GAS  /tmp/ccxqq0Hi.s 			page 58


 3224 00ba 0B       		.uleb128 0xb
 3225 00bb 49       		.uleb128 0x49
 3226 00bc 13       		.uleb128 0x13
 3227 00bd 00       		.byte	0
 3228 00be 00       		.byte	0
 3229 00bf 10       		.uleb128 0x10
 3230 00c0 26       		.uleb128 0x26
 3231 00c1 00       		.byte	0
 3232 00c2 49       		.uleb128 0x49
 3233 00c3 13       		.uleb128 0x13
 3234 00c4 00       		.byte	0
 3235 00c5 00       		.byte	0
 3236 00c6 11       		.uleb128 0x11
 3237 00c7 15       		.uleb128 0x15
 3238 00c8 01       		.byte	0x1
 3239 00c9 27       		.uleb128 0x27
 3240 00ca 0C       		.uleb128 0xc
 3241 00cb 01       		.uleb128 0x1
 3242 00cc 13       		.uleb128 0x13
 3243 00cd 00       		.byte	0
 3244 00ce 00       		.byte	0
 3245 00cf 12       		.uleb128 0x12
 3246 00d0 05       		.uleb128 0x5
 3247 00d1 00       		.byte	0
 3248 00d2 49       		.uleb128 0x49
 3249 00d3 13       		.uleb128 0x13
 3250 00d4 00       		.byte	0
 3251 00d5 00       		.byte	0
 3252 00d6 13       		.uleb128 0x13
 3253 00d7 15       		.uleb128 0x15
 3254 00d8 01       		.byte	0x1
 3255 00d9 27       		.uleb128 0x27
 3256 00da 0C       		.uleb128 0xc
 3257 00db 49       		.uleb128 0x49
 3258 00dc 13       		.uleb128 0x13
 3259 00dd 01       		.uleb128 0x1
 3260 00de 13       		.uleb128 0x13
 3261 00df 00       		.byte	0
 3262 00e0 00       		.byte	0
 3263 00e1 14       		.uleb128 0x14
 3264 00e2 16       		.uleb128 0x16
 3265 00e3 00       		.byte	0
 3266 00e4 03       		.uleb128 0x3
 3267 00e5 0E       		.uleb128 0xe
 3268 00e6 3A       		.uleb128 0x3a
 3269 00e7 0B       		.uleb128 0xb
 3270 00e8 3B       		.uleb128 0x3b
 3271 00e9 05       		.uleb128 0x5
 3272 00ea 49       		.uleb128 0x49
 3273 00eb 13       		.uleb128 0x13
 3274 00ec 00       		.byte	0
 3275 00ed 00       		.byte	0
 3276 00ee 15       		.uleb128 0x15
 3277 00ef 04       		.uleb128 0x4
 3278 00f0 01       		.byte	0x1
 3279 00f1 03       		.uleb128 0x3
 3280 00f2 0E       		.uleb128 0xe
ARM GAS  /tmp/ccxqq0Hi.s 			page 59


 3281 00f3 0B       		.uleb128 0xb
 3282 00f4 0B       		.uleb128 0xb
 3283 00f5 3A       		.uleb128 0x3a
 3284 00f6 0B       		.uleb128 0xb
 3285 00f7 3B       		.uleb128 0x3b
 3286 00f8 0B       		.uleb128 0xb
 3287 00f9 01       		.uleb128 0x1
 3288 00fa 13       		.uleb128 0x13
 3289 00fb 00       		.byte	0
 3290 00fc 00       		.byte	0
 3291 00fd 16       		.uleb128 0x16
 3292 00fe 28       		.uleb128 0x28
 3293 00ff 00       		.byte	0
 3294 0100 03       		.uleb128 0x3
 3295 0101 0E       		.uleb128 0xe
 3296 0102 1C       		.uleb128 0x1c
 3297 0103 0D       		.uleb128 0xd
 3298 0104 00       		.byte	0
 3299 0105 00       		.byte	0
 3300 0106 17       		.uleb128 0x17
 3301 0107 01       		.uleb128 0x1
 3302 0108 01       		.byte	0x1
 3303 0109 49       		.uleb128 0x49
 3304 010a 13       		.uleb128 0x13
 3305 010b 01       		.uleb128 0x1
 3306 010c 13       		.uleb128 0x13
 3307 010d 00       		.byte	0
 3308 010e 00       		.byte	0
 3309 010f 18       		.uleb128 0x18
 3310 0110 21       		.uleb128 0x21
 3311 0111 00       		.byte	0
 3312 0112 49       		.uleb128 0x49
 3313 0113 13       		.uleb128 0x13
 3314 0114 2F       		.uleb128 0x2f
 3315 0115 0B       		.uleb128 0xb
 3316 0116 00       		.byte	0
 3317 0117 00       		.byte	0
 3318 0118 19       		.uleb128 0x19
 3319 0119 13       		.uleb128 0x13
 3320 011a 01       		.byte	0x1
 3321 011b 0B       		.uleb128 0xb
 3322 011c 0B       		.uleb128 0xb
 3323 011d 3A       		.uleb128 0x3a
 3324 011e 0B       		.uleb128 0xb
 3325 011f 3B       		.uleb128 0x3b
 3326 0120 05       		.uleb128 0x5
 3327 0121 01       		.uleb128 0x1
 3328 0122 13       		.uleb128 0x13
 3329 0123 00       		.byte	0
 3330 0124 00       		.byte	0
 3331 0125 1A       		.uleb128 0x1a
 3332 0126 0D       		.uleb128 0xd
 3333 0127 00       		.byte	0
 3334 0128 03       		.uleb128 0x3
 3335 0129 0E       		.uleb128 0xe
 3336 012a 3A       		.uleb128 0x3a
 3337 012b 0B       		.uleb128 0xb
ARM GAS  /tmp/ccxqq0Hi.s 			page 60


 3338 012c 3B       		.uleb128 0x3b
 3339 012d 05       		.uleb128 0x5
 3340 012e 49       		.uleb128 0x49
 3341 012f 13       		.uleb128 0x13
 3342 0130 38       		.uleb128 0x38
 3343 0131 0A       		.uleb128 0xa
 3344 0132 00       		.byte	0
 3345 0133 00       		.byte	0
 3346 0134 1B       		.uleb128 0x1b
 3347 0135 04       		.uleb128 0x4
 3348 0136 01       		.byte	0x1
 3349 0137 0B       		.uleb128 0xb
 3350 0138 0B       		.uleb128 0xb
 3351 0139 3A       		.uleb128 0x3a
 3352 013a 0B       		.uleb128 0xb
 3353 013b 3B       		.uleb128 0x3b
 3354 013c 0B       		.uleb128 0xb
 3355 013d 01       		.uleb128 0x1
 3356 013e 13       		.uleb128 0x13
 3357 013f 00       		.byte	0
 3358 0140 00       		.byte	0
 3359 0141 1C       		.uleb128 0x1c
 3360 0142 2E       		.uleb128 0x2e
 3361 0143 01       		.byte	0x1
 3362 0144 03       		.uleb128 0x3
 3363 0145 0E       		.uleb128 0xe
 3364 0146 3A       		.uleb128 0x3a
 3365 0147 0B       		.uleb128 0xb
 3366 0148 3B       		.uleb128 0x3b
 3367 0149 0B       		.uleb128 0xb
 3368 014a 27       		.uleb128 0x27
 3369 014b 0C       		.uleb128 0xc
 3370 014c 20       		.uleb128 0x20
 3371 014d 0B       		.uleb128 0xb
 3372 014e 01       		.uleb128 0x1
 3373 014f 13       		.uleb128 0x13
 3374 0150 00       		.byte	0
 3375 0151 00       		.byte	0
 3376 0152 1D       		.uleb128 0x1d
 3377 0153 05       		.uleb128 0x5
 3378 0154 00       		.byte	0
 3379 0155 03       		.uleb128 0x3
 3380 0156 08       		.uleb128 0x8
 3381 0157 3A       		.uleb128 0x3a
 3382 0158 0B       		.uleb128 0xb
 3383 0159 3B       		.uleb128 0x3b
 3384 015a 0B       		.uleb128 0xb
 3385 015b 49       		.uleb128 0x49
 3386 015c 13       		.uleb128 0x13
 3387 015d 00       		.byte	0
 3388 015e 00       		.byte	0
 3389 015f 1E       		.uleb128 0x1e
 3390 0160 34       		.uleb128 0x34
 3391 0161 00       		.byte	0
 3392 0162 03       		.uleb128 0x3
 3393 0163 08       		.uleb128 0x8
 3394 0164 3A       		.uleb128 0x3a
ARM GAS  /tmp/ccxqq0Hi.s 			page 61


 3395 0165 0B       		.uleb128 0xb
 3396 0166 3B       		.uleb128 0x3b
 3397 0167 0B       		.uleb128 0xb
 3398 0168 49       		.uleb128 0x49
 3399 0169 13       		.uleb128 0x13
 3400 016a 00       		.byte	0
 3401 016b 00       		.byte	0
 3402 016c 1F       		.uleb128 0x1f
 3403 016d 0B       		.uleb128 0xb
 3404 016e 01       		.byte	0x1
 3405 016f 01       		.uleb128 0x1
 3406 0170 13       		.uleb128 0x13
 3407 0171 00       		.byte	0
 3408 0172 00       		.byte	0
 3409 0173 20       		.uleb128 0x20
 3410 0174 0B       		.uleb128 0xb
 3411 0175 01       		.byte	0x1
 3412 0176 00       		.byte	0
 3413 0177 00       		.byte	0
 3414 0178 21       		.uleb128 0x21
 3415 0179 05       		.uleb128 0x5
 3416 017a 00       		.byte	0
 3417 017b 03       		.uleb128 0x3
 3418 017c 0E       		.uleb128 0xe
 3419 017d 3A       		.uleb128 0x3a
 3420 017e 0B       		.uleb128 0xb
 3421 017f 3B       		.uleb128 0x3b
 3422 0180 0B       		.uleb128 0xb
 3423 0181 49       		.uleb128 0x49
 3424 0182 13       		.uleb128 0x13
 3425 0183 00       		.byte	0
 3426 0184 00       		.byte	0
 3427 0185 22       		.uleb128 0x22
 3428 0186 2E       		.uleb128 0x2e
 3429 0187 01       		.byte	0x1
 3430 0188 03       		.uleb128 0x3
 3431 0189 0E       		.uleb128 0xe
 3432 018a 3A       		.uleb128 0x3a
 3433 018b 0B       		.uleb128 0xb
 3434 018c 3B       		.uleb128 0x3b
 3435 018d 0B       		.uleb128 0xb
 3436 018e 27       		.uleb128 0x27
 3437 018f 0C       		.uleb128 0xc
 3438 0190 11       		.uleb128 0x11
 3439 0191 01       		.uleb128 0x1
 3440 0192 12       		.uleb128 0x12
 3441 0193 01       		.uleb128 0x1
 3442 0194 40       		.uleb128 0x40
 3443 0195 0A       		.uleb128 0xa
 3444 0196 01       		.uleb128 0x1
 3445 0197 13       		.uleb128 0x13
 3446 0198 00       		.byte	0
 3447 0199 00       		.byte	0
 3448 019a 23       		.uleb128 0x23
 3449 019b 05       		.uleb128 0x5
 3450 019c 00       		.byte	0
 3451 019d 03       		.uleb128 0x3
ARM GAS  /tmp/ccxqq0Hi.s 			page 62


 3452 019e 08       		.uleb128 0x8
 3453 019f 3A       		.uleb128 0x3a
 3454 01a0 0B       		.uleb128 0xb
 3455 01a1 3B       		.uleb128 0x3b
 3456 01a2 0B       		.uleb128 0xb
 3457 01a3 49       		.uleb128 0x49
 3458 01a4 13       		.uleb128 0x13
 3459 01a5 02       		.uleb128 0x2
 3460 01a6 06       		.uleb128 0x6
 3461 01a7 00       		.byte	0
 3462 01a8 00       		.byte	0
 3463 01a9 24       		.uleb128 0x24
 3464 01aa 2E       		.uleb128 0x2e
 3465 01ab 01       		.byte	0x1
 3466 01ac 03       		.uleb128 0x3
 3467 01ad 0E       		.uleb128 0xe
 3468 01ae 3A       		.uleb128 0x3a
 3469 01af 0B       		.uleb128 0xb
 3470 01b0 3B       		.uleb128 0x3b
 3471 01b1 0B       		.uleb128 0xb
 3472 01b2 27       		.uleb128 0x27
 3473 01b3 0C       		.uleb128 0xc
 3474 01b4 11       		.uleb128 0x11
 3475 01b5 01       		.uleb128 0x1
 3476 01b6 12       		.uleb128 0x12
 3477 01b7 01       		.uleb128 0x1
 3478 01b8 40       		.uleb128 0x40
 3479 01b9 06       		.uleb128 0x6
 3480 01ba 01       		.uleb128 0x1
 3481 01bb 13       		.uleb128 0x13
 3482 01bc 00       		.byte	0
 3483 01bd 00       		.byte	0
 3484 01be 25       		.uleb128 0x25
 3485 01bf 34       		.uleb128 0x34
 3486 01c0 00       		.byte	0
 3487 01c1 03       		.uleb128 0x3
 3488 01c2 08       		.uleb128 0x8
 3489 01c3 3A       		.uleb128 0x3a
 3490 01c4 0B       		.uleb128 0xb
 3491 01c5 3B       		.uleb128 0x3b
 3492 01c6 0B       		.uleb128 0xb
 3493 01c7 49       		.uleb128 0x49
 3494 01c8 13       		.uleb128 0x13
 3495 01c9 02       		.uleb128 0x2
 3496 01ca 06       		.uleb128 0x6
 3497 01cb 00       		.byte	0
 3498 01cc 00       		.byte	0
 3499 01cd 26       		.uleb128 0x26
 3500 01ce 34       		.uleb128 0x34
 3501 01cf 00       		.byte	0
 3502 01d0 03       		.uleb128 0x3
 3503 01d1 08       		.uleb128 0x8
 3504 01d2 3A       		.uleb128 0x3a
 3505 01d3 0B       		.uleb128 0xb
 3506 01d4 3B       		.uleb128 0x3b
 3507 01d5 0B       		.uleb128 0xb
 3508 01d6 49       		.uleb128 0x49
ARM GAS  /tmp/ccxqq0Hi.s 			page 63


 3509 01d7 13       		.uleb128 0x13
 3510 01d8 02       		.uleb128 0x2
 3511 01d9 0A       		.uleb128 0xa
 3512 01da 00       		.byte	0
 3513 01db 00       		.byte	0
 3514 01dc 27       		.uleb128 0x27
 3515 01dd 1D       		.uleb128 0x1d
 3516 01de 01       		.byte	0x1
 3517 01df 31       		.uleb128 0x31
 3518 01e0 13       		.uleb128 0x13
 3519 01e1 11       		.uleb128 0x11
 3520 01e2 01       		.uleb128 0x1
 3521 01e3 12       		.uleb128 0x12
 3522 01e4 01       		.uleb128 0x1
 3523 01e5 58       		.uleb128 0x58
 3524 01e6 0B       		.uleb128 0xb
 3525 01e7 59       		.uleb128 0x59
 3526 01e8 0B       		.uleb128 0xb
 3527 01e9 01       		.uleb128 0x1
 3528 01ea 13       		.uleb128 0x13
 3529 01eb 00       		.byte	0
 3530 01ec 00       		.byte	0
 3531 01ed 28       		.uleb128 0x28
 3532 01ee 05       		.uleb128 0x5
 3533 01ef 00       		.byte	0
 3534 01f0 31       		.uleb128 0x31
 3535 01f1 13       		.uleb128 0x13
 3536 01f2 02       		.uleb128 0x2
 3537 01f3 06       		.uleb128 0x6
 3538 01f4 00       		.byte	0
 3539 01f5 00       		.byte	0
 3540 01f6 29       		.uleb128 0x29
 3541 01f7 0B       		.uleb128 0xb
 3542 01f8 01       		.byte	0x1
 3543 01f9 11       		.uleb128 0x11
 3544 01fa 01       		.uleb128 0x1
 3545 01fb 12       		.uleb128 0x12
 3546 01fc 01       		.uleb128 0x1
 3547 01fd 00       		.byte	0
 3548 01fe 00       		.byte	0
 3549 01ff 2A       		.uleb128 0x2a
 3550 0200 34       		.uleb128 0x34
 3551 0201 00       		.byte	0
 3552 0202 31       		.uleb128 0x31
 3553 0203 13       		.uleb128 0x13
 3554 0204 02       		.uleb128 0x2
 3555 0205 06       		.uleb128 0x6
 3556 0206 00       		.byte	0
 3557 0207 00       		.byte	0
 3558 0208 2B       		.uleb128 0x2b
 3559 0209 0B       		.uleb128 0xb
 3560 020a 01       		.byte	0x1
 3561 020b 11       		.uleb128 0x11
 3562 020c 01       		.uleb128 0x1
 3563 020d 12       		.uleb128 0x12
 3564 020e 01       		.uleb128 0x1
 3565 020f 01       		.uleb128 0x1
ARM GAS  /tmp/ccxqq0Hi.s 			page 64


 3566 0210 13       		.uleb128 0x13
 3567 0211 00       		.byte	0
 3568 0212 00       		.byte	0
 3569 0213 2C       		.uleb128 0x2c
 3570 0214 2E       		.uleb128 0x2e
 3571 0215 00       		.byte	0
 3572 0216 3F       		.uleb128 0x3f
 3573 0217 0C       		.uleb128 0xc
 3574 0218 03       		.uleb128 0x3
 3575 0219 0E       		.uleb128 0xe
 3576 021a 3A       		.uleb128 0x3a
 3577 021b 0B       		.uleb128 0xb
 3578 021c 3B       		.uleb128 0x3b
 3579 021d 05       		.uleb128 0x5
 3580 021e 27       		.uleb128 0x27
 3581 021f 0C       		.uleb128 0xc
 3582 0220 11       		.uleb128 0x11
 3583 0221 01       		.uleb128 0x1
 3584 0222 12       		.uleb128 0x12
 3585 0223 01       		.uleb128 0x1
 3586 0224 40       		.uleb128 0x40
 3587 0225 06       		.uleb128 0x6
 3588 0226 00       		.byte	0
 3589 0227 00       		.byte	0
 3590 0228 2D       		.uleb128 0x2d
 3591 0229 2E       		.uleb128 0x2e
 3592 022a 01       		.byte	0x1
 3593 022b 3F       		.uleb128 0x3f
 3594 022c 0C       		.uleb128 0xc
 3595 022d 03       		.uleb128 0x3
 3596 022e 0E       		.uleb128 0xe
 3597 022f 3A       		.uleb128 0x3a
 3598 0230 0B       		.uleb128 0xb
 3599 0231 3B       		.uleb128 0x3b
 3600 0232 05       		.uleb128 0x5
 3601 0233 27       		.uleb128 0x27
 3602 0234 0C       		.uleb128 0xc
 3603 0235 11       		.uleb128 0x11
 3604 0236 01       		.uleb128 0x1
 3605 0237 12       		.uleb128 0x12
 3606 0238 01       		.uleb128 0x1
 3607 0239 40       		.uleb128 0x40
 3608 023a 06       		.uleb128 0x6
 3609 023b 01       		.uleb128 0x1
 3610 023c 13       		.uleb128 0x13
 3611 023d 00       		.byte	0
 3612 023e 00       		.byte	0
 3613 023f 2E       		.uleb128 0x2e
 3614 0240 05       		.uleb128 0x5
 3615 0241 00       		.byte	0
 3616 0242 03       		.uleb128 0x3
 3617 0243 08       		.uleb128 0x8
 3618 0244 3A       		.uleb128 0x3a
 3619 0245 0B       		.uleb128 0xb
 3620 0246 3B       		.uleb128 0x3b
 3621 0247 05       		.uleb128 0x5
 3622 0248 49       		.uleb128 0x49
ARM GAS  /tmp/ccxqq0Hi.s 			page 65


 3623 0249 13       		.uleb128 0x13
 3624 024a 02       		.uleb128 0x2
 3625 024b 06       		.uleb128 0x6
 3626 024c 00       		.byte	0
 3627 024d 00       		.byte	0
 3628 024e 2F       		.uleb128 0x2f
 3629 024f 05       		.uleb128 0x5
 3630 0250 00       		.byte	0
 3631 0251 03       		.uleb128 0x3
 3632 0252 0E       		.uleb128 0xe
 3633 0253 3A       		.uleb128 0x3a
 3634 0254 0B       		.uleb128 0xb
 3635 0255 3B       		.uleb128 0x3b
 3636 0256 05       		.uleb128 0x5
 3637 0257 49       		.uleb128 0x49
 3638 0258 13       		.uleb128 0x13
 3639 0259 02       		.uleb128 0x2
 3640 025a 06       		.uleb128 0x6
 3641 025b 00       		.byte	0
 3642 025c 00       		.byte	0
 3643 025d 30       		.uleb128 0x30
 3644 025e 1D       		.uleb128 0x1d
 3645 025f 01       		.byte	0x1
 3646 0260 31       		.uleb128 0x31
 3647 0261 13       		.uleb128 0x13
 3648 0262 52       		.uleb128 0x52
 3649 0263 01       		.uleb128 0x1
 3650 0264 55       		.uleb128 0x55
 3651 0265 06       		.uleb128 0x6
 3652 0266 58       		.uleb128 0x58
 3653 0267 0B       		.uleb128 0xb
 3654 0268 59       		.uleb128 0x59
 3655 0269 05       		.uleb128 0x5
 3656 026a 00       		.byte	0
 3657 026b 00       		.byte	0
 3658 026c 31       		.uleb128 0x31
 3659 026d 05       		.uleb128 0x5
 3660 026e 00       		.byte	0
 3661 026f 31       		.uleb128 0x31
 3662 0270 13       		.uleb128 0x13
 3663 0271 00       		.byte	0
 3664 0272 00       		.byte	0
 3665 0273 32       		.uleb128 0x32
 3666 0274 0B       		.uleb128 0xb
 3667 0275 01       		.byte	0x1
 3668 0276 55       		.uleb128 0x55
 3669 0277 06       		.uleb128 0x6
 3670 0278 00       		.byte	0
 3671 0279 00       		.byte	0
 3672 027a 33       		.uleb128 0x33
 3673 027b 2E       		.uleb128 0x2e
 3674 027c 01       		.byte	0x1
 3675 027d 3F       		.uleb128 0x3f
 3676 027e 0C       		.uleb128 0xc
 3677 027f 03       		.uleb128 0x3
 3678 0280 0E       		.uleb128 0xe
 3679 0281 3A       		.uleb128 0x3a
ARM GAS  /tmp/ccxqq0Hi.s 			page 66


 3680 0282 0B       		.uleb128 0xb
 3681 0283 3B       		.uleb128 0x3b
 3682 0284 05       		.uleb128 0x5
 3683 0285 27       		.uleb128 0x27
 3684 0286 0C       		.uleb128 0xc
 3685 0287 11       		.uleb128 0x11
 3686 0288 01       		.uleb128 0x1
 3687 0289 12       		.uleb128 0x12
 3688 028a 01       		.uleb128 0x1
 3689 028b 40       		.uleb128 0x40
 3690 028c 0A       		.uleb128 0xa
 3691 028d 01       		.uleb128 0x1
 3692 028e 13       		.uleb128 0x13
 3693 028f 00       		.byte	0
 3694 0290 00       		.byte	0
 3695 0291 34       		.uleb128 0x34
 3696 0292 34       		.uleb128 0x34
 3697 0293 00       		.byte	0
 3698 0294 03       		.uleb128 0x3
 3699 0295 0E       		.uleb128 0xe
 3700 0296 3A       		.uleb128 0x3a
 3701 0297 0B       		.uleb128 0xb
 3702 0298 3B       		.uleb128 0x3b
 3703 0299 0B       		.uleb128 0xb
 3704 029a 49       		.uleb128 0x49
 3705 029b 13       		.uleb128 0x13
 3706 029c 02       		.uleb128 0x2
 3707 029d 0A       		.uleb128 0xa
 3708 029e 00       		.byte	0
 3709 029f 00       		.byte	0
 3710 02a0 35       		.uleb128 0x35
 3711 02a1 34       		.uleb128 0x34
 3712 02a2 00       		.byte	0
 3713 02a3 03       		.uleb128 0x3
 3714 02a4 0E       		.uleb128 0xe
 3715 02a5 3A       		.uleb128 0x3a
 3716 02a6 0B       		.uleb128 0xb
 3717 02a7 3B       		.uleb128 0x3b
 3718 02a8 05       		.uleb128 0x5
 3719 02a9 49       		.uleb128 0x49
 3720 02aa 13       		.uleb128 0x13
 3721 02ab 3F       		.uleb128 0x3f
 3722 02ac 0C       		.uleb128 0xc
 3723 02ad 3C       		.uleb128 0x3c
 3724 02ae 0C       		.uleb128 0xc
 3725 02af 00       		.byte	0
 3726 02b0 00       		.byte	0
 3727 02b1 36       		.uleb128 0x36
 3728 02b2 34       		.uleb128 0x34
 3729 02b3 00       		.byte	0
 3730 02b4 03       		.uleb128 0x3
 3731 02b5 08       		.uleb128 0x8
 3732 02b6 3A       		.uleb128 0x3a
 3733 02b7 0B       		.uleb128 0xb
 3734 02b8 3B       		.uleb128 0x3b
 3735 02b9 0B       		.uleb128 0xb
 3736 02ba 49       		.uleb128 0x49
ARM GAS  /tmp/ccxqq0Hi.s 			page 67


 3737 02bb 13       		.uleb128 0x13
 3738 02bc 3F       		.uleb128 0x3f
 3739 02bd 0C       		.uleb128 0xc
 3740 02be 02       		.uleb128 0x2
 3741 02bf 0A       		.uleb128 0xa
 3742 02c0 00       		.byte	0
 3743 02c1 00       		.byte	0
 3744 02c2 00       		.byte	0
 3745              		.section	.debug_loc,"",%progbits
 3746              	.Ldebug_loc0:
 3747              	.LLST0:
 3748 0000 00000000 		.4byte	.LVL0
 3749 0004 0C000000 		.4byte	.LVL1
 3750 0008 0100     		.2byte	0x1
 3751 000a 50       		.byte	0x50
 3752 000b 00000000 		.4byte	0
 3753 000f 00000000 		.4byte	0
 3754              	.LLST1:
 3755 0013 00000000 		.4byte	.LVL2
 3756 0017 0C000000 		.4byte	.LVL3
 3757 001b 0100     		.2byte	0x1
 3758 001d 50       		.byte	0x50
 3759 001e 00000000 		.4byte	0
 3760 0022 00000000 		.4byte	0
 3761              	.LLST2:
 3762 0026 00000000 		.4byte	.LVL4
 3763 002a 0C000000 		.4byte	.LVL5
 3764 002e 0100     		.2byte	0x1
 3765 0030 50       		.byte	0x50
 3766 0031 00000000 		.4byte	0
 3767 0035 00000000 		.4byte	0
 3768              	.LLST3:
 3769 0039 00000000 		.4byte	.LFB120
 3770 003d 04000000 		.4byte	.LCFI0
 3771 0041 0200     		.2byte	0x2
 3772 0043 7D       		.byte	0x7d
 3773 0044 00       		.sleb128 0
 3774 0045 04000000 		.4byte	.LCFI0
 3775 0049 1E010000 		.4byte	.LFE120
 3776 004d 0200     		.2byte	0x2
 3777 004f 7D       		.byte	0x7d
 3778 0050 18       		.sleb128 24
 3779 0051 00000000 		.4byte	0
 3780 0055 00000000 		.4byte	0
 3781              	.LLST4:
 3782 0059 00000000 		.4byte	.LVL6
 3783 005d 18000000 		.4byte	.LVL9
 3784 0061 0100     		.2byte	0x1
 3785 0063 50       		.byte	0x50
 3786 0064 2C000000 		.4byte	.LVL12
 3787 0068 1E010000 		.4byte	.LFE120
 3788 006c 0100     		.2byte	0x1
 3789 006e 55       		.byte	0x55
 3790 006f 00000000 		.4byte	0
 3791 0073 00000000 		.4byte	0
 3792              	.LLST5:
 3793 0077 06000000 		.4byte	.LVL7
ARM GAS  /tmp/ccxqq0Hi.s 			page 68


 3794 007b 2C000000 		.4byte	.LVL12
 3795 007f 0300     		.2byte	0x3
 3796 0081 70       		.byte	0x70
 3797 0082 F000     		.sleb128 112
 3798 0084 2C000000 		.4byte	.LVL12
 3799 0088 4F000000 		.4byte	.LVL18-1
 3800 008c 0300     		.2byte	0x3
 3801 008e 75       		.byte	0x75
 3802 008f F000     		.sleb128 112
 3803 0091 4F000000 		.4byte	.LVL18-1
 3804 0095 1E010000 		.4byte	.LFE120
 3805 0099 0100     		.2byte	0x1
 3806 009b 56       		.byte	0x56
 3807 009c 00000000 		.4byte	0
 3808 00a0 00000000 		.4byte	0
 3809              	.LLST6:
 3810 00a4 18000000 		.4byte	.LVL9
 3811 00a8 56000000 		.4byte	.LVL20
 3812 00ac 0100     		.2byte	0x1
 3813 00ae 54       		.byte	0x54
 3814 00af 00000000 		.4byte	0
 3815 00b3 00000000 		.4byte	0
 3816              	.LLST7:
 3817 00b7 18000000 		.4byte	.LVL9
 3818 00bb 2C000000 		.4byte	.LVL12
 3819 00bf 0100     		.2byte	0x1
 3820 00c1 50       		.byte	0x50
 3821 00c2 2C000000 		.4byte	.LVL12
 3822 00c6 56000000 		.4byte	.LVL20
 3823 00ca 0100     		.2byte	0x1
 3824 00cc 55       		.byte	0x55
 3825 00cd 00000000 		.4byte	0
 3826 00d1 00000000 		.4byte	0
 3827              	.LLST8:
 3828 00d5 18000000 		.4byte	.LVL9
 3829 00d9 22000000 		.4byte	.LVL10
 3830 00dd 0200     		.2byte	0x2
 3831 00df 30       		.byte	0x30
 3832 00e0 9F       		.byte	0x9f
 3833 00e1 22000000 		.4byte	.LVL10
 3834 00e5 4F000000 		.4byte	.LVL18-1
 3835 00e9 0100     		.2byte	0x1
 3836 00eb 5C       		.byte	0x5c
 3837 00ec 00000000 		.4byte	0
 3838 00f0 00000000 		.4byte	0
 3839              	.LLST9:
 3840 00f4 40000000 		.4byte	.LVL16
 3841 00f8 42000000 		.4byte	.LVL17
 3842 00fc 0100     		.2byte	0x1
 3843 00fe 53       		.byte	0x53
 3844 00ff 00000000 		.4byte	0
 3845 0103 00000000 		.4byte	0
 3846              	.LLST10:
 3847 0107 56000000 		.4byte	.LVL20
 3848 010b 58000000 		.4byte	.LVL21
 3849 010f 0100     		.2byte	0x1
 3850 0111 53       		.byte	0x53
ARM GAS  /tmp/ccxqq0Hi.s 			page 69


 3851 0112 00000000 		.4byte	0
 3852 0116 00000000 		.4byte	0
 3853              	.LLST11:
 3854 011a 70000000 		.4byte	.LVL27
 3855 011e 76000000 		.4byte	.LVL28
 3856 0122 0100     		.2byte	0x1
 3857 0124 53       		.byte	0x53
 3858 0125 00000000 		.4byte	0
 3859 0129 00000000 		.4byte	0
 3860              	.LLST12:
 3861 012d 86000000 		.4byte	.LVL30
 3862 0131 96000000 		.4byte	.LVL31
 3863 0135 0100     		.2byte	0x1
 3864 0137 53       		.byte	0x53
 3865 0138 00000000 		.4byte	0
 3866 013c 00000000 		.4byte	0
 3867              	.LLST13:
 3868 0140 A6000000 		.4byte	.LVL34
 3869 0144 AF000000 		.4byte	.LVL35-1
 3870 0148 0100     		.2byte	0x1
 3871 014a 53       		.byte	0x53
 3872 014b 00000000 		.4byte	0
 3873 014f 00000000 		.4byte	0
 3874              	.LLST14:
 3875 0153 5E000000 		.4byte	.LVL23
 3876 0157 68000000 		.4byte	.LVL25
 3877 015b 0100     		.2byte	0x1
 3878 015d 53       		.byte	0x53
 3879 015e B6000000 		.4byte	.LVL36
 3880 0162 B8000000 		.4byte	.LVL37
 3881 0166 0100     		.2byte	0x1
 3882 0168 53       		.byte	0x53
 3883 0169 E4000000 		.4byte	.LVL42
 3884 016d E6000000 		.4byte	.LVL43
 3885 0171 0100     		.2byte	0x1
 3886 0173 53       		.byte	0x53
 3887 0174 00000000 		.4byte	0
 3888 0178 00000000 		.4byte	0
 3889              	.LLST15:
 3890 017c BE000000 		.4byte	.LVL39
 3891 0180 C4000000 		.4byte	.LVL40
 3892 0184 0100     		.2byte	0x1
 3893 0186 53       		.byte	0x53
 3894 0187 00000000 		.4byte	0
 3895 018b 00000000 		.4byte	0
 3896              	.LLST16:
 3897 018f 5A000000 		.4byte	.LVL22
 3898 0193 68000000 		.4byte	.LVL25
 3899 0197 0100     		.2byte	0x1
 3900 0199 53       		.byte	0x53
 3901 019a A0000000 		.4byte	.LVL32
 3902 019e A2000000 		.4byte	.LVL33
 3903 01a2 0100     		.2byte	0x1
 3904 01a4 53       		.byte	0x53
 3905 01a5 D4000000 		.4byte	.LVL41
 3906 01a9 E6000000 		.4byte	.LVL43
 3907 01ad 0100     		.2byte	0x1
ARM GAS  /tmp/ccxqq0Hi.s 			page 70


 3908 01af 53       		.byte	0x53
 3909 01b0 00000000 		.4byte	0
 3910 01b4 00000000 		.4byte	0
 3911              	.LLST17:
 3912 01b8 F2000000 		.4byte	.LVL45
 3913 01bc FA000000 		.4byte	.LVL46
 3914 01c0 0100     		.2byte	0x1
 3915 01c2 50       		.byte	0x50
 3916 01c3 02010000 		.4byte	.LVL48
 3917 01c7 04010000 		.4byte	.LVL49
 3918 01cb 0100     		.2byte	0x1
 3919 01cd 50       		.byte	0x50
 3920 01ce 00000000 		.4byte	0
 3921 01d2 00000000 		.4byte	0
 3922              	.LLST18:
 3923 01d6 EA000000 		.4byte	.LVL44
 3924 01da F1000000 		.4byte	.LVL45-1
 3925 01de 0100     		.2byte	0x1
 3926 01e0 53       		.byte	0x53
 3927 01e1 00000000 		.4byte	0
 3928 01e5 00000000 		.4byte	0
 3929              	.LLST19:
 3930 01e9 66000000 		.4byte	.LVL24
 3931 01ed 68000000 		.4byte	.LVL25
 3932 01f1 0100     		.2byte	0x1
 3933 01f3 53       		.byte	0x53
 3934 01f4 00010000 		.4byte	.LVL47
 3935 01f8 02010000 		.4byte	.LVL48
 3936 01fc 0100     		.2byte	0x1
 3937 01fe 53       		.byte	0x53
 3938 01ff 00000000 		.4byte	0
 3939 0203 00000000 		.4byte	0
 3940              	.LLST20:
 3941 0207 00000000 		.4byte	.LFB124
 3942 020b 02000000 		.4byte	.LCFI1
 3943 020f 0200     		.2byte	0x2
 3944 0211 7D       		.byte	0x7d
 3945 0212 00       		.sleb128 0
 3946 0213 02000000 		.4byte	.LCFI1
 3947 0217 16000000 		.4byte	.LFE124
 3948 021b 0200     		.2byte	0x2
 3949 021d 7D       		.byte	0x7d
 3950 021e 08       		.sleb128 8
 3951 021f 00000000 		.4byte	0
 3952 0223 00000000 		.4byte	0
 3953              	.LLST21:
 3954 0227 00000000 		.4byte	.LFB125
 3955 022b 02000000 		.4byte	.LCFI2
 3956 022f 0200     		.2byte	0x2
 3957 0231 7D       		.byte	0x7d
 3958 0232 00       		.sleb128 0
 3959 0233 02000000 		.4byte	.LCFI2
 3960 0237 16000000 		.4byte	.LFE125
 3961 023b 0200     		.2byte	0x2
 3962 023d 7D       		.byte	0x7d
 3963 023e 08       		.sleb128 8
 3964 023f 00000000 		.4byte	0
ARM GAS  /tmp/ccxqq0Hi.s 			page 71


 3965 0243 00000000 		.4byte	0
 3966              	.LLST22:
 3967 0247 00000000 		.4byte	.LFB126
 3968 024b 02000000 		.4byte	.LCFI3
 3969 024f 0200     		.2byte	0x2
 3970 0251 7D       		.byte	0x7d
 3971 0252 00       		.sleb128 0
 3972 0253 02000000 		.4byte	.LCFI3
 3973 0257 16000000 		.4byte	.LFE126
 3974 025b 0200     		.2byte	0x2
 3975 025d 7D       		.byte	0x7d
 3976 025e 08       		.sleb128 8
 3977 025f 00000000 		.4byte	0
 3978 0263 00000000 		.4byte	0
 3979              	.LLST23:
 3980 0267 00000000 		.4byte	.LFB127
 3981 026b 02000000 		.4byte	.LCFI4
 3982 026f 0200     		.2byte	0x2
 3983 0271 7D       		.byte	0x7d
 3984 0272 00       		.sleb128 0
 3985 0273 02000000 		.4byte	.LCFI4
 3986 0277 6A000000 		.4byte	.LFE127
 3987 027b 0200     		.2byte	0x2
 3988 027d 7D       		.byte	0x7d
 3989 027e 10       		.sleb128 16
 3990 027f 00000000 		.4byte	0
 3991 0283 00000000 		.4byte	0
 3992              	.LLST24:
 3993 0287 00000000 		.4byte	.LFB128
 3994 028b 02000000 		.4byte	.LCFI5
 3995 028f 0200     		.2byte	0x2
 3996 0291 7D       		.byte	0x7d
 3997 0292 00       		.sleb128 0
 3998 0293 02000000 		.4byte	.LCFI5
 3999 0297 08010000 		.4byte	.LFE128
 4000 029b 0200     		.2byte	0x2
 4001 029d 7D       		.byte	0x7d
 4002 029e 10       		.sleb128 16
 4003 029f 00000000 		.4byte	0
 4004 02a3 00000000 		.4byte	0
 4005              	.LLST25:
 4006 02a7 00000000 		.4byte	.LVL50
 4007 02ab 18000000 		.4byte	.LVL51
 4008 02af 0100     		.2byte	0x1
 4009 02b1 50       		.byte	0x50
 4010 02b2 18000000 		.4byte	.LVL51
 4011 02b6 08010000 		.4byte	.LFE128
 4012 02ba 0100     		.2byte	0x1
 4013 02bc 55       		.byte	0x55
 4014 02bd 00000000 		.4byte	0
 4015 02c1 00000000 		.4byte	0
 4016              	.LLST26:
 4017 02c5 00000000 		.4byte	.LVL50
 4018 02c9 18000000 		.4byte	.LVL51
 4019 02cd 0100     		.2byte	0x1
 4020 02cf 51       		.byte	0x51
 4021 02d0 8A000000 		.4byte	.LVL53
ARM GAS  /tmp/ccxqq0Hi.s 			page 72


 4022 02d4 8E000000 		.4byte	.LVL54
 4023 02d8 0100     		.2byte	0x1
 4024 02da 51       		.byte	0x51
 4025 02db 00000000 		.4byte	0
 4026 02df 00000000 		.4byte	0
 4027              	.LLST27:
 4028 02e3 18000000 		.4byte	.LVL51
 4029 02e7 8A000000 		.4byte	.LVL53
 4030 02eb 0100     		.2byte	0x1
 4031 02ed 55       		.byte	0x55
 4032 02ee 00000000 		.4byte	0
 4033 02f2 00000000 		.4byte	0
 4034              	.LLST28:
 4035 02f6 1A000000 		.4byte	.LVL52
 4036 02fa 8A000000 		.4byte	.LVL53
 4037 02fe 0300     		.2byte	0x3
 4038 0300 75       		.byte	0x75
 4039 0301 F000     		.sleb128 112
 4040 0303 00000000 		.4byte	0
 4041 0307 00000000 		.4byte	0
 4042              	.LLST29:
 4043 030b 00000000 		.4byte	.LVL55
 4044 030f 08000000 		.4byte	.LVL56
 4045 0313 0100     		.2byte	0x1
 4046 0315 50       		.byte	0x50
 4047 0316 0C000000 		.4byte	.LVL57
 4048 031a 40000000 		.4byte	.LVL59
 4049 031e 0100     		.2byte	0x1
 4050 0320 50       		.byte	0x50
 4051 0321 50000000 		.4byte	.LVL61
 4052 0325 5A000000 		.4byte	.LVL62
 4053 0329 0100     		.2byte	0x1
 4054 032b 50       		.byte	0x50
 4055 032c 66000000 		.4byte	.LVL64
 4056 0330 70000000 		.4byte	.LVL65
 4057 0334 0100     		.2byte	0x1
 4058 0336 50       		.byte	0x50
 4059 0337 00000000 		.4byte	0
 4060 033b 00000000 		.4byte	0
 4061              	.LLST30:
 4062 033f 0E000000 		.4byte	.LVL58
 4063 0343 40000000 		.4byte	.LVL59
 4064 0347 0300     		.2byte	0x3
 4065 0349 70       		.byte	0x70
 4066 034a F000     		.sleb128 112
 4067 034c 40000000 		.4byte	.LVL59
 4068 0350 48000000 		.4byte	.LVL60
 4069 0354 0100     		.2byte	0x1
 4070 0356 52       		.byte	0x52
 4071 0357 50000000 		.4byte	.LVL61
 4072 035b 5C000000 		.4byte	.LVL63
 4073 035f 0100     		.2byte	0x1
 4074 0361 52       		.byte	0x52
 4075 0362 66000000 		.4byte	.LVL64
 4076 0366 78000000 		.4byte	.LVL66
 4077 036a 0100     		.2byte	0x1
 4078 036c 52       		.byte	0x52
ARM GAS  /tmp/ccxqq0Hi.s 			page 73


 4079 036d 00000000 		.4byte	0
 4080 0371 00000000 		.4byte	0
 4081              		.section	.debug_aranges,"",%progbits
 4082 0000 64000000 		.4byte	0x64
 4083 0004 0200     		.2byte	0x2
 4084 0006 00000000 		.4byte	.Ldebug_info0
 4085 000a 04       		.byte	0x4
 4086 000b 00       		.byte	0
 4087 000c 0000     		.2byte	0
 4088 000e 0000     		.2byte	0
 4089 0010 00000000 		.4byte	.LFB121
 4090 0014 14000000 		.4byte	.LFE121-.LFB121
 4091 0018 00000000 		.4byte	.LFB122
 4092 001c 14000000 		.4byte	.LFE122-.LFB122
 4093 0020 00000000 		.4byte	.LFB123
 4094 0024 14000000 		.4byte	.LFE123-.LFB123
 4095 0028 00000000 		.4byte	.LFB120
 4096 002c 1E010000 		.4byte	.LFE120-.LFB120
 4097 0030 00000000 		.4byte	.LFB124
 4098 0034 16000000 		.4byte	.LFE124-.LFB124
 4099 0038 00000000 		.4byte	.LFB125
 4100 003c 16000000 		.4byte	.LFE125-.LFB125
 4101 0040 00000000 		.4byte	.LFB126
 4102 0044 16000000 		.4byte	.LFE126-.LFB126
 4103 0048 00000000 		.4byte	.LFB127
 4104 004c 6A000000 		.4byte	.LFE127-.LFB127
 4105 0050 00000000 		.4byte	.LFB128
 4106 0054 08010000 		.4byte	.LFE128-.LFB128
 4107 0058 00000000 		.4byte	.LFB129
 4108 005c 80000000 		.4byte	.LFE129-.LFB129
 4109 0060 00000000 		.4byte	0
 4110 0064 00000000 		.4byte	0
 4111              		.section	.debug_ranges,"",%progbits
 4112              	.Ldebug_ranges0:
 4113 0000 18000000 		.4byte	.LBB32
 4114 0004 78000000 		.4byte	.LBE32
 4115 0008 7A000000 		.4byte	.LBB35
 4116 000c 8A000000 		.4byte	.LBE35
 4117 0010 00000000 		.4byte	0
 4118 0014 00000000 		.4byte	0
 4119 0018 18000000 		.4byte	.LBB33
 4120 001c 78000000 		.4byte	.LBE33
 4121 0020 7A000000 		.4byte	.LBB34
 4122 0024 8A000000 		.4byte	.LBE34
 4123 0028 00000000 		.4byte	0
 4124 002c 00000000 		.4byte	0
 4125 0030 12000000 		.4byte	.LBB36
 4126 0034 14000000 		.4byte	.LBE36
 4127 0038 16000000 		.4byte	.LBB39
 4128 003c 1C000000 		.4byte	.LBE39
 4129 0040 00000000 		.4byte	0
 4130 0044 00000000 		.4byte	0
 4131 0048 00000000 		.4byte	.LFB121
 4132 004c 14000000 		.4byte	.LFE121
 4133 0050 00000000 		.4byte	.LFB122
 4134 0054 14000000 		.4byte	.LFE122
 4135 0058 00000000 		.4byte	.LFB123
ARM GAS  /tmp/ccxqq0Hi.s 			page 74


 4136 005c 14000000 		.4byte	.LFE123
 4137 0060 00000000 		.4byte	.LFB120
 4138 0064 1E010000 		.4byte	.LFE120
 4139 0068 00000000 		.4byte	.LFB124
 4140 006c 16000000 		.4byte	.LFE124
 4141 0070 00000000 		.4byte	.LFB125
 4142 0074 16000000 		.4byte	.LFE125
 4143 0078 00000000 		.4byte	.LFB126
 4144 007c 16000000 		.4byte	.LFE126
 4145 0080 00000000 		.4byte	.LFB127
 4146 0084 6A000000 		.4byte	.LFE127
 4147 0088 00000000 		.4byte	.LFB128
 4148 008c 08010000 		.4byte	.LFE128
 4149 0090 00000000 		.4byte	.LFB129
 4150 0094 80000000 		.4byte	.LFE129
 4151 0098 00000000 		.4byte	0
 4152 009c 00000000 		.4byte	0
 4153              		.section	.debug_line,"",%progbits
 4154              	.Ldebug_line0:
 4155 0000 0B040000 		.section	.debug_str,"MS",%progbits,1
 4155      02009002 
 4155      00000201 
 4155      FB0E0D00 
 4155      01010101 
 4156              	.LASF2:
 4157 0000 73697A65 		.ascii	"size_t\000"
 4157      5F7400
 4158              	.LASF126:
 4159 0007 54494D38 		.ascii	"TIM8_UP_TIM13_IRQn\000"
 4159      5F55505F 
 4159      54494D31 
 4159      335F4952 
 4159      516E00
 4160              	.LASF22:
 4161 001a 73797374 		.ascii	"systime_t\000"
 4161      696D655F 
 4161      7400
 4162              	.LASF190:
 4163 0024 504C4C49 		.ascii	"PLLI2SCFGR\000"
 4163      32534346 
 4163      475200
 4164              	.LASF27:
 4165 002f 705F6374 		.ascii	"p_ctx\000"
 4165      7800
 4166              	.LASF19:
 4167 0035 74707269 		.ascii	"tprio_t\000"
 4167      6F5F7400 
 4168              	.LASF36:
 4169 003d 705F6D73 		.ascii	"p_msgqueue\000"
 4169      67717565 
 4169      756500
 4170              	.LASF8:
 4171 0048 696E7433 		.ascii	"int32_t\000"
 4171      325F7400 
 4172              	.LASF209:
 4173 0050 53657269 		.ascii	"SerialConfig\000"
 4173      616C436F 
ARM GAS  /tmp/ccxqq0Hi.s 			page 75


 4173      6E666967 
 4173      00
 4174              	.LASF215:
 4175 005d 77726974 		.ascii	"writet\000"
 4175      657400
 4176              	.LASF192:
 4177 0064 47545052 		.ascii	"GTPR\000"
 4177      00
 4178              	.LASF211:
 4179 0069 77726974 		.ascii	"write\000"
 4179      6500
 4180              	.LASF139:
 4181 006f 444D4132 		.ascii	"DMA2_Stream1_IRQn\000"
 4181      5F537472 
 4181      65616D31 
 4181      5F495251 
 4181      6E00
 4182              	.LASF227:
 4183 0081 56656374 		.ascii	"VectorD8\000"
 4183      6F724438 
 4183      00
 4184              	.LASF133:
 4185 008a 53504933 		.ascii	"SPI3_IRQn\000"
 4185      5F495251 
 4185      6E00
 4186              	.LASF86:
 4187 0094 464C4153 		.ascii	"FLASH_IRQn\000"
 4187      485F4952 
 4187      516E00
 4188              	.LASF160:
 4189 009f 44434D49 		.ascii	"DCMI_IRQn\000"
 4189      5F495251 
 4189      6E00
 4190              	.LASF220:
 4191 00a9 636F6E66 		.ascii	"config\000"
 4191      696700
 4192              	.LASF201:
 4193 00b0 73746174 		.ascii	"state\000"
 4193      6500
 4194              	.LASF110:
 4195 00b6 54494D32 		.ascii	"TIM2_IRQn\000"
 4195      5F495251 
 4195      6E00
 4196              	.LASF225:
 4197 00c0 73657276 		.ascii	"serve_interrupt\000"
 4197      655F696E 
 4197      74657272 
 4197      75707400 
 4198              	.LASF218:
 4199 00d0 7365745F 		.ascii	"set_error\000"
 4199      6572726F 
 4199      7200
 4200              	.LASF146:
 4201 00da 43414E32 		.ascii	"CAN2_RX0_IRQn\000"
 4201      5F525830 
 4201      5F495251 
 4201      6E00
ARM GAS  /tmp/ccxqq0Hi.s 			page 76


 4202              	.LASF153:
 4203 00e8 55534152 		.ascii	"USART6_IRQn\000"
 4203      54365F49 
 4203      52516E00 
 4204              	.LASF49:
 4205 00f4 6D5F6F77 		.ascii	"m_owner\000"
 4205      6E657200 
 4206              	.LASF58:
 4207 00fc 65786974 		.ascii	"exitcode\000"
 4207      636F6465 
 4207      00
 4208              	.LASF158:
 4209 0105 4F54475F 		.ascii	"OTG_HS_WKUP_IRQn\000"
 4209      48535F57 
 4209      4B55505F 
 4209      4952516E 
 4209      00
 4210              	.LASF66:
 4211 0116 715F746F 		.ascii	"q_top\000"
 4211      7000
 4212              	.LASF118:
 4213 011c 53504932 		.ascii	"SPI2_IRQn\000"
 4213      5F495251 
 4213      6E00
 4214              	.LASF125:
 4215 0126 54494D38 		.ascii	"TIM8_BRK_TIM12_IRQn\000"
 4215      5F42524B 
 4215      5F54494D 
 4215      31325F49 
 4215      52516E00 
 4216              	.LASF181:
 4217 013a 41484232 		.ascii	"AHB2LPENR\000"
 4217      4C50454E 
 4217      5200
 4218              	.LASF216:
 4219 0144 72656164 		.ascii	"readt\000"
 4219      7400
 4220              	.LASF230:
 4221 014a 73645F6C 		.ascii	"sd_lld_start\000"
 4221      6C645F73 
 4221      74617274 
 4221      00
 4222              	.LASF65:
 4223 0157 715F6275 		.ascii	"q_buffer\000"
 4223      66666572 
 4223      00
 4224              	.LASF69:
 4225 0160 715F6E6F 		.ascii	"q_notify\000"
 4225      74696679 
 4225      00
 4226              	.LASF28:
 4227 0169 705F6E65 		.ascii	"p_newer\000"
 4227      77657200 
 4228              	.LASF9:
 4229 0171 6C6F6E67 		.ascii	"long int\000"
 4229      20696E74 
 4229      00
ARM GAS  /tmp/ccxqq0Hi.s 			page 77


 4230              	.LASF24:
 4231 017a 705F6E65 		.ascii	"p_next\000"
 4231      787400
 4232              	.LASF68:
 4233 0181 715F7264 		.ascii	"q_rdptr\000"
 4233      70747200 
 4234              	.LASF25:
 4235 0189 705F7072 		.ascii	"p_prev\000"
 4235      657600
 4236              	.LASF232:
 4237 0190 64656661 		.ascii	"default_config\000"
 4237      756C745F 
 4237      636F6E66 
 4237      696700
 4238              	.LASF150:
 4239 019f 444D4132 		.ascii	"DMA2_Stream5_IRQn\000"
 4239      5F537472 
 4239      65616D35 
 4239      5F495251 
 4239      6E00
 4240              	.LASF17:
 4241 01b1 74737461 		.ascii	"tstate_t\000"
 4241      74655F74 
 4241      00
 4242              	.LASF39:
 4243 01ba 705F6D74 		.ascii	"p_mtxlist\000"
 4243      786C6973 
 4243      7400
 4244              	.LASF108:
 4245 01c4 54494D31 		.ascii	"TIM1_TRG_COM_TIM11_IRQn\000"
 4245      5F545247 
 4245      5F434F4D 
 4245      5F54494D 
 4245      31315F49 
 4246              	.LASF203:
 4247 01dc 6F717565 		.ascii	"oqueue\000"
 4247      756500
 4248              	.LASF44:
 4249 01e3 72656761 		.ascii	"regarm_t\000"
 4249      726D5F74 
 4249      00
 4250              	.LASF178:
 4251 01ec 41504232 		.ascii	"APB2ENR\000"
 4251      454E5200 
 4252              	.LASF180:
 4253 01f4 41484231 		.ascii	"AHB1LPENR\000"
 4253      4C50454E 
 4253      5200
 4254              	.LASF81:
 4255 01fe 53797354 		.ascii	"SysTick_IRQn\000"
 4255      69636B5F 
 4255      4952516E 
 4255      00
 4256              	.LASF121:
 4257 020b 55534152 		.ascii	"USART3_IRQn\000"
 4257      54335F49 
 4257      52516E00 
ARM GAS  /tmp/ccxqq0Hi.s 			page 78


 4258              	.LASF204:
 4259 0217 75736172 		.ascii	"usart\000"
 4259      7400
 4260              	.LASF1:
 4261 021d 7369676E 		.ascii	"signed char\000"
 4261      65642063 
 4261      68617200 
 4262              	.LASF60:
 4263 0229 65776D61 		.ascii	"ewmask\000"
 4263      736B00
 4264              	.LASF3:
 4265 0230 75696E74 		.ascii	"uint8_t\000"
 4265      385F7400 
 4266              	.LASF21:
 4267 0238 6576656E 		.ascii	"eventmask_t\000"
 4267      746D6173 
 4267      6B5F7400 
 4268              	.LASF46:
 4269 0244 636F6E74 		.ascii	"context\000"
 4269      65787400 
 4270              	.LASF95:
 4271 024c 444D4131 		.ascii	"DMA1_Stream2_IRQn\000"
 4271      5F537472 
 4271      65616D32 
 4271      5F495251 
 4271      6E00
 4272              	.LASF169:
 4273 025e 52455345 		.ascii	"RESERVED0\000"
 4273      52564544 
 4273      3000
 4274              	.LASF172:
 4275 0268 52455345 		.ascii	"RESERVED1\000"
 4275      52564544 
 4275      3100
 4276              	.LASF4:
 4277 0272 756E7369 		.ascii	"unsigned char\000"
 4277      676E6564 
 4277      20636861 
 4277      7200
 4278              	.LASF142:
 4279 0280 444D4132 		.ascii	"DMA2_Stream4_IRQn\000"
 4279      5F537472 
 4279      65616D34 
 4279      5F495251 
 4279      6E00
 4280              	.LASF183:
 4281 0292 52455345 		.ascii	"RESERVED4\000"
 4281      52564544 
 4281      3400
 4282              	.LASF186:
 4283 029c 52455345 		.ascii	"RESERVED5\000"
 4283      52564544 
 4283      3500
 4284              	.LASF188:
 4285 02a6 52455345 		.ascii	"RESERVED6\000"
 4285      52564544 
 4285      3600
ARM GAS  /tmp/ccxqq0Hi.s 			page 79


 4286              	.LASF114:
 4287 02b0 49324331 		.ascii	"I2C1_ER_IRQn\000"
 4287      5F45525F 
 4287      4952516E 
 4287      00
 4288              	.LASF148:
 4289 02bd 43414E32 		.ascii	"CAN2_SCE_IRQn\000"
 4289      5F534345 
 4289      5F495251 
 4289      6E00
 4290              	.LASF194:
 4291 02cb 53445F55 		.ascii	"SD_UNINIT\000"
 4291      4E494E49 
 4291      5400
 4292              	.LASF176:
 4293 02d5 52455345 		.ascii	"RESERVED2\000"
 4293      52564544 
 4293      3200
 4294              	.LASF179:
 4295 02df 52455345 		.ascii	"RESERVED3\000"
 4295      52564544 
 4295      3300
 4296              	.LASF132:
 4297 02e9 54494D35 		.ascii	"TIM5_IRQn\000"
 4297      5F495251 
 4297      6E00
 4298              	.LASF77:
 4299 02f3 55736167 		.ascii	"UsageFault_IRQn\000"
 4299      65466175 
 4299      6C745F49 
 4299      52516E00 
 4300              	.LASF61:
 4301 0303 63686172 		.ascii	"char\000"
 4301      00
 4302              	.LASF26:
 4303 0308 705F7072 		.ascii	"p_prio\000"
 4303      696F00
 4304              	.LASF174:
 4305 030f 41484232 		.ascii	"AHB2ENR\000"
 4305      454E5200 
 4306              	.LASF62:
 4307 0317 47656E65 		.ascii	"GenericQueue\000"
 4307      72696351 
 4307      75657565 
 4307      00
 4308              	.LASF59:
 4309 0324 77746F62 		.ascii	"wtobjp\000"
 4309      6A7000
 4310              	.LASF102:
 4311 032b 43414E31 		.ascii	"CAN1_RX0_IRQn\000"
 4311      5F525830 
 4311      5F495251 
 4311      6E00
 4312              	.LASF200:
 4313 0339 666C6167 		.ascii	"flags\000"
 4313      7300
 4314              	.LASF193:
ARM GAS  /tmp/ccxqq0Hi.s 			page 80


 4315 033f 55534152 		.ascii	"USART_TypeDef\000"
 4315      545F5479 
 4315      70654465 
 4315      6600
 4316              	.LASF72:
 4317 034d 4F757470 		.ascii	"OutputQueue\000"
 4317      75745175 
 4317      65756500 
 4318              	.LASF112:
 4319 0359 54494D34 		.ascii	"TIM4_IRQn\000"
 4319      5F495251 
 4319      6E00
 4320              	.LASF120:
 4321 0363 55534152 		.ascii	"USART2_IRQn\000"
 4321      54325F49 
 4321      52516E00 
 4322              	.LASF213:
 4323 036f 70757477 		.ascii	"putwouldblock\000"
 4323      6F756C64 
 4323      626C6F63 
 4323      6B00
 4324              	.LASF187:
 4325 037d 42444352 		.ascii	"BDCR\000"
 4325      00
 4326              	.LASF113:
 4327 0382 49324331 		.ascii	"I2C1_EV_IRQn\000"
 4327      5F45565F 
 4327      4952516E 
 4327      00
 4328              	.LASF45:
 4329 038f 696E7463 		.ascii	"intctx\000"
 4329      747800
 4330              	.LASF38:
 4331 0396 705F6570 		.ascii	"p_epending\000"
 4331      656E6469 
 4331      6E6700
 4332              	.LASF165:
 4333 03a1 43464752 		.ascii	"CFGR\000"
 4333      00
 4334              	.LASF109:
 4335 03a6 54494D31 		.ascii	"TIM1_CC_IRQn\000"
 4335      5F43435F 
 4335      4952516E 
 4335      00
 4336              	.LASF162:
 4337 03b3 48415348 		.ascii	"HASH_RNG_IRQn\000"
 4337      5F524E47 
 4337      5F495251 
 4337      6E00
 4338              	.LASF89:
 4339 03c1 45585449 		.ascii	"EXTI1_IRQn\000"
 4339      315F4952 
 4339      516E00
 4340              	.LASF101:
 4341 03cc 43414E31 		.ascii	"CAN1_TX_IRQn\000"
 4341      5F54585F 
 4341      4952516E 
ARM GAS  /tmp/ccxqq0Hi.s 			page 81


 4341      00
 4342              	.LASF98:
 4343 03d9 444D4131 		.ascii	"DMA1_Stream5_IRQn\000"
 4343      5F537472 
 4343      65616D35 
 4343      5F495251 
 4343      6E00
 4344              	.LASF127:
 4345 03eb 54494D38 		.ascii	"TIM8_TRG_COM_TIM14_IRQn\000"
 4345      5F545247 
 4345      5F434F4D 
 4345      5F54494D 
 4345      31345F49 
 4346              	.LASF56:
 4347 0403 65735F6E 		.ascii	"es_next\000"
 4347      65787400 
 4348              	.LASF64:
 4349 040b 715F636F 		.ascii	"q_counter\000"
 4349      756E7465 
 4349      7200
 4350              	.LASF149:
 4351 0415 4F54475F 		.ascii	"OTG_FS_IRQn\000"
 4351      46535F49 
 4351      52516E00 
 4352              	.LASF74:
 4353 0421 4E6F6E4D 		.ascii	"NonMaskableInt_IRQn\000"
 4353      61736B61 
 4353      626C6549 
 4353      6E745F49 
 4353      52516E00 
 4354              	.LASF130:
 4355 0435 46534D43 		.ascii	"FSMC_IRQn\000"
 4355      5F495251 
 4355      6E00
 4356              	.LASF55:
 4357 043f 4576656E 		.ascii	"EventSource\000"
 4357      74536F75 
 4357      72636500 
 4358              	.LASF82:
 4359 044b 57574447 		.ascii	"WWDG_IRQn\000"
 4359      5F495251 
 4359      6E00
 4360              	.LASF11:
 4361 0455 6C6F6E67 		.ascii	"long unsigned int\000"
 4361      20756E73 
 4361      69676E65 
 4361      6420696E 
 4361      7400
 4362              	.LASF75:
 4363 0467 4D656D6F 		.ascii	"MemoryManagement_IRQn\000"
 4363      72794D61 
 4363      6E616765 
 4363      6D656E74 
 4363      5F495251 
 4364              	.LASF84:
 4365 047d 54414D50 		.ascii	"TAMP_STAMP_IRQn\000"
 4365      5F535441 
ARM GAS  /tmp/ccxqq0Hi.s 			page 82


 4365      4D505F49 
 4365      52516E00 
 4366              	.LASF104:
 4367 048d 43414E31 		.ascii	"CAN1_SCE_IRQn\000"
 4367      5F534345 
 4367      5F495251 
 4367      6E00
 4368              	.LASF52:
 4369 049b 656C5F6E 		.ascii	"el_next\000"
 4369      65787400 
 4370              	.LASF67:
 4371 04a3 715F7772 		.ascii	"q_wrptr\000"
 4371      70747200 
 4372              	.LASF210:
 4373 04ab 53657269 		.ascii	"SerialDriverVMT\000"
 4373      616C4472 
 4373      69766572 
 4373      564D5400 
 4374              	.LASF221:
 4375 04bb 75736172 		.ascii	"usart_deinit\000"
 4375      745F6465 
 4375      696E6974 
 4375      00
 4376              	.LASF116:
 4377 04c8 49324332 		.ascii	"I2C2_ER_IRQn\000"
 4377      5F45525F 
 4377      4952516E 
 4377      00
 4378              	.LASF76:
 4379 04d5 42757346 		.ascii	"BusFault_IRQn\000"
 4379      61756C74 
 4379      5F495251 
 4379      6E00
 4380              	.LASF229:
 4381 04e3 73645F6C 		.ascii	"sd_lld_init\000"
 4381      6C645F69 
 4381      6E697400 
 4382              	.LASF164:
 4383 04ef 504C4C43 		.ascii	"PLLCFGR\000"
 4383      46475200 
 4384              	.LASF135:
 4385 04f7 55415254 		.ascii	"UART5_IRQn\000"
 4385      355F4952 
 4385      516E00
 4386              	.LASF106:
 4387 0502 54494D31 		.ascii	"TIM1_BRK_TIM9_IRQn\000"
 4387      5F42524B 
 4387      5F54494D 
 4387      395F4952 
 4387      516E00
 4388              	.LASF206:
 4389 0515 73635F63 		.ascii	"sc_cr1\000"
 4389      723100
 4390              	.LASF207:
 4391 051c 73635F63 		.ascii	"sc_cr2\000"
 4391      723200
 4392              	.LASF208:
ARM GAS  /tmp/ccxqq0Hi.s 			page 83


 4393 0523 73635F63 		.ascii	"sc_cr3\000"
 4393      723300
 4394              	.LASF47:
 4395 052a 4D757465 		.ascii	"Mutex\000"
 4395      7800
 4396              	.LASF137:
 4397 0530 54494D37 		.ascii	"TIM7_IRQn\000"
 4397      5F495251 
 4397      6E00
 4398              	.LASF12:
 4399 053a 6C6F6E67 		.ascii	"long long int\000"
 4399      206C6F6E 
 4399      6720696E 
 4399      7400
 4400              	.LASF144:
 4401 0548 4554485F 		.ascii	"ETH_WKUP_IRQn\000"
 4401      574B5550 
 4401      5F495251 
 4401      6E00
 4402              	.LASF159:
 4403 0556 4F54475F 		.ascii	"OTG_HS_IRQn\000"
 4403      48535F49 
 4403      52516E00 
 4404              	.LASF48:
 4405 0562 6D5F7175 		.ascii	"m_queue\000"
 4405      65756500 
 4406              	.LASF189:
 4407 056a 53534347 		.ascii	"SSCGR\000"
 4407      5200
 4408              	.LASF117:
 4409 0570 53504931 		.ascii	"SPI1_IRQn\000"
 4409      5F495251 
 4409      6E00
 4410              	.LASF78:
 4411 057a 53564361 		.ascii	"SVCall_IRQn\000"
 4411      6C6C5F49 
 4411      52516E00 
 4412              	.LASF171:
 4413 0586 41504232 		.ascii	"APB2RSTR\000"
 4413      52535452 
 4413      00
 4414              	.LASF163:
 4415 058f 4650555F 		.ascii	"FPU_IRQn\000"
 4415      4952516E 
 4415      00
 4416              	.LASF134:
 4417 0598 55415254 		.ascii	"UART4_IRQn\000"
 4417      345F4952 
 4417      516E00
 4418              	.LASF185:
 4419 05a3 41504232 		.ascii	"APB2LPENR\000"
 4419      4C50454E 
 4419      5200
 4420              	.LASF70:
 4421 05ad 716E6F74 		.ascii	"qnotify_t\000"
 4421      6966795F 
 4421      7400
ARM GAS  /tmp/ccxqq0Hi.s 			page 84


 4422              	.LASF35:
 4423 05b7 705F7761 		.ascii	"p_waiting\000"
 4423      6974696E 
 4423      6700
 4424              	.LASF138:
 4425 05c1 444D4132 		.ascii	"DMA2_Stream0_IRQn\000"
 4425      5F537472 
 4425      65616D30 
 4425      5F495251 
 4425      6E00
 4426              	.LASF199:
 4427 05d3 6576656E 		.ascii	"event\000"
 4427      7400
 4428              	.LASF124:
 4429 05d9 4F54475F 		.ascii	"OTG_FS_WKUP_IRQn\000"
 4429      46535F57 
 4429      4B55505F 
 4429      4952516E 
 4429      00
 4430              	.LASF32:
 4431 05ea 705F666C 		.ascii	"p_flags\000"
 4431      61677300 
 4432              	.LASF212:
 4433 05f2 72656164 		.ascii	"read\000"
 4433      00
 4434              	.LASF0:
 4435 05f7 756E7369 		.ascii	"unsigned int\000"
 4435      676E6564 
 4435      20696E74 
 4435      00
 4436              	.LASF136:
 4437 0604 54494D36 		.ascii	"TIM6_DAC_IRQn\000"
 4437      5F444143 
 4437      5F495251 
 4437      6E00
 4438              	.LASF41:
 4439 0612 705F6D70 		.ascii	"p_mpool\000"
 4439      6F6F6C00 
 4440              	.LASF115:
 4441 061a 49324332 		.ascii	"I2C2_EV_IRQn\000"
 4441      5F45565F 
 4441      4952516E 
 4441      00
 4442              	.LASF33:
 4443 0627 705F7265 		.ascii	"p_refs\000"
 4443      667300
 4444              	.LASF205:
 4445 062e 73635F73 		.ascii	"sc_speed\000"
 4445      70656564 
 4445      00
 4446              	.LASF43:
 4447 0637 54687265 		.ascii	"ThreadsList\000"
 4447      6164734C 
 4447      69737400 
 4448              	.LASF73:
 4449 0643 696F666C 		.ascii	"ioflags_t\000"
 4449      6167735F 
ARM GAS  /tmp/ccxqq0Hi.s 			page 85


 4449      7400
 4450              	.LASF184:
 4451 064d 41504231 		.ascii	"APB1LPENR\000"
 4451      4C50454E 
 4451      5200
 4452              	.LASF94:
 4453 0657 444D4131 		.ascii	"DMA1_Stream1_IRQn\000"
 4453      5F537472 
 4453      65616D31 
 4453      5F495251 
 4453      6E00
 4454              	.LASF141:
 4455 0669 444D4132 		.ascii	"DMA2_Stream3_IRQn\000"
 4455      5F537472 
 4455      65616D33 
 4455      5F495251 
 4455      6E00
 4456              	.LASF145:
 4457 067b 43414E32 		.ascii	"CAN2_TX_IRQn\000"
 4457      5F54585F 
 4457      4952516E 
 4457      00
 4458              	.LASF34:
 4459 0688 705F7469 		.ascii	"p_time\000"
 4459      6D6500
 4460              	.LASF236:
 4461 068f 4952516E 		.ascii	"IRQn\000"
 4461      00
 4462              	.LASF99:
 4463 0694 444D4131 		.ascii	"DMA1_Stream6_IRQn\000"
 4463      5F537472 
 4463      65616D36 
 4463      5F495251 
 4463      6E00
 4464              	.LASF235:
 4465 06a6 2F6F7074 		.ascii	"/opt/ChibiOS/ChibiOS_2.4.4/os/hal/platforms/STM32/s"
 4465      2F436869 
 4465      62694F53 
 4465      2F436869 
 4465      62694F53 
 4466 06d9 65726961 		.ascii	"erial_lld.c\000"
 4466      6C5F6C6C 
 4466      642E6300 
 4467              	.LASF168:
 4468 06e5 41484233 		.ascii	"AHB3RSTR\000"
 4468      52535452 
 4468      00
 4469              	.LASF40:
 4470 06ee 705F7265 		.ascii	"p_realprio\000"
 4470      616C7072 
 4470      696F00
 4471              	.LASF214:
 4472 06f9 67657477 		.ascii	"getwouldblock\000"
 4472      6F756C64 
 4472      626C6F63 
 4472      6B00
 4473              	.LASF152:
ARM GAS  /tmp/ccxqq0Hi.s 			page 86


 4474 0707 444D4132 		.ascii	"DMA2_Stream7_IRQn\000"
 4474      5F537472 
 4474      65616D37 
 4474      5F495251 
 4474      6E00
 4475              	.LASF93:
 4476 0719 444D4131 		.ascii	"DMA1_Stream0_IRQn\000"
 4476      5F537472 
 4476      65616D30 
 4476      5F495251 
 4476      6E00
 4477              	.LASF170:
 4478 072b 41504231 		.ascii	"APB1RSTR\000"
 4478      52535452 
 4478      00
 4479              	.LASF219:
 4480 0734 75736172 		.ascii	"usart_init\000"
 4480      745F696E 
 4480      697400
 4481              	.LASF123:
 4482 073f 5254435F 		.ascii	"RTC_Alarm_IRQn\000"
 4482      416C6172 
 4482      6D5F4952 
 4482      516E00
 4483              	.LASF177:
 4484 074e 41504231 		.ascii	"APB1ENR\000"
 4484      454E5200 
 4485              	.LASF155:
 4486 0756 49324333 		.ascii	"I2C3_ER_IRQn\000"
 4486      5F45525F 
 4486      4952516E 
 4486      00
 4487              	.LASF161:
 4488 0763 43525950 		.ascii	"CRYP_IRQn\000"
 4488      5F495251 
 4488      6E00
 4489              	.LASF122:
 4490 076d 45585449 		.ascii	"EXTI15_10_IRQn\000"
 4490      31355F31 
 4490      305F4952 
 4490      516E00
 4491              	.LASF13:
 4492 077c 6C6F6E67 		.ascii	"long long unsigned int\000"
 4492      206C6F6E 
 4492      6720756E 
 4492      7369676E 
 4492      65642069 
 4493              	.LASF29:
 4494 0793 705F6F6C 		.ascii	"p_older\000"
 4494      64657200 
 4495              	.LASF6:
 4496 079b 75696E74 		.ascii	"uint16_t\000"
 4496      31365F74 
 4496      00
 4497              	.LASF20:
 4498 07a4 6D73675F 		.ascii	"msg_t\000"
 4498      7400
ARM GAS  /tmp/ccxqq0Hi.s 			page 87


 4499              	.LASF111:
 4500 07aa 54494D33 		.ascii	"TIM3_IRQn\000"
 4500      5F495251 
 4500      6E00
 4501              	.LASF119:
 4502 07b4 55534152 		.ascii	"USART1_IRQn\000"
 4502      54315F49 
 4502      52516E00 
 4503              	.LASF90:
 4504 07c0 45585449 		.ascii	"EXTI2_IRQn\000"
 4504      325F4952 
 4504      516E00
 4505              	.LASF147:
 4506 07cb 43414E32 		.ascii	"CAN2_RX1_IRQn\000"
 4506      5F525831 
 4506      5F495251 
 4506      6E00
 4507              	.LASF100:
 4508 07d9 4144435F 		.ascii	"ADC_IRQn\000"
 4508      4952516E 
 4508      00
 4509              	.LASF182:
 4510 07e2 41484233 		.ascii	"AHB3LPENR\000"
 4510      4C50454E 
 4510      5200
 4511              	.LASF83:
 4512 07ec 5056445F 		.ascii	"PVD_IRQn\000"
 4512      4952516E 
 4512      00
 4513              	.LASF198:
 4514 07f5 53657269 		.ascii	"SerialDriver\000"
 4514      616C4472 
 4514      69766572 
 4514      00
 4515              	.LASF63:
 4516 0802 715F7761 		.ascii	"q_waiting\000"
 4516      6974696E 
 4516      6700
 4517              	.LASF88:
 4518 080c 45585449 		.ascii	"EXTI0_IRQn\000"
 4518      305F4952 
 4518      516E00
 4519              	.LASF16:
 4520 0817 746D6F64 		.ascii	"tmode_t\000"
 4520      655F7400 
 4521              	.LASF97:
 4522 081f 444D4131 		.ascii	"DMA1_Stream4_IRQn\000"
 4522      5F537472 
 4522      65616D34 
 4522      5F495251 
 4522      6E00
 4523              	.LASF197:
 4524 0831 73647374 		.ascii	"sdstate_t\000"
 4524      6174655F 
 4524      7400
 4525              	.LASF151:
 4526 083b 444D4132 		.ascii	"DMA2_Stream6_IRQn\000"
ARM GAS  /tmp/ccxqq0Hi.s 			page 88


 4526      5F537472 
 4526      65616D36 
 4526      5F495251 
 4526      6E00
 4527              	.LASF173:
 4528 084d 41484231 		.ascii	"AHB1ENR\000"
 4528      454E5200 
 4529              	.LASF79:
 4530 0855 44656275 		.ascii	"DebugMonitor_IRQn\000"
 4530      674D6F6E 
 4530      69746F72 
 4530      5F495251 
 4530      6E00
 4531              	.LASF196:
 4532 0867 53445F52 		.ascii	"SD_READY\000"
 4532      45414459 
 4532      00
 4533              	.LASF154:
 4534 0870 49324333 		.ascii	"I2C3_EV_IRQn\000"
 4534      5F45565F 
 4534      4952516E 
 4534      00
 4535              	.LASF167:
 4536 087d 41484232 		.ascii	"AHB2RSTR\000"
 4536      52535452 
 4536      00
 4537              	.LASF143:
 4538 0886 4554485F 		.ascii	"ETH_IRQn\000"
 4538      4952516E 
 4538      00
 4539              	.LASF222:
 4540 088f 6E6F7469 		.ascii	"notify1\000"
 4540      66793100 
 4541              	.LASF223:
 4542 0897 6E6F7469 		.ascii	"notify2\000"
 4542      66793200 
 4543              	.LASF224:
 4544 089f 6E6F7469 		.ascii	"notify3\000"
 4544      66793300 
 4545              	.LASF191:
 4546 08a7 5243435F 		.ascii	"RCC_TypeDef\000"
 4546      54797065 
 4546      44656600 
 4547              	.LASF5:
 4548 08b3 73686F72 		.ascii	"short int\000"
 4548      7420696E 
 4548      7400
 4549              	.LASF87:
 4550 08bd 5243435F 		.ascii	"RCC_IRQn\000"
 4550      4952516E 
 4550      00
 4551              	.LASF202:
 4552 08c6 69717565 		.ascii	"iqueue\000"
 4552      756500
 4553              	.LASF96:
 4554 08cd 444D4131 		.ascii	"DMA1_Stream3_IRQn\000"
 4554      5F537472 
ARM GAS  /tmp/ccxqq0Hi.s 			page 89


 4554      65616D33 
 4554      5F495251 
 4554      6E00
 4555              	.LASF15:
 4556 08df 626F6F6C 		.ascii	"bool_t\000"
 4556      5F7400
 4557              	.LASF23:
 4558 08e6 54687265 		.ascii	"Thread\000"
 4558      616400
 4559              	.LASF107:
 4560 08ed 54494D31 		.ascii	"TIM1_UP_TIM10_IRQn\000"
 4560      5F55505F 
 4560      54494D31 
 4560      305F4952 
 4560      516E00
 4561              	.LASF233:
 4562 0900 49544D5F 		.ascii	"ITM_RxBuffer\000"
 4562      52784275 
 4562      66666572 
 4562      00
 4563              	.LASF217:
 4564 090d 67657466 		.ascii	"getflags\000"
 4564      6C616773 
 4564      00
 4565              	.LASF18:
 4566 0916 74726566 		.ascii	"trefs_t\000"
 4566      735F7400 
 4567              	.LASF156:
 4568 091e 4F54475F 		.ascii	"OTG_HS_EP1_OUT_IRQn\000"
 4568      48535F45 
 4568      50315F4F 
 4568      55545F49 
 4568      52516E00 
 4569              	.LASF85:
 4570 0932 5254435F 		.ascii	"RTC_WKUP_IRQn\000"
 4570      574B5550 
 4570      5F495251 
 4570      6E00
 4571              	.LASF234:
 4572 0940 474E5520 		.ascii	"GNU C 4.6.3\000"
 4572      4320342E 
 4572      362E3300 
 4573              	.LASF51:
 4574 094c 4576656E 		.ascii	"EventListener\000"
 4574      744C6973 
 4574      74656E65 
 4574      7200
 4575              	.LASF10:
 4576 095a 75696E74 		.ascii	"uint32_t\000"
 4576      33325F74 
 4576      00
 4577              	.LASF226:
 4578 0963 56656374 		.ascii	"VectorD4\000"
 4578      6F724434 
 4578      00
 4579              	.LASF103:
 4580 096c 43414E31 		.ascii	"CAN1_RX1_IRQn\000"
ARM GAS  /tmp/ccxqq0Hi.s 			page 90


 4580      5F525831 
 4580      5F495251 
 4580      6E00
 4581              	.LASF42:
 4582 097a 54687265 		.ascii	"ThreadsQueue\000"
 4582      61647351 
 4582      75657565 
 4582      00
 4583              	.LASF14:
 4584 0987 75696E74 		.ascii	"uint_fast16_t\000"
 4584      5F666173 
 4584      7431365F 
 4584      7400
 4585              	.LASF228:
 4586 0995 56656374 		.ascii	"VectorDC\000"
 4586      6F724443 
 4586      00
 4587              	.LASF105:
 4588 099e 45585449 		.ascii	"EXTI9_5_IRQn\000"
 4588      395F355F 
 4588      4952516E 
 4588      00
 4589              	.LASF57:
 4590 09ab 7264796D 		.ascii	"rdymsg\000"
 4590      736700
 4591              	.LASF92:
 4592 09b2 45585449 		.ascii	"EXTI4_IRQn\000"
 4592      345F4952 
 4592      516E00
 4593              	.LASF7:
 4594 09bd 73686F72 		.ascii	"short unsigned int\000"
 4594      7420756E 
 4594      7369676E 
 4594      65642069 
 4594      6E7400
 4595              	.LASF231:
 4596 09d0 73645F6C 		.ascii	"sd_lld_stop\000"
 4596      6C645F73 
 4596      746F7000 
 4597              	.LASF128:
 4598 09dc 54494D38 		.ascii	"TIM8_CC_IRQn\000"
 4598      5F43435F 
 4598      4952516E 
 4598      00
 4599              	.LASF131:
 4600 09e9 5344494F 		.ascii	"SDIO_IRQn\000"
 4600      5F495251 
 4600      6E00
 4601              	.LASF71:
 4602 09f3 496E7075 		.ascii	"InputQueue\000"
 4602      74517565 
 4602      756500
 4603              	.LASF91:
 4604 09fe 45585449 		.ascii	"EXTI3_IRQn\000"
 4604      335F4952 
 4604      516E00
 4605              	.LASF80:
ARM GAS  /tmp/ccxqq0Hi.s 			page 91


 4606 0a09 50656E64 		.ascii	"PendSV_IRQn\000"
 4606      53565F49 
 4606      52516E00 
 4607              	.LASF157:
 4608 0a15 4F54475F 		.ascii	"OTG_HS_EP1_IN_IRQn\000"
 4608      48535F45 
 4608      50315F49 
 4608      4E5F4952 
 4608      516E00
 4609              	.LASF129:
 4610 0a28 444D4131 		.ascii	"DMA1_Stream7_IRQn\000"
 4610      5F537472 
 4610      65616D37 
 4610      5F495251 
 4610      6E00
 4611              	.LASF166:
 4612 0a3a 41484231 		.ascii	"AHB1RSTR\000"
 4612      52535452 
 4612      00
 4613              	.LASF195:
 4614 0a43 53445F53 		.ascii	"SD_STOP\000"
 4614      544F5000 
 4615              	.LASF54:
 4616 0a4b 656C5F6D 		.ascii	"el_mask\000"
 4616      61736B00 
 4617              	.LASF30:
 4618 0a53 705F6E61 		.ascii	"p_name\000"
 4618      6D6500
 4619              	.LASF50:
 4620 0a5a 6D5F6E65 		.ascii	"m_next\000"
 4620      787400
 4621              	.LASF175:
 4622 0a61 41484233 		.ascii	"AHB3ENR\000"
 4622      454E5200 
 4623              	.LASF140:
 4624 0a69 444D4132 		.ascii	"DMA2_Stream2_IRQn\000"
 4624      5F537472 
 4624      65616D32 
 4624      5F495251 
 4624      6E00
 4625              	.LASF37:
 4626 0a7b 705F6D73 		.ascii	"p_msg\000"
 4626      6700
 4627              	.LASF53:
 4628 0a81 656C5F6C 		.ascii	"el_listener\000"
 4628      69737465 
 4628      6E657200 
 4629              	.LASF31:
 4630 0a8d 705F7374 		.ascii	"p_state\000"
 4630      61746500 
 4631              		.ident	"GCC: (Sourcery CodeBench Lite 2012.03-56) 4.6.3"
ARM GAS  /tmp/ccxqq0Hi.s 			page 92


DEFINED SYMBOLS
                            *ABS*:00000000 serial_lld.c
     /tmp/ccxqq0Hi.s:21     .text.notify1:00000000 $t
     /tmp/ccxqq0Hi.s:26     .text.notify1:00000000 notify1
     /tmp/ccxqq0Hi.s:49     .text.notify2:00000000 $t
     /tmp/ccxqq0Hi.s:54     .text.notify2:00000000 notify2
     /tmp/ccxqq0Hi.s:76     .text.notify3:00000000 $t
     /tmp/ccxqq0Hi.s:81     .text.notify3:00000000 notify3
     /tmp/ccxqq0Hi.s:103    .text.serve_interrupt:00000000 $t
     /tmp/ccxqq0Hi.s:108    .text.serve_interrupt:00000000 serve_interrupt
     /tmp/ccxqq0Hi.s:387    .text.VectorD4:00000000 $t
     /tmp/ccxqq0Hi.s:393    .text.VectorD4:00000000 VectorD4
     /tmp/ccxqq0Hi.s:842    .bss.SD1:00000000 .LANCHOR0
     /tmp/ccxqq0Hi.s:416    .text.VectorD8:00000000 $t
     /tmp/ccxqq0Hi.s:422    .text.VectorD8:00000000 VectorD8
     /tmp/ccxqq0Hi.s:849    .bss.SD2:00000000 .LANCHOR1
     /tmp/ccxqq0Hi.s:445    .text.VectorDC:00000000 $t
     /tmp/ccxqq0Hi.s:451    .text.VectorDC:00000000 VectorDC
     /tmp/ccxqq0Hi.s:856    .bss.SD3:00000000 .LANCHOR2
     /tmp/ccxqq0Hi.s:474    .text.sd_lld_init:00000000 $t
     /tmp/ccxqq0Hi.s:480    .text.sd_lld_init:00000000 sd_lld_init
     /tmp/ccxqq0Hi.s:547    .text.sd_lld_start:00000000 $t
     /tmp/ccxqq0Hi.s:553    .text.sd_lld_start:00000000 sd_lld_start
     /tmp/ccxqq0Hi.s:831    .rodata.default_config:00000000 .LANCHOR3
     /tmp/ccxqq0Hi.s:717    .text.sd_lld_stop:00000000 $t
     /tmp/ccxqq0Hi.s:723    .text.sd_lld_stop:00000000 sd_lld_stop
     /tmp/ccxqq0Hi.s:859    .bss.SD3:00000000 SD3
     /tmp/ccxqq0Hi.s:852    .bss.SD2:00000000 SD2
     /tmp/ccxqq0Hi.s:845    .bss.SD1:00000000 SD1
     /tmp/ccxqq0Hi.s:830    .rodata.default_config:00000000 $d
     /tmp/ccxqq0Hi.s:834    .rodata.default_config:00000000 default_config
     /tmp/ccxqq0Hi.s:841    .bss.SD1:00000000 $d
     /tmp/ccxqq0Hi.s:848    .bss.SD2:00000000 $d
     /tmp/ccxqq0Hi.s:855    .bss.SD3:00000000 $d
                     .debug_frame:00000010 $d

UNDEFINED SYMBOLS
chEvtBroadcastFlagsI
sdIncomingDataI
chOQGetI
_port_irq_epilogue
sdObjectInit
nvicEnableVector
nvicDisableVector
