ARM GAS  /tmp/cc5btYHW.s 			page 1


   1              		.syntax unified
   2              		.cpu cortex-m4
   3              		.eabi_attribute 27, 3
   4              		.eabi_attribute 28, 1
   5              		.fpu fpv4-sp-d16
   6              		.eabi_attribute 20, 1
   7              		.eabi_attribute 21, 1
   8              		.eabi_attribute 23, 3
   9              		.eabi_attribute 24, 1
  10              		.eabi_attribute 25, 1
  11              		.eabi_attribute 26, 1
  12              		.eabi_attribute 30, 2
  13              		.eabi_attribute 34, 1
  14              		.eabi_attribute 18, 4
  15              		.thumb
  16              		.file	"shell.c"
  17              		.text
  18              	.Ltext0:
  19              		.cfi_sections	.debug_frame
  20              		.section	.text.cmd_info,"ax",%progbits
  21              		.align	2
  22              		.p2align 4,,15
  23              		.thumb
  24              		.thumb_func
  25              		.type	cmd_info, %function
  26              	cmd_info:
  27              	.LFB120:
  28              		.file 1 "./src/shell.c"
  29              		.loc 1 80 0
  30              		.cfi_startproc
  31              		@ args = 0, pretend = 0, frame = 0
  32              		@ frame_needed = 0, uses_anonymous_args = 0
  33              		@ link register save eliminated.
  34              	.LVL0:
  35              		.loc 1 83 0
  36 0000 0029     		cmp	r1, #0
  37 0002 09DD     		ble	.L2
  38              	.LVL1:
  39              	.LBB25:
  40              	.LBB26:
  41              		.loc 1 70 0
  42 0004 40F20001 		movw	r1, #:lower16:.LC0
  43              	.LVL2:
  44 0008 40F20002 		movw	r2, #:lower16:.LC1
  45              	.LVL3:
  46 000c C0F20001 		movt	r1, #:upper16:.LC0
  47 0010 C0F20002 		movt	r2, #:upper16:.LC1
  48              	.LBE26:
  49              	.LBE25:
  50              		.loc 1 90 0
  51              	.LBB28:
  52              	.LBB27:
  53              		.loc 1 70 0
  54 0014 FFF7FEBF 		b	chprintf
  55              	.LVL4:
  56              	.L2:
  57              	.LBE27:
ARM GAS  /tmp/cc5btYHW.s 			page 2


  58              	.LBE28:
  59              	.LBB29:
  60              	.LBB30:
  61              		.loc 1 88 0
  62 0018 40F20001 		movw	r1, #:lower16:.LC2
  63              	.LVL5:
  64 001c 40F20002 		movw	r2, #:lower16:.LC3
  65              	.LVL6:
  66 0020 C0F20001 		movt	r1, #:upper16:.LC2
  67 0024 C0F20002 		movt	r2, #:upper16:.LC3
  68              	.LBE30:
  69              	.LBE29:
  70              		.loc 1 90 0
  71              	.LBB32:
  72              	.LBB31:
  73              		.loc 1 88 0
  74 0028 FFF7FEBF 		b	chprintf
  75              	.LVL7:
  76              	.LBE31:
  77              	.LBE32:
  78              		.cfi_endproc
  79              	.LFE120:
  80              		.size	cmd_info, .-cmd_info
  81 002c AFF30080 		.section	.text._strtok.constprop.1,"ax",%progbits
  82              		.align	2
  83              		.p2align 4,,15
  84              		.thumb
  85              		.thumb_func
  86              		.type	_strtok.constprop.1, %function
  87              	_strtok.constprop.1:
  88              	.LFB128:
  89              		.loc 1 52 0
  90              		.cfi_startproc
  91              		@ args = 0, pretend = 0, frame = 0
  92              		@ frame_needed = 0, uses_anonymous_args = 0
  93              	.LVL8:
  94 0000 38B5     		push	{r3, r4, r5, lr}
  95              	.LCFI0:
  96              		.cfi_def_cfa_offset 16
  97              		.cfi_offset 14, -4
  98              		.cfi_offset 5, -8
  99              		.cfi_offset 4, -12
 100              		.cfi_offset 3, -16
 101              		.loc 1 54 0
 102 0002 0446     		mov	r4, r0
 103              		.loc 1 52 0
 104 0004 0D46     		mov	r5, r1
 105              		.loc 1 54 0
 106 0006 C0B1     		cbz	r0, .L5
 107              		.loc 1 55 0
 108 0008 0860     		str	r0, [r1, #0]
 109              	.LVL9:
 110              	.L6:
 111              		.loc 1 61 0
 112 000a 40F20001 		movw	r1, #:lower16:.LANCHOR0
 113              	.LVL10:
 114 000e C0F20001 		movt	r1, #:upper16:.LANCHOR0
ARM GAS  /tmp/cc5btYHW.s 			page 3


 115 0012 2046     		mov	r0, r4
 116              	.LVL11:
 117 0014 FFF7FEFF 		bl	strspn
 118 0018 2418     		adds	r4, r4, r0
 119              	.LVL12:
 120              		.loc 1 62 0
 121 001a 2046     		mov	r0, r4
 122 001c 2021     		movs	r1, #32
 123 001e FFF7FEFF 		bl	strchr
 124 0022 2860     		str	r0, [r5, #0]
 125              		.loc 1 63 0
 126 0024 18B1     		cbz	r0, .L8
 127              		.loc 1 64 0
 128 0026 0023     		movs	r3, #0
 129 0028 00F8013B 		strb	r3, [r0], #1
 130 002c 2860     		str	r0, [r5, #0]
 131              	.L8:
 132              		.loc 1 66 0
 133 002e 2078     		ldrb	r0, [r4, #0]	@ zero_extendqisi2
 134 0030 0028     		cmp	r0, #0
 135 0032 14BF     		ite	ne
 136 0034 2046     		movne	r0, r4
 137 0036 0020     		moveq	r0, #0
 138 0038 38BD     		pop	{r3, r4, r5, pc}
 139              	.LVL13:
 140              	.L5:
 141              		.loc 1 56 0
 142 003a 0C68     		ldr	r4, [r1, #0]
 143              	.LVL14:
 144              		.loc 1 58 0
 145 003c 002C     		cmp	r4, #0
 146 003e E4D1     		bne	.L6
 147              		.loc 1 59 0
 148 0040 2046     		mov	r0, r4
 149              	.LVL15:
 150              		.loc 1 67 0
 151 0042 38BD     		pop	{r3, r4, r5, pc}
 152              		.cfi_endproc
 153              	.LFE128:
 154              		.size	_strtok.constprop.1, .-_strtok.constprop.1
 155 0044 AFF30080 		.section	.text.shellInit,"ax",%progbits
 155      AFF30080 
 155      AFF30080 
 156              		.align	2
 157              		.p2align 4,,15
 158              		.global	shellInit
 159              		.thumb
 160              		.thumb_func
 161              		.type	shellInit, %function
 162              	shellInit:
 163              	.LFB123:
 164              		.loc 1 186 0
 165              		.cfi_startproc
 166              		@ args = 0, pretend = 0, frame = 0
 167              		@ frame_needed = 0, uses_anonymous_args = 0
 168              		@ link register save eliminated.
 169              		.loc 1 188 0
ARM GAS  /tmp/cc5btYHW.s 			page 4


 170 0000 40F20003 		movw	r3, #:lower16:.LANCHOR1
 171 0004 C0F20003 		movt	r3, #:upper16:.LANCHOR1
 172 0008 1B60     		str	r3, [r3, #0]
 173              		.loc 1 189 0
 174 000a 7047     		bx	lr
 175              		.cfi_endproc
 176              	.LFE123:
 177              		.size	shellInit, .-shellInit
 178 000c AFF30080 		.section	.text.shellCreate,"ax",%progbits
 179              		.align	2
 180              		.p2align 4,,15
 181              		.global	shellCreate
 182              		.thumb
 183              		.thumb_func
 184              		.type	shellCreate, %function
 185              	shellCreate:
 186              	.LFB124:
 187              		.loc 1 202 0
 188              		.cfi_startproc
 189              		@ args = 0, pretend = 0, frame = 0
 190              		@ frame_needed = 0, uses_anonymous_args = 0
 191              	.LVL16:
 192 0000 00B5     		push	{lr}
 193              	.LCFI1:
 194              		.cfi_def_cfa_offset 4
 195              		.cfi_offset 14, -4
 196 0002 83B0     		sub	sp, sp, #12
 197              	.LCFI2:
 198              		.cfi_def_cfa_offset 16
 199              		.loc 1 204 0
 200 0004 40F20003 		movw	r3, #:lower16:shell_thread
 201 0008 0090     		str	r0, [sp, #0]
 202 000a C0F20003 		movt	r3, #:upper16:shell_thread
 203 000e 0020     		movs	r0, #0
 204              	.LVL17:
 205 0010 FFF7FEFF 		bl	chThdCreateFromHeap
 206              	.LVL18:
 207              		.loc 1 205 0
 208 0014 03B0     		add	sp, sp, #12
 209 0016 00BD     		pop	{pc}
 210              		.cfi_endproc
 211              	.LFE124:
 212              		.size	shellCreate, .-shellCreate
 213 0018 AFF30080 		.section	.text.shellCreateStatic,"ax",%progbits
 213      AFF30080 
 214              		.align	2
 215              		.p2align 4,,15
 216              		.global	shellCreateStatic
 217              		.thumb
 218              		.thumb_func
 219              		.type	shellCreateStatic, %function
 220              	shellCreateStatic:
 221              	.LFB125:
 222              		.loc 1 218 0
 223              		.cfi_startproc
 224              		@ args = 0, pretend = 0, frame = 0
 225              		@ frame_needed = 0, uses_anonymous_args = 0
ARM GAS  /tmp/cc5btYHW.s 			page 5


 226              	.LVL19:
 227 0000 00B5     		push	{lr}
 228              	.LCFI3:
 229              		.cfi_def_cfa_offset 4
 230              		.cfi_offset 14, -4
 231 0002 83B0     		sub	sp, sp, #12
 232              	.LCFI4:
 233              		.cfi_def_cfa_offset 16
 234              		.loc 1 220 0
 235 0004 0090     		str	r0, [sp, #0]
 236 0006 0846     		mov	r0, r1
 237              	.LVL20:
 238 0008 1146     		mov	r1, r2
 239              	.LVL21:
 240 000a 1A46     		mov	r2, r3
 241              	.LVL22:
 242 000c 40F20003 		movw	r3, #:lower16:shell_thread
 243              	.LVL23:
 244 0010 C0F20003 		movt	r3, #:upper16:shell_thread
 245 0014 FFF7FEFF 		bl	chThdCreateStatic
 246              	.LVL24:
 247              		.loc 1 221 0
 248 0018 03B0     		add	sp, sp, #12
 249 001a 00BD     		pop	{pc}
 250              		.cfi_endproc
 251              	.LFE125:
 252              		.size	shellCreateStatic, .-shellCreateStatic
 253 001c AFF30080 		.section	.text.shellGetLine,"ax",%progbits
 254              		.align	2
 255              		.p2align 4,,15
 256              		.global	shellGetLine
 257              		.thumb
 258              		.thumb_func
 259              		.type	shellGetLine, %function
 260              	shellGetLine:
 261              	.LFB126:
 262              		.loc 1 233 0
 263              		.cfi_startproc
 264              		@ args = 0, pretend = 0, frame = 0
 265              		@ frame_needed = 0, uses_anonymous_args = 0
 266              	.LVL25:
 267              	.LBB33:
 268              		.loc 1 260 0
 269 0000 013A     		subs	r2, r2, #1
 270              	.LVL26:
 271              	.LBE33:
 272              		.loc 1 233 0
 273 0002 F8B5     		push	{r3, r4, r5, r6, r7, lr}
 274              	.LCFI5:
 275              		.cfi_def_cfa_offset 24
 276              		.cfi_offset 14, -4
 277              		.cfi_offset 7, -8
 278              		.cfi_offset 6, -12
 279              		.cfi_offset 5, -16
 280              		.cfi_offset 4, -20
 281              		.cfi_offset 3, -24
 282              		.loc 1 233 0
ARM GAS  /tmp/cc5btYHW.s 			page 6


 283 0004 0C46     		mov	r4, r1
 284              	.LVL27:
 285 0006 0546     		mov	r5, r0
 286              		.loc 1 234 0
 287 0008 0E46     		mov	r6, r1
 288              	.LBB34:
 289              		.loc 1 260 0
 290 000a 8F18     		adds	r7, r1, r2
 291              	.LVL28:
 292              	.L23:
 293              		.loc 1 237 0
 294 000c 2968     		ldr	r1, [r5, #0]
 295 000e 2846     		mov	r0, r5
 296 0010 4B69     		ldr	r3, [r1, #20]
 297 0012 4FF0FF31 		mov	r1, #-1
 298 0016 9847     		blx	r3
 299              	.LVL29:
 300              		.loc 1 238 0
 301 0018 03B2     		sxth	r3, r0
 302 001a 002B     		cmp	r3, #0
 303 001c 14DB     		blt	.L19
 304              	.LVL30:
 305              	.L26:
 306              		.loc 1 240 0
 307 001e 042B     		cmp	r3, #4
 308 0020 18D0     		beq	.L20
 309              		.loc 1 244 0
 310 0022 082B     		cmp	r3, #8
 311 0024 12D0     		beq	.L24
 312              		.loc 1 253 0
 313 0026 0D2B     		cmp	r3, #13
 314 0028 16D0     		beq	.L25
 315              		.loc 1 258 0
 316 002a 1F2B     		cmp	r3, #31
 317 002c EEDD     		ble	.L23
 318              		.loc 1 260 0
 319 002e BE42     		cmp	r6, r7
 320              		.loc 1 262 0
 321 0030 38BF     		it	cc
 322 0032 06F8010B 		strbcc	r0, [r6], #1
 323              	.LVL31:
 324              		.loc 1 237 0
 325 0036 2968     		ldr	r1, [r5, #0]
 326 0038 2846     		mov	r0, r5
 327 003a 4B69     		ldr	r3, [r1, #20]
 328 003c 4FF0FF31 		mov	r1, #-1
 329 0040 9847     		blx	r3
 330              	.LVL32:
 331              		.loc 1 238 0
 332 0042 03B2     		sxth	r3, r0
 333 0044 002B     		cmp	r3, #0
 334 0046 EADA     		bge	.L26
 335              	.LVL33:
 336              	.L19:
 337              		.loc 1 239 0
 338 0048 0120     		movs	r0, #1
 339 004a F8BD     		pop	{r3, r4, r5, r6, r7, pc}
ARM GAS  /tmp/cc5btYHW.s 			page 7


 340              	.L24:
 341              		.loc 1 245 0
 342 004c A642     		cmp	r6, r4
 343 004e DDD0     		beq	.L23
 344              		.loc 1 249 0
 345 0050 013E     		subs	r6, r6, #1
 346              	.LVL34:
 347 0052 DBE7     		b	.L23
 348              	.L20:
 349              		.loc 1 242 0
 350 0054 0120     		movs	r0, #1
 351              	.LBE34:
 352              		.loc 1 266 0
 353 0056 F8BD     		pop	{r3, r4, r5, r6, r7, pc}
 354              	.L25:
 355              	.LBB35:
 356              		.loc 1 255 0
 357 0058 0020     		movs	r0, #0
 358 005a 3070     		strb	r0, [r6, #0]
 359              		.loc 1 256 0
 360 005c F8BD     		pop	{r3, r4, r5, r6, r7, pc}
 361              	.LBE35:
 362              		.cfi_endproc
 363              	.LFE126:
 364              		.size	shellGetLine, .-shellGetLine
 365 005e 00BF     		.section	.text.shell_thread,"ax",%progbits
 366              		.align	2
 367              		.p2align 4,,15
 368              		.thumb
 369              		.thumb_func
 370              		.type	shell_thread, %function
 371              	shell_thread:
 372              	.LFB122:
 373              		.loc 1 121 0
 374              		.cfi_startproc
 375              		@ args = 0, pretend = 0, frame = 96
 376              		@ frame_needed = 0, uses_anonymous_args = 0
 377              	.LVL35:
 378 0000 2DE9F04F 		push	{r4, r5, r6, r7, r8, r9, sl, fp, lr}
 379              	.LCFI6:
 380              		.cfi_def_cfa_offset 36
 381              		.cfi_offset 14, -4
 382              		.cfi_offset 11, -8
 383              		.cfi_offset 10, -12
 384              		.cfi_offset 9, -16
 385              		.cfi_offset 8, -20
 386              		.cfi_offset 7, -24
 387              		.cfi_offset 6, -28
 388              		.cfi_offset 5, -32
 389              		.cfi_offset 4, -36
 390              		.loc 1 129 0
 391 0004 40F20001 		movw	r1, #:lower16:rlist
 392 0008 C0F20001 		movt	r1, #:upper16:rlist
 393              	.LBB36:
 394              	.LBB37:
 395              		.loc 1 74 0
 396 000c 40F20005 		movw	r5, #:lower16:.LANCHOR2
ARM GAS  /tmp/cc5btYHW.s 			page 8


 397              	.LBE37:
 398              	.LBE36:
 399              		.loc 1 129 0
 400 0010 CA69     		ldr	r2, [r1, #28]
 401 0012 40F20003 		movw	r3, #:lower16:.LC5
 402              	.LBB40:
 403              	.LBB38:
 404              		.loc 1 74 0
 405 0016 C0F20005 		movt	r5, #:upper16:.LANCHOR2
 406              	.LBE38:
 407              	.LBE40:
 408              		.loc 1 129 0
 409 001a C0F20003 		movt	r3, #:upper16:.LC5
 410 001e 05F10808 		add	r8, r5, #8
 411              		.loc 1 125 0
 412 0022 90E89000 		ldmia	r0, {r4, r7}
 413              	.LVL36:
 414              		.loc 1 121 0
 415 0026 99B0     		sub	sp, sp, #100
 416              	.LCFI7:
 417              		.cfi_def_cfa_offset 136
 418              		.loc 1 129 0
 419 0028 9361     		str	r3, [r2, #24]
 420              	.LBB41:
 421              	.LBB42:
 422              		.loc 1 121 0
 423 002a 4646     		mov	r6, r8
 424              	.LVL37:
 425              	.L60:
 426              	.LBE42:
 427              	.LBE41:
 428              		.loc 1 133 0
 429 002c 2046     		mov	r0, r4
 430 002e 02A9     		add	r1, sp, #8
 431 0030 4022     		movs	r2, #64
 432 0032 FFF7FEFF 		bl	shellGetLine
 433 0036 8346     		mov	fp, r0
 434 0038 0028     		cmp	r0, #0
 435 003a 3CD1     		bne	.L62
 436              	.L30:
 437              		.loc 1 137 0
 438 003c 17A9     		add	r1, sp, #92
 439 003e 02A8     		add	r0, sp, #8
 440 0040 FFF7FEFF 		bl	_strtok.constprop.1
 441              		.loc 1 140 0
 442 0044 17A9     		add	r1, sp, #92
 443              		.loc 1 137 0
 444 0046 8246     		mov	sl, r0
 445              	.LVL38:
 446              		.loc 1 140 0
 447 0048 5846     		mov	r0, fp
 448              	.LVL39:
 449 004a FFF7FEFF 		bl	_strtok.constprop.1
 450              	.LVL40:
 451 004e 0346     		mov	r3, r0
 452 0050 0028     		cmp	r0, #0
 453 0052 48D0     		beq	.L49
ARM GAS  /tmp/cc5btYHW.s 			page 9


 454 0054 5846     		mov	r0, fp
 455              	.LVL41:
 456 0056 17A9     		add	r1, sp, #92
 457              		.loc 1 146 0
 458 0058 1293     		str	r3, [sp, #72]
 459              	.LVL42:
 460              		.loc 1 140 0
 461 005a FFF7FEFF 		bl	_strtok.constprop.1
 462              	.LVL43:
 463 005e 0346     		mov	r3, r0
 464 0060 0028     		cmp	r0, #0
 465 0062 00F08580 		beq	.L50
 466 0066 5846     		mov	r0, fp
 467              	.LVL44:
 468 0068 17A9     		add	r1, sp, #92
 469              		.loc 1 146 0
 470 006a 1393     		str	r3, [sp, #76]
 471              	.LVL45:
 472              		.loc 1 140 0
 473 006c FFF7FEFF 		bl	_strtok.constprop.1
 474              	.LVL46:
 475 0070 0346     		mov	r3, r0
 476 0072 0028     		cmp	r0, #0
 477 0074 7FD0     		beq	.L51
 478 0076 5846     		mov	r0, fp
 479              	.LVL47:
 480 0078 17A9     		add	r1, sp, #92
 481              		.loc 1 146 0
 482 007a 1493     		str	r3, [sp, #80]
 483              	.LVL48:
 484              		.loc 1 140 0
 485 007c FFF7FEFF 		bl	_strtok.constprop.1
 486              	.LVL49:
 487 0080 0346     		mov	r3, r0
 488 0082 0028     		cmp	r0, #0
 489 0084 7AD0     		beq	.L52
 490 0086 5846     		mov	r0, fp
 491              	.LVL50:
 492 0088 17A9     		add	r1, sp, #92
 493              		.loc 1 146 0
 494 008a 1593     		str	r3, [sp, #84]
 495              	.LVL51:
 496              		.loc 1 140 0
 497 008c FFF7FEFF 		bl	_strtok.constprop.1
 498              	.LVL52:
 499 0090 0028     		cmp	r0, #0
 500 0092 76D0     		beq	.L53
 501              		.loc 1 142 0
 502 0094 40F20001 		movw	r1, #:lower16:.LC7
 503 0098 2046     		mov	r0, r4
 504              	.LVL53:
 505 009a C0F20001 		movt	r1, #:upper16:.LC7
 506 009e FFF7FEFF 		bl	chprintf
 507              	.LVL54:
 508              		.loc 1 133 0
 509 00a2 2046     		mov	r0, r4
 510 00a4 02A9     		add	r1, sp, #8
ARM GAS  /tmp/cc5btYHW.s 			page 10


 511 00a6 4022     		movs	r2, #64
 512              		.loc 1 148 0
 513 00a8 CDF858B0 		str	fp, [sp, #88]
 514              		.loc 1 133 0
 515 00ac FFF7FEFF 		bl	shellGetLine
 516 00b0 8346     		mov	fp, r0
 517 00b2 0028     		cmp	r0, #0
 518 00b4 C2D0     		beq	.L30
 519              	.LVL55:
 520              	.L62:
 521              		.loc 1 134 0
 522 00b6 40F20001 		movw	r1, #:lower16:.LC6
 523 00ba 2046     		mov	r0, r4
 524 00bc C0F20001 		movt	r1, #:upper16:.LC6
 525 00c0 FFF7FEFF 		bl	chprintf
 526              	.L31:
 527              	.LBB44:
 528              		.loc 1 177 0
 529 00c4 2023     		movs	r3, #32
 530              	.LVL56:
 531              	@ 177 "./src/shell.c" 1
 532 00c6 83F31188 		msr     BASEPRI, r3
 533              	@ 0 "" 2
 534              	.LVL57:
 535              		.thumb
 536              	.LBE44:
 537              		.loc 1 178 0
 538 00ca 40F20000 		movw	r0, #:lower16:.LANCHOR1
 539 00ce 0021     		movs	r1, #0
 540 00d0 C0F20000 		movt	r0, #:upper16:.LANCHOR1
 541 00d4 FFF7FEFF 		bl	chEvtBroadcastFlagsI
 542              	.LVL58:
 543              		.loc 1 179 0
 544 00d8 0020     		movs	r0, #0
 545 00da FFF7FEFF 		bl	chThdExitS
 546              		.loc 1 181 0
 547 00de 0020     		movs	r0, #0
 548 00e0 19B0     		add	sp, sp, #100
 549 00e2 BDE8F08F 		pop	{r4, r5, r6, r7, r8, r9, sl, fp, pc}
 550              	.LVL59:
 551              	.L49:
 552              		.loc 1 139 0
 553 00e6 8146     		mov	r9, r0
 554              	.LVL60:
 555              	.L32:
 556              		.loc 1 148 0
 557 00e8 0DF1600E 		add	lr, sp, #96
 558 00ec 0EEB890C 		add	ip, lr, r9, lsl #2
 559 00f0 0020     		movs	r0, #0
 560              	.LVL61:
 561 00f2 4CF8180C 		str	r0, [ip, #-24]
 562              		.loc 1 149 0
 563 00f6 BAF1000F 		cmp	sl, #0
 564 00fa 97D0     		beq	.L60
 565              		.loc 1 150 0
 566 00fc 40F20001 		movw	r1, #:lower16:.LC8
 567 0100 5046     		mov	r0, sl
ARM GAS  /tmp/cc5btYHW.s 			page 11


 568 0102 C0F20001 		movt	r1, #:upper16:.LC8
 569 0106 FFF7FEFF 		bl	strcasecmp
 570 010a 70B9     		cbnz	r0, .L34
 571              		.loc 1 151 0
 572 010c B9F1000F 		cmp	r9, #0
 573 0110 D8D0     		beq	.L31
 574              	.LVL62:
 575              	.LBB45:
 576              	.LBB46:
 577              		.loc 1 70 0
 578 0112 40F20001 		movw	r1, #:lower16:.LC0
 579 0116 40F20002 		movw	r2, #:lower16:.LC8
 580 011a 2046     		mov	r0, r4
 581 011c C0F20001 		movt	r1, #:upper16:.LC0
 582 0120 C0F20002 		movt	r2, #:upper16:.LC8
 583 0124 FFF7FEFF 		bl	chprintf
 584              	.LBE46:
 585              	.LBE45:
 586              		.loc 1 153 0
 587 0128 80E7     		b	.L60
 588              	.LVL63:
 589              	.L34:
 590              		.loc 1 157 0
 591 012a 40F20001 		movw	r1, #:lower16:.LC9
 592 012e 5046     		mov	r0, sl
 593 0130 C0F20001 		movt	r1, #:upper16:.LC9
 594 0134 FFF7FEFF 		bl	strcasecmp
 595 0138 30B3     		cbz	r0, .L36
 596              	.LVL64:
 597              	.LBB47:
 598              	.LBB43:
 599              		.loc 1 103 0
 600 013a 2868     		ldr	r0, [r5, #0]
 601 013c 40F2000B 		movw	fp, #:lower16:.LANCHOR2
 602 0140 C0F2000B 		movt	fp, #:upper16:.LANCHOR2
 603 0144 40B9     		cbnz	r0, .L45
 604 0146 2EE0     		b	.L38
 605              	.LVL65:
 606              	.L44:
 607              		.loc 1 105 0
 608 0148 0BF1080B 		add	fp, fp, #8
 609              	.LVL66:
 610              		.loc 1 121 0
 611 014c C5EB0B02 		rsb	r2, r5, fp
 612 0150 B018     		adds	r0, r6, r2
 613              		.loc 1 103 0
 614 0152 50F8080C 		ldr	r0, [r0, #-8]
 615 0156 30B3     		cbz	r0, .L38
 616              	.LVL67:
 617              	.L45:
 618              		.loc 1 104 0
 619 0158 5146     		mov	r1, sl
 620 015a FFF7FEFF 		bl	strcasecmp
 621 015e 0028     		cmp	r0, #0
 622 0160 F2D1     		bne	.L44
 623              	.L61:
 624              	.LBE43:
ARM GAS  /tmp/cc5btYHW.s 			page 12


 625              	.LBE47:
 626              	.LBB48:
 627              	.LBB49:
 628              		.loc 1 105 0
 629 0162 DBF80430 		ldr	r3, [fp, #4]
 630 0166 2046     		mov	r0, r4
 631 0168 4946     		mov	r1, r9
 632 016a 12AA     		add	r2, sp, #72
 633 016c 9847     		blx	r3
 634 016e 5DE7     		b	.L60
 635              	.LVL68:
 636              	.L50:
 637              	.LBE49:
 638              	.LBE48:
 639              		.loc 1 146 0
 640 0170 4FF00109 		mov	r9, #1
 641 0174 B8E7     		b	.L32
 642              	.LVL69:
 643              	.L51:
 644 0176 4FF00209 		mov	r9, #2
 645 017a B5E7     		b	.L32
 646              	.LVL70:
 647              	.L52:
 648 017c 4FF00309 		mov	r9, #3
 649 0180 B2E7     		b	.L32
 650              	.LVL71:
 651              	.L53:
 652              		.loc 1 140 0
 653 0182 4FF00409 		mov	r9, #4
 654 0186 AFE7     		b	.L32
 655              	.LVL72:
 656              	.L36:
 657              		.loc 1 158 0
 658 0188 B9F1000F 		cmp	r9, #0
 659 018c 26D0     		beq	.L39
 660              	.LVL73:
 661              	.LBB51:
 662              	.LBB52:
 663              		.loc 1 70 0
 664 018e 40F20001 		movw	r1, #:lower16:.LC0
 665 0192 40F20002 		movw	r2, #:lower16:.LC9
 666 0196 2046     		mov	r0, r4
 667 0198 C0F20001 		movt	r1, #:upper16:.LC0
 668 019c C0F20002 		movt	r2, #:upper16:.LC9
 669 01a0 FFF7FEFF 		bl	chprintf
 670              	.LBE52:
 671              	.LBE51:
 672              		.loc 1 160 0
 673 01a4 42E7     		b	.L60
 674              	.LVL74:
 675              	.L38:
 676              		.loc 1 168 0
 677 01a6 002F     		cmp	r7, #0
 678 01a8 55D0     		beq	.L48
 679              	.LVL75:
 680              	.LBB53:
 681              	.LBB50:
ARM GAS  /tmp/cc5btYHW.s 			page 13


 682              		.loc 1 103 0
 683 01aa 3868     		ldr	r0, [r7, #0]
 684 01ac 0028     		cmp	r0, #0
 685 01ae 52D0     		beq	.L48
 686              		.loc 1 121 0
 687 01b0 07F10802 		add	r2, r7, #8
 688              		.loc 1 103 0
 689 01b4 BB46     		mov	fp, r7
 690              		.loc 1 121 0
 691 01b6 0192     		str	r2, [sp, #4]
 692 01b8 0AE0     		b	.L47
 693              	.LVL76:
 694              	.L46:
 695 01ba 0198     		ldr	r0, [sp, #4]
 696              		.loc 1 105 0
 697 01bc 0BF1080B 		add	fp, fp, #8
 698              	.LVL77:
 699              		.loc 1 121 0
 700 01c0 C7EB0B01 		rsb	r1, r7, fp
 701 01c4 00EB010C 		add	ip, r0, r1
 702              		.loc 1 103 0
 703 01c8 5CF8080C 		ldr	r0, [ip, #-8]
 704 01cc 0028     		cmp	r0, #0
 705 01ce 42D0     		beq	.L48
 706              	.LVL78:
 707              	.L47:
 708              		.loc 1 104 0
 709 01d0 5146     		mov	r1, sl
 710 01d2 FFF7FEFF 		bl	strcasecmp
 711 01d6 0028     		cmp	r0, #0
 712 01d8 EFD1     		bne	.L46
 713 01da C2E7     		b	.L61
 714              	.L39:
 715              	.LBE50:
 716              	.LBE53:
 717              		.loc 1 162 0
 718 01dc 40F20001 		movw	r1, #:lower16:.LC10
 719 01e0 2046     		mov	r0, r4
 720 01e2 C0F20001 		movt	r1, #:upper16:.LC10
 721 01e6 FFF7FEFF 		bl	chprintf
 722              	.LVL79:
 723              	.LBB54:
 724              	.LBB39:
 725              		.loc 1 74 0
 726 01ea 2A68     		ldr	r2, [r5, #0]
 727 01ec A2B1     		cbz	r2, .L40
 728 01ee 40F20009 		movw	r9, #:lower16:.LANCHOR2
 729 01f2 C0F20009 		movt	r9, #:upper16:.LANCHOR2
 730              	.LVL80:
 731              	.L41:
 732              		.loc 1 75 0
 733 01f6 40F20001 		movw	r1, #:lower16:.LC11
 734 01fa 2046     		mov	r0, r4
 735 01fc C0F20001 		movt	r1, #:upper16:.LC11
 736 0200 09F10809 		add	r9, r9, #8
 737 0204 FFF7FEFF 		bl	chprintf
 738              		.loc 1 121 0
ARM GAS  /tmp/cc5btYHW.s 			page 14


 739 0208 C5EB0902 		rsb	r2, r5, r9
 740 020c 08EB020B 		add	fp, r8, r2
 741              		.loc 1 74 0
 742 0210 5BF8082C 		ldr	r2, [fp, #-8]
 743 0214 002A     		cmp	r2, #0
 744 0216 EED1     		bne	.L41
 745              	.L40:
 746              	.LBE39:
 747              	.LBE54:
 748              		.loc 1 164 0
 749 0218 AFB1     		cbz	r7, .L42
 750              	.LVL81:
 751              	.LBB55:
 752              	.LBB56:
 753              		.loc 1 74 0
 754 021a 3A68     		ldr	r2, [r7, #0]
 755 021c 9AB1     		cbz	r2, .L42
 756 021e B946     		mov	r9, r7
 757 0220 07F1080A 		add	sl, r7, #8
 758              	.LVL82:
 759              	.L43:
 760              		.loc 1 75 0
 761 0224 40F20001 		movw	r1, #:lower16:.LC11
 762 0228 C0F20001 		movt	r1, #:upper16:.LC11
 763 022c 2046     		mov	r0, r4
 764 022e 09F10809 		add	r9, r9, #8
 765 0232 FFF7FEFF 		bl	chprintf
 766              		.loc 1 121 0
 767 0236 C7EB0901 		rsb	r1, r7, r9
 768 023a 0AEB0103 		add	r3, sl, r1
 769              		.loc 1 74 0
 770 023e 53F8082C 		ldr	r2, [r3, #-8]
 771 0242 002A     		cmp	r2, #0
 772 0244 EED1     		bne	.L43
 773              	.L42:
 774              	.LBE56:
 775              	.LBE55:
 776              		.loc 1 166 0
 777 0246 40F20001 		movw	r1, #:lower16:.LC12
 778 024a 2046     		mov	r0, r4
 779 024c C0F20001 		movt	r1, #:upper16:.LC12
 780 0250 FFF7FEFF 		bl	chprintf
 781 0254 EAE6     		b	.L60
 782              	.LVL83:
 783              	.L48:
 784              		.loc 1 170 0
 785 0256 40F20001 		movw	r1, #:lower16:.LC13
 786 025a 2046     		mov	r0, r4
 787 025c C0F20001 		movt	r1, #:upper16:.LC13
 788 0260 5246     		mov	r2, sl
 789 0262 FFF7FEFF 		bl	chprintf
 790              		.loc 1 171 0
 791 0266 40F20001 		movw	r1, #:lower16:.LC14
 792 026a 2046     		mov	r0, r4
 793 026c C0F20001 		movt	r1, #:upper16:.LC14
 794 0270 FFF7FEFF 		bl	chprintf
 795 0274 DAE6     		b	.L60
ARM GAS  /tmp/cc5btYHW.s 			page 15


 796              		.cfi_endproc
 797              	.LFE122:
 798              		.size	shell_thread, .-shell_thread
 799              		.global	shell_terminated
 800 0276 00BFAFF3 		.section	.rodata
 800      0080AFF3 
 800      0080
 801              		.align	2
 802              		.set	.LANCHOR0,. + 0
 803              	.LC4:
 804 0000 20003900 		.ascii	" \0009\000"
 805              		.section	.data.local_commands,"aw",%progbits
 806              		.align	2
 807              		.set	.LANCHOR2,. + 0
 808              		.type	local_commands, %object
 809              		.size	local_commands, 16
 810              	local_commands:
 811 0000 0C000000 		.word	.LC1
 812 0004 00000000 		.word	cmd_info
 813 0008 00000000 		.word	0
 814 000c 00000000 		.word	0
 815              		.section	.rodata.str1.4,"aMS",%progbits,1
 816              		.align	2
 817              	.LC0:
 818 0000 55736167 		.ascii	"Usage: %s\015\012\000"
 818      653A2025 
 818      730D0A00 
 819              	.LC1:
 820 000c 696E666F 		.ascii	"info\000"
 820      00
 821 0011 000000   		.space	3
 822              	.LC2:
 823 0014 4B65726E 		.ascii	"Kernel:       %s\015\012\000"
 823      656C3A20 
 823      20202020 
 823      20202573 
 823      0D0A00
 824 0027 00       		.space	1
 825              	.LC3:
 826 0028 322E342E 		.ascii	"2.4.4\000"
 826      3400
 827 002e 0000     		.space	2
 828              	.LC5:
 829 0030 7368656C 		.ascii	"shell\000"
 829      6C00
 830 0036 0000     		.space	2
 831              	.LC6:
 832 0038 0D0A6C6F 		.ascii	"\015\012logout\000"
 832      676F7574 
 832      00
 833 0041 000000   		.space	3
 834              	.LC7:
 835 0044 746F6F20 		.ascii	"too many arguments\015\012\000"
 835      6D616E79 
 835      20617267 
 835      756D656E 
 835      74730D0A 
ARM GAS  /tmp/cc5btYHW.s 			page 16


 836 0059 000000   		.space	3
 837              	.LC8:
 838 005c 65786974 		.ascii	"exit\000"
 838      00
 839 0061 000000   		.space	3
 840              	.LC9:
 841 0064 68656C70 		.ascii	"help\000"
 841      00
 842 0069 000000   		.space	3
 843              	.LC10:
 844 006c 436F6D6D 		.ascii	"Commands: help exit \000"
 844      616E6473 
 844      3A206865 
 844      6C702065 
 844      78697420 
 845 0081 000000   		.space	3
 846              	.LC11:
 847 0084 25732000 		.ascii	"%s \000"
 848              	.LC12:
 849 0088 0D0A00   		.ascii	"\015\012\000"
 850 008b 00       		.space	1
 851              	.LC13:
 852 008c 257300   		.ascii	"%s\000"
 853 008f 00       		.space	1
 854              	.LC14:
 855 0090 203F0D0A 		.ascii	" ?\015\012\000"
 855      00
 856 0095 000000   		.section	.bss.shell_terminated,"aw",%nobits
 857              		.align	2
 858              		.set	.LANCHOR1,. + 0
 859              		.type	shell_terminated, %object
 860              		.size	shell_terminated, 4
 861              	shell_terminated:
 862 0000 00000000 		.space	4
 863              		.text
 864              	.Letext0:
 865              		.file 2 "/opt/arm/bin/../lib/gcc/arm-none-eabi/4.6.3/include/stddef.h"
 866              		.file 3 "/opt/arm/bin/../lib/gcc/arm-none-eabi/4.6.3/../../../../arm-none-eabi/include/stdint.h"
 867              		.file 4 "/opt/ChibiOS/ChibiOS_2.4.4/os/ports/GCC/ARMCMx/chtypes.h"
 868              		.file 5 "/opt/ChibiOS/ChibiOS_2.4.4/os/kernel/include/chlists.h"
 869              		.file 6 "/opt/ChibiOS/ChibiOS_2.4.4/os/kernel/include/chthreads.h"
 870              		.file 7 "/opt/ChibiOS/ChibiOS_2.4.4/os/ports/GCC/ARMCMx/chcore_v7m.h"
 871              		.file 8 "/opt/ChibiOS/ChibiOS_2.4.4/os/kernel/include/chschd.h"
 872              		.file 9 "/opt/ChibiOS/ChibiOS_2.4.4/os/kernel/include/chmtx.h"
 873              		.file 10 "/opt/ChibiOS/ChibiOS_2.4.4/os/kernel/include/chevents.h"
 874              		.file 11 "/opt/ChibiOS/ChibiOS_2.4.4/os/kernel/include/chioch.h"
 875              		.file 12 "./include/shell.h"
 876              		.file 13 "/opt/ChibiOS/ChibiOS_2.4.4/os/ports/common/ARMCMx/CMSIS/include/core_cm4.h"