ARM GAS  /tmp/cc5btYHW.s 			page 1


   1              		.syntax unified
   2              		.cpu cortex-m4
   3              		.eabi_attribute 27, 3
   4              		.eabi_attribute 28, 1
   5              		.fpu fpv4-sp-d16
   6              		.eabi_attribute 20, 1
   7              		.eabi_attribute 21, 1
   8              		.eabi_attribute 23, 3
   9              		.eabi_attribute 24, 1
  10              		.eabi_attribute 25, 1
  11              		.eabi_attribute 26, 1
  12              		.eabi_attribute 30, 2
  13              		.eabi_attribute 34, 1
  14              		.eabi_attribute 18, 4
  15              		.thumb
  16              		.file	"shell.c"
  17              		.text
  18              	.Ltext0:
  19              		.cfi_sections	.debug_frame
  20              		.section	.text.cmd_info,"ax",%progbits
  21              		.align	2
  22              		.p2align 4,,15
  23              		.thumb
  24              		.thumb_func
  25              		.type	cmd_info, %function
  26              	cmd_info:
  27              	.LFB120:
  28              		.file 1 "./src/shell.c"
  29              		.loc 1 80 0
  30              		.cfi_startproc
  31              		@ args = 0, pretend = 0, frame = 0
  32              		@ frame_needed = 0, uses_anonymous_args = 0
  33              		@ link register save eliminated.
  34              	.LVL0:
  35              		.loc 1 83 0
  36 0000 0029     		cmp	r1, #0
  37 0002 09DD     		ble	.L2
  38              	.LVL1:
  39              	.LBB25:
  40              	.LBB26:
  41              		.loc 1 70 0
  42 0004 40F20001 		movw	r1, #:lower16:.LC0
  43              	.LVL2:
  44 0008 40F20002 		movw	r2, #:lower16:.LC1
  45              	.LVL3:
  46 000c C0F20001 		movt	r1, #:upper16:.LC0
  47 0010 C0F20002 		movt	r2, #:upper16:.LC1
  48              	.LBE26:
  49              	.LBE25:
  50              		.loc 1 90 0
  51              	.LBB28:
  52              	.LBB27:
  53              		.loc 1 70 0
  54 0014 FFF7FEBF 		b	chprintf
  55              	.LVL4:
  56              	.L2:
  57              	.LBE27:
ARM GAS  /tmp/cc5btYHW.s 			page 2


  58              	.LBE28:
  59              	.LBB29:
  60              	.LBB30:
  61              		.loc 1 88 0
  62 0018 40F20001 		movw	r1, #:lower16:.LC2
  63              	.LVL5:
  64 001c 40F20002 		movw	r2, #:lower16:.LC3
  65              	.LVL6:
  66 0020 C0F20001 		movt	r1, #:upper16:.LC2
  67 0024 C0F20002 		movt	r2, #:upper16:.LC3
  68              	.LBE30:
  69              	.LBE29:
  70              		.loc 1 90 0
  71              	.LBB32:
  72              	.LBB31:
  73              		.loc 1 88 0
  74 0028 FFF7FEBF 		b	chprintf
  75              	.LVL7:
  76              	.LBE31:
  77              	.LBE32:
  78              		.cfi_endproc
  79              	.LFE120:
  80              		.size	cmd_info, .-cmd_info
  81 002c AFF30080 		.section	.text._strtok.constprop.1,"ax",%progbits
  82              		.align	2
  83              		.p2align 4,,15
  84              		.thumb
  85              		.thumb_func
  86              		.type	_strtok.constprop.1, %function
  87              	_strtok.constprop.1:
  88              	.LFB128:
  89              		.loc 1 52 0
  90              		.cfi_startproc
  91              		@ args = 0, pretend = 0, frame = 0
  92              		@ frame_needed = 0, uses_anonymous_args = 0
  93              	.LVL8:
  94 0000 38B5     		push	{r3, r4, r5, lr}
  95              	.LCFI0:
  96              		.cfi_def_cfa_offset 16
  97              		.cfi_offset 14, -4
  98              		.cfi_offset 5, -8
  99              		.cfi_offset 4, -12
 100              		.cfi_offset 3, -16
 101              		.loc 1 54 0
 102 0002 0446     		mov	r4, r0
 103              		.loc 1 52 0
 104 0004 0D46     		mov	r5, r1
 105              		.loc 1 54 0
 106 0006 C0B1     		cbz	r0, .L5
 107              		.loc 1 55 0
 108 0008 0860     		str	r0, [r1, #0]
 109              	.LVL9:
 110              	.L6:
 111              		.loc 1 61 0
 112 000a 40F20001 		movw	r1, #:lower16:.LANCHOR0
 113              	.LVL10:
 114 000e C0F20001 		movt	r1, #:upper16:.LANCHOR0
ARM GAS  /tmp/cc5btYHW.s 			page 3


 115 0012 2046     		mov	r0, r4
 116              	.LVL11:
 117 0014 FFF7FEFF 		bl	strspn
 118 0018 2418     		adds	r4, r4, r0
 119              	.LVL12:
 120              		.loc 1 62 0
 121 001a 2046     		mov	r0, r4
 122 001c 2021     		movs	r1, #32
 123 001e FFF7FEFF 		bl	strchr
 124 0022 2860     		str	r0, [r5, #0]
 125              		.loc 1 63 0
 126 0024 18B1     		cbz	r0, .L8
 127              		.loc 1 64 0
 128 0026 0023     		movs	r3, #0
 129 0028 00F8013B 		strb	r3, [r0], #1
 130 002c 2860     		str	r0, [r5, #0]
 131              	.L8:
 132              		.loc 1 66 0
 133 002e 2078     		ldrb	r0, [r4, #0]	@ zero_extendqisi2
 134 0030 0028     		cmp	r0, #0
 135 0032 14BF     		ite	ne
 136 0034 2046     		movne	r0, r4
 137 0036 0020     		moveq	r0, #0
 138 0038 38BD     		pop	{r3, r4, r5, pc}
 139              	.LVL13:
 140              	.L5:
 141              		.loc 1 56 0
 142 003a 0C68     		ldr	r4, [r1, #0]
 143              	.LVL14:
 144              		.loc 1 58 0
 145 003c 002C     		cmp	r4, #0
 146 003e E4D1     		bne	.L6
 147              		.loc 1 59 0
 148 0040 2046     		mov	r0, r4
 149              	.LVL15:
 150              		.loc 1 67 0
 151 0042 38BD     		pop	{r3, r4, r5, pc}
 152              		.cfi_endproc
 153              	.LFE128:
 154              		.size	_strtok.constprop.1, .-_strtok.constprop.1
 155 0044 AFF30080 		.section	.text.shellInit,"ax",%progbits
 155      AFF30080 
 155      AFF30080 
 156              		.align	2
 157              		.p2align 4,,15
 158              		.global	shellInit
 159              		.thumb
 160              		.thumb_func
 161              		.type	shellInit, %function
 162              	shellInit:
 163              	.LFB123:
 164              		.loc 1 186 0
 165              		.cfi_startproc
 166              		@ args = 0, pretend = 0, frame = 0
 167              		@ frame_needed = 0, uses_anonymous_args = 0
 168              		@ link register save eliminated.
 169              		.loc 1 188 0
ARM GAS  /tmp/cc5btYHW.s 			page 4


 170 0000 40F20003 		movw	r3, #:lower16:.LANCHOR1
 171 0004 C0F20003 		movt	r3, #:upper16:.LANCHOR1
 172 0008 1B60     		str	r3, [r3, #0]
 173              		.loc 1 189 0
 174 000a 7047     		bx	lr
 175              		.cfi_endproc
 176              	.LFE123:
 177              		.size	shellInit, .-shellInit
 178 000c AFF30080 		.section	.text.shellCreate,"ax",%progbits
 179              		.align	2
 180              		.p2align 4,,15
 181              		.global	shellCreate
 182              		.thumb
 183              		.thumb_func
 184              		.type	shellCreate, %function
 185              	shellCreate:
 186              	.LFB124:
 187              		.loc 1 202 0
 188              		.cfi_startproc
 189              		@ args = 0, pretend = 0, frame = 0
 190              		@ frame_needed = 0, uses_anonymous_args = 0
 191              	.LVL16:
 192 0000 00B5     		push	{lr}
 193              	.LCFI1:
 194              		.cfi_def_cfa_offset 4
 195              		.cfi_offset 14, -4
 196 0002 83B0     		sub	sp, sp, #12
 197              	.LCFI2:
 198              		.cfi_def_cfa_offset 16
 199              		.loc 1 204 0
 200 0004 40F20003 		movw	r3, #:lower16:shell_thread
 201 0008 0090     		str	r0, [sp, #0]
 202 000a C0F20003 		movt	r3, #:upper16:shell_thread
 203 000e 0020     		movs	r0, #0
 204              	.LVL17:
 205 0010 FFF7FEFF 		bl	chThdCreateFromHeap
 206              	.LVL18:
 207              		.loc 1 205 0
 208 0014 03B0     		add	sp, sp, #12
 209 0016 00BD     		pop	{pc}
 210              		.cfi_endproc
 211              	.LFE124:
 212              		.size	shellCreate, .-shellCreate
 213 0018 AFF30080 		.section	.text.shellCreateStatic,"ax",%progbits
 213      AFF30080 
 214              		.align	2
 215              		.p2align 4,,15
 216              		.global	shellCreateStatic
 217              		.thumb
 218              		.thumb_func
 219              		.type	shellCreateStatic, %function
 220              	shellCreateStatic:
 221              	.LFB125:
 222              		.loc 1 218 0
 223              		.cfi_startproc
 224              		@ args = 0, pretend = 0, frame = 0
 225              		@ frame_needed = 0, uses_anonymous_args = 0
ARM GAS  /tmp/cc5btYHW.s 			page 5


 226              	.LVL19:
 227 0000 00B5     		push	{lr}
 228              	.LCFI3:
 229              		.cfi_def_cfa_offset 4
 230              		.cfi_offset 14, -4
 231 0002 83B0     		sub	sp, sp, #12
 232              	.LCFI4:
 233              		.cfi_def_cfa_offset 16
 234              		.loc 1 220 0
 235 0004 0090     		str	r0, [sp, #0]
 236 0006 0846     		mov	r0, r1
 237              	.LVL20:
 238 0008 1146     		mov	r1, r2
 239              	.LVL21:
 240 000a 1A46     		mov	r2, r3
 241              	.LVL22:
 242 000c 40F20003 		movw	r3, #:lower16:shell_thread
 243              	.LVL23:
 244 0010 C0F20003 		movt	r3, #:upper16:shell_thread
 245 0014 FFF7FEFF 		bl	chThdCreateStatic
 246              	.LVL24:
 247              		.loc 1 221 0
 248 0018 03B0     		add	sp, sp, #12
 249 001a 00BD     		pop	{pc}
 250              		.cfi_endproc
 251              	.LFE125:
 252              		.size	shellCreateStatic, .-shellCreateStatic
 253 001c AFF30080 		.section	.text.shellGetLine,"ax",%progbits
 254              		.align	2
 255              		.p2align 4,,15
 256              		.global	shellGetLine
 257              		.thumb
 258              		.thumb_func
 259              		.type	shellGetLine, %function
 260              	shellGetLine:
 261              	.LFB126:
 262              		.loc 1 233 0
 263              		.cfi_startproc
 264              		@ args = 0, pretend = 0, frame = 0
 265              		@ frame_needed = 0, uses_anonymous_args = 0
 266              	.LVL25:
 267              	.LBB33:
 268              		.loc 1 260 0
 269 0000 013A     		subs	r2, r2, #1
 270              	.LVL26:
 271              	.LBE33:
 272              		.loc 1 233 0
 273 0002 F8B5     		push	{r3, r4, r5, r6, r7, lr}
 274              	.LCFI5:
 275              		.cfi_def_cfa_offset 24
 276              		.cfi_offset 14, -4
 277              		.cfi_offset 7, -8
 278              		.cfi_offset 6, -12
 279              		.cfi_offset 5, -16
 280              		.cfi_offset 4, -20
 281              		.cfi_offset 3, -24
 282              		.loc 1 233 0
ARM GAS  /tmp/cc5btYHW.s 			page 6


 283 0004 0C46     		mov	r4, r1
 284              	.LVL27:
 285 0006 0546     		mov	r5, r0
 286              		.loc 1 234 0
 287 0008 0E46     		mov	r6, r1
 288              	.LBB34:
 289              		.loc 1 260 0
 290 000a 8F18     		adds	r7, r1, r2
 291              	.LVL28:
 292              	.L23:
 293              		.loc 1 237 0
 294 000c 2968     		ldr	r1, [r5, #0]
 295 000e 2846     		mov	r0, r5
 296 0010 4B69     		ldr	r3, [r1, #20]
 297 0012 4FF0FF31 		mov	r1, #-1
 298 0016 9847     		blx	r3
 299              	.LVL29:
 300              		.loc 1 238 0
 301 0018 03B2     		sxth	r3, r0
 302 001a 002B     		cmp	r3, #0
 303 001c 14DB     		blt	.L19
 304              	.LVL30:
 305              	.L26:
 306              		.loc 1 240 0
 307 001e 042B     		cmp	r3, #4
 308 0020 18D0     		beq	.L20
 309              		.loc 1 244 0
 310 0022 082B     		cmp	r3, #8
 311 0024 12D0     		beq	.L24
 312              		.loc 1 253 0
 313 0026 0D2B     		cmp	r3, #13
 314 0028 16D0     		beq	.L25
 315              		.loc 1 258 0
 316 002a 1F2B     		cmp	r3, #31
 317 002c EEDD     		ble	.L23
 318              		.loc 1 260 0
 319 002e BE42     		cmp	r6, r7
 320              		.loc 1 262 0
 321 0030 38BF     		it	cc
 322 0032 06F8010B 		strbcc	r0, [r6], #1
 323              	.LVL31:
 324              		.loc 1 237 0
 325 0036 2968     		ldr	r1, [r5, #0]
 326 0038 2846     		mov	r0, r5
 327 003a 4B69     		ldr	r3, [r1, #20]
 328 003c 4FF0FF31 		mov	r1, #-1
 329 0040 9847     		blx	r3
 330              	.LVL32:
 331              		.loc 1 238 0
 332 0042 03B2     		sxth	r3, r0
 333 0044 002B     		cmp	r3, #0
 334 0046 EADA     		bge	.L26
 335              	.LVL33:
 336              	.L19:
 337              		.loc 1 239 0
 338 0048 0120     		movs	r0, #1
 339 004a F8BD     		pop	{r3, r4, r5, r6, r7, pc}
ARM GAS  /tmp/cc5btYHW.s 			page 7


 340              	.L24:
 341              		.loc 1 245 0
 342 004c A642     		cmp	r6, r4
 343 004e DDD0     		beq	.L23
 344              		.loc 1 249 0
 345 0050 013E     		subs	r6, r6, #1
 346              	.LVL34:
 347 0052 DBE7     		b	.L23
 348              	.L20:
 349              		.loc 1 242 0
 350 0054 0120     		movs	r0, #1
 351              	.LBE34:
 352              		.loc 1 266 0
 353 0056 F8BD     		pop	{r3, r4, r5, r6, r7, pc}
 354              	.L25:
 355              	.LBB35:
 356              		.loc 1 255 0
 357 0058 0020     		movs	r0, #0
 358 005a 3070     		strb	r0, [r6, #0]
 359              		.loc 1 256 0
 360 005c F8BD     		pop	{r3, r4, r5, r6, r7, pc}
 361              	.LBE35:
 362              		.cfi_endproc
 363              	.LFE126:
 364              		.size	shellGetLine, .-shellGetLine
 365 005e 00BF     		.section	.text.shell_thread,"ax",%progbits
 366              		.align	2
 367              		.p2align 4,,15
 368              		.thumb
 369              		.thumb_func
 370              		.type	shell_thread, %function
 371              	shell_thread:
 372              	.LFB122:
 373              		.loc 1 121 0
 374              		.cfi_startproc
 375              		@ args = 0, pretend = 0, frame = 96
 376              		@ frame_needed = 0, uses_anonymous_args = 0
 377              	.LVL35:
 378 0000 2DE9F04F 		push	{r4, r5, r6, r7, r8, r9, sl, fp, lr}
 379              	.LCFI6:
 380              		.cfi_def_cfa_offset 36
 381              		.cfi_offset 14, -4
 382              		.cfi_offset 11, -8
 383              		.cfi_offset 10, -12
 384              		.cfi_offset 9, -16
 385              		.cfi_offset 8, -20
 386              		.cfi_offset 7, -24
 387              		.cfi_offset 6, -28
 388              		.cfi_offset 5, -32
 389              		.cfi_offset 4, -36
 390              		.loc 1 129 0
 391 0004 40F20001 		movw	r1, #:lower16:rlist
 392 0008 C0F20001 		movt	r1, #:upper16:rlist
 393              	.LBB36:
 394              	.LBB37:
 395              		.loc 1 74 0
 396 000c 40F20005 		movw	r5, #:lower16:.LANCHOR2
ARM GAS  /tmp/cc5btYHW.s 			page 8


 397              	.LBE37:
 398              	.LBE36:
 399              		.loc 1 129 0
 400 0010 CA69     		ldr	r2, [r1, #28]
 401 0012 40F20003 		movw	r3, #:lower16:.LC5
 402              	.LBB40:
 403              	.LBB38:
 404              		.loc 1 74 0
 405 0016 C0F20005 		movt	r5, #:upper16:.LANCHOR2
 406              	.LBE38:
 407              	.LBE40:
 408              		.loc 1 129 0
 409 001a C0F20003 		movt	r3, #:upper16:.LC5
 410 001e 05F10808 		add	r8, r5, #8
 411              		.loc 1 125 0
 412 0022 90E89000 		ldmia	r0, {r4, r7}
 413              	.LVL36:
 414              		.loc 1 121 0
 415 0026 99B0     		sub	sp, sp, #100
 416              	.LCFI7:
 417              		.cfi_def_cfa_offset 136
 418              		.loc 1 129 0
 419 0028 9361     		str	r3, [r2, #24]
 420              	.LBB41:
 421              	.LBB42:
 422              		.loc 1 121 0
 423 002a 4646     		mov	r6, r8
 424              	.LVL37:
 425              	.L60:
 426              	.LBE42:
 427              	.LBE41:
 428              		.loc 1 133 0
 429 002c 2046     		mov	r0, r4
 430 002e 02A9     		add	r1, sp, #8
 431 0030 4022     		movs	r2, #64
 432 0032 FFF7FEFF 		bl	shellGetLine
 433 0036 8346     		mov	fp, r0
 434 0038 0028     		cmp	r0, #0
 435 003a 3CD1     		bne	.L62
 436              	.L30:
 437              		.loc 1 137 0
 438 003c 17A9     		add	r1, sp, #92
 439 003e 02A8     		add	r0, sp, #8
 440 0040 FFF7FEFF 		bl	_strtok.constprop.1
 441              		.loc 1 140 0
 442 0044 17A9     		add	r1, sp, #92
 443              		.loc 1 137 0
 444 0046 8246     		mov	sl, r0
 445              	.LVL38:
 446              		.loc 1 140 0
 447 0048 5846     		mov	r0, fp
 448              	.LVL39:
 449 004a FFF7FEFF 		bl	_strtok.constprop.1
 450              	.LVL40:
 451 004e 0346     		mov	r3, r0
 452 0050 0028     		cmp	r0, #0
 453 0052 48D0     		beq	.L49
ARM GAS  /tmp/cc5btYHW.s 			page 9


 454 0054 5846     		mov	r0, fp
 455              	.LVL41:
 456 0056 17A9     		add	r1, sp, #92
 457              		.loc 1 146 0
 458 0058 1293     		str	r3, [sp, #72]
 459              	.LVL42:
 460              		.loc 1 140 0
 461 005a FFF7FEFF 		bl	_strtok.constprop.1
 462              	.LVL43:
 463 005e 0346     		mov	r3, r0
 464 0060 0028     		cmp	r0, #0
 465 0062 00F08580 		beq	.L50
 466 0066 5846     		mov	r0, fp
 467              	.LVL44:
 468 0068 17A9     		add	r1, sp, #92
 469              		.loc 1 146 0
 470 006a 1393     		str	r3, [sp, #76]
 471              	.LVL45:
 472              		.loc 1 140 0
 473 006c FFF7FEFF 		bl	_strtok.constprop.1
 474              	.LVL46:
 475 0070 0346     		mov	r3, r0
 476 0072 0028     		cmp	r0, #0
 477 0074 7FD0     		beq	.L51
 478 0076 5846     		mov	r0, fp
 479              	.LVL47:
 480 0078 17A9     		add	r1, sp, #92
 481              		.loc 1 146 0
 482 007a 1493     		str	r3, [sp, #80]
 483              	.LVL48:
 484              		.loc 1 140 0
 485 007c FFF7FEFF 		bl	_strtok.constprop.1
 486              	.LVL49:
 487 0080 0346     		mov	r3, r0
 488 0082 0028     		cmp	r0, #0
 489 0084 7AD0     		beq	.L52
 490 0086 5846     		mov	r0, fp
 491              	.LVL50:
 492 0088 17A9     		add	r1, sp, #92
 493              		.loc 1 146 0
 494 008a 1593     		str	r3, [sp, #84]
 495              	.LVL51:
 496              		.loc 1 140 0
 497 008c FFF7FEFF 		bl	_strtok.constprop.1
 498              	.LVL52:
 499 0090 0028     		cmp	r0, #0
 500 0092 76D0     		beq	.L53
 501              		.loc 1 142 0
 502 0094 40F20001 		movw	r1, #:lower16:.LC7
 503 0098 2046     		mov	r0, r4
 504              	.LVL53:
 505 009a C0F20001 		movt	r1, #:upper16:.LC7
 506 009e FFF7FEFF 		bl	chprintf
 507              	.LVL54:
 508              		.loc 1 133 0
 509 00a2 2046     		mov	r0, r4
 510 00a4 02A9     		add	r1, sp, #8
ARM GAS  /tmp/cc5btYHW.s 			page 10


 511 00a6 4022     		movs	r2, #64
 512              		.loc 1 148 0
 513 00a8 CDF858B0 		str	fp, [sp, #88]
 514              		.loc 1 133 0
 515 00ac FFF7FEFF 		bl	shellGetLine
 516 00b0 8346     		mov	fp, r0
 517 00b2 0028     		cmp	r0, #0
 518 00b4 C2D0     		beq	.L30
 519              	.LVL55:
 520              	.L62:
 521              		.loc 1 134 0
 522 00b6 40F20001 		movw	r1, #:lower16:.LC6
 523 00ba 2046     		mov	r0, r4
 524 00bc C0F20001 		movt	r1, #:upper16:.LC6
 525 00c0 FFF7FEFF 		bl	chprintf
 526              	.L31:
 527              	.LBB44:
 528              		.loc 1 177 0
 529 00c4 2023     		movs	r3, #32
 530              	.LVL56:
 531              	@ 177 "./src/shell.c" 1
 532 00c6 83F31188 		msr     BASEPRI, r3
 533              	@ 0 "" 2
 534              	.LVL57:
 535              		.thumb
 536              	.LBE44:
 537              		.loc 1 178 0
 538 00ca 40F20000 		movw	r0, #:lower16:.LANCHOR1
 539 00ce 0021     		movs	r1, #0
 540 00d0 C0F20000 		movt	r0, #:upper16:.LANCHOR1
 541 00d4 FFF7FEFF 		bl	chEvtBroadcastFlagsI
 542              	.LVL58:
 543              		.loc 1 179 0
 544 00d8 0020     		movs	r0, #0
 545 00da FFF7FEFF 		bl	chThdExitS
 546              		.loc 1 181 0
 547 00de 0020     		movs	r0, #0
 548 00e0 19B0     		add	sp, sp, #100
 549 00e2 BDE8F08F 		pop	{r4, r5, r6, r7, r8, r9, sl, fp, pc}
 550              	.LVL59:
 551              	.L49:
 552              		.loc 1 139 0
 553 00e6 8146     		mov	r9, r0
 554              	.LVL60:
 555              	.L32:
 556              		.loc 1 148 0
 557 00e8 0DF1600E 		add	lr, sp, #96
 558 00ec 0EEB890C 		add	ip, lr, r9, lsl #2
 559 00f0 0020     		movs	r0, #0
 560              	.LVL61:
 561 00f2 4CF8180C 		str	r0, [ip, #-24]
 562              		.loc 1 149 0
 563 00f6 BAF1000F 		cmp	sl, #0
 564 00fa 97D0     		beq	.L60
 565              		.loc 1 150 0
 566 00fc 40F20001 		movw	r1, #:lower16:.LC8
 567 0100 5046     		mov	r0, sl
ARM GAS  /tmp/cc5btYHW.s 			page 11


 568 0102 C0F20001 		movt	r1, #:upper16:.LC8
 569 0106 FFF7FEFF 		bl	strcasecmp
 570 010a 70B9     		cbnz	r0, .L34
 571              		.loc 1 151 0
 572 010c B9F1000F 		cmp	r9, #0
 573 0110 D8D0     		beq	.L31
 574              	.LVL62:
 575              	.LBB45:
 576              	.LBB46:
 577              		.loc 1 70 0
 578 0112 40F20001 		movw	r1, #:lower16:.LC0
 579 0116 40F20002 		movw	r2, #:lower16:.LC8
 580 011a 2046     		mov	r0, r4
 581 011c C0F20001 		movt	r1, #:upper16:.LC0
 582 0120 C0F20002 		movt	r2, #:upper16:.LC8
 583 0124 FFF7FEFF 		bl	chprintf
 584              	.LBE46:
 585              	.LBE45:
 586              		.loc 1 153 0
 587 0128 80E7     		b	.L60
 588              	.LVL63:
 589              	.L34:
 590              		.loc 1 157 0
 591 012a 40F20001 		movw	r1, #:lower16:.LC9
 592 012e 5046     		mov	r0, sl
 593 0130 C0F20001 		movt	r1, #:upper16:.LC9
 594 0134 FFF7FEFF 		bl	strcasecmp
 595 0138 30B3     		cbz	r0, .L36
 596              	.LVL64:
 597              	.LBB47:
 598              	.LBB43:
 599              		.loc 1 103 0
 600 013a 2868     		ldr	r0, [r5, #0]
 601 013c 40F2000B 		movw	fp, #:lower16:.LANCHOR2
 602 0140 C0F2000B 		movt	fp, #:upper16:.LANCHOR2
 603 0144 40B9     		cbnz	r0, .L45
 604 0146 2EE0     		b	.L38
 605              	.LVL65:
 606              	.L44:
 607              		.loc 1 105 0
 608 0148 0BF1080B 		add	fp, fp, #8
 609              	.LVL66:
 610              		.loc 1 121 0
 611 014c C5EB0B02 		rsb	r2, r5, fp
 612 0150 B018     		adds	r0, r6, r2
 613              		.loc 1 103 0
 614 0152 50F8080C 		ldr	r0, [r0, #-8]
 615 0156 30B3     		cbz	r0, .L38
 616              	.LVL67:
 617              	.L45:
 618              		.loc 1 104 0
 619 0158 5146     		mov	r1, sl
 620 015a FFF7FEFF 		bl	strcasecmp
 621 015e 0028     		cmp	r0, #0
 622 0160 F2D1     		bne	.L44
 623              	.L61:
 624              	.LBE43:
ARM GAS  /tmp/cc5btYHW.s 			page 12


 625              	.LBE47:
 626              	.LBB48:
 627              	.LBB49:
 628              		.loc 1 105 0
 629 0162 DBF80430 		ldr	r3, [fp, #4]
 630 0166 2046     		mov	r0, r4
 631 0168 4946     		mov	r1, r9
 632 016a 12AA     		add	r2, sp, #72
 633 016c 9847     		blx	r3
 634 016e 5DE7     		b	.L60
 635              	.LVL68:
 636              	.L50:
 637              	.LBE49:
 638              	.LBE48:
 639              		.loc 1 146 0
 640 0170 4FF00109 		mov	r9, #1
 641 0174 B8E7     		b	.L32
 642              	.LVL69:
 643              	.L51:
 644 0176 4FF00209 		mov	r9, #2
 645 017a B5E7     		b	.L32
 646              	.LVL70:
 647              	.L52:
 648 017c 4FF00309 		mov	r9, #3
 649 0180 B2E7     		b	.L32
 650              	.LVL71:
 651              	.L53:
 652              		.loc 1 140 0
 653 0182 4FF00409 		mov	r9, #4
 654 0186 AFE7     		b	.L32
 655              	.LVL72:
 656              	.L36:
 657              		.loc 1 158 0
 658 0188 B9F1000F 		cmp	r9, #0
 659 018c 26D0     		beq	.L39
 660              	.LVL73:
 661              	.LBB51:
 662              	.LBB52:
 663              		.loc 1 70 0
 664 018e 40F20001 		movw	r1, #:lower16:.LC0
 665 0192 40F20002 		movw	r2, #:lower16:.LC9
 666 0196 2046     		mov	r0, r4
 667 0198 C0F20001 		movt	r1, #:upper16:.LC0
 668 019c C0F20002 		movt	r2, #:upper16:.LC9
 669 01a0 FFF7FEFF 		bl	chprintf
 670              	.LBE52:
 671              	.LBE51:
 672              		.loc 1 160 0
 673 01a4 42E7     		b	.L60
 674              	.LVL74:
 675              	.L38:
 676              		.loc 1 168 0
 677 01a6 002F     		cmp	r7, #0
 678 01a8 55D0     		beq	.L48
 679              	.LVL75:
 680              	.LBB53:
 681              	.LBB50:
ARM GAS  /tmp/cc5btYHW.s 			page 13


 682              		.loc 1 103 0
 683 01aa 3868     		ldr	r0, [r7, #0]
 684 01ac 0028     		cmp	r0, #0
 685 01ae 52D0     		beq	.L48
 686              		.loc 1 121 0
 687 01b0 07F10802 		add	r2, r7, #8
 688              		.loc 1 103 0
 689 01b4 BB46     		mov	fp, r7
 690              		.loc 1 121 0
 691 01b6 0192     		str	r2, [sp, #4]
 692 01b8 0AE0     		b	.L47
 693              	.LVL76:
 694              	.L46:
 695 01ba 0198     		ldr	r0, [sp, #4]
 696              		.loc 1 105 0
 697 01bc 0BF1080B 		add	fp, fp, #8
 698              	.LVL77:
 699              		.loc 1 121 0
 700 01c0 C7EB0B01 		rsb	r1, r7, fp
 701 01c4 00EB010C 		add	ip, r0, r1
 702              		.loc 1 103 0
 703 01c8 5CF8080C 		ldr	r0, [ip, #-8]
 704 01cc 0028     		cmp	r0, #0
 705 01ce 42D0     		beq	.L48
 706              	.LVL78:
 707              	.L47:
 708              		.loc 1 104 0
 709 01d0 5146     		mov	r1, sl
 710 01d2 FFF7FEFF 		bl	strcasecmp
 711 01d6 0028     		cmp	r0, #0
 712 01d8 EFD1     		bne	.L46
 713 01da C2E7     		b	.L61
 714              	.L39:
 715              	.LBE50:
 716              	.LBE53:
 717              		.loc 1 162 0
 718 01dc 40F20001 		movw	r1, #:lower16:.LC10
 719 01e0 2046     		mov	r0, r4
 720 01e2 C0F20001 		movt	r1, #:upper16:.LC10
 721 01e6 FFF7FEFF 		bl	chprintf
 722              	.LVL79:
 723              	.LBB54:
 724              	.LBB39:
 725              		.loc 1 74 0
 726 01ea 2A68     		ldr	r2, [r5, #0]
 727 01ec A2B1     		cbz	r2, .L40
 728 01ee 40F20009 		movw	r9, #:lower16:.LANCHOR2
 729 01f2 C0F20009 		movt	r9, #:upper16:.LANCHOR2
 730              	.LVL80:
 731              	.L41:
 732              		.loc 1 75 0
 733 01f6 40F20001 		movw	r1, #:lower16:.LC11
 734 01fa 2046     		mov	r0, r4
 735 01fc C0F20001 		movt	r1, #:upper16:.LC11
 736 0200 09F10809 		add	r9, r9, #8
 737 0204 FFF7FEFF 		bl	chprintf
 738              		.loc 1 121 0
ARM GAS  /tmp/cc5btYHW.s 			page 14


 739 0208 C5EB0902 		rsb	r2, r5, r9
 740 020c 08EB020B 		add	fp, r8, r2
 741              		.loc 1 74 0
 742 0210 5BF8082C 		ldr	r2, [fp, #-8]
 743 0214 002A     		cmp	r2, #0
 744 0216 EED1     		bne	.L41
 745              	.L40:
 746              	.LBE39:
 747              	.LBE54:
 748              		.loc 1 164 0
 749 0218 AFB1     		cbz	r7, .L42
 750              	.LVL81:
 751              	.LBB55:
 752              	.LBB56:
 753              		.loc 1 74 0
 754 021a 3A68     		ldr	r2, [r7, #0]
 755 021c 9AB1     		cbz	r2, .L42
 756 021e B946     		mov	r9, r7
 757 0220 07F1080A 		add	sl, r7, #8
 758              	.LVL82:
 759              	.L43:
 760              		.loc 1 75 0
 761 0224 40F20001 		movw	r1, #:lower16:.LC11
 762 0228 C0F20001 		movt	r1, #:upper16:.LC11
 763 022c 2046     		mov	r0, r4
 764 022e 09F10809 		add	r9, r9, #8
 765 0232 FFF7FEFF 		bl	chprintf
 766              		.loc 1 121 0
 767 0236 C7EB0901 		rsb	r1, r7, r9
 768 023a 0AEB0103 		add	r3, sl, r1
 769              		.loc 1 74 0
 770 023e 53F8082C 		ldr	r2, [r3, #-8]
 771 0242 002A     		cmp	r2, #0
 772 0244 EED1     		bne	.L43
 773              	.L42:
 774              	.LBE56:
 775              	.LBE55:
 776              		.loc 1 166 0
 777 0246 40F20001 		movw	r1, #:lower16:.LC12
 778 024a 2046     		mov	r0, r4
 779 024c C0F20001 		movt	r1, #:upper16:.LC12
 780 0250 FFF7FEFF 		bl	chprintf
 781 0254 EAE6     		b	.L60
 782              	.LVL83:
 783              	.L48:
 784              		.loc 1 170 0
 785 0256 40F20001 		movw	r1, #:lower16:.LC13
 786 025a 2046     		mov	r0, r4
 787 025c C0F20001 		movt	r1, #:upper16:.LC13
 788 0260 5246     		mov	r2, sl
 789 0262 FFF7FEFF 		bl	chprintf
 790              		.loc 1 171 0
 791 0266 40F20001 		movw	r1, #:lower16:.LC14
 792 026a 2046     		mov	r0, r4
 793 026c C0F20001 		movt	r1, #:upper16:.LC14
 794 0270 FFF7FEFF 		bl	chprintf
 795 0274 DAE6     		b	.L60
ARM GAS  /tmp/cc5btYHW.s 			page 15


 796              		.cfi_endproc
 797              	.LFE122:
 798              		.size	shell_thread, .-shell_thread
 799              		.global	shell_terminated
 800 0276 00BFAFF3 		.section	.rodata
 800      0080AFF3 
 800      0080
 801              		.align	2
 802              		.set	.LANCHOR0,. + 0
 803              	.LC4:
 804 0000 20003900 		.ascii	" \0009\000"
 805              		.section	.data.local_commands,"aw",%progbits
 806              		.align	2
 807              		.set	.LANCHOR2,. + 0
 808              		.type	local_commands, %object
 809              		.size	local_commands, 16
 810              	local_commands:
 811 0000 0C000000 		.word	.LC1
 812 0004 00000000 		.word	cmd_info
 813 0008 00000000 		.word	0
 814 000c 00000000 		.word	0
 815              		.section	.rodata.str1.4,"aMS",%progbits,1
 816              		.align	2
 817              	.LC0:
 818 0000 55736167 		.ascii	"Usage: %s\015\012\000"
 818      653A2025 
 818      730D0A00 
 819              	.LC1:
 820 000c 696E666F 		.ascii	"info\000"
 820      00
 821 0011 000000   		.space	3
 822              	.LC2:
 823 0014 4B65726E 		.ascii	"Kernel:       %s\015\012\000"
 823      656C3A20 
 823      20202020 
 823      20202573 
 823      0D0A00
 824 0027 00       		.space	1
 825              	.LC3:
 826 0028 322E342E 		.ascii	"2.4.4\000"
 826      3400
 827 002e 0000     		.space	2
 828              	.LC5:
 829 0030 7368656C 		.ascii	"shell\000"
 829      6C00
 830 0036 0000     		.space	2
 831              	.LC6:
 832 0038 0D0A6C6F 		.ascii	"\015\012logout\000"
 832      676F7574 
 832      00
 833 0041 000000   		.space	3
 834              	.LC7:
 835 0044 746F6F20 		.ascii	"too many arguments\015\012\000"
 835      6D616E79 
 835      20617267 
 835      756D656E 
 835      74730D0A 
ARM GAS  /tmp/cc5btYHW.s 			page 16


 836 0059 000000   		.space	3
 837              	.LC8:
 838 005c 65786974 		.ascii	"exit\000"
 838      00
 839 0061 000000   		.space	3
 840              	.LC9:
 841 0064 68656C70 		.ascii	"help\000"
 841      00
 842 0069 000000   		.space	3
 843              	.LC10:
 844 006c 436F6D6D 		.ascii	"Commands: help exit \000"
 844      616E6473 
 844      3A206865 
 844      6C702065 
 844      78697420 
 845 0081 000000   		.space	3
 846              	.LC11:
 847 0084 25732000 		.ascii	"%s \000"
 848              	.LC12:
 849 0088 0D0A00   		.ascii	"\015\012\000"
 850 008b 00       		.space	1
 851              	.LC13:
 852 008c 257300   		.ascii	"%s\000"
 853 008f 00       		.space	1
 854              	.LC14:
 855 0090 203F0D0A 		.ascii	" ?\015\012\000"
 855      00
 856 0095 000000   		.section	.bss.shell_terminated,"aw",%nobits
 857              		.align	2
 858              		.set	.LANCHOR1,. + 0
 859              		.type	shell_terminated, %object
 860              		.size	shell_terminated, 4
 861              	shell_terminated:
 862 0000 00000000 		.space	4
 863              		.text
 864              	.Letext0:
 865              		.file 2 "/opt/arm/bin/../lib/gcc/arm-none-eabi/4.6.3/include/stddef.h"
 866              		.file 3 "/opt/arm/bin/../lib/gcc/arm-none-eabi/4.6.3/../../../../arm-none-eabi/include/stdint.h"
 867              		.file 4 "/opt/ChibiOS/ChibiOS_2.4.4/os/ports/GCC/ARMCMx/chtypes.h"
 868              		.file 5 "/opt/ChibiOS/ChibiOS_2.4.4/os/kernel/include/chlists.h"
 869              		.file 6 "/opt/ChibiOS/ChibiOS_2.4.4/os/kernel/include/chthreads.h"
 870              		.file 7 "/opt/ChibiOS/ChibiOS_2.4.4/os/ports/GCC/ARMCMx/chcore_v7m.h"
 871              		.file 8 "/opt/ChibiOS/ChibiOS_2.4.4/os/kernel/include/chschd.h"
 872              		.file 9 "/opt/ChibiOS/ChibiOS_2.4.4/os/kernel/include/chmtx.h"
 873              		.file 10 "/opt/ChibiOS/ChibiOS_2.4.4/os/kernel/include/chevents.h"
 874              		.file 11 "/opt/ChibiOS/ChibiOS_2.4.4/os/kernel/include/chioch.h"
 875              		.file 12 "./include/shell.h"
 876              		.file 13 "/opt/ChibiOS/ChibiOS_2.4.4/os/ports/common/ARMCMx/CMSIS/include/core_cm4.h"
 877              		.section	.debug_info,"",%progbits
 878              	.Ldebug_info0:
 879 0000 F20B0000 		.4byte	0xbf2
 880 0004 0200     		.2byte	0x2
 881 0006 00000000 		.4byte	.Ldebug_abbrev0
 882 000a 04       		.byte	0x4
 883 000b 01       		.uleb128 0x1
 884 000c 0C030000 		.4byte	.LASF106
 885 0010 01       		.byte	0x1
ARM GAS  /tmp/cc5btYHW.s 			page 17


 886 0011 E2020000 		.4byte	.LASF107
 887 0015 11000000 		.4byte	.LASF108
 888 0019 00000000 		.4byte	0
 889 001d 00000000 		.4byte	0
 890 0021 B8000000 		.4byte	.Ldebug_ranges0+0xb8
 891 0025 00000000 		.4byte	.Ldebug_line0
 892 0029 02       		.uleb128 0x2
 893 002a 01       		.byte	0x1
 894 002b 06       		.byte	0x6
 895 002c A8000000 		.4byte	.LASF0
 896 0030 02       		.uleb128 0x2
 897 0031 01       		.byte	0x1
 898 0032 08       		.byte	0x8
 899 0033 7A020000 		.4byte	.LASF1
 900 0037 02       		.uleb128 0x2
 901 0038 02       		.byte	0x2
 902 0039 05       		.byte	0x5
 903 003a 9E020000 		.4byte	.LASF2
 904 003e 02       		.uleb128 0x2
 905 003f 02       		.byte	0x2
 906 0040 07       		.byte	0x7
 907 0041 95010000 		.4byte	.LASF3
 908 0045 03       		.uleb128 0x3
 909 0046 04       		.byte	0x4
 910 0047 05       		.byte	0x5
 911 0048 696E7400 		.ascii	"int\000"
 912 004c 02       		.uleb128 0x2
 913 004d 04       		.byte	0x4
 914 004e 07       		.byte	0x7
 915 004f 5B010000 		.4byte	.LASF4
 916 0053 02       		.uleb128 0x2
 917 0054 08       		.byte	0x8
 918 0055 05       		.byte	0x5
 919 0056 9A000000 		.4byte	.LASF5
 920 005a 02       		.uleb128 0x2
 921 005b 08       		.byte	0x8
 922 005c 07       		.byte	0x7
 923 005d 48000000 		.4byte	.LASF6
 924 0061 02       		.uleb128 0x2
 925 0062 04       		.byte	0x4
 926 0063 05       		.byte	0x5
 927 0064 D6000000 		.4byte	.LASF7
 928 0068 04       		.uleb128 0x4
 929 0069 04       		.byte	0x4
 930 006a 02       		.uleb128 0x2
 931 006b 04       		.byte	0x4
 932 006c 07       		.byte	0x7
 933 006d 18030000 		.4byte	.LASF8
 934 0071 05       		.uleb128 0x5
 935 0072 04       		.byte	0x4
 936 0073 77000000 		.4byte	0x77
 937 0077 02       		.uleb128 0x2
 938 0078 01       		.byte	0x1
 939 0079 08       		.byte	0x8
 940 007a 39030000 		.4byte	.LASF9
 941 007e 05       		.uleb128 0x5
 942 007f 04       		.byte	0x4
ARM GAS  /tmp/cc5btYHW.s 			page 18


 943 0080 84000000 		.4byte	0x84
 944 0084 06       		.uleb128 0x6
 945 0085 77000000 		.4byte	0x77
 946 0089 07       		.uleb128 0x7
 947 008a 00000000 		.4byte	.LASF10
 948 008e 02       		.byte	0x2
 949 008f D4       		.byte	0xd4
 950 0090 4C000000 		.4byte	0x4c
 951 0094 07       		.uleb128 0x7
 952 0095 CF030000 		.4byte	.LASF11
 953 0099 03       		.byte	0x3
 954 009a 2A       		.byte	0x2a
 955 009b 30000000 		.4byte	0x30
 956 009f 07       		.uleb128 0x7
 957 00a0 72020000 		.4byte	.LASF12
 958 00a4 03       		.byte	0x3
 959 00a5 4F       		.byte	0x4f
 960 00a6 61000000 		.4byte	0x61
 961 00aa 07       		.uleb128 0x7
 962 00ab FB020000 		.4byte	.LASF13
 963 00af 03       		.byte	0x3
 964 00b0 50       		.byte	0x50
 965 00b1 6A000000 		.4byte	0x6a
 966 00b5 07       		.uleb128 0x7
 967 00b6 BC000000 		.4byte	.LASF14
 968 00ba 04       		.byte	0x4
 969 00bb 2E       		.byte	0x2e
 970 00bc 9F000000 		.4byte	0x9f
 971 00c0 07       		.uleb128 0x7
 972 00c1 BD010000 		.4byte	.LASF15
 973 00c5 04       		.byte	0x4
 974 00c6 2F       		.byte	0x2f
 975 00c7 94000000 		.4byte	0x94
 976 00cb 07       		.uleb128 0x7
 977 00cc EC000000 		.4byte	.LASF16
 978 00d0 04       		.byte	0x4
 979 00d1 30       		.byte	0x30
 980 00d2 94000000 		.4byte	0x94
 981 00d6 07       		.uleb128 0x7
 982 00d7 4B020000 		.4byte	.LASF17
 983 00db 04       		.byte	0x4
 984 00dc 31       		.byte	0x31
 985 00dd 94000000 		.4byte	0x94
 986 00e1 07       		.uleb128 0x7
 987 00e2 62020000 		.4byte	.LASF18
 988 00e6 04       		.byte	0x4
 989 00e7 32       		.byte	0x32
 990 00e8 AA000000 		.4byte	0xaa
 991 00ec 07       		.uleb128 0x7
 992 00ed A8010000 		.4byte	.LASF19
 993 00f1 04       		.byte	0x4
 994 00f2 33       		.byte	0x33
 995 00f3 9F000000 		.4byte	0x9f
 996 00f7 07       		.uleb128 0x7
 997 00f8 D1010000 		.4byte	.LASF20
 998 00fc 04       		.byte	0x4
 999 00fd 35       		.byte	0x35
ARM GAS  /tmp/cc5btYHW.s 			page 19


 1000 00fe AA000000 		.4byte	0xaa
 1001 0102 07       		.uleb128 0x7
 1002 0103 60030000 		.4byte	.LASF21
 1003 0107 04       		.byte	0x4
 1004 0108 36       		.byte	0x36
 1005 0109 AA000000 		.4byte	0xaa
 1006 010d 07       		.uleb128 0x7
 1007 010e 55010000 		.4byte	.LASF22
 1008 0112 04       		.byte	0x4
 1009 0113 37       		.byte	0x37
 1010 0114 9F000000 		.4byte	0x9f
 1011 0118 07       		.uleb128 0x7
 1012 0119 DB020000 		.4byte	.LASF23
 1013 011d 05       		.byte	0x5
 1014 011e 2A       		.byte	0x2a
 1015 011f 23010000 		.4byte	0x123
 1016 0123 08       		.uleb128 0x8
 1017 0124 DB020000 		.4byte	.LASF23
 1018 0128 48       		.byte	0x48
 1019 0129 06       		.byte	0x6
 1020 012a 5E       		.byte	0x5e
 1021 012b 3A020000 		.4byte	0x23a
 1022 012f 09       		.uleb128 0x9
 1023 0130 C6020000 		.4byte	.LASF24
 1024 0134 06       		.byte	0x6
 1025 0135 5F       		.byte	0x5f
 1026 0136 5F020000 		.4byte	0x25f
 1027 013a 02       		.byte	0x2
 1028 013b 23       		.byte	0x23
 1029 013c 00       		.uleb128 0
 1030 013d 09       		.uleb128 0x9
 1031 013e 5B020000 		.4byte	.LASF25
 1032 0142 06       		.byte	0x6
 1033 0143 61       		.byte	0x61
 1034 0144 5F020000 		.4byte	0x25f
 1035 0148 02       		.byte	0x2
 1036 0149 23       		.byte	0x23
 1037 014a 04       		.uleb128 0x4
 1038 014b 09       		.uleb128 0x9
 1039 014c 8D000000 		.4byte	.LASF26
 1040 0150 06       		.byte	0x6
 1041 0151 63       		.byte	0x63
 1042 0152 E1000000 		.4byte	0xe1
 1043 0156 02       		.byte	0x2
 1044 0157 23       		.byte	0x23
 1045 0158 08       		.uleb128 0x8
 1046 0159 09       		.uleb128 0x9
 1047 015a 37040000 		.4byte	.LASF27
 1048 015e 06       		.byte	0x6
 1049 015f 64       		.byte	0x64
 1050 0160 2A030000 		.4byte	0x32a
 1051 0164 02       		.byte	0x2
 1052 0165 23       		.byte	0x23
 1053 0166 0C       		.uleb128 0xc
 1054 0167 09       		.uleb128 0x9
 1055 0168 08010000 		.4byte	.LASF28
 1056 016c 06       		.byte	0x6
ARM GAS  /tmp/cc5btYHW.s 			page 20


 1057 016d 66       		.byte	0x66
 1058 016e 5F020000 		.4byte	0x25f
 1059 0172 02       		.byte	0x2
 1060 0173 23       		.byte	0x23
 1061 0174 10       		.uleb128 0x10
 1062 0175 09       		.uleb128 0x9
 1063 0176 FC010000 		.4byte	.LASF29
 1064 017a 06       		.byte	0x6
 1065 017b 67       		.byte	0x67
 1066 017c 5F020000 		.4byte	0x25f
 1067 0180 02       		.byte	0x2
 1068 0181 23       		.byte	0x23
 1069 0182 14       		.uleb128 0x14
 1070 0183 09       		.uleb128 0x9
 1071 0184 8B030000 		.4byte	.LASF30
 1072 0188 06       		.byte	0x6
 1073 0189 6E       		.byte	0x6e
 1074 018a 7E000000 		.4byte	0x7e
 1075 018e 02       		.byte	0x2
 1076 018f 23       		.byte	0x23
 1077 0190 18       		.uleb128 0x18
 1078 0191 09       		.uleb128 0x9
 1079 0192 A8020000 		.4byte	.LASF31
 1080 0196 06       		.byte	0x6
 1081 0197 79       		.byte	0x79
 1082 0198 CB000000 		.4byte	0xcb
 1083 019c 02       		.byte	0x2
 1084 019d 23       		.byte	0x23
 1085 019e 1C       		.uleb128 0x1c
 1086 019f 09       		.uleb128 0x9
 1087 01a0 D3020000 		.4byte	.LASF32
 1088 01a4 06       		.byte	0x6
 1089 01a5 7D       		.byte	0x7d
 1090 01a6 C0000000 		.4byte	0xc0
 1091 01aa 02       		.byte	0x2
 1092 01ab 23       		.byte	0x23
 1093 01ac 1D       		.uleb128 0x1d
 1094 01ad 09       		.uleb128 0x9
 1095 01ae F5000000 		.4byte	.LASF33
 1096 01b2 06       		.byte	0x6
 1097 01b3 82       		.byte	0x82
 1098 01b4 D6000000 		.4byte	0xd6
 1099 01b8 02       		.byte	0x2
 1100 01b9 23       		.byte	0x23
 1101 01ba 1E       		.uleb128 0x1e
 1102 01bb 09       		.uleb128 0x9
 1103 01bc FC000000 		.4byte	.LASF34
 1104 01c0 06       		.byte	0x6
 1105 01c1 89       		.byte	0x89
 1106 01c2 4D030000 		.4byte	0x34d
 1107 01c6 02       		.byte	0x2
 1108 01c7 23       		.byte	0x23
 1109 01c8 20       		.uleb128 0x20
 1110 01c9 0A       		.uleb128 0xa
 1111 01ca 705F7500 		.ascii	"p_u\000"
 1112 01ce 06       		.byte	0x6
 1113 01cf AE       		.byte	0xae
ARM GAS  /tmp/cc5btYHW.s 			page 21


 1114 01d0 7E040000 		.4byte	0x47e
 1115 01d4 02       		.byte	0x2
 1116 01d5 23       		.byte	0x23
 1117 01d6 24       		.uleb128 0x24
 1118 01d7 09       		.uleb128 0x9
 1119 01d8 3D040000 		.4byte	.LASF35
 1120 01dc 06       		.byte	0x6
 1121 01dd B3       		.byte	0xb3
 1122 01de 87020000 		.4byte	0x287
 1123 01e2 02       		.byte	0x2
 1124 01e3 23       		.byte	0x23
 1125 01e4 28       		.uleb128 0x28
 1126 01e5 09       		.uleb128 0x9
 1127 01e6 74010000 		.4byte	.LASF36
 1128 01ea 06       		.byte	0x6
 1129 01eb B9       		.byte	0xb9
 1130 01ec 65020000 		.4byte	0x265
 1131 01f0 02       		.byte	0x2
 1132 01f1 23       		.byte	0x23
 1133 01f2 2C       		.uleb128 0x2c
 1134 01f3 09       		.uleb128 0x9
 1135 01f4 9A030000 		.4byte	.LASF37
 1136 01f8 06       		.byte	0x6
 1137 01f9 BD       		.byte	0xbd
 1138 01fa EC000000 		.4byte	0xec
 1139 01fe 02       		.byte	0x2
 1140 01ff 23       		.byte	0x23
 1141 0200 34       		.uleb128 0x34
 1142 0201 09       		.uleb128 0x9
 1143 0202 F0020000 		.4byte	.LASF38
 1144 0206 06       		.byte	0x6
 1145 0207 C3       		.byte	0xc3
 1146 0208 F7000000 		.4byte	0xf7
 1147 020c 02       		.byte	0x2
 1148 020d 23       		.byte	0x23
 1149 020e 38       		.uleb128 0x38
 1150 020f 09       		.uleb128 0x9
 1151 0210 94020000 		.4byte	.LASF39
 1152 0214 06       		.byte	0x6
 1153 0215 CA       		.byte	0xca
 1154 0216 B3040000 		.4byte	0x4b3
 1155 021a 02       		.byte	0x2
 1156 021b 23       		.byte	0x23
 1157 021c 3C       		.uleb128 0x3c
 1158 021d 09       		.uleb128 0x9
 1159 021e 6A030000 		.4byte	.LASF40
 1160 0222 06       		.byte	0x6
 1161 0223 CE       		.byte	0xce
 1162 0224 E1000000 		.4byte	0xe1
 1163 0228 02       		.byte	0x2
 1164 0229 23       		.byte	0x23
 1165 022a 40       		.uleb128 0x40
 1166 022b 09       		.uleb128 0x9
 1167 022c B4000000 		.4byte	.LASF41
 1168 0230 06       		.byte	0x6
 1169 0231 D4       		.byte	0xd4
 1170 0232 68000000 		.4byte	0x68
ARM GAS  /tmp/cc5btYHW.s 			page 22


 1171 0236 02       		.byte	0x2
 1172 0237 23       		.byte	0x23
 1173 0238 44       		.uleb128 0x44
 1174 0239 00       		.byte	0
 1175 023a 0B       		.uleb128 0xb
 1176 023b 08       		.byte	0x8
 1177 023c 05       		.byte	0x5
 1178 023d 61       		.byte	0x61
 1179 023e 5F020000 		.4byte	0x25f
 1180 0242 09       		.uleb128 0x9
 1181 0243 C6020000 		.4byte	.LASF24
 1182 0247 05       		.byte	0x5
 1183 0248 62       		.byte	0x62
 1184 0249 5F020000 		.4byte	0x25f
 1185 024d 02       		.byte	0x2
 1186 024e 23       		.byte	0x23
 1187 024f 00       		.uleb128 0
 1188 0250 09       		.uleb128 0x9
 1189 0251 5B020000 		.4byte	.LASF25
 1190 0255 05       		.byte	0x5
 1191 0256 64       		.byte	0x64
 1192 0257 5F020000 		.4byte	0x25f
 1193 025b 02       		.byte	0x2
 1194 025c 23       		.byte	0x23
 1195 025d 04       		.uleb128 0x4
 1196 025e 00       		.byte	0
 1197 025f 05       		.uleb128 0x5
 1198 0260 04       		.byte	0x4
 1199 0261 18010000 		.4byte	0x118
 1200 0265 07       		.uleb128 0x7
 1201 0266 1C020000 		.4byte	.LASF42
 1202 026a 05       		.byte	0x5
 1203 026b 66       		.byte	0x66
 1204 026c 3A020000 		.4byte	0x23a
 1205 0270 0B       		.uleb128 0xb
 1206 0271 04       		.byte	0x4
 1207 0272 05       		.byte	0x5
 1208 0273 6B       		.byte	0x6b
 1209 0274 87020000 		.4byte	0x287
 1210 0278 09       		.uleb128 0x9
 1211 0279 C6020000 		.4byte	.LASF24
 1212 027d 05       		.byte	0x5
 1213 027e 6D       		.byte	0x6d
 1214 027f 5F020000 		.4byte	0x25f
 1215 0283 02       		.byte	0x2
 1216 0284 23       		.byte	0x23
 1217 0285 00       		.uleb128 0
 1218 0286 00       		.byte	0
 1219 0287 07       		.uleb128 0x7
 1220 0288 C5010000 		.4byte	.LASF43
 1221 028c 05       		.byte	0x5
 1222 028d 70       		.byte	0x70
 1223 028e 70020000 		.4byte	0x270
 1224 0292 07       		.uleb128 0x7
 1225 0293 2B010000 		.4byte	.LASF44
 1226 0297 07       		.byte	0x7
 1227 0298 D7       		.byte	0xd7
ARM GAS  /tmp/cc5btYHW.s 			page 23


 1228 0299 68000000 		.4byte	0x68
 1229 029d 08       		.uleb128 0x8
 1230 029e A0030000 		.4byte	.LASF45
 1231 02a2 24       		.byte	0x24
 1232 02a3 07       		.byte	0x7
 1233 02a4 FE       		.byte	0xfe
 1234 02a5 2A030000 		.4byte	0x32a
 1235 02a9 0C       		.uleb128 0xc
 1236 02aa 723400   		.ascii	"r4\000"
 1237 02ad 07       		.byte	0x7
 1238 02ae 1101     		.2byte	0x111
 1239 02b0 92020000 		.4byte	0x292
 1240 02b4 02       		.byte	0x2
 1241 02b5 23       		.byte	0x23
 1242 02b6 00       		.uleb128 0
 1243 02b7 0C       		.uleb128 0xc
 1244 02b8 723500   		.ascii	"r5\000"
 1245 02bb 07       		.byte	0x7
 1246 02bc 1201     		.2byte	0x112
 1247 02be 92020000 		.4byte	0x292
 1248 02c2 02       		.byte	0x2
 1249 02c3 23       		.byte	0x23
 1250 02c4 04       		.uleb128 0x4
 1251 02c5 0C       		.uleb128 0xc
 1252 02c6 723600   		.ascii	"r6\000"
 1253 02c9 07       		.byte	0x7
 1254 02ca 1301     		.2byte	0x113
 1255 02cc 92020000 		.4byte	0x292
 1256 02d0 02       		.byte	0x2
 1257 02d1 23       		.byte	0x23
 1258 02d2 08       		.uleb128 0x8
 1259 02d3 0C       		.uleb128 0xc
 1260 02d4 723700   		.ascii	"r7\000"
 1261 02d7 07       		.byte	0x7
 1262 02d8 1401     		.2byte	0x114
 1263 02da 92020000 		.4byte	0x292
 1264 02de 02       		.byte	0x2
 1265 02df 23       		.byte	0x23
 1266 02e0 0C       		.uleb128 0xc
 1267 02e1 0C       		.uleb128 0xc
 1268 02e2 723800   		.ascii	"r8\000"
 1269 02e5 07       		.byte	0x7
 1270 02e6 1501     		.2byte	0x115
 1271 02e8 92020000 		.4byte	0x292
 1272 02ec 02       		.byte	0x2
 1273 02ed 23       		.byte	0x23
 1274 02ee 10       		.uleb128 0x10
 1275 02ef 0C       		.uleb128 0xc
 1276 02f0 723900   		.ascii	"r9\000"
 1277 02f3 07       		.byte	0x7
 1278 02f4 1601     		.2byte	0x116
 1279 02f6 92020000 		.4byte	0x292
 1280 02fa 02       		.byte	0x2
 1281 02fb 23       		.byte	0x23
 1282 02fc 14       		.uleb128 0x14
 1283 02fd 0C       		.uleb128 0xc
 1284 02fe 72313000 		.ascii	"r10\000"
ARM GAS  /tmp/cc5btYHW.s 			page 24


 1285 0302 07       		.byte	0x7
 1286 0303 1701     		.2byte	0x117
 1287 0305 92020000 		.4byte	0x292
 1288 0309 02       		.byte	0x2
 1289 030a 23       		.byte	0x23
 1290 030b 18       		.uleb128 0x18
 1291 030c 0C       		.uleb128 0xc
 1292 030d 72313100 		.ascii	"r11\000"
 1293 0311 07       		.byte	0x7
 1294 0312 1801     		.2byte	0x118
 1295 0314 92020000 		.4byte	0x292
 1296 0318 02       		.byte	0x2
 1297 0319 23       		.byte	0x23
 1298 031a 1C       		.uleb128 0x1c
 1299 031b 0C       		.uleb128 0xc
 1300 031c 6C7200   		.ascii	"lr\000"
 1301 031f 07       		.byte	0x7
 1302 0320 1901     		.2byte	0x119
 1303 0322 92020000 		.4byte	0x292
 1304 0326 02       		.byte	0x2
 1305 0327 23       		.byte	0x23
 1306 0328 20       		.uleb128 0x20
 1307 0329 00       		.byte	0
 1308 032a 0D       		.uleb128 0xd
 1309 032b 92030000 		.4byte	.LASF46
 1310 032f 04       		.byte	0x4
 1311 0330 07       		.byte	0x7
 1312 0331 2301     		.2byte	0x123
 1313 0333 47030000 		.4byte	0x347
 1314 0337 0C       		.uleb128 0xc
 1315 0338 72313300 		.ascii	"r13\000"
 1316 033c 07       		.byte	0x7
 1317 033d 2401     		.2byte	0x124
 1318 033f 47030000 		.4byte	0x347
 1319 0343 02       		.byte	0x2
 1320 0344 23       		.byte	0x23
 1321 0345 00       		.uleb128 0
 1322 0346 00       		.byte	0
 1323 0347 05       		.uleb128 0x5
 1324 0348 04       		.byte	0x4
 1325 0349 9D020000 		.4byte	0x29d
 1326 034d 0E       		.uleb128 0xe
 1327 034e 02010000 		.4byte	0x102
 1328 0352 0B       		.uleb128 0xb
 1329 0353 20       		.byte	0x20
 1330 0354 08       		.byte	0x8
 1331 0355 5E       		.byte	0x5e
 1332 0356 BD030000 		.4byte	0x3bd
 1333 035a 09       		.uleb128 0x9
 1334 035b 04030000 		.4byte	.LASF47
 1335 035f 08       		.byte	0x8
 1336 0360 5F       		.byte	0x5f
 1337 0361 65020000 		.4byte	0x265
 1338 0365 02       		.byte	0x2
 1339 0366 23       		.byte	0x23
 1340 0367 00       		.uleb128 0
 1341 0368 09       		.uleb128 0x9
ARM GAS  /tmp/cc5btYHW.s 			page 25


 1342 0369 B8020000 		.4byte	.LASF48
 1343 036d 08       		.byte	0x8
 1344 036e 60       		.byte	0x60
 1345 036f E1000000 		.4byte	0xe1
 1346 0373 02       		.byte	0x2
 1347 0374 23       		.byte	0x23
 1348 0375 08       		.uleb128 0x8
 1349 0376 09       		.uleb128 0x9
 1350 0377 04020000 		.4byte	.LASF49
 1351 037b 08       		.byte	0x8
 1352 037c 62       		.byte	0x62
 1353 037d 2A030000 		.4byte	0x32a
 1354 0381 02       		.byte	0x2
 1355 0382 23       		.byte	0x23
 1356 0383 0C       		.uleb128 0xc
 1357 0384 09       		.uleb128 0x9
 1358 0385 23010000 		.4byte	.LASF50
 1359 0389 08       		.byte	0x8
 1360 038a 65       		.byte	0x65
 1361 038b 5F020000 		.4byte	0x25f
 1362 038f 02       		.byte	0x2
 1363 0390 23       		.byte	0x23
 1364 0391 10       		.uleb128 0x10
 1365 0392 09       		.uleb128 0x9
 1366 0393 3D020000 		.4byte	.LASF51
 1367 0397 08       		.byte	0x8
 1368 0398 66       		.byte	0x66
 1369 0399 5F020000 		.4byte	0x25f
 1370 039d 02       		.byte	0x2
 1371 039e 23       		.byte	0x23
 1372 039f 14       		.uleb128 0x14
 1373 03a0 09       		.uleb128 0x9
 1374 03a1 81030000 		.4byte	.LASF52
 1375 03a5 08       		.byte	0x8
 1376 03a6 6A       		.byte	0x6a
 1377 03a7 0D010000 		.4byte	0x10d
 1378 03ab 02       		.byte	0x2
 1379 03ac 23       		.byte	0x23
 1380 03ad 18       		.uleb128 0x18
 1381 03ae 09       		.uleb128 0x9
 1382 03af 2A030000 		.4byte	.LASF53
 1383 03b3 08       		.byte	0x8
 1384 03b4 6C       		.byte	0x6c
 1385 03b5 5F020000 		.4byte	0x25f
 1386 03b9 02       		.byte	0x2
 1387 03ba 23       		.byte	0x23
 1388 03bb 1C       		.uleb128 0x1c
 1389 03bc 00       		.byte	0
 1390 03bd 07       		.uleb128 0x7
 1391 03be 07000000 		.4byte	.LASF54
 1392 03c2 08       		.byte	0x8
 1393 03c3 6E       		.byte	0x6e
 1394 03c4 52030000 		.4byte	0x352
 1395 03c8 08       		.uleb128 0x8
 1396 03c9 E3010000 		.4byte	.LASF55
 1397 03cd 10       		.byte	0x10
 1398 03ce 09       		.byte	0x9
ARM GAS  /tmp/cc5btYHW.s 			page 26


 1399 03cf 2C       		.byte	0x2c
 1400 03d0 FF030000 		.4byte	0x3ff
 1401 03d4 09       		.uleb128 0x9
 1402 03d5 C3000000 		.4byte	.LASF56
 1403 03d9 09       		.byte	0x9
 1404 03da 2D       		.byte	0x2d
 1405 03db 65020000 		.4byte	0x265
 1406 03df 02       		.byte	0x2
 1407 03e0 23       		.byte	0x23
 1408 03e1 00       		.uleb128 0
 1409 03e2 09       		.uleb128 0x9
 1410 03e3 2F040000 		.4byte	.LASF57
 1411 03e7 09       		.byte	0x9
 1412 03e8 2F       		.byte	0x2f
 1413 03e9 5F020000 		.4byte	0x25f
 1414 03ed 02       		.byte	0x2
 1415 03ee 23       		.byte	0x23
 1416 03ef 08       		.uleb128 0x8
 1417 03f0 09       		.uleb128 0x9
 1418 03f1 59030000 		.4byte	.LASF58
 1419 03f5 09       		.byte	0x9
 1420 03f6 31       		.byte	0x31
 1421 03f7 FF030000 		.4byte	0x3ff
 1422 03fb 02       		.byte	0x2
 1423 03fc 23       		.byte	0x23
 1424 03fd 0C       		.uleb128 0xc
 1425 03fe 00       		.byte	0
 1426 03ff 05       		.uleb128 0x5
 1427 0400 04       		.byte	0x4
 1428 0401 C8030000 		.4byte	0x3c8
 1429 0405 07       		.uleb128 0x7
 1430 0406 E3010000 		.4byte	.LASF55
 1431 040a 09       		.byte	0x9
 1432 040b 33       		.byte	0x33
 1433 040c C8030000 		.4byte	0x3c8
 1434 0410 07       		.uleb128 0x7
 1435 0411 EF030000 		.4byte	.LASF59
 1436 0415 0A       		.byte	0xa
 1437 0416 29       		.byte	0x29
 1438 0417 1B040000 		.4byte	0x41b
 1439 041b 08       		.uleb128 0x8
 1440 041c EF030000 		.4byte	.LASF59
 1441 0420 0C       		.byte	0xc
 1442 0421 0A       		.byte	0xa
 1443 0422 2E       		.byte	0x2e
 1444 0423 52040000 		.4byte	0x452
 1445 0427 09       		.uleb128 0x9
 1446 0428 AE010000 		.4byte	.LASF60
 1447 042c 0A       		.byte	0xa
 1448 042d 2F       		.byte	0x2f
 1449 042e 52040000 		.4byte	0x452
 1450 0432 02       		.byte	0x2
 1451 0433 23       		.byte	0x23
 1452 0434 00       		.uleb128 0
 1453 0435 09       		.uleb128 0x9
 1454 0436 88020000 		.4byte	.LASF61
 1455 043a 0A       		.byte	0xa
ARM GAS  /tmp/cc5btYHW.s 			page 27


 1456 043b 32       		.byte	0x32
 1457 043c 5F020000 		.4byte	0x25f
 1458 0440 02       		.byte	0x2
 1459 0441 23       		.byte	0x23
 1460 0442 04       		.uleb128 0x4
 1461 0443 09       		.uleb128 0x9
 1462 0444 F4010000 		.4byte	.LASF62
 1463 0448 0A       		.byte	0xa
 1464 0449 34       		.byte	0x34
 1465 044a F7000000 		.4byte	0xf7
 1466 044e 02       		.byte	0x2
 1467 044f 23       		.byte	0x23
 1468 0450 08       		.uleb128 0x8
 1469 0451 00       		.byte	0
 1470 0452 05       		.uleb128 0x5
 1471 0453 04       		.byte	0x4
 1472 0454 10040000 		.4byte	0x410
 1473 0458 08       		.uleb128 0x8
 1474 0459 49010000 		.4byte	.LASF63
 1475 045d 04       		.byte	0x4
 1476 045e 0A       		.byte	0xa
 1477 045f 3C       		.byte	0x3c
 1478 0460 73040000 		.4byte	0x473
 1479 0464 09       		.uleb128 0x9
 1480 0465 B4030000 		.4byte	.LASF64
 1481 0469 0A       		.byte	0xa
 1482 046a 3D       		.byte	0x3d
 1483 046b 52040000 		.4byte	0x452
 1484 046f 02       		.byte	0x2
 1485 0470 23       		.byte	0x23
 1486 0471 00       		.uleb128 0
 1487 0472 00       		.byte	0
 1488 0473 07       		.uleb128 0x7
 1489 0474 49010000 		.4byte	.LASF63
 1490 0478 0A       		.byte	0xa
 1491 0479 40       		.byte	0x40
 1492 047a 58040000 		.4byte	0x458
 1493 047e 0F       		.uleb128 0xf
 1494 047f 04       		.byte	0x4
 1495 0480 06       		.byte	0x6
 1496 0481 90       		.byte	0x90
 1497 0482 B3040000 		.4byte	0x4b3
 1498 0486 10       		.uleb128 0x10
 1499 0487 AD030000 		.4byte	.LASF65
 1500 048b 06       		.byte	0x6
 1501 048c 97       		.byte	0x97
 1502 048d EC000000 		.4byte	0xec
 1503 0491 10       		.uleb128 0x10
 1504 0492 6E000000 		.4byte	.LASF66
 1505 0496 06       		.byte	0x6
 1506 0497 9E       		.byte	0x9e
 1507 0498 EC000000 		.4byte	0xec
 1508 049c 10       		.uleb128 0x10
 1509 049d FD030000 		.4byte	.LASF67
 1510 04a1 06       		.byte	0x6
 1511 04a2 A5       		.byte	0xa5
 1512 04a3 68000000 		.4byte	0x68
ARM GAS  /tmp/cc5btYHW.s 			page 28


 1513 04a7 10       		.uleb128 0x10
 1514 04a8 BF020000 		.4byte	.LASF68
 1515 04ac 06       		.byte	0x6
 1516 04ad AC       		.byte	0xac
 1517 04ae F7000000 		.4byte	0xf7
 1518 04b2 00       		.byte	0
 1519 04b3 05       		.uleb128 0x5
 1520 04b4 04       		.byte	0x4
 1521 04b5 05040000 		.4byte	0x405
 1522 04b9 05       		.uleb128 0x5
 1523 04ba 04       		.byte	0x4
 1524 04bb 94000000 		.4byte	0x94
 1525 04bf 11       		.uleb128 0x11
 1526 04c0 01       		.byte	0x1
 1527 04c1 89000000 		.4byte	0x89
 1528 04c5 D9040000 		.4byte	0x4d9
 1529 04c9 12       		.uleb128 0x12
 1530 04ca 68000000 		.4byte	0x68
 1531 04ce 12       		.uleb128 0x12
 1532 04cf D9040000 		.4byte	0x4d9
 1533 04d3 12       		.uleb128 0x12
 1534 04d4 89000000 		.4byte	0x89
 1535 04d8 00       		.byte	0
 1536 04d9 05       		.uleb128 0x5
 1537 04da 04       		.byte	0x4
 1538 04db DF040000 		.4byte	0x4df
 1539 04df 06       		.uleb128 0x6
 1540 04e0 94000000 		.4byte	0x94
 1541 04e4 05       		.uleb128 0x5
 1542 04e5 04       		.byte	0x4
 1543 04e6 BF040000 		.4byte	0x4bf
 1544 04ea 11       		.uleb128 0x11
 1545 04eb 01       		.byte	0x1
 1546 04ec 89000000 		.4byte	0x89
 1547 04f0 04050000 		.4byte	0x504
 1548 04f4 12       		.uleb128 0x12
 1549 04f5 68000000 		.4byte	0x68
 1550 04f9 12       		.uleb128 0x12
 1551 04fa B9040000 		.4byte	0x4b9
 1552 04fe 12       		.uleb128 0x12
 1553 04ff 89000000 		.4byte	0x89
 1554 0503 00       		.byte	0
 1555 0504 05       		.uleb128 0x5
 1556 0505 04       		.byte	0x4
 1557 0506 EA040000 		.4byte	0x4ea
 1558 050a 08       		.uleb128 0x8
 1559 050b 5F000000 		.4byte	.LASF69
 1560 050f 20       		.byte	0x20
 1561 0510 0B       		.byte	0xb
 1562 0511 51       		.byte	0x51
 1563 0512 87050000 		.4byte	0x587
 1564 0516 09       		.uleb128 0x9
 1565 0517 DD010000 		.4byte	.LASF70
 1566 051b 0B       		.byte	0xb
 1567 051c 52       		.byte	0x52
 1568 051d E4040000 		.4byte	0x4e4
 1569 0521 02       		.byte	0x2
ARM GAS  /tmp/cc5btYHW.s 			page 29


 1570 0522 23       		.byte	0x23
 1571 0523 00       		.uleb128 0
 1572 0524 09       		.uleb128 0x9
 1573 0525 34030000 		.4byte	.LASF71
 1574 0529 0B       		.byte	0xb
 1575 052a 52       		.byte	0x52
 1576 052b 04050000 		.4byte	0x504
 1577 052f 02       		.byte	0x2
 1578 0530 23       		.byte	0x23
 1579 0531 04       		.uleb128 0x4
 1580 0532 09       		.uleb128 0x9
 1581 0533 10010000 		.4byte	.LASF72
 1582 0537 0B       		.byte	0xb
 1583 0538 52       		.byte	0x52
 1584 0539 97050000 		.4byte	0x597
 1585 053d 02       		.byte	0x2
 1586 053e 23       		.byte	0x23
 1587 053f 08       		.uleb128 0x8
 1588 0540 09       		.uleb128 0x9
 1589 0541 17040000 		.4byte	.LASF73
 1590 0545 0B       		.byte	0xb
 1591 0546 52       		.byte	0x52
 1592 0547 97050000 		.4byte	0x597
 1593 054b 02       		.byte	0x2
 1594 054c 23       		.byte	0x23
 1595 054d 0C       		.uleb128 0xc
 1596 054e 0A       		.uleb128 0xa
 1597 054f 70757400 		.ascii	"put\000"
 1598 0553 0B       		.byte	0xb
 1599 0554 52       		.byte	0x52
 1600 0555 B7050000 		.4byte	0x5b7
 1601 0559 02       		.byte	0x2
 1602 055a 23       		.byte	0x23
 1603 055b 10       		.uleb128 0x10
 1604 055c 0A       		.uleb128 0xa
 1605 055d 67657400 		.ascii	"get\000"
 1606 0561 0B       		.byte	0xb
 1607 0562 52       		.byte	0x52
 1608 0563 D2050000 		.4byte	0x5d2
 1609 0567 02       		.byte	0x2
 1610 0568 23       		.byte	0x23
 1611 0569 14       		.uleb128 0x14
 1612 056a 09       		.uleb128 0x9
 1613 056b B6010000 		.4byte	.LASF74
 1614 056f 0B       		.byte	0xb
 1615 0570 52       		.byte	0x52
 1616 0571 F7050000 		.4byte	0x5f7
 1617 0575 02       		.byte	0x2
 1618 0576 23       		.byte	0x23
 1619 0577 18       		.uleb128 0x18
 1620 0578 09       		.uleb128 0x9
 1621 0579 94000000 		.4byte	.LASF75
 1622 057d 0B       		.byte	0xb
 1623 057e 52       		.byte	0x52
 1624 057f 1C060000 		.4byte	0x61c
 1625 0583 02       		.byte	0x2
 1626 0584 23       		.byte	0x23
ARM GAS  /tmp/cc5btYHW.s 			page 30


 1627 0585 1C       		.uleb128 0x1c
 1628 0586 00       		.byte	0
 1629 0587 11       		.uleb128 0x11
 1630 0588 01       		.byte	0x1
 1631 0589 B5000000 		.4byte	0xb5
 1632 058d 97050000 		.4byte	0x597
 1633 0591 12       		.uleb128 0x12
 1634 0592 68000000 		.4byte	0x68
 1635 0596 00       		.byte	0
 1636 0597 05       		.uleb128 0x5
 1637 0598 04       		.byte	0x4
 1638 0599 87050000 		.4byte	0x587
 1639 059d 11       		.uleb128 0x11
 1640 059e 01       		.byte	0x1
 1641 059f EC000000 		.4byte	0xec
 1642 05a3 B7050000 		.4byte	0x5b7
 1643 05a7 12       		.uleb128 0x12
 1644 05a8 68000000 		.4byte	0x68
 1645 05ac 12       		.uleb128 0x12
 1646 05ad 94000000 		.4byte	0x94
 1647 05b1 12       		.uleb128 0x12
 1648 05b2 02010000 		.4byte	0x102
 1649 05b6 00       		.byte	0
 1650 05b7 05       		.uleb128 0x5
 1651 05b8 04       		.byte	0x4
 1652 05b9 9D050000 		.4byte	0x59d
 1653 05bd 11       		.uleb128 0x11
 1654 05be 01       		.byte	0x1
 1655 05bf EC000000 		.4byte	0xec
 1656 05c3 D2050000 		.4byte	0x5d2
 1657 05c7 12       		.uleb128 0x12
 1658 05c8 68000000 		.4byte	0x68
 1659 05cc 12       		.uleb128 0x12
 1660 05cd 02010000 		.4byte	0x102
 1661 05d1 00       		.byte	0
 1662 05d2 05       		.uleb128 0x5
 1663 05d3 04       		.byte	0x4
 1664 05d4 BD050000 		.4byte	0x5bd
 1665 05d8 11       		.uleb128 0x11
 1666 05d9 01       		.byte	0x1
 1667 05da 89000000 		.4byte	0x89
 1668 05de F7050000 		.4byte	0x5f7
 1669 05e2 12       		.uleb128 0x12
 1670 05e3 68000000 		.4byte	0x68
 1671 05e7 12       		.uleb128 0x12
 1672 05e8 D9040000 		.4byte	0x4d9
 1673 05ec 12       		.uleb128 0x12
 1674 05ed 89000000 		.4byte	0x89
 1675 05f1 12       		.uleb128 0x12
 1676 05f2 02010000 		.4byte	0x102
 1677 05f6 00       		.byte	0
 1678 05f7 05       		.uleb128 0x5
 1679 05f8 04       		.byte	0x4
 1680 05f9 D8050000 		.4byte	0x5d8
 1681 05fd 11       		.uleb128 0x11
 1682 05fe 01       		.byte	0x1
 1683 05ff 89000000 		.4byte	0x89
ARM GAS  /tmp/cc5btYHW.s 			page 31


 1684 0603 1C060000 		.4byte	0x61c
 1685 0607 12       		.uleb128 0x12
 1686 0608 68000000 		.4byte	0x68
 1687 060c 12       		.uleb128 0x12
 1688 060d B9040000 		.4byte	0x4b9
 1689 0611 12       		.uleb128 0x12
 1690 0612 89000000 		.4byte	0x89
 1691 0616 12       		.uleb128 0x12
 1692 0617 02010000 		.4byte	0x102
 1693 061b 00       		.byte	0
 1694 061c 05       		.uleb128 0x5
 1695 061d 04       		.byte	0x4
 1696 061e FD050000 		.4byte	0x5fd
 1697 0622 0B       		.uleb128 0xb
 1698 0623 04       		.byte	0x4
 1699 0624 0B       		.byte	0xb
 1700 0625 5C       		.byte	0x5c
 1701 0626 39060000 		.4byte	0x639
 1702 062a 0A       		.uleb128 0xa
 1703 062b 766D7400 		.ascii	"vmt\000"
 1704 062f 0B       		.byte	0xb
 1705 0630 5E       		.byte	0x5e
 1706 0631 39060000 		.4byte	0x639
 1707 0635 02       		.byte	0x2
 1708 0636 23       		.byte	0x23
 1709 0637 00       		.uleb128 0
 1710 0638 00       		.byte	0
 1711 0639 05       		.uleb128 0x5
 1712 063a 04       		.byte	0x4
 1713 063b 3F060000 		.4byte	0x63f
 1714 063f 06       		.uleb128 0x6
 1715 0640 0A050000 		.4byte	0x50a
 1716 0644 07       		.uleb128 0x7
 1717 0645 D7030000 		.4byte	.LASF76
 1718 0649 0B       		.byte	0xb
 1719 064a 60       		.byte	0x60
 1720 064b 22060000 		.4byte	0x622
 1721 064f 0E       		.uleb128 0xe
 1722 0650 9F000000 		.4byte	0x9f
 1723 0654 07       		.uleb128 0x7
 1724 0655 E9010000 		.4byte	.LASF77
 1725 0659 0C       		.byte	0xc
 1726 065a 38       		.byte	0x38
 1727 065b 5F060000 		.4byte	0x65f
 1728 065f 05       		.uleb128 0x5
 1729 0660 04       		.byte	0x4
 1730 0661 65060000 		.4byte	0x665
 1731 0665 13       		.uleb128 0x13
 1732 0666 01       		.byte	0x1
 1733 0667 7B060000 		.4byte	0x67b
 1734 066b 12       		.uleb128 0x12
 1735 066c 7B060000 		.4byte	0x67b
 1736 0670 12       		.uleb128 0x12
 1737 0671 45000000 		.4byte	0x45
 1738 0675 12       		.uleb128 0x12
 1739 0676 81060000 		.4byte	0x681
 1740 067a 00       		.byte	0
ARM GAS  /tmp/cc5btYHW.s 			page 32


 1741 067b 05       		.uleb128 0x5
 1742 067c 04       		.byte	0x4
 1743 067d 44060000 		.4byte	0x644
 1744 0681 05       		.uleb128 0x5
 1745 0682 04       		.byte	0x4
 1746 0683 71000000 		.4byte	0x71
 1747 0687 0B       		.uleb128 0xb
 1748 0688 08       		.byte	0x8
 1749 0689 0C       		.byte	0xc
 1750 068a 3D       		.byte	0x3d
 1751 068b AC060000 		.4byte	0x6ac
 1752 068f 09       		.uleb128 0x9
 1753 0690 41010000 		.4byte	.LASF78
 1754 0694 0C       		.byte	0xc
 1755 0695 3E       		.byte	0x3e
 1756 0696 7E000000 		.4byte	0x7e
 1757 069a 02       		.byte	0x2
 1758 069b 23       		.byte	0x23
 1759 069c 00       		.uleb128 0
 1760 069d 09       		.uleb128 0x9
 1761 069e E3030000 		.4byte	.LASF79
 1762 06a2 0C       		.byte	0xc
 1763 06a3 3F       		.byte	0x3f
 1764 06a4 54060000 		.4byte	0x654
 1765 06a8 02       		.byte	0x2
 1766 06a9 23       		.byte	0x23
 1767 06aa 04       		.uleb128 0x4
 1768 06ab 00       		.byte	0
 1769 06ac 07       		.uleb128 0x7
 1770 06ad DF000000 		.4byte	.LASF80
 1771 06b1 0C       		.byte	0xc
 1772 06b2 40       		.byte	0x40
 1773 06b3 87060000 		.4byte	0x687
 1774 06b7 0B       		.uleb128 0xb
 1775 06b8 08       		.byte	0x8
 1776 06b9 0C       		.byte	0xc
 1777 06ba 45       		.byte	0x45
 1778 06bb DC060000 		.4byte	0x6dc
 1779 06bf 09       		.uleb128 0x9
 1780 06c0 CB000000 		.4byte	.LASF81
 1781 06c4 0C       		.byte	0xc
 1782 06c5 46       		.byte	0x46
 1783 06c6 7B060000 		.4byte	0x67b
 1784 06ca 02       		.byte	0x2
 1785 06cb 23       		.byte	0x23
 1786 06cc 00       		.uleb128 0
 1787 06cd 09       		.uleb128 0x9
 1788 06ce 68010000 		.4byte	.LASF82
 1789 06d2 0C       		.byte	0xc
 1790 06d3 48       		.byte	0x48
 1791 06d4 DC060000 		.4byte	0x6dc
 1792 06d8 02       		.byte	0x2
 1793 06d9 23       		.byte	0x23
 1794 06da 04       		.uleb128 0x4
 1795 06db 00       		.byte	0
 1796 06dc 05       		.uleb128 0x5
 1797 06dd 04       		.byte	0x4
ARM GAS  /tmp/cc5btYHW.s 			page 33


 1798 06de E2060000 		.4byte	0x6e2
 1799 06e2 06       		.uleb128 0x6
 1800 06e3 AC060000 		.4byte	0x6ac
 1801 06e7 07       		.uleb128 0x7
 1802 06e8 75030000 		.4byte	.LASF83
 1803 06ec 0C       		.byte	0xc
 1804 06ed 4A       		.byte	0x4a
 1805 06ee B7060000 		.4byte	0x6b7
 1806 06f2 14       		.uleb128 0x14
 1807 06f3 A7030000 		.4byte	.LASF84
 1808 06f7 01       		.byte	0x1
 1809 06f8 45       		.byte	0x45
 1810 06f9 01       		.byte	0x1
 1811 06fa 01       		.byte	0x1
 1812 06fb 14070000 		.4byte	0x714
 1813 06ff 15       		.uleb128 0x15
 1814 0700 63687000 		.ascii	"chp\000"
 1815 0704 01       		.byte	0x1
 1816 0705 45       		.byte	0x45
 1817 0706 7B060000 		.4byte	0x67b
 1818 070a 15       		.uleb128 0x15
 1819 070b 7000     		.ascii	"p\000"
 1820 070d 01       		.byte	0x1
 1821 070e 45       		.byte	0x45
 1822 070f 71000000 		.4byte	0x71
 1823 0713 00       		.byte	0
 1824 0714 14       		.uleb128 0x14
 1825 0715 84000000 		.4byte	.LASF85
 1826 0719 01       		.byte	0x1
 1827 071a 50       		.byte	0x50
 1828 071b 01       		.byte	0x1
 1829 071c 01       		.byte	0x1
 1830 071d 43070000 		.4byte	0x743
 1831 0721 15       		.uleb128 0x15
 1832 0722 63687000 		.ascii	"chp\000"
 1833 0726 01       		.byte	0x1
 1834 0727 50       		.byte	0x50
 1835 0728 7B060000 		.4byte	0x67b
 1836 072c 16       		.uleb128 0x16
 1837 072d 04040000 		.4byte	.LASF86
 1838 0731 01       		.byte	0x1
 1839 0732 50       		.byte	0x50
 1840 0733 45000000 		.4byte	0x45
 1841 0737 16       		.uleb128 0x16
 1842 0738 2A040000 		.4byte	.LASF87
 1843 073c 01       		.byte	0x1
 1844 073d 50       		.byte	0x50
 1845 073e 81060000 		.4byte	0x681
 1846 0742 00       		.byte	0
 1847 0743 14       		.uleb128 0x14
 1848 0744 09040000 		.4byte	.LASF88
 1849 0748 01       		.byte	0x1
 1850 0749 49       		.byte	0x49
 1851 074a 01       		.byte	0x1
 1852 074b 01       		.byte	0x1
 1853 074c 67070000 		.4byte	0x767
 1854 0750 15       		.uleb128 0x15
ARM GAS  /tmp/cc5btYHW.s 			page 34


 1855 0751 63687000 		.ascii	"chp\000"
 1856 0755 01       		.byte	0x1
 1857 0756 49       		.byte	0x49
 1858 0757 7B060000 		.4byte	0x67b
 1859 075b 15       		.uleb128 0x15
 1860 075c 73637000 		.ascii	"scp\000"
 1861 0760 01       		.byte	0x1
 1862 0761 49       		.byte	0x49
 1863 0762 DC060000 		.4byte	0x6dc
 1864 0766 00       		.byte	0
 1865 0767 17       		.uleb128 0x17
 1866 0768 B0020000 		.4byte	.LASF90
 1867 076c 01       		.byte	0x1
 1868 076d 64       		.byte	0x64
 1869 076e 01       		.byte	0x1
 1870 076f B5000000 		.4byte	0xb5
 1871 0773 01       		.byte	0x1
 1872 0774 B0070000 		.4byte	0x7b0
 1873 0778 15       		.uleb128 0x15
 1874 0779 73637000 		.ascii	"scp\000"
 1875 077d 01       		.byte	0x1
 1876 077e 64       		.byte	0x64
 1877 077f DC060000 		.4byte	0x6dc
 1878 0783 15       		.uleb128 0x15
 1879 0784 63687000 		.ascii	"chp\000"
 1880 0788 01       		.byte	0x1
 1881 0789 64       		.byte	0x64
 1882 078a 7B060000 		.4byte	0x67b
 1883 078e 16       		.uleb128 0x16
 1884 078f 7F010000 		.4byte	.LASF89
 1885 0793 01       		.byte	0x1
 1886 0794 65       		.byte	0x65
 1887 0795 71000000 		.4byte	0x71
 1888 0799 16       		.uleb128 0x16
 1889 079a 04040000 		.4byte	.LASF86
 1890 079e 01       		.byte	0x1
 1891 079f 65       		.byte	0x65
 1892 07a0 45000000 		.4byte	0x45
 1893 07a4 16       		.uleb128 0x16
 1894 07a5 2A040000 		.4byte	.LASF87
 1895 07a9 01       		.byte	0x1
 1896 07aa 65       		.byte	0x65
 1897 07ab 81060000 		.4byte	0x681
 1898 07af 00       		.byte	0
 1899 07b0 17       		.uleb128 0x17
 1900 07b1 6A020000 		.4byte	.LASF91
 1901 07b5 01       		.byte	0x1
 1902 07b6 34       		.byte	0x34
 1903 07b7 01       		.byte	0x1
 1904 07b8 71000000 		.4byte	0x71
 1905 07bc 01       		.byte	0x1
 1906 07bd EE070000 		.4byte	0x7ee
 1907 07c1 15       		.uleb128 0x15
 1908 07c2 73747200 		.ascii	"str\000"
 1909 07c6 01       		.byte	0x1
 1910 07c7 34       		.byte	0x34
 1911 07c8 71000000 		.4byte	0x71
ARM GAS  /tmp/cc5btYHW.s 			page 35


 1912 07cc 16       		.uleb128 0x16
 1913 07cd CD020000 		.4byte	.LASF92
 1914 07d1 01       		.byte	0x1
 1915 07d2 34       		.byte	0x34
 1916 07d3 7E000000 		.4byte	0x7e
 1917 07d7 16       		.uleb128 0x16
 1918 07d8 53020000 		.4byte	.LASF93
 1919 07dc 01       		.byte	0x1
 1920 07dd 34       		.byte	0x34
 1921 07de 81060000 		.4byte	0x681
 1922 07e2 18       		.uleb128 0x18
 1923 07e3 45020000 		.4byte	.LASF109
 1924 07e7 01       		.byte	0x1
 1925 07e8 35       		.byte	0x35
 1926 07e9 71000000 		.4byte	0x71
 1927 07ed 00       		.byte	0
 1928 07ee 19       		.uleb128 0x19
 1929 07ef 14070000 		.4byte	0x714
 1930 07f3 00000000 		.4byte	.LFB120
 1931 07f7 2C000000 		.4byte	.LFE120
 1932 07fb 02       		.byte	0x2
 1933 07fc 7D       		.byte	0x7d
 1934 07fd 00       		.sleb128 0
 1935 07fe 65080000 		.4byte	0x865
 1936 0802 1A       		.uleb128 0x1a
 1937 0803 21070000 		.4byte	0x721
 1938 0807 00000000 		.4byte	.LLST0
 1939 080b 1A       		.uleb128 0x1a
 1940 080c 2C070000 		.4byte	0x72c
 1941 0810 1E000000 		.4byte	.LLST1
 1942 0814 1A       		.uleb128 0x1a
 1943 0815 37070000 		.4byte	0x737
 1944 0819 3C000000 		.4byte	.LLST2
 1945 081d 1B       		.uleb128 0x1b
 1946 081e F2060000 		.4byte	0x6f2
 1947 0822 04000000 		.4byte	.LBB25
 1948 0826 00000000 		.4byte	.Ldebug_ranges0+0
 1949 082a 01       		.byte	0x1
 1950 082b 54       		.byte	0x54
 1951 082c 3F080000 		.4byte	0x83f
 1952 0830 1A       		.uleb128 0x1a
 1953 0831 0A070000 		.4byte	0x70a
 1954 0835 5A000000 		.4byte	.LLST3
 1955 0839 1C       		.uleb128 0x1c
 1956 083a FF060000 		.4byte	0x6ff
 1957 083e 00       		.byte	0
 1958 083f 1D       		.uleb128 0x1d
 1959 0840 14070000 		.4byte	0x714
 1960 0844 18000000 		.4byte	.LBB29
 1961 0848 18000000 		.4byte	.Ldebug_ranges0+0x18
 1962 084c 01       		.byte	0x1
 1963 084d 50       		.byte	0x50
 1964 084e 1C       		.uleb128 0x1c
 1965 084f 21070000 		.4byte	0x721
 1966 0853 1E       		.uleb128 0x1e
 1967 0854 30000000 		.4byte	.Ldebug_ranges0+0x30
 1968 0858 1C       		.uleb128 0x1c
ARM GAS  /tmp/cc5btYHW.s 			page 36


 1969 0859 37070000 		.4byte	0x737
 1970 085d 1C       		.uleb128 0x1c
 1971 085e 2C070000 		.4byte	0x72c
 1972 0862 00       		.byte	0
 1973 0863 00       		.byte	0
 1974 0864 00       		.byte	0
 1975 0865 1F       		.uleb128 0x1f
 1976 0866 B0070000 		.4byte	0x7b0
 1977 086a 00000000 		.4byte	.LFB128
 1978 086e 44000000 		.4byte	.LFE128
 1979 0872 72000000 		.4byte	.LLST4
 1980 0876 A2080000 		.4byte	0x8a2
 1981 087a 1A       		.uleb128 0x1a
 1982 087b C1070000 		.4byte	0x7c1
 1983 087f 92000000 		.4byte	.LLST5
 1984 0883 1A       		.uleb128 0x1a
 1985 0884 D7070000 		.4byte	0x7d7
 1986 0888 B0000000 		.4byte	.LLST6
 1987 088c 20       		.uleb128 0x20
 1988 088d E2070000 		.4byte	0x7e2
 1989 0891 CE000000 		.4byte	.LLST7
 1990 0895 21       		.uleb128 0x21
 1991 0896 CC070000 		.4byte	0x7cc
 1992 089a 06       		.byte	0x6
 1993 089b 03       		.byte	0x3
 1994 089c 00000000 		.4byte	.LC4
 1995 08a0 9F       		.byte	0x9f
 1996 08a1 00       		.byte	0
 1997 08a2 22       		.uleb128 0x22
 1998 08a3 01       		.byte	0x1
 1999 08a4 4F030000 		.4byte	.LASF110
 2000 08a8 01       		.byte	0x1
 2001 08a9 BA       		.byte	0xba
 2002 08aa 01       		.byte	0x1
 2003 08ab 00000000 		.4byte	.LFB123
 2004 08af 0C000000 		.4byte	.LFE123
 2005 08b3 02       		.byte	0x2
 2006 08b4 7D       		.byte	0x7d
 2007 08b5 00       		.sleb128 0
 2008 08b6 23       		.uleb128 0x23
 2009 08b7 01       		.byte	0x1
 2010 08b8 84010000 		.4byte	.LASF96
 2011 08bc 01       		.byte	0x1
 2012 08bd CA       		.byte	0xca
 2013 08be 01       		.byte	0x1
 2014 08bf 5F020000 		.4byte	0x25f
 2015 08c3 00000000 		.4byte	.LFB124
 2016 08c7 18000000 		.4byte	.LFE124
 2017 08cb ED000000 		.4byte	.LLST8
 2018 08cf 01090000 		.4byte	0x901
 2019 08d3 24       		.uleb128 0x24
 2020 08d4 73637000 		.ascii	"scp\000"
 2021 08d8 01       		.byte	0x1
 2022 08d9 CA       		.byte	0xca
 2023 08da 01090000 		.4byte	0x901
 2024 08de 19010000 		.4byte	.LLST9
 2025 08e2 25       		.uleb128 0x25
ARM GAS  /tmp/cc5btYHW.s 			page 37


 2026 08e3 90010000 		.4byte	.LASF94
 2027 08e7 01       		.byte	0x1
 2028 08e8 CA       		.byte	0xca
 2029 08e9 89000000 		.4byte	0x89
 2030 08ed 38010000 		.4byte	.LLST10
 2031 08f1 25       		.uleb128 0x25
 2032 08f2 38020000 		.4byte	.LASF95
 2033 08f6 01       		.byte	0x1
 2034 08f7 CA       		.byte	0xca
 2035 08f8 E1000000 		.4byte	0xe1
 2036 08fc 4B010000 		.4byte	.LLST11
 2037 0900 00       		.byte	0
 2038 0901 05       		.uleb128 0x5
 2039 0902 04       		.byte	0x4
 2040 0903 07090000 		.4byte	0x907
 2041 0907 06       		.uleb128 0x6
 2042 0908 E7060000 		.4byte	0x6e7
 2043 090c 23       		.uleb128 0x23
 2044 090d 01       		.byte	0x1
 2045 090e 0A020000 		.4byte	.LASF97
 2046 0912 01       		.byte	0x1
 2047 0913 D9       		.byte	0xd9
 2048 0914 01       		.byte	0x1
 2049 0915 5F020000 		.4byte	0x25f
 2050 0919 00000000 		.4byte	.LFB125
 2051 091d 1C000000 		.4byte	.LFE125
 2052 0921 5E010000 		.4byte	.LLST12
 2053 0925 66090000 		.4byte	0x966
 2054 0929 24       		.uleb128 0x24
 2055 092a 73637000 		.ascii	"scp\000"
 2056 092e 01       		.byte	0x1
 2057 092f D9       		.byte	0xd9
 2058 0930 01090000 		.4byte	0x901
 2059 0934 8A010000 		.4byte	.LLST13
 2060 0938 24       		.uleb128 0x24
 2061 0939 77737000 		.ascii	"wsp\000"
 2062 093d 01       		.byte	0x1
 2063 093e D9       		.byte	0xd9
 2064 093f 68000000 		.4byte	0x68
 2065 0943 A9010000 		.4byte	.LLST14
 2066 0947 25       		.uleb128 0x25
 2067 0948 90010000 		.4byte	.LASF94
 2068 094c 01       		.byte	0x1
 2069 094d DA       		.byte	0xda
 2070 094e 89000000 		.4byte	0x89
 2071 0952 C7010000 		.4byte	.LLST15
 2072 0956 25       		.uleb128 0x25
 2073 0957 38020000 		.4byte	.LASF95
 2074 095b 01       		.byte	0x1
 2075 095c DA       		.byte	0xda
 2076 095d E1000000 		.4byte	0xe1
 2077 0961 E5010000 		.4byte	.LLST16
 2078 0965 00       		.byte	0
 2079 0966 23       		.uleb128 0x23
 2080 0967 01       		.byte	0x1
 2081 0968 34010000 		.4byte	.LASF98
 2082 096c 01       		.byte	0x1
ARM GAS  /tmp/cc5btYHW.s 			page 38


 2083 096d E9       		.byte	0xe9
 2084 096e 01       		.byte	0x1
 2085 096f B5000000 		.4byte	0xb5
 2086 0973 00000000 		.4byte	.LFB126
 2087 0977 5E000000 		.4byte	.LFE126
 2088 097b 03020000 		.4byte	.LLST17
 2089 097f D1090000 		.4byte	0x9d1
 2090 0983 24       		.uleb128 0x24
 2091 0984 63687000 		.ascii	"chp\000"
 2092 0988 01       		.byte	0x1
 2093 0989 E9       		.byte	0xe9
 2094 098a 7B060000 		.4byte	0x67b
 2095 098e 23020000 		.4byte	.LLST18
 2096 0992 25       		.uleb128 0x25
 2097 0993 1E010000 		.4byte	.LASF99
 2098 0997 01       		.byte	0x1
 2099 0998 E9       		.byte	0xe9
 2100 0999 71000000 		.4byte	0x71
 2101 099d 41020000 		.4byte	.LLST19
 2102 09a1 25       		.uleb128 0x25
 2103 09a2 90010000 		.4byte	.LASF94
 2104 09a6 01       		.byte	0x1
 2105 09a7 E9       		.byte	0xe9
 2106 09a8 4C000000 		.4byte	0x4c
 2107 09ac 5F020000 		.4byte	.LLST20
 2108 09b0 26       		.uleb128 0x26
 2109 09b1 7000     		.ascii	"p\000"
 2110 09b3 01       		.byte	0x1
 2111 09b4 EA       		.byte	0xea
 2112 09b5 71000000 		.4byte	0x71
 2113 09b9 7F020000 		.4byte	.LLST21
 2114 09bd 1E       		.uleb128 0x1e
 2115 09be 48000000 		.4byte	.Ldebug_ranges0+0x48
 2116 09c2 26       		.uleb128 0x26
 2117 09c3 6300     		.ascii	"c\000"
 2118 09c5 01       		.byte	0x1
 2119 09c6 ED       		.byte	0xed
 2120 09c7 37000000 		.4byte	0x37
 2121 09cb 9D020000 		.4byte	.LLST22
 2122 09cf 00       		.byte	0
 2123 09d0 00       		.byte	0
 2124 09d1 27       		.uleb128 0x27
 2125 09d2 BC030000 		.4byte	.LASF111
 2126 09d6 01       		.byte	0x1
 2127 09d7 79       		.byte	0x79
 2128 09d8 01       		.byte	0x1
 2129 09d9 EC000000 		.4byte	0xec
 2130 09dd 00000000 		.4byte	.LFB122
 2131 09e1 76020000 		.4byte	.LFE122
 2132 09e5 BB020000 		.4byte	.LLST23
 2133 09e9 870B0000 		.4byte	0xb87
 2134 09ed 24       		.uleb128 0x24
 2135 09ee 7000     		.ascii	"p\000"
 2136 09f0 01       		.byte	0x1
 2137 09f1 79       		.byte	0x79
 2138 09f2 68000000 		.4byte	0x68
 2139 09f6 E8020000 		.4byte	.LLST24
ARM GAS  /tmp/cc5btYHW.s 			page 39


 2140 09fa 26       		.uleb128 0x26
 2141 09fb 6E00     		.ascii	"n\000"
 2142 09fd 01       		.byte	0x1
 2143 09fe 7A       		.byte	0x7a
 2144 09ff 45000000 		.4byte	0x45
 2145 0a03 FB020000 		.4byte	.LLST25
 2146 0a07 28       		.uleb128 0x28
 2147 0a08 6D736700 		.ascii	"msg\000"
 2148 0a0c 01       		.byte	0x1
 2149 0a0d 7B       		.byte	0x7b
 2150 0a0e EC000000 		.4byte	0xec
 2151 0a12 00       		.byte	0
 2152 0a13 29       		.uleb128 0x29
 2153 0a14 63687000 		.ascii	"chp\000"
 2154 0a18 01       		.byte	0x1
 2155 0a19 7C       		.byte	0x7c
 2156 0a1a 7B060000 		.4byte	0x67b
 2157 0a1e 01       		.byte	0x1
 2158 0a1f 54       		.byte	0x54
 2159 0a20 26       		.uleb128 0x26
 2160 0a21 73637000 		.ascii	"scp\000"
 2161 0a25 01       		.byte	0x1
 2162 0a26 7D       		.byte	0x7d
 2163 0a27 DC060000 		.4byte	0x6dc
 2164 0a2b 7B030000 		.4byte	.LLST26
 2165 0a2f 26       		.uleb128 0x26
 2166 0a30 6C7000   		.ascii	"lp\000"
 2167 0a33 01       		.byte	0x1
 2168 0a34 7E       		.byte	0x7e
 2169 0a35 71000000 		.4byte	0x71
 2170 0a39 9A030000 		.4byte	.LLST27
 2171 0a3d 26       		.uleb128 0x26
 2172 0a3e 636D6400 		.ascii	"cmd\000"
 2173 0a42 01       		.byte	0x1
 2174 0a43 7E       		.byte	0x7e
 2175 0a44 71000000 		.4byte	0x71
 2176 0a48 31040000 		.4byte	.LLST28
 2177 0a4c 2A       		.uleb128 0x2a
 2178 0a4d 03010000 		.4byte	.LASF100
 2179 0a51 01       		.byte	0x1
 2180 0a52 7E       		.byte	0x7e
 2181 0a53 71000000 		.4byte	0x71
 2182 0a57 02       		.byte	0x2
 2183 0a58 91       		.byte	0x91
 2184 0a59 54       		.sleb128 -44
 2185 0a5a 2A       		.uleb128 0x2a
 2186 0a5b 1E010000 		.4byte	.LASF99
 2187 0a5f 01       		.byte	0x1
 2188 0a60 7E       		.byte	0x7e
 2189 0a61 870B0000 		.4byte	0xb87
 2190 0a65 03       		.byte	0x3
 2191 0a66 91       		.byte	0x91
 2192 0a67 807F     		.sleb128 -128
 2193 0a69 2A       		.uleb128 0x2a
 2194 0a6a 25040000 		.4byte	.LASF101
 2195 0a6e 01       		.byte	0x1
 2196 0a6f 7F       		.byte	0x7f
ARM GAS  /tmp/cc5btYHW.s 			page 40


 2197 0a70 970B0000 		.4byte	0xb97
 2198 0a74 02       		.byte	0x2
 2199 0a75 91       		.byte	0x91
 2200 0a76 40       		.sleb128 -64
 2201 0a77 1B       		.uleb128 0x1b
 2202 0a78 43070000 		.4byte	0x743
 2203 0a7c 0C000000 		.4byte	.LBB36
 2204 0a80 68000000 		.4byte	.Ldebug_ranges0+0x68
 2205 0a84 01       		.byte	0x1
 2206 0a85 A3       		.byte	0xa3
 2207 0a86 9D0A0000 		.4byte	0xa9d
 2208 0a8a 1A       		.uleb128 0x1a
 2209 0a8b 5B070000 		.4byte	0x75b
 2210 0a8f 71040000 		.4byte	.LLST29
 2211 0a93 1A       		.uleb128 0x1a
 2212 0a94 50070000 		.4byte	0x750
 2213 0a98 89040000 		.4byte	.LLST30
 2214 0a9c 00       		.byte	0
 2215 0a9d 1B       		.uleb128 0x1b
 2216 0a9e 67070000 		.4byte	0x767
 2217 0aa2 2A000000 		.4byte	.LBB41
 2218 0aa6 88000000 		.4byte	.Ldebug_ranges0+0x88
 2219 0aaa 01       		.byte	0x1
 2220 0aab A8       		.byte	0xa8
 2221 0aac CE0A0000 		.4byte	0xace
 2222 0ab0 1C       		.uleb128 0x1c
 2223 0ab1 A4070000 		.4byte	0x7a4
 2224 0ab5 1C       		.uleb128 0x1c
 2225 0ab6 99070000 		.4byte	0x799
 2226 0aba 1C       		.uleb128 0x1c
 2227 0abb 8E070000 		.4byte	0x78e
 2228 0abf 1C       		.uleb128 0x1c
 2229 0ac0 83070000 		.4byte	0x783
 2230 0ac4 1A       		.uleb128 0x1a
 2231 0ac5 78070000 		.4byte	0x778
 2232 0ac9 9C040000 		.4byte	.LLST31
 2233 0acd 00       		.byte	0
 2234 0ace 2B       		.uleb128 0x2b
 2235 0acf C4000000 		.4byte	.LBB44
 2236 0ad3 CA000000 		.4byte	.LBE44
 2237 0ad7 EB0A0000 		.4byte	0xaeb
 2238 0adb 26       		.uleb128 0x26
 2239 0adc 746D7000 		.ascii	"tmp\000"
 2240 0ae0 01       		.byte	0x1
 2241 0ae1 B1       		.byte	0xb1
 2242 0ae2 AA000000 		.4byte	0xaa
 2243 0ae6 CC040000 		.4byte	.LLST32
 2244 0aea 00       		.byte	0
 2245 0aeb 2C       		.uleb128 0x2c
 2246 0aec F2060000 		.4byte	0x6f2
 2247 0af0 12010000 		.4byte	.LBB45
 2248 0af4 28010000 		.4byte	.LBE45
 2249 0af8 01       		.byte	0x1
 2250 0af9 98       		.byte	0x98
 2251 0afa 110B0000 		.4byte	0xb11
 2252 0afe 1A       		.uleb128 0x1a
 2253 0aff 0A070000 		.4byte	0x70a
ARM GAS  /tmp/cc5btYHW.s 			page 41


 2254 0b03 DF040000 		.4byte	.LLST33
 2255 0b07 1A       		.uleb128 0x1a
 2256 0b08 FF060000 		.4byte	0x6ff
 2257 0b0c F7040000 		.4byte	.LLST34
 2258 0b10 00       		.byte	0
 2259 0b11 1B       		.uleb128 0x1b
 2260 0b12 67070000 		.4byte	0x767
 2261 0b16 62010000 		.4byte	.LBB48
 2262 0b1a A0000000 		.4byte	.Ldebug_ranges0+0xa0
 2263 0b1e 01       		.byte	0x1
 2264 0b1f A9       		.byte	0xa9
 2265 0b20 420B0000 		.4byte	0xb42
 2266 0b24 1C       		.uleb128 0x1c
 2267 0b25 A4070000 		.4byte	0x7a4
 2268 0b29 1C       		.uleb128 0x1c
 2269 0b2a 99070000 		.4byte	0x799
 2270 0b2e 1C       		.uleb128 0x1c
 2271 0b2f 8E070000 		.4byte	0x78e
 2272 0b33 1C       		.uleb128 0x1c
 2273 0b34 83070000 		.4byte	0x783
 2274 0b38 1A       		.uleb128 0x1a
 2275 0b39 78070000 		.4byte	0x778
 2276 0b3d 0A050000 		.4byte	.LLST35
 2277 0b41 00       		.byte	0
 2278 0b42 2C       		.uleb128 0x2c
 2279 0b43 F2060000 		.4byte	0x6f2
 2280 0b47 8E010000 		.4byte	.LBB51
 2281 0b4b A4010000 		.4byte	.LBE51
 2282 0b4f 01       		.byte	0x1
 2283 0b50 9F       		.byte	0x9f
 2284 0b51 680B0000 		.4byte	0xb68
 2285 0b55 1A       		.uleb128 0x1a
 2286 0b56 0A070000 		.4byte	0x70a
 2287 0b5a 35050000 		.4byte	.LLST36
 2288 0b5e 1A       		.uleb128 0x1a
 2289 0b5f FF060000 		.4byte	0x6ff
 2290 0b63 4D050000 		.4byte	.LLST37
 2291 0b67 00       		.byte	0
 2292 0b68 2D       		.uleb128 0x2d
 2293 0b69 43070000 		.4byte	0x743
 2294 0b6d 1A020000 		.4byte	.LBB55
 2295 0b71 46020000 		.4byte	.LBE55
 2296 0b75 01       		.byte	0x1
 2297 0b76 A5       		.byte	0xa5
 2298 0b77 1A       		.uleb128 0x1a
 2299 0b78 5B070000 		.4byte	0x75b
 2300 0b7c 60050000 		.4byte	.LLST38
 2301 0b80 1C       		.uleb128 0x1c
 2302 0b81 50070000 		.4byte	0x750
 2303 0b85 00       		.byte	0
 2304 0b86 00       		.byte	0
 2305 0b87 2E       		.uleb128 0x2e
 2306 0b88 77000000 		.4byte	0x77
 2307 0b8c 970B0000 		.4byte	0xb97
 2308 0b90 2F       		.uleb128 0x2f
 2309 0b91 4C000000 		.4byte	0x4c
 2310 0b95 3F       		.byte	0x3f
ARM GAS  /tmp/cc5btYHW.s 			page 42


 2311 0b96 00       		.byte	0
 2312 0b97 2E       		.uleb128 0x2e
 2313 0b98 71000000 		.4byte	0x71
 2314 0b9c A70B0000 		.4byte	0xba7
 2315 0ba0 2F       		.uleb128 0x2f
 2316 0ba1 4C000000 		.4byte	0x4c
 2317 0ba5 04       		.byte	0x4
 2318 0ba6 00       		.byte	0
 2319 0ba7 2E       		.uleb128 0x2e
 2320 0ba8 AC060000 		.4byte	0x6ac
 2321 0bac B70B0000 		.4byte	0xbb7
 2322 0bb0 2F       		.uleb128 0x2f
 2323 0bb1 4C000000 		.4byte	0x4c
 2324 0bb5 01       		.byte	0x1
 2325 0bb6 00       		.byte	0
 2326 0bb7 2A       		.uleb128 0x2a
 2327 0bb8 29020000 		.4byte	.LASF102
 2328 0bbc 01       		.byte	0x1
 2329 0bbd 5F       		.byte	0x5f
 2330 0bbe A70B0000 		.4byte	0xba7
 2331 0bc2 05       		.byte	0x5
 2332 0bc3 03       		.byte	0x3
 2333 0bc4 00000000 		.4byte	local_commands
 2334 0bc8 30       		.uleb128 0x30
 2335 0bc9 C9030000 		.4byte	.LASF103
 2336 0bcd 08       		.byte	0x8
 2337 0bce 72       		.byte	0x72
 2338 0bcf BD030000 		.4byte	0x3bd
 2339 0bd3 01       		.byte	0x1
 2340 0bd4 01       		.byte	0x1
 2341 0bd5 31       		.uleb128 0x31
 2342 0bd6 77000000 		.4byte	.LASF104
 2343 0bda 0D       		.byte	0xd
 2344 0bdb 1A05     		.2byte	0x51a
 2345 0bdd 4F060000 		.4byte	0x64f
 2346 0be1 01       		.byte	0x1
 2347 0be2 01       		.byte	0x1
 2348 0be3 32       		.uleb128 0x32
 2349 0be4 3E030000 		.4byte	.LASF105
 2350 0be8 01       		.byte	0x1
 2351 0be9 32       		.byte	0x32
 2352 0bea 73040000 		.4byte	0x473
 2353 0bee 01       		.byte	0x1
 2354 0bef 05       		.byte	0x5
 2355 0bf0 03       		.byte	0x3
 2356 0bf1 00000000 		.4byte	shell_terminated
 2357 0bf5 00       		.byte	0
 2358              		.section	.debug_abbrev,"",%progbits
 2359              	.Ldebug_abbrev0:
 2360 0000 01       		.uleb128 0x1
 2361 0001 11       		.uleb128 0x11
 2362 0002 01       		.byte	0x1
 2363 0003 25       		.uleb128 0x25
 2364 0004 0E       		.uleb128 0xe
 2365 0005 13       		.uleb128 0x13
 2366 0006 0B       		.uleb128 0xb
 2367 0007 03       		.uleb128 0x3
ARM GAS  /tmp/cc5btYHW.s 			page 43


 2368 0008 0E       		.uleb128 0xe
 2369 0009 1B       		.uleb128 0x1b
 2370 000a 0E       		.uleb128 0xe
 2371 000b 11       		.uleb128 0x11
 2372 000c 01       		.uleb128 0x1
 2373 000d 52       		.uleb128 0x52
 2374 000e 01       		.uleb128 0x1
 2375 000f 55       		.uleb128 0x55
 2376 0010 06       		.uleb128 0x6
 2377 0011 10       		.uleb128 0x10
 2378 0012 06       		.uleb128 0x6
 2379 0013 00       		.byte	0
 2380 0014 00       		.byte	0
 2381 0015 02       		.uleb128 0x2
 2382 0016 24       		.uleb128 0x24
 2383 0017 00       		.byte	0
 2384 0018 0B       		.uleb128 0xb
 2385 0019 0B       		.uleb128 0xb
 2386 001a 3E       		.uleb128 0x3e
 2387 001b 0B       		.uleb128 0xb
 2388 001c 03       		.uleb128 0x3
 2389 001d 0E       		.uleb128 0xe
 2390 001e 00       		.byte	0
 2391 001f 00       		.byte	0
 2392 0020 03       		.uleb128 0x3
 2393 0021 24       		.uleb128 0x24
 2394 0022 00       		.byte	0
 2395 0023 0B       		.uleb128 0xb
 2396 0024 0B       		.uleb128 0xb
 2397 0025 3E       		.uleb128 0x3e
 2398 0026 0B       		.uleb128 0xb
 2399 0027 03       		.uleb128 0x3
 2400 0028 08       		.uleb128 0x8
 2401 0029 00       		.byte	0
 2402 002a 00       		.byte	0
 2403 002b 04       		.uleb128 0x4
 2404 002c 0F       		.uleb128 0xf
 2405 002d 00       		.byte	0
 2406 002e 0B       		.uleb128 0xb
 2407 002f 0B       		.uleb128 0xb
 2408 0030 00       		.byte	0
 2409 0031 00       		.byte	0
 2410 0032 05       		.uleb128 0x5
 2411 0033 0F       		.uleb128 0xf
 2412 0034 00       		.byte	0
 2413 0035 0B       		.uleb128 0xb
 2414 0036 0B       		.uleb128 0xb
 2415 0037 49       		.uleb128 0x49
 2416 0038 13       		.uleb128 0x13
 2417 0039 00       		.byte	0
 2418 003a 00       		.byte	0
 2419 003b 06       		.uleb128 0x6
 2420 003c 26       		.uleb128 0x26
 2421 003d 00       		.byte	0
 2422 003e 49       		.uleb128 0x49
 2423 003f 13       		.uleb128 0x13
 2424 0040 00       		.byte	0
ARM GAS  /tmp/cc5btYHW.s 			page 44


 2425 0041 00       		.byte	0
 2426 0042 07       		.uleb128 0x7
 2427 0043 16       		.uleb128 0x16
 2428 0044 00       		.byte	0
 2429 0045 03       		.uleb128 0x3
 2430 0046 0E       		.uleb128 0xe
 2431 0047 3A       		.uleb128 0x3a
 2432 0048 0B       		.uleb128 0xb
 2433 0049 3B       		.uleb128 0x3b
 2434 004a 0B       		.uleb128 0xb
 2435 004b 49       		.uleb128 0x49
 2436 004c 13       		.uleb128 0x13
 2437 004d 00       		.byte	0
 2438 004e 00       		.byte	0
 2439 004f 08       		.uleb128 0x8
 2440 0050 13       		.uleb128 0x13
 2441 0051 01       		.byte	0x1
 2442 0052 03       		.uleb128 0x3
 2443 0053 0E       		.uleb128 0xe
 2444 0054 0B       		.uleb128 0xb
 2445 0055 0B       		.uleb128 0xb
 2446 0056 3A       		.uleb128 0x3a
 2447 0057 0B       		.uleb128 0xb
 2448 0058 3B       		.uleb128 0x3b
 2449 0059 0B       		.uleb128 0xb
 2450 005a 01       		.uleb128 0x1
 2451 005b 13       		.uleb128 0x13
 2452 005c 00       		.byte	0
 2453 005d 00       		.byte	0
 2454 005e 09       		.uleb128 0x9
 2455 005f 0D       		.uleb128 0xd
 2456 0060 00       		.byte	0
 2457 0061 03       		.uleb128 0x3
 2458 0062 0E       		.uleb128 0xe
 2459 0063 3A       		.uleb128 0x3a
 2460 0064 0B       		.uleb128 0xb
 2461 0065 3B       		.uleb128 0x3b
 2462 0066 0B       		.uleb128 0xb
 2463 0067 49       		.uleb128 0x49
 2464 0068 13       		.uleb128 0x13
 2465 0069 38       		.uleb128 0x38
 2466 006a 0A       		.uleb128 0xa
 2467 006b 00       		.byte	0
 2468 006c 00       		.byte	0
 2469 006d 0A       		.uleb128 0xa
 2470 006e 0D       		.uleb128 0xd
 2471 006f 00       		.byte	0
 2472 0070 03       		.uleb128 0x3
 2473 0071 08       		.uleb128 0x8
 2474 0072 3A       		.uleb128 0x3a
 2475 0073 0B       		.uleb128 0xb
 2476 0074 3B       		.uleb128 0x3b
 2477 0075 0B       		.uleb128 0xb
 2478 0076 49       		.uleb128 0x49
 2479 0077 13       		.uleb128 0x13
 2480 0078 38       		.uleb128 0x38
 2481 0079 0A       		.uleb128 0xa
ARM GAS  /tmp/cc5btYHW.s 			page 45


 2482 007a 00       		.byte	0
 2483 007b 00       		.byte	0
 2484 007c 0B       		.uleb128 0xb
 2485 007d 13       		.uleb128 0x13
 2486 007e 01       		.byte	0x1
 2487 007f 0B       		.uleb128 0xb
 2488 0080 0B       		.uleb128 0xb
 2489 0081 3A       		.uleb128 0x3a
 2490 0082 0B       		.uleb128 0xb
 2491 0083 3B       		.uleb128 0x3b
 2492 0084 0B       		.uleb128 0xb
 2493 0085 01       		.uleb128 0x1
 2494 0086 13       		.uleb128 0x13
 2495 0087 00       		.byte	0
 2496 0088 00       		.byte	0
 2497 0089 0C       		.uleb128 0xc
 2498 008a 0D       		.uleb128 0xd
 2499 008b 00       		.byte	0
 2500 008c 03       		.uleb128 0x3
 2501 008d 08       		.uleb128 0x8
 2502 008e 3A       		.uleb128 0x3a
 2503 008f 0B       		.uleb128 0xb
 2504 0090 3B       		.uleb128 0x3b
 2505 0091 05       		.uleb128 0x5
 2506 0092 49       		.uleb128 0x49
 2507 0093 13       		.uleb128 0x13
 2508 0094 38       		.uleb128 0x38
 2509 0095 0A       		.uleb128 0xa
 2510 0096 00       		.byte	0
 2511 0097 00       		.byte	0
 2512 0098 0D       		.uleb128 0xd
 2513 0099 13       		.uleb128 0x13
 2514 009a 01       		.byte	0x1
 2515 009b 03       		.uleb128 0x3
 2516 009c 0E       		.uleb128 0xe
 2517 009d 0B       		.uleb128 0xb
 2518 009e 0B       		.uleb128 0xb
 2519 009f 3A       		.uleb128 0x3a
 2520 00a0 0B       		.uleb128 0xb
 2521 00a1 3B       		.uleb128 0x3b
 2522 00a2 05       		.uleb128 0x5
 2523 00a3 01       		.uleb128 0x1
 2524 00a4 13       		.uleb128 0x13
 2525 00a5 00       		.byte	0
 2526 00a6 00       		.byte	0
 2527 00a7 0E       		.uleb128 0xe
 2528 00a8 35       		.uleb128 0x35
 2529 00a9 00       		.byte	0
 2530 00aa 49       		.uleb128 0x49
 2531 00ab 13       		.uleb128 0x13
 2532 00ac 00       		.byte	0
 2533 00ad 00       		.byte	0
 2534 00ae 0F       		.uleb128 0xf
 2535 00af 17       		.uleb128 0x17
 2536 00b0 01       		.byte	0x1
 2537 00b1 0B       		.uleb128 0xb
 2538 00b2 0B       		.uleb128 0xb
ARM GAS  /tmp/cc5btYHW.s 			page 46


 2539 00b3 3A       		.uleb128 0x3a
 2540 00b4 0B       		.uleb128 0xb
 2541 00b5 3B       		.uleb128 0x3b
 2542 00b6 0B       		.uleb128 0xb
 2543 00b7 01       		.uleb128 0x1
 2544 00b8 13       		.uleb128 0x13
 2545 00b9 00       		.byte	0
 2546 00ba 00       		.byte	0
 2547 00bb 10       		.uleb128 0x10
 2548 00bc 0D       		.uleb128 0xd
 2549 00bd 00       		.byte	0
 2550 00be 03       		.uleb128 0x3
 2551 00bf 0E       		.uleb128 0xe
 2552 00c0 3A       		.uleb128 0x3a
 2553 00c1 0B       		.uleb128 0xb
 2554 00c2 3B       		.uleb128 0x3b
 2555 00c3 0B       		.uleb128 0xb
 2556 00c4 49       		.uleb128 0x49
 2557 00c5 13       		.uleb128 0x13
 2558 00c6 00       		.byte	0
 2559 00c7 00       		.byte	0
 2560 00c8 11       		.uleb128 0x11
 2561 00c9 15       		.uleb128 0x15
 2562 00ca 01       		.byte	0x1
 2563 00cb 27       		.uleb128 0x27
 2564 00cc 0C       		.uleb128 0xc
 2565 00cd 49       		.uleb128 0x49
 2566 00ce 13       		.uleb128 0x13
 2567 00cf 01       		.uleb128 0x1
 2568 00d0 13       		.uleb128 0x13
 2569 00d1 00       		.byte	0
 2570 00d2 00       		.byte	0
 2571 00d3 12       		.uleb128 0x12
 2572 00d4 05       		.uleb128 0x5
 2573 00d5 00       		.byte	0
 2574 00d6 49       		.uleb128 0x49
 2575 00d7 13       		.uleb128 0x13
 2576 00d8 00       		.byte	0
 2577 00d9 00       		.byte	0
 2578 00da 13       		.uleb128 0x13
 2579 00db 15       		.uleb128 0x15
 2580 00dc 01       		.byte	0x1
 2581 00dd 27       		.uleb128 0x27
 2582 00de 0C       		.uleb128 0xc
 2583 00df 01       		.uleb128 0x1
 2584 00e0 13       		.uleb128 0x13
 2585 00e1 00       		.byte	0
 2586 00e2 00       		.byte	0
 2587 00e3 14       		.uleb128 0x14
 2588 00e4 2E       		.uleb128 0x2e
 2589 00e5 01       		.byte	0x1
 2590 00e6 03       		.uleb128 0x3
 2591 00e7 0E       		.uleb128 0xe
 2592 00e8 3A       		.uleb128 0x3a
 2593 00e9 0B       		.uleb128 0xb
 2594 00ea 3B       		.uleb128 0x3b
 2595 00eb 0B       		.uleb128 0xb
ARM GAS  /tmp/cc5btYHW.s 			page 47


 2596 00ec 27       		.uleb128 0x27
 2597 00ed 0C       		.uleb128 0xc
 2598 00ee 20       		.uleb128 0x20
 2599 00ef 0B       		.uleb128 0xb
 2600 00f0 01       		.uleb128 0x1
 2601 00f1 13       		.uleb128 0x13
 2602 00f2 00       		.byte	0
 2603 00f3 00       		.byte	0
 2604 00f4 15       		.uleb128 0x15
 2605 00f5 05       		.uleb128 0x5
 2606 00f6 00       		.byte	0
 2607 00f7 03       		.uleb128 0x3
 2608 00f8 08       		.uleb128 0x8
 2609 00f9 3A       		.uleb128 0x3a
 2610 00fa 0B       		.uleb128 0xb
 2611 00fb 3B       		.uleb128 0x3b
 2612 00fc 0B       		.uleb128 0xb
 2613 00fd 49       		.uleb128 0x49
 2614 00fe 13       		.uleb128 0x13
 2615 00ff 00       		.byte	0
 2616 0100 00       		.byte	0
 2617 0101 16       		.uleb128 0x16
 2618 0102 05       		.uleb128 0x5
 2619 0103 00       		.byte	0
 2620 0104 03       		.uleb128 0x3
 2621 0105 0E       		.uleb128 0xe
 2622 0106 3A       		.uleb128 0x3a
 2623 0107 0B       		.uleb128 0xb
 2624 0108 3B       		.uleb128 0x3b
 2625 0109 0B       		.uleb128 0xb
 2626 010a 49       		.uleb128 0x49
 2627 010b 13       		.uleb128 0x13
 2628 010c 00       		.byte	0
 2629 010d 00       		.byte	0
 2630 010e 17       		.uleb128 0x17
 2631 010f 2E       		.uleb128 0x2e
 2632 0110 01       		.byte	0x1
 2633 0111 03       		.uleb128 0x3
 2634 0112 0E       		.uleb128 0xe
 2635 0113 3A       		.uleb128 0x3a
 2636 0114 0B       		.uleb128 0xb
 2637 0115 3B       		.uleb128 0x3b
 2638 0116 0B       		.uleb128 0xb
 2639 0117 27       		.uleb128 0x27
 2640 0118 0C       		.uleb128 0xc
 2641 0119 49       		.uleb128 0x49
 2642 011a 13       		.uleb128 0x13
 2643 011b 20       		.uleb128 0x20
 2644 011c 0B       		.uleb128 0xb
 2645 011d 01       		.uleb128 0x1
 2646 011e 13       		.uleb128 0x13
 2647 011f 00       		.byte	0
 2648 0120 00       		.byte	0
 2649 0121 18       		.uleb128 0x18
 2650 0122 34       		.uleb128 0x34
 2651 0123 00       		.byte	0
 2652 0124 03       		.uleb128 0x3
ARM GAS  /tmp/cc5btYHW.s 			page 48


 2653 0125 0E       		.uleb128 0xe
 2654 0126 3A       		.uleb128 0x3a
 2655 0127 0B       		.uleb128 0xb
 2656 0128 3B       		.uleb128 0x3b
 2657 0129 0B       		.uleb128 0xb
 2658 012a 49       		.uleb128 0x49
 2659 012b 13       		.uleb128 0x13
 2660 012c 00       		.byte	0
 2661 012d 00       		.byte	0
 2662 012e 19       		.uleb128 0x19
 2663 012f 2E       		.uleb128 0x2e
 2664 0130 01       		.byte	0x1
 2665 0131 31       		.uleb128 0x31
 2666 0132 13       		.uleb128 0x13
 2667 0133 11       		.uleb128 0x11
 2668 0134 01       		.uleb128 0x1
 2669 0135 12       		.uleb128 0x12
 2670 0136 01       		.uleb128 0x1
 2671 0137 40       		.uleb128 0x40
 2672 0138 0A       		.uleb128 0xa
 2673 0139 01       		.uleb128 0x1
 2674 013a 13       		.uleb128 0x13
 2675 013b 00       		.byte	0
 2676 013c 00       		.byte	0
 2677 013d 1A       		.uleb128 0x1a
 2678 013e 05       		.uleb128 0x5
 2679 013f 00       		.byte	0
 2680 0140 31       		.uleb128 0x31
 2681 0141 13       		.uleb128 0x13
 2682 0142 02       		.uleb128 0x2
 2683 0143 06       		.uleb128 0x6
 2684 0144 00       		.byte	0
 2685 0145 00       		.byte	0
 2686 0146 1B       		.uleb128 0x1b
 2687 0147 1D       		.uleb128 0x1d
 2688 0148 01       		.byte	0x1
 2689 0149 31       		.uleb128 0x31
 2690 014a 13       		.uleb128 0x13
 2691 014b 52       		.uleb128 0x52
 2692 014c 01       		.uleb128 0x1
 2693 014d 55       		.uleb128 0x55
 2694 014e 06       		.uleb128 0x6
 2695 014f 58       		.uleb128 0x58
 2696 0150 0B       		.uleb128 0xb
 2697 0151 59       		.uleb128 0x59
 2698 0152 0B       		.uleb128 0xb
 2699 0153 01       		.uleb128 0x1
 2700 0154 13       		.uleb128 0x13
 2701 0155 00       		.byte	0
 2702 0156 00       		.byte	0
 2703 0157 1C       		.uleb128 0x1c
 2704 0158 05       		.uleb128 0x5
 2705 0159 00       		.byte	0
 2706 015a 31       		.uleb128 0x31
 2707 015b 13       		.uleb128 0x13
 2708 015c 00       		.byte	0
 2709 015d 00       		.byte	0
ARM GAS  /tmp/cc5btYHW.s 			page 49


 2710 015e 1D       		.uleb128 0x1d
 2711 015f 1D       		.uleb128 0x1d
 2712 0160 01       		.byte	0x1
 2713 0161 31       		.uleb128 0x31
 2714 0162 13       		.uleb128 0x13
 2715 0163 52       		.uleb128 0x52
 2716 0164 01       		.uleb128 0x1
 2717 0165 55       		.uleb128 0x55
 2718 0166 06       		.uleb128 0x6
 2719 0167 58       		.uleb128 0x58
 2720 0168 0B       		.uleb128 0xb
 2721 0169 59       		.uleb128 0x59
 2722 016a 0B       		.uleb128 0xb
 2723 016b 00       		.byte	0
 2724 016c 00       		.byte	0
 2725 016d 1E       		.uleb128 0x1e
 2726 016e 0B       		.uleb128 0xb
 2727 016f 01       		.byte	0x1
 2728 0170 55       		.uleb128 0x55
 2729 0171 06       		.uleb128 0x6
 2730 0172 00       		.byte	0
 2731 0173 00       		.byte	0
 2732 0174 1F       		.uleb128 0x1f
 2733 0175 2E       		.uleb128 0x2e
 2734 0176 01       		.byte	0x1
 2735 0177 31       		.uleb128 0x31
 2736 0178 13       		.uleb128 0x13
 2737 0179 11       		.uleb128 0x11
 2738 017a 01       		.uleb128 0x1
 2739 017b 12       		.uleb128 0x12
 2740 017c 01       		.uleb128 0x1
 2741 017d 40       		.uleb128 0x40
 2742 017e 06       		.uleb128 0x6
 2743 017f 01       		.uleb128 0x1
 2744 0180 13       		.uleb128 0x13
 2745 0181 00       		.byte	0
 2746 0182 00       		.byte	0
 2747 0183 20       		.uleb128 0x20
 2748 0184 34       		.uleb128 0x34
 2749 0185 00       		.byte	0
 2750 0186 31       		.uleb128 0x31
 2751 0187 13       		.uleb128 0x13
 2752 0188 02       		.uleb128 0x2
 2753 0189 06       		.uleb128 0x6
 2754 018a 00       		.byte	0
 2755 018b 00       		.byte	0
 2756 018c 21       		.uleb128 0x21
 2757 018d 05       		.uleb128 0x5
 2758 018e 00       		.byte	0
 2759 018f 31       		.uleb128 0x31
 2760 0190 13       		.uleb128 0x13
 2761 0191 02       		.uleb128 0x2
 2762 0192 0A       		.uleb128 0xa
 2763 0193 00       		.byte	0
 2764 0194 00       		.byte	0
 2765 0195 22       		.uleb128 0x22
 2766 0196 2E       		.uleb128 0x2e
ARM GAS  /tmp/cc5btYHW.s 			page 50


 2767 0197 00       		.byte	0
 2768 0198 3F       		.uleb128 0x3f
 2769 0199 0C       		.uleb128 0xc
 2770 019a 03       		.uleb128 0x3
 2771 019b 0E       		.uleb128 0xe
 2772 019c 3A       		.uleb128 0x3a
 2773 019d 0B       		.uleb128 0xb
 2774 019e 3B       		.uleb128 0x3b
 2775 019f 0B       		.uleb128 0xb
 2776 01a0 27       		.uleb128 0x27
 2777 01a1 0C       		.uleb128 0xc
 2778 01a2 11       		.uleb128 0x11
 2779 01a3 01       		.uleb128 0x1
 2780 01a4 12       		.uleb128 0x12
 2781 01a5 01       		.uleb128 0x1
 2782 01a6 40       		.uleb128 0x40
 2783 01a7 0A       		.uleb128 0xa
 2784 01a8 00       		.byte	0
 2785 01a9 00       		.byte	0
 2786 01aa 23       		.uleb128 0x23
 2787 01ab 2E       		.uleb128 0x2e
 2788 01ac 01       		.byte	0x1
 2789 01ad 3F       		.uleb128 0x3f
 2790 01ae 0C       		.uleb128 0xc
 2791 01af 03       		.uleb128 0x3
 2792 01b0 0E       		.uleb128 0xe
 2793 01b1 3A       		.uleb128 0x3a
 2794 01b2 0B       		.uleb128 0xb
 2795 01b3 3B       		.uleb128 0x3b
 2796 01b4 0B       		.uleb128 0xb
 2797 01b5 27       		.uleb128 0x27
 2798 01b6 0C       		.uleb128 0xc
 2799 01b7 49       		.uleb128 0x49
 2800 01b8 13       		.uleb128 0x13
 2801 01b9 11       		.uleb128 0x11
 2802 01ba 01       		.uleb128 0x1
 2803 01bb 12       		.uleb128 0x12
 2804 01bc 01       		.uleb128 0x1
 2805 01bd 40       		.uleb128 0x40
 2806 01be 06       		.uleb128 0x6
 2807 01bf 01       		.uleb128 0x1
 2808 01c0 13       		.uleb128 0x13
 2809 01c1 00       		.byte	0
 2810 01c2 00       		.byte	0
 2811 01c3 24       		.uleb128 0x24
 2812 01c4 05       		.uleb128 0x5
 2813 01c5 00       		.byte	0
 2814 01c6 03       		.uleb128 0x3
 2815 01c7 08       		.uleb128 0x8
 2816 01c8 3A       		.uleb128 0x3a
 2817 01c9 0B       		.uleb128 0xb
 2818 01ca 3B       		.uleb128 0x3b
 2819 01cb 0B       		.uleb128 0xb
 2820 01cc 49       		.uleb128 0x49
 2821 01cd 13       		.uleb128 0x13
 2822 01ce 02       		.uleb128 0x2
 2823 01cf 06       		.uleb128 0x6
ARM GAS  /tmp/cc5btYHW.s 			page 51


 2824 01d0 00       		.byte	0
 2825 01d1 00       		.byte	0
 2826 01d2 25       		.uleb128 0x25
 2827 01d3 05       		.uleb128 0x5
 2828 01d4 00       		.byte	0
 2829 01d5 03       		.uleb128 0x3
 2830 01d6 0E       		.uleb128 0xe
 2831 01d7 3A       		.uleb128 0x3a
 2832 01d8 0B       		.uleb128 0xb
 2833 01d9 3B       		.uleb128 0x3b
 2834 01da 0B       		.uleb128 0xb
 2835 01db 49       		.uleb128 0x49
 2836 01dc 13       		.uleb128 0x13
 2837 01dd 02       		.uleb128 0x2
 2838 01de 06       		.uleb128 0x6
 2839 01df 00       		.byte	0
 2840 01e0 00       		.byte	0
 2841 01e1 26       		.uleb128 0x26
 2842 01e2 34       		.uleb128 0x34
 2843 01e3 00       		.byte	0
 2844 01e4 03       		.uleb128 0x3
 2845 01e5 08       		.uleb128 0x8
 2846 01e6 3A       		.uleb128 0x3a
 2847 01e7 0B       		.uleb128 0xb
 2848 01e8 3B       		.uleb128 0x3b
 2849 01e9 0B       		.uleb128 0xb
 2850 01ea 49       		.uleb128 0x49
 2851 01eb 13       		.uleb128 0x13
 2852 01ec 02       		.uleb128 0x2
 2853 01ed 06       		.uleb128 0x6
 2854 01ee 00       		.byte	0
 2855 01ef 00       		.byte	0
 2856 01f0 27       		.uleb128 0x27
 2857 01f1 2E       		.uleb128 0x2e
 2858 01f2 01       		.byte	0x1
 2859 01f3 03       		.uleb128 0x3
 2860 01f4 0E       		.uleb128 0xe
 2861 01f5 3A       		.uleb128 0x3a
 2862 01f6 0B       		.uleb128 0xb
 2863 01f7 3B       		.uleb128 0x3b
 2864 01f8 0B       		.uleb128 0xb
 2865 01f9 27       		.uleb128 0x27
 2866 01fa 0C       		.uleb128 0xc
 2867 01fb 49       		.uleb128 0x49
 2868 01fc 13       		.uleb128 0x13
 2869 01fd 11       		.uleb128 0x11
 2870 01fe 01       		.uleb128 0x1
 2871 01ff 12       		.uleb128 0x12
 2872 0200 01       		.uleb128 0x1
 2873 0201 40       		.uleb128 0x40
 2874 0202 06       		.uleb128 0x6
 2875 0203 01       		.uleb128 0x1
 2876 0204 13       		.uleb128 0x13
 2877 0205 00       		.byte	0
 2878 0206 00       		.byte	0
 2879 0207 28       		.uleb128 0x28
 2880 0208 34       		.uleb128 0x34
ARM GAS  /tmp/cc5btYHW.s 			page 52


 2881 0209 00       		.byte	0
 2882 020a 03       		.uleb128 0x3
 2883 020b 08       		.uleb128 0x8
 2884 020c 3A       		.uleb128 0x3a
 2885 020d 0B       		.uleb128 0xb
 2886 020e 3B       		.uleb128 0x3b
 2887 020f 0B       		.uleb128 0xb
 2888 0210 49       		.uleb128 0x49
 2889 0211 13       		.uleb128 0x13
 2890 0212 1C       		.uleb128 0x1c
 2891 0213 0B       		.uleb128 0xb
 2892 0214 00       		.byte	0
 2893 0215 00       		.byte	0
 2894 0216 29       		.uleb128 0x29
 2895 0217 34       		.uleb128 0x34
 2896 0218 00       		.byte	0
 2897 0219 03       		.uleb128 0x3
 2898 021a 08       		.uleb128 0x8
 2899 021b 3A       		.uleb128 0x3a
 2900 021c 0B       		.uleb128 0xb
 2901 021d 3B       		.uleb128 0x3b
 2902 021e 0B       		.uleb128 0xb
 2903 021f 49       		.uleb128 0x49
 2904 0220 13       		.uleb128 0x13
 2905 0221 02       		.uleb128 0x2
 2906 0222 0A       		.uleb128 0xa
 2907 0223 00       		.byte	0
 2908 0224 00       		.byte	0
 2909 0225 2A       		.uleb128 0x2a
 2910 0226 34       		.uleb128 0x34
 2911 0227 00       		.byte	0
 2912 0228 03       		.uleb128 0x3
 2913 0229 0E       		.uleb128 0xe
 2914 022a 3A       		.uleb128 0x3a
 2915 022b 0B       		.uleb128 0xb
 2916 022c 3B       		.uleb128 0x3b
 2917 022d 0B       		.uleb128 0xb
 2918 022e 49       		.uleb128 0x49
 2919 022f 13       		.uleb128 0x13
 2920 0230 02       		.uleb128 0x2
 2921 0231 0A       		.uleb128 0xa
 2922 0232 00       		.byte	0
 2923 0233 00       		.byte	0
 2924 0234 2B       		.uleb128 0x2b
 2925 0235 0B       		.uleb128 0xb
 2926 0236 01       		.byte	0x1
 2927 0237 11       		.uleb128 0x11
 2928 0238 01       		.uleb128 0x1
 2929 0239 12       		.uleb128 0x12
 2930 023a 01       		.uleb128 0x1
 2931 023b 01       		.uleb128 0x1
 2932 023c 13       		.uleb128 0x13
 2933 023d 00       		.byte	0
 2934 023e 00       		.byte	0
 2935 023f 2C       		.uleb128 0x2c
 2936 0240 1D       		.uleb128 0x1d
 2937 0241 01       		.byte	0x1
ARM GAS  /tmp/cc5btYHW.s 			page 53


 2938 0242 31       		.uleb128 0x31
 2939 0243 13       		.uleb128 0x13
 2940 0244 11       		.uleb128 0x11
 2941 0245 01       		.uleb128 0x1
 2942 0246 12       		.uleb128 0x12
 2943 0247 01       		.uleb128 0x1
 2944 0248 58       		.uleb128 0x58
 2945 0249 0B       		.uleb128 0xb
 2946 024a 59       		.uleb128 0x59
 2947 024b 0B       		.uleb128 0xb
 2948 024c 01       		.uleb128 0x1
 2949 024d 13       		.uleb128 0x13
 2950 024e 00       		.byte	0
 2951 024f 00       		.byte	0
 2952 0250 2D       		.uleb128 0x2d
 2953 0251 1D       		.uleb128 0x1d
 2954 0252 01       		.byte	0x1
 2955 0253 31       		.uleb128 0x31
 2956 0254 13       		.uleb128 0x13
 2957 0255 11       		.uleb128 0x11
 2958 0256 01       		.uleb128 0x1
 2959 0257 12       		.uleb128 0x12
 2960 0258 01       		.uleb128 0x1
 2961 0259 58       		.uleb128 0x58
 2962 025a 0B       		.uleb128 0xb
 2963 025b 59       		.uleb128 0x59
 2964 025c 0B       		.uleb128 0xb
 2965 025d 00       		.byte	0
 2966 025e 00       		.byte	0
 2967 025f 2E       		.uleb128 0x2e
 2968 0260 01       		.uleb128 0x1
 2969 0261 01       		.byte	0x1
 2970 0262 49       		.uleb128 0x49
 2971 0263 13       		.uleb128 0x13
 2972 0264 01       		.uleb128 0x1
 2973 0265 13       		.uleb128 0x13
 2974 0266 00       		.byte	0
 2975 0267 00       		.byte	0
 2976 0268 2F       		.uleb128 0x2f
 2977 0269 21       		.uleb128 0x21
 2978 026a 00       		.byte	0
 2979 026b 49       		.uleb128 0x49
 2980 026c 13       		.uleb128 0x13
 2981 026d 2F       		.uleb128 0x2f
 2982 026e 0B       		.uleb128 0xb
 2983 026f 00       		.byte	0
 2984 0270 00       		.byte	0
 2985 0271 30       		.uleb128 0x30
 2986 0272 34       		.uleb128 0x34
 2987 0273 00       		.byte	0
 2988 0274 03       		.uleb128 0x3
 2989 0275 0E       		.uleb128 0xe
 2990 0276 3A       		.uleb128 0x3a
 2991 0277 0B       		.uleb128 0xb
 2992 0278 3B       		.uleb128 0x3b
 2993 0279 0B       		.uleb128 0xb
 2994 027a 49       		.uleb128 0x49
ARM GAS  /tmp/cc5btYHW.s 			page 54


 2995 027b 13       		.uleb128 0x13
 2996 027c 3F       		.uleb128 0x3f
 2997 027d 0C       		.uleb128 0xc
 2998 027e 3C       		.uleb128 0x3c
 2999 027f 0C       		.uleb128 0xc
 3000 0280 00       		.byte	0
 3001 0281 00       		.byte	0
 3002 0282 31       		.uleb128 0x31
 3003 0283 34       		.uleb128 0x34
 3004 0284 00       		.byte	0
 3005 0285 03       		.uleb128 0x3
 3006 0286 0E       		.uleb128 0xe
 3007 0287 3A       		.uleb128 0x3a
 3008 0288 0B       		.uleb128 0xb
 3009 0289 3B       		.uleb128 0x3b
 3010 028a 05       		.uleb128 0x5
 3011 028b 49       		.uleb128 0x49
 3012 028c 13       		.uleb128 0x13
 3013 028d 3F       		.uleb128 0x3f
 3014 028e 0C       		.uleb128 0xc
 3015 028f 3C       		.uleb128 0x3c
 3016 0290 0C       		.uleb128 0xc
 3017 0291 00       		.byte	0
 3018 0292 00       		.byte	0
 3019 0293 32       		.uleb128 0x32
 3020 0294 34       		.uleb128 0x34
 3021 0295 00       		.byte	0
 3022 0296 03       		.uleb128 0x3
 3023 0297 0E       		.uleb128 0xe
 3024 0298 3A       		.uleb128 0x3a
 3025 0299 0B       		.uleb128 0xb
 3026 029a 3B       		.uleb128 0x3b
 3027 029b 0B       		.uleb128 0xb
 3028 029c 49       		.uleb128 0x49
 3029 029d 13       		.uleb128 0x13
 3030 029e 3F       		.uleb128 0x3f
 3031 029f 0C       		.uleb128 0xc
 3032 02a0 02       		.uleb128 0x2
 3033 02a1 0A       		.uleb128 0xa
 3034 02a2 00       		.byte	0
 3035 02a3 00       		.byte	0
 3036 02a4 00       		.byte	0
 3037              		.section	.debug_loc,"",%progbits
 3038              	.Ldebug_loc0:
 3039              	.LLST0:
 3040 0000 00000000 		.4byte	.LVL0
 3041 0004 17000000 		.4byte	.LVL4-1
 3042 0008 0100     		.2byte	0x1
 3043 000a 50       		.byte	0x50
 3044 000b 18000000 		.4byte	.LVL4
 3045 000f 2B000000 		.4byte	.LVL7-1
 3046 0013 0100     		.2byte	0x1
 3047 0015 50       		.byte	0x50
 3048 0016 00000000 		.4byte	0
 3049 001a 00000000 		.4byte	0
 3050              	.LLST1:
 3051 001e 00000000 		.4byte	.LVL0
ARM GAS  /tmp/cc5btYHW.s 			page 55


 3052 0022 08000000 		.4byte	.LVL2
 3053 0026 0100     		.2byte	0x1
 3054 0028 51       		.byte	0x51
 3055 0029 18000000 		.4byte	.LVL4
 3056 002d 1C000000 		.4byte	.LVL5
 3057 0031 0100     		.2byte	0x1
 3058 0033 51       		.byte	0x51
 3059 0034 00000000 		.4byte	0
 3060 0038 00000000 		.4byte	0
 3061              	.LLST2:
 3062 003c 00000000 		.4byte	.LVL0
 3063 0040 0C000000 		.4byte	.LVL3
 3064 0044 0100     		.2byte	0x1
 3065 0046 52       		.byte	0x52
 3066 0047 18000000 		.4byte	.LVL4
 3067 004b 20000000 		.4byte	.LVL6
 3068 004f 0100     		.2byte	0x1
 3069 0051 52       		.byte	0x52
 3070 0052 00000000 		.4byte	0
 3071 0056 00000000 		.4byte	0
 3072              	.LLST3:
 3073 005a 04000000 		.4byte	.LVL1
 3074 005e 18000000 		.4byte	.LVL4
 3075 0062 0600     		.2byte	0x6
 3076 0064 03       		.byte	0x3
 3077 0065 0C000000 		.4byte	.LC1
 3078 0069 9F       		.byte	0x9f
 3079 006a 00000000 		.4byte	0
 3080 006e 00000000 		.4byte	0
 3081              	.LLST4:
 3082 0072 00000000 		.4byte	.LFB128
 3083 0076 02000000 		.4byte	.LCFI0
 3084 007a 0200     		.2byte	0x2
 3085 007c 7D       		.byte	0x7d
 3086 007d 00       		.sleb128 0
 3087 007e 02000000 		.4byte	.LCFI0
 3088 0082 44000000 		.4byte	.LFE128
 3089 0086 0200     		.2byte	0x2
 3090 0088 7D       		.byte	0x7d
 3091 0089 10       		.sleb128 16
 3092 008a 00000000 		.4byte	0
 3093 008e 00000000 		.4byte	0
 3094              	.LLST5:
 3095 0092 00000000 		.4byte	.LVL8
 3096 0096 14000000 		.4byte	.LVL11
 3097 009a 0100     		.2byte	0x1
 3098 009c 50       		.byte	0x50
 3099 009d 3A000000 		.4byte	.LVL13
 3100 00a1 42000000 		.4byte	.LVL15
 3101 00a5 0100     		.2byte	0x1
 3102 00a7 50       		.byte	0x50
 3103 00a8 00000000 		.4byte	0
 3104 00ac 00000000 		.4byte	0
 3105              	.LLST6:
 3106 00b0 00000000 		.4byte	.LVL8
 3107 00b4 0E000000 		.4byte	.LVL10
 3108 00b8 0100     		.2byte	0x1
ARM GAS  /tmp/cc5btYHW.s 			page 56


 3109 00ba 51       		.byte	0x51
 3110 00bb 0E000000 		.4byte	.LVL10
 3111 00bf 44000000 		.4byte	.LFE128
 3112 00c3 0100     		.2byte	0x1
 3113 00c5 55       		.byte	0x55
 3114 00c6 00000000 		.4byte	0
 3115 00ca 00000000 		.4byte	0
 3116              	.LLST7:
 3117 00ce 0A000000 		.4byte	.LVL9
 3118 00d2 3A000000 		.4byte	.LVL13
 3119 00d6 0100     		.2byte	0x1
 3120 00d8 54       		.byte	0x54
 3121 00d9 3C000000 		.4byte	.LVL14
 3122 00dd 44000000 		.4byte	.LFE128
 3123 00e1 0200     		.2byte	0x2
 3124 00e3 75       		.byte	0x75
 3125 00e4 00       		.sleb128 0
 3126 00e5 00000000 		.4byte	0
 3127 00e9 00000000 		.4byte	0
 3128              	.LLST8:
 3129 00ed 00000000 		.4byte	.LFB124
 3130 00f1 02000000 		.4byte	.LCFI1
 3131 00f5 0200     		.2byte	0x2
 3132 00f7 7D       		.byte	0x7d
 3133 00f8 00       		.sleb128 0
 3134 00f9 02000000 		.4byte	.LCFI1
 3135 00fd 04000000 		.4byte	.LCFI2
 3136 0101 0200     		.2byte	0x2
 3137 0103 7D       		.byte	0x7d
 3138 0104 04       		.sleb128 4
 3139 0105 04000000 		.4byte	.LCFI2
 3140 0109 18000000 		.4byte	.LFE124
 3141 010d 0200     		.2byte	0x2
 3142 010f 7D       		.byte	0x7d
 3143 0110 10       		.sleb128 16
 3144 0111 00000000 		.4byte	0
 3145 0115 00000000 		.4byte	0
 3146              	.LLST9:
 3147 0119 00000000 		.4byte	.LVL16
 3148 011d 10000000 		.4byte	.LVL17
 3149 0121 0100     		.2byte	0x1
 3150 0123 50       		.byte	0x50
 3151 0124 10000000 		.4byte	.LVL17
 3152 0128 13000000 		.4byte	.LVL18-1
 3153 012c 0200     		.2byte	0x2
 3154 012e 7D       		.byte	0x7d
 3155 012f 00       		.sleb128 0
 3156 0130 00000000 		.4byte	0
 3157 0134 00000000 		.4byte	0
 3158              	.LLST10:
 3159 0138 00000000 		.4byte	.LVL16
 3160 013c 13000000 		.4byte	.LVL18-1
 3161 0140 0100     		.2byte	0x1
 3162 0142 51       		.byte	0x51
 3163 0143 00000000 		.4byte	0
 3164 0147 00000000 		.4byte	0
 3165              	.LLST11:
ARM GAS  /tmp/cc5btYHW.s 			page 57


 3166 014b 00000000 		.4byte	.LVL16
 3167 014f 13000000 		.4byte	.LVL18-1
 3168 0153 0100     		.2byte	0x1
 3169 0155 52       		.byte	0x52
 3170 0156 00000000 		.4byte	0
 3171 015a 00000000 		.4byte	0
 3172              	.LLST12:
 3173 015e 00000000 		.4byte	.LFB125
 3174 0162 02000000 		.4byte	.LCFI3
 3175 0166 0200     		.2byte	0x2
 3176 0168 7D       		.byte	0x7d
 3177 0169 00       		.sleb128 0
 3178 016a 02000000 		.4byte	.LCFI3
 3179 016e 04000000 		.4byte	.LCFI4
 3180 0172 0200     		.2byte	0x2
 3181 0174 7D       		.byte	0x7d
 3182 0175 04       		.sleb128 4
 3183 0176 04000000 		.4byte	.LCFI4
 3184 017a 1C000000 		.4byte	.LFE125
 3185 017e 0200     		.2byte	0x2
 3186 0180 7D       		.byte	0x7d
 3187 0181 10       		.sleb128 16
 3188 0182 00000000 		.4byte	0
 3189 0186 00000000 		.4byte	0
 3190              	.LLST13:
 3191 018a 00000000 		.4byte	.LVL19
 3192 018e 08000000 		.4byte	.LVL20
 3193 0192 0100     		.2byte	0x1
 3194 0194 50       		.byte	0x50
 3195 0195 08000000 		.4byte	.LVL20
 3196 0199 17000000 		.4byte	.LVL24-1
 3197 019d 0200     		.2byte	0x2
 3198 019f 7D       		.byte	0x7d
 3199 01a0 00       		.sleb128 0
 3200 01a1 00000000 		.4byte	0
 3201 01a5 00000000 		.4byte	0
 3202              	.LLST14:
 3203 01a9 00000000 		.4byte	.LVL19
 3204 01ad 0A000000 		.4byte	.LVL21
 3205 01b1 0100     		.2byte	0x1
 3206 01b3 51       		.byte	0x51
 3207 01b4 0A000000 		.4byte	.LVL21
 3208 01b8 17000000 		.4byte	.LVL24-1
 3209 01bc 0100     		.2byte	0x1
 3210 01be 50       		.byte	0x50
 3211 01bf 00000000 		.4byte	0
 3212 01c3 00000000 		.4byte	0
 3213              	.LLST15:
 3214 01c7 00000000 		.4byte	.LVL19
 3215 01cb 0C000000 		.4byte	.LVL22
 3216 01cf 0100     		.2byte	0x1
 3217 01d1 52       		.byte	0x52
 3218 01d2 0C000000 		.4byte	.LVL22
 3219 01d6 17000000 		.4byte	.LVL24-1
 3220 01da 0100     		.2byte	0x1
 3221 01dc 51       		.byte	0x51
 3222 01dd 00000000 		.4byte	0
ARM GAS  /tmp/cc5btYHW.s 			page 58


 3223 01e1 00000000 		.4byte	0
 3224              	.LLST16:
 3225 01e5 00000000 		.4byte	.LVL19
 3226 01e9 10000000 		.4byte	.LVL23
 3227 01ed 0100     		.2byte	0x1
 3228 01ef 53       		.byte	0x53
 3229 01f0 10000000 		.4byte	.LVL23
 3230 01f4 17000000 		.4byte	.LVL24-1
 3231 01f8 0100     		.2byte	0x1
 3232 01fa 52       		.byte	0x52
 3233 01fb 00000000 		.4byte	0
 3234 01ff 00000000 		.4byte	0
 3235              	.LLST17:
 3236 0203 00000000 		.4byte	.LFB126
 3237 0207 04000000 		.4byte	.LCFI5
 3238 020b 0200     		.2byte	0x2
 3239 020d 7D       		.byte	0x7d
 3240 020e 00       		.sleb128 0
 3241 020f 04000000 		.4byte	.LCFI5
 3242 0213 5E000000 		.4byte	.LFE126
 3243 0217 0200     		.2byte	0x2
 3244 0219 7D       		.byte	0x7d
 3245 021a 18       		.sleb128 24
 3246 021b 00000000 		.4byte	0
 3247 021f 00000000 		.4byte	0
 3248              	.LLST18:
 3249 0223 00000000 		.4byte	.LVL25
 3250 0227 0C000000 		.4byte	.LVL28
 3251 022b 0100     		.2byte	0x1
 3252 022d 50       		.byte	0x50
 3253 022e 0C000000 		.4byte	.LVL28
 3254 0232 5E000000 		.4byte	.LFE126
 3255 0236 0100     		.2byte	0x1
 3256 0238 55       		.byte	0x55
 3257 0239 00000000 		.4byte	0
 3258 023d 00000000 		.4byte	0
 3259              	.LLST19:
 3260 0241 00000000 		.4byte	.LVL25
 3261 0245 0C000000 		.4byte	.LVL28
 3262 0249 0100     		.2byte	0x1
 3263 024b 51       		.byte	0x51
 3264 024c 0C000000 		.4byte	.LVL28
 3265 0250 5E000000 		.4byte	.LFE126
 3266 0254 0100     		.2byte	0x1
 3267 0256 54       		.byte	0x54
 3268 0257 00000000 		.4byte	0
 3269 025b 00000000 		.4byte	0
 3270              	.LLST20:
 3271 025f 00000000 		.4byte	.LVL25
 3272 0263 02000000 		.4byte	.LVL26
 3273 0267 0100     		.2byte	0x1
 3274 0269 52       		.byte	0x52
 3275 026a 02000000 		.4byte	.LVL26
 3276 026e 0C000000 		.4byte	.LVL28
 3277 0272 0300     		.2byte	0x3
 3278 0274 72       		.byte	0x72
 3279 0275 01       		.sleb128 1
ARM GAS  /tmp/cc5btYHW.s 			page 59


 3280 0276 9F       		.byte	0x9f
 3281 0277 00000000 		.4byte	0
 3282 027b 00000000 		.4byte	0
 3283              	.LLST21:
 3284 027f 06000000 		.4byte	.LVL27
 3285 0283 0C000000 		.4byte	.LVL28
 3286 0287 0100     		.2byte	0x1
 3287 0289 51       		.byte	0x51
 3288 028a 0C000000 		.4byte	.LVL28
 3289 028e 5E000000 		.4byte	.LFE126
 3290 0292 0100     		.2byte	0x1
 3291 0294 56       		.byte	0x56
 3292 0295 00000000 		.4byte	0
 3293 0299 00000000 		.4byte	0
 3294              	.LLST22:
 3295 029d 18000000 		.4byte	.LVL29
 3296 02a1 1E000000 		.4byte	.LVL30
 3297 02a5 0100     		.2byte	0x1
 3298 02a7 50       		.byte	0x50
 3299 02a8 42000000 		.4byte	.LVL32
 3300 02ac 48000000 		.4byte	.LVL33
 3301 02b0 0100     		.2byte	0x1
 3302 02b2 50       		.byte	0x50
 3303 02b3 00000000 		.4byte	0
 3304 02b7 00000000 		.4byte	0
 3305              	.LLST23:
 3306 02bb 00000000 		.4byte	.LFB122
 3307 02bf 04000000 		.4byte	.LCFI6
 3308 02c3 0200     		.2byte	0x2
 3309 02c5 7D       		.byte	0x7d
 3310 02c6 00       		.sleb128 0
 3311 02c7 04000000 		.4byte	.LCFI6
 3312 02cb 28000000 		.4byte	.LCFI7
 3313 02cf 0200     		.2byte	0x2
 3314 02d1 7D       		.byte	0x7d
 3315 02d2 24       		.sleb128 36
 3316 02d3 28000000 		.4byte	.LCFI7
 3317 02d7 76020000 		.4byte	.LFE122
 3318 02db 0300     		.2byte	0x3
 3319 02dd 7D       		.byte	0x7d
 3320 02de 8801     		.sleb128 136
 3321 02e0 00000000 		.4byte	0
 3322 02e4 00000000 		.4byte	0
 3323              	.LLST24:
 3324 02e8 00000000 		.4byte	.LVL35
 3325 02ec 2C000000 		.4byte	.LVL37
 3326 02f0 0100     		.2byte	0x1
 3327 02f2 50       		.byte	0x50
 3328 02f3 00000000 		.4byte	0
 3329 02f7 00000000 		.4byte	0
 3330              	.LLST25:
 3331 02fb 48000000 		.4byte	.LVL38
 3332 02ff 5A000000 		.4byte	.LVL42
 3333 0303 0200     		.2byte	0x2
 3334 0305 30       		.byte	0x30
 3335 0306 9F       		.byte	0x9f
 3336 0307 5A000000 		.4byte	.LVL42
ARM GAS  /tmp/cc5btYHW.s 			page 60


 3337 030b 6C000000 		.4byte	.LVL45
 3338 030f 0200     		.2byte	0x2
 3339 0311 31       		.byte	0x31
 3340 0312 9F       		.byte	0x9f
 3341 0313 6C000000 		.4byte	.LVL45
 3342 0317 7C000000 		.4byte	.LVL48
 3343 031b 0200     		.2byte	0x2
 3344 031d 32       		.byte	0x32
 3345 031e 9F       		.byte	0x9f
 3346 031f 7C000000 		.4byte	.LVL48
 3347 0323 8C000000 		.4byte	.LVL51
 3348 0327 0200     		.2byte	0x2
 3349 0329 33       		.byte	0x33
 3350 032a 9F       		.byte	0x9f
 3351 032b 8C000000 		.4byte	.LVL51
 3352 032f B6000000 		.4byte	.LVL55
 3353 0333 0200     		.2byte	0x2
 3354 0335 34       		.byte	0x34
 3355 0336 9F       		.byte	0x9f
 3356 0337 E6000000 		.4byte	.LVL59
 3357 033b E8000000 		.4byte	.LVL60
 3358 033f 0200     		.2byte	0x2
 3359 0341 30       		.byte	0x30
 3360 0342 9F       		.byte	0x9f
 3361 0343 70010000 		.4byte	.LVL68
 3362 0347 76010000 		.4byte	.LVL69
 3363 034b 0200     		.2byte	0x2
 3364 034d 31       		.byte	0x31
 3365 034e 9F       		.byte	0x9f
 3366 034f 76010000 		.4byte	.LVL69
 3367 0353 7C010000 		.4byte	.LVL70
 3368 0357 0200     		.2byte	0x2
 3369 0359 32       		.byte	0x32
 3370 035a 9F       		.byte	0x9f
 3371 035b 7C010000 		.4byte	.LVL70
 3372 035f 82010000 		.4byte	.LVL71
 3373 0363 0200     		.2byte	0x2
 3374 0365 33       		.byte	0x33
 3375 0366 9F       		.byte	0x9f
 3376 0367 82010000 		.4byte	.LVL71
 3377 036b 88010000 		.4byte	.LVL72
 3378 036f 0200     		.2byte	0x2
 3379 0371 34       		.byte	0x34
 3380 0372 9F       		.byte	0x9f
 3381 0373 00000000 		.4byte	0
 3382 0377 00000000 		.4byte	0
 3383              	.LLST26:
 3384 037b 26000000 		.4byte	.LVL36
 3385 037f 2C000000 		.4byte	.LVL37
 3386 0383 0200     		.2byte	0x2
 3387 0385 70       		.byte	0x70
 3388 0386 04       		.sleb128 4
 3389 0387 2C000000 		.4byte	.LVL37
 3390 038b 76020000 		.4byte	.LFE122
 3391 038f 0100     		.2byte	0x1
 3392 0391 57       		.byte	0x57
 3393 0392 00000000 		.4byte	0
ARM GAS  /tmp/cc5btYHW.s 			page 61


 3394 0396 00000000 		.4byte	0
 3395              	.LLST27:
 3396 039a 48000000 		.4byte	.LVL38
 3397 039e 4A000000 		.4byte	.LVL39
 3398 03a2 0100     		.2byte	0x1
 3399 03a4 50       		.byte	0x50
 3400 03a5 4A000000 		.4byte	.LVL39
 3401 03a9 4E000000 		.4byte	.LVL40
 3402 03ad 0100     		.2byte	0x1
 3403 03af 5A       		.byte	0x5a
 3404 03b0 4E000000 		.4byte	.LVL40
 3405 03b4 56000000 		.4byte	.LVL41
 3406 03b8 0100     		.2byte	0x1
 3407 03ba 50       		.byte	0x50
 3408 03bb 56000000 		.4byte	.LVL41
 3409 03bf 5D000000 		.4byte	.LVL43-1
 3410 03c3 0100     		.2byte	0x1
 3411 03c5 53       		.byte	0x53
 3412 03c6 5E000000 		.4byte	.LVL43
 3413 03ca 68000000 		.4byte	.LVL44
 3414 03ce 0100     		.2byte	0x1
 3415 03d0 50       		.byte	0x50
 3416 03d1 68000000 		.4byte	.LVL44
 3417 03d5 6F000000 		.4byte	.LVL46-1
 3418 03d9 0100     		.2byte	0x1
 3419 03db 53       		.byte	0x53
 3420 03dc 70000000 		.4byte	.LVL46
 3421 03e0 78000000 		.4byte	.LVL47
 3422 03e4 0100     		.2byte	0x1
 3423 03e6 50       		.byte	0x50
 3424 03e7 78000000 		.4byte	.LVL47
 3425 03eb 7F000000 		.4byte	.LVL49-1
 3426 03ef 0100     		.2byte	0x1
 3427 03f1 53       		.byte	0x53
 3428 03f2 80000000 		.4byte	.LVL49
 3429 03f6 88000000 		.4byte	.LVL50
 3430 03fa 0100     		.2byte	0x1
 3431 03fc 50       		.byte	0x50
 3432 03fd 88000000 		.4byte	.LVL50
 3433 0401 8F000000 		.4byte	.LVL52-1
 3434 0405 0100     		.2byte	0x1
 3435 0407 53       		.byte	0x53
 3436 0408 90000000 		.4byte	.LVL52
 3437 040c 9A000000 		.4byte	.LVL53
 3438 0410 0100     		.2byte	0x1
 3439 0412 50       		.byte	0x50
 3440 0413 E6000000 		.4byte	.LVL59
 3441 0417 F2000000 		.4byte	.LVL61
 3442 041b 0100     		.2byte	0x1
 3443 041d 50       		.byte	0x50
 3444 041e 70010000 		.4byte	.LVL68
 3445 0422 88010000 		.4byte	.LVL72
 3446 0426 0100     		.2byte	0x1
 3447 0428 50       		.byte	0x50
 3448 0429 00000000 		.4byte	0
 3449 042d 00000000 		.4byte	0
 3450              	.LLST28:
ARM GAS  /tmp/cc5btYHW.s 			page 62


 3451 0431 48000000 		.4byte	.LVL38
 3452 0435 4A000000 		.4byte	.LVL39
 3453 0439 0100     		.2byte	0x1
 3454 043b 50       		.byte	0x50
 3455 043c 4A000000 		.4byte	.LVL39
 3456 0440 A2000000 		.4byte	.LVL54
 3457 0444 0100     		.2byte	0x1
 3458 0446 5A       		.byte	0x5a
 3459 0447 A2000000 		.4byte	.LVL54
 3460 044b B6000000 		.4byte	.LVL55
 3461 044f 0200     		.2byte	0x2
 3462 0451 30       		.byte	0x30
 3463 0452 9F       		.byte	0x9f
 3464 0453 E6000000 		.4byte	.LVL59
 3465 0457 24020000 		.4byte	.LVL82
 3466 045b 0100     		.2byte	0x1
 3467 045d 5A       		.byte	0x5a
 3468 045e 56020000 		.4byte	.LVL83
 3469 0462 76020000 		.4byte	.LFE122
 3470 0466 0100     		.2byte	0x1
 3471 0468 5A       		.byte	0x5a
 3472 0469 00000000 		.4byte	0
 3473 046d 00000000 		.4byte	0
 3474              	.LLST29:
 3475 0471 EA010000 		.4byte	.LVL79
 3476 0475 F6010000 		.4byte	.LVL80
 3477 0479 0600     		.2byte	0x6
 3478 047b 03       		.byte	0x3
 3479 047c 00000000 		.4byte	local_commands
 3480 0480 9F       		.byte	0x9f
 3481 0481 00000000 		.4byte	0
 3482 0485 00000000 		.4byte	0
 3483              	.LLST30:
 3484 0489 EA010000 		.4byte	.LVL79
 3485 048d 56020000 		.4byte	.LVL83
 3486 0491 0100     		.2byte	0x1
 3487 0493 54       		.byte	0x54
 3488 0494 00000000 		.4byte	0
 3489 0498 00000000 		.4byte	0
 3490              	.LLST31:
 3491 049c 3A010000 		.4byte	.LVL64
 3492 04a0 48010000 		.4byte	.LVL65
 3493 04a4 0600     		.2byte	0x6
 3494 04a6 03       		.byte	0x3
 3495 04a7 00000000 		.4byte	local_commands
 3496 04ab 9F       		.byte	0x9f
 3497 04ac 48010000 		.4byte	.LVL65
 3498 04b0 4C010000 		.4byte	.LVL66
 3499 04b4 0300     		.2byte	0x3
 3500 04b6 7B       		.byte	0x7b
 3501 04b7 08       		.sleb128 8
 3502 04b8 9F       		.byte	0x9f
 3503 04b9 4C010000 		.4byte	.LVL66
 3504 04bd 58010000 		.4byte	.LVL67
 3505 04c1 0100     		.2byte	0x1
 3506 04c3 5B       		.byte	0x5b
 3507 04c4 00000000 		.4byte	0
ARM GAS  /tmp/cc5btYHW.s 			page 63


 3508 04c8 00000000 		.4byte	0
 3509              	.LLST32:
 3510 04cc CA000000 		.4byte	.LVL57
 3511 04d0 D7000000 		.4byte	.LVL58-1
 3512 04d4 0100     		.2byte	0x1
 3513 04d6 53       		.byte	0x53
 3514 04d7 00000000 		.4byte	0
 3515 04db 00000000 		.4byte	0
 3516              	.LLST33:
 3517 04df 12010000 		.4byte	.LVL62
 3518 04e3 2A010000 		.4byte	.LVL63
 3519 04e7 0600     		.2byte	0x6
 3520 04e9 03       		.byte	0x3
 3521 04ea 5C000000 		.4byte	.LC8
 3522 04ee 9F       		.byte	0x9f
 3523 04ef 00000000 		.4byte	0
 3524 04f3 00000000 		.4byte	0
 3525              	.LLST34:
 3526 04f7 12010000 		.4byte	.LVL62
 3527 04fb 2A010000 		.4byte	.LVL63
 3528 04ff 0100     		.2byte	0x1
 3529 0501 54       		.byte	0x54
 3530 0502 00000000 		.4byte	0
 3531 0506 00000000 		.4byte	0
 3532              	.LLST35:
 3533 050a AA010000 		.4byte	.LVL75
 3534 050e BA010000 		.4byte	.LVL76
 3535 0512 0100     		.2byte	0x1
 3536 0514 57       		.byte	0x57
 3537 0515 BA010000 		.4byte	.LVL76
 3538 0519 C0010000 		.4byte	.LVL77
 3539 051d 0300     		.2byte	0x3
 3540 051f 7B       		.byte	0x7b
 3541 0520 08       		.sleb128 8
 3542 0521 9F       		.byte	0x9f
 3543 0522 C0010000 		.4byte	.LVL77
 3544 0526 D0010000 		.4byte	.LVL78
 3545 052a 0100     		.2byte	0x1
 3546 052c 5B       		.byte	0x5b
 3547 052d 00000000 		.4byte	0
 3548 0531 00000000 		.4byte	0
 3549              	.LLST36:
 3550 0535 8E010000 		.4byte	.LVL73
 3551 0539 A6010000 		.4byte	.LVL74
 3552 053d 0600     		.2byte	0x6
 3553 053f 03       		.byte	0x3
 3554 0540 64000000 		.4byte	.LC9
 3555 0544 9F       		.byte	0x9f
 3556 0545 00000000 		.4byte	0
 3557 0549 00000000 		.4byte	0
 3558              	.LLST37:
 3559 054d 8E010000 		.4byte	.LVL73
 3560 0551 A6010000 		.4byte	.LVL74
 3561 0555 0100     		.2byte	0x1
 3562 0557 54       		.byte	0x54
 3563 0558 00000000 		.4byte	0
 3564 055c 00000000 		.4byte	0
ARM GAS  /tmp/cc5btYHW.s 			page 64


 3565              	.LLST38:
 3566 0560 1A020000 		.4byte	.LVL81
 3567 0564 24020000 		.4byte	.LVL82
 3568 0568 0100     		.2byte	0x1
 3569 056a 57       		.byte	0x57
 3570 056b 00000000 		.4byte	0
 3571 056f 00000000 		.4byte	0
 3572              		.section	.debug_aranges,"",%progbits
 3573 0000 4C000000 		.4byte	0x4c
 3574 0004 0200     		.2byte	0x2
 3575 0006 00000000 		.4byte	.Ldebug_info0
 3576 000a 04       		.byte	0x4
 3577 000b 00       		.byte	0
 3578 000c 0000     		.2byte	0
 3579 000e 0000     		.2byte	0
 3580 0010 00000000 		.4byte	.LFB120
 3581 0014 2C000000 		.4byte	.LFE120-.LFB120
 3582 0018 00000000 		.4byte	.LFB128
 3583 001c 44000000 		.4byte	.LFE128-.LFB128
 3584 0020 00000000 		.4byte	.LFB123
 3585 0024 0C000000 		.4byte	.LFE123-.LFB123
 3586 0028 00000000 		.4byte	.LFB124
 3587 002c 18000000 		.4byte	.LFE124-.LFB124
 3588 0030 00000000 		.4byte	.LFB125
 3589 0034 1C000000 		.4byte	.LFE125-.LFB125
 3590 0038 00000000 		.4byte	.LFB126
 3591 003c 5E000000 		.4byte	.LFE126-.LFB126
 3592 0040 00000000 		.4byte	.LFB122
 3593 0044 76020000 		.4byte	.LFE122-.LFB122
 3594 0048 00000000 		.4byte	0
 3595 004c 00000000 		.4byte	0
 3596              		.section	.debug_ranges,"",%progbits
 3597              	.Ldebug_ranges0:
 3598 0000 04000000 		.4byte	.LBB25
 3599 0004 14000000 		.4byte	.LBE25
 3600 0008 14000000 		.4byte	.LBB28
 3601 000c 18000000 		.4byte	.LBE28
 3602 0010 00000000 		.4byte	0
 3603 0014 00000000 		.4byte	0
 3604 0018 18000000 		.4byte	.LBB29
 3605 001c 28000000 		.4byte	.LBE29
 3606 0020 28000000 		.4byte	.LBB32
 3607 0024 2C000000 		.4byte	.LBE32
 3608 0028 00000000 		.4byte	0
 3609 002c 00000000 		.4byte	0
 3610 0030 18000000 		.4byte	.LBB30
 3611 0034 28000000 		.4byte	.LBE30
 3612 0038 28000000 		.4byte	.LBB31
 3613 003c 2C000000 		.4byte	.LBE31
 3614 0040 00000000 		.4byte	0
 3615 0044 00000000 		.4byte	0
 3616 0048 00000000 		.4byte	.LBB33
 3617 004c 02000000 		.4byte	.LBE33
 3618 0050 0A000000 		.4byte	.LBB34
 3619 0054 56000000 		.4byte	.LBE34
 3620 0058 58000000 		.4byte	.LBB35
 3621 005c 5E000000 		.4byte	.LBE35
ARM GAS  /tmp/cc5btYHW.s 			page 65


 3622 0060 00000000 		.4byte	0
 3623 0064 00000000 		.4byte	0
 3624 0068 0C000000 		.4byte	.LBB36
 3625 006c 10000000 		.4byte	.LBE36
 3626 0070 16000000 		.4byte	.LBB40
 3627 0074 1A000000 		.4byte	.LBE40
 3628 0078 EA010000 		.4byte	.LBB54
 3629 007c 18020000 		.4byte	.LBE54
 3630 0080 00000000 		.4byte	0
 3631 0084 00000000 		.4byte	0
 3632 0088 2A000000 		.4byte	.LBB41
 3633 008c 2C000000 		.4byte	.LBE41
 3634 0090 3A010000 		.4byte	.LBB47
 3635 0094 62010000 		.4byte	.LBE47
 3636 0098 00000000 		.4byte	0
 3637 009c 00000000 		.4byte	0
 3638 00a0 62010000 		.4byte	.LBB48
 3639 00a4 70010000 		.4byte	.LBE48
 3640 00a8 AA010000 		.4byte	.LBB53
 3641 00ac DC010000 		.4byte	.LBE53
 3642 00b0 00000000 		.4byte	0
 3643 00b4 00000000 		.4byte	0
 3644 00b8 00000000 		.4byte	.LFB120
 3645 00bc 2C000000 		.4byte	.LFE120
 3646 00c0 00000000 		.4byte	.LFB128
 3647 00c4 44000000 		.4byte	.LFE128
 3648 00c8 00000000 		.4byte	.LFB123
 3649 00cc 0C000000 		.4byte	.LFE123
 3650 00d0 00000000 		.4byte	.LFB124
 3651 00d4 18000000 		.4byte	.LFE124
 3652 00d8 00000000 		.4byte	.LFB125
 3653 00dc 1C000000 		.4byte	.LFE125
 3654 00e0 00000000 		.4byte	.LFB126
 3655 00e4 5E000000 		.4byte	.LFE126
 3656 00e8 00000000 		.4byte	.LFB122
 3657 00ec 76020000 		.4byte	.LFE122
 3658 00f0 00000000 		.4byte	0
 3659 00f4 00000000 		.4byte	0
 3660              		.section	.debug_line,"",%progbits
 3661              	.Ldebug_line0:
 3662 0000 4D030000 		.section	.debug_str,"MS",%progbits,1
 3662      0200E701 
 3662      00000201 
 3662      FB0E0D00 
 3662      01010101 
 3663              	.LASF10:
 3664 0000 73697A65 		.ascii	"size_t\000"
 3664      5F7400
 3665              	.LASF54:
 3666 0007 52656164 		.ascii	"ReadyList\000"
 3666      794C6973 
 3666      7400
 3667              	.LASF108:
 3668 0011 2F686F6D 		.ascii	"/home/mikel/workspace/ros/PacBot/PacBot/FirmwareWit"
 3668      652F6D69 
 3668      6B656C2F 
 3668      776F726B 
ARM GAS  /tmp/cc5btYHW.s 			page 66


 3668      73706163 
 3669 0044 68495200 		.ascii	"hIR\000"
 3670              	.LASF6:
 3671 0048 6C6F6E67 		.ascii	"long long unsigned int\000"
 3671      206C6F6E 
 3671      6720756E 
 3671      7369676E 
 3671      65642069 
 3672              	.LASF69:
 3673 005f 42617365 		.ascii	"BaseChannelVMT\000"
 3673      4368616E 
 3673      6E656C56 
 3673      4D5400
 3674              	.LASF66:
 3675 006e 65786974 		.ascii	"exitcode\000"
 3675      636F6465 
 3675      00
 3676              	.LASF104:
 3677 0077 49544D5F 		.ascii	"ITM_RxBuffer\000"
 3677      52784275 
 3677      66666572 
 3677      00
 3678              	.LASF85:
 3679 0084 636D645F 		.ascii	"cmd_info\000"
 3679      696E666F 
 3679      00
 3680              	.LASF26:
 3681 008d 705F7072 		.ascii	"p_prio\000"
 3681      696F00
 3682              	.LASF75:
 3683 0094 72656164 		.ascii	"readt\000"
 3683      7400
 3684              	.LASF5:
 3685 009a 6C6F6E67 		.ascii	"long long int\000"
 3685      206C6F6E 
 3685      6720696E 
 3685      7400
 3686              	.LASF0:
 3687 00a8 7369676E 		.ascii	"signed char\000"
 3687      65642063 
 3687      68617200 
 3688              	.LASF41:
 3689 00b4 705F6D70 		.ascii	"p_mpool\000"
 3689      6F6F6C00 
 3690              	.LASF14:
 3691 00bc 626F6F6C 		.ascii	"bool_t\000"
 3691      5F7400
 3692              	.LASF56:
 3693 00c3 6D5F7175 		.ascii	"m_queue\000"
 3693      65756500 
 3694              	.LASF81:
 3695 00cb 73635F63 		.ascii	"sc_channel\000"
 3695      68616E6E 
 3695      656C00
 3696              	.LASF7:
 3697 00d6 6C6F6E67 		.ascii	"long int\000"
 3697      20696E74 
ARM GAS  /tmp/cc5btYHW.s 			page 67


 3697      00
 3698              	.LASF80:
 3699 00df 5368656C 		.ascii	"ShellCommand\000"
 3699      6C436F6D 
 3699      6D616E64 
 3699      00
 3700              	.LASF16:
 3701 00ec 74737461 		.ascii	"tstate_t\000"
 3701      74655F74 
 3701      00
 3702              	.LASF33:
 3703 00f5 705F7265 		.ascii	"p_refs\000"
 3703      667300
 3704              	.LASF34:
 3705 00fc 705F7469 		.ascii	"p_time\000"
 3705      6D6500
 3706              	.LASF100:
 3707 0103 746F6B70 		.ascii	"tokp\000"
 3707      00
 3708              	.LASF28:
 3709 0108 705F6E65 		.ascii	"p_newer\000"
 3709      77657200 
 3710              	.LASF72:
 3711 0110 70757477 		.ascii	"putwouldblock\000"
 3711      6F756C64 
 3711      626C6F63 
 3711      6B00
 3712              	.LASF99:
 3713 011e 6C696E65 		.ascii	"line\000"
 3713      00
 3714              	.LASF50:
 3715 0123 725F6E65 		.ascii	"r_newer\000"
 3715      77657200 
 3716              	.LASF44:
 3717 012b 72656761 		.ascii	"regarm_t\000"
 3717      726D5F74 
 3717      00
 3718              	.LASF98:
 3719 0134 7368656C 		.ascii	"shellGetLine\000"
 3719      6C476574 
 3719      4C696E65 
 3719      00
 3720              	.LASF78:
 3721 0141 73635F6E 		.ascii	"sc_name\000"
 3721      616D6500 
 3722              	.LASF63:
 3723 0149 4576656E 		.ascii	"EventSource\000"
 3723      74536F75 
 3723      72636500 
 3724              	.LASF22:
 3725 0155 636E745F 		.ascii	"cnt_t\000"
 3725      7400
 3726              	.LASF4:
 3727 015b 756E7369 		.ascii	"unsigned int\000"
 3727      676E6564 
 3727      20696E74 
 3727      00
ARM GAS  /tmp/cc5btYHW.s 			page 68


 3728              	.LASF82:
 3729 0168 73635F63 		.ascii	"sc_commands\000"
 3729      6F6D6D61 
 3729      6E647300 
 3730              	.LASF36:
 3731 0174 705F6D73 		.ascii	"p_msgqueue\000"
 3731      67717565 
 3731      756500
 3732              	.LASF89:
 3733 017f 6E616D65 		.ascii	"name\000"
 3733      00
 3734              	.LASF96:
 3735 0184 7368656C 		.ascii	"shellCreate\000"
 3735      6C437265 
 3735      61746500 
 3736              	.LASF94:
 3737 0190 73697A65 		.ascii	"size\000"
 3737      00
 3738              	.LASF3:
 3739 0195 73686F72 		.ascii	"short unsigned int\000"
 3739      7420756E 
 3739      7369676E 
 3739      65642069 
 3739      6E7400
 3740              	.LASF19:
 3741 01a8 6D73675F 		.ascii	"msg_t\000"
 3741      7400
 3742              	.LASF60:
 3743 01ae 656C5F6E 		.ascii	"el_next\000"
 3743      65787400 
 3744              	.LASF74:
 3745 01b6 77726974 		.ascii	"writet\000"
 3745      657400
 3746              	.LASF15:
 3747 01bd 746D6F64 		.ascii	"tmode_t\000"
 3747      655F7400 
 3748              	.LASF43:
 3749 01c5 54687265 		.ascii	"ThreadsList\000"
 3749      6164734C 
 3749      69737400 
 3750              	.LASF20:
 3751 01d1 6576656E 		.ascii	"eventmask_t\000"
 3751      746D6173 
 3751      6B5F7400 
 3752              	.LASF70:
 3753 01dd 77726974 		.ascii	"write\000"
 3753      6500
 3754              	.LASF55:
 3755 01e3 4D757465 		.ascii	"Mutex\000"
 3755      7800
 3756              	.LASF77:
 3757 01e9 7368656C 		.ascii	"shellcmd_t\000"
 3757      6C636D64 
 3757      5F7400
 3758              	.LASF62:
 3759 01f4 656C5F6D 		.ascii	"el_mask\000"
 3759      61736B00 
ARM GAS  /tmp/cc5btYHW.s 			page 69


 3760              	.LASF29:
 3761 01fc 705F6F6C 		.ascii	"p_older\000"
 3761      64657200 
 3762              	.LASF49:
 3763 0204 725F6374 		.ascii	"r_ctx\000"
 3763      7800
 3764              	.LASF97:
 3765 020a 7368656C 		.ascii	"shellCreateStatic\000"
 3765      6C437265 
 3765      61746553 
 3765      74617469 
 3765      6300
 3766              	.LASF42:
 3767 021c 54687265 		.ascii	"ThreadsQueue\000"
 3767      61647351 
 3767      75657565 
 3767      00
 3768              	.LASF102:
 3769 0229 6C6F6361 		.ascii	"local_commands\000"
 3769      6C5F636F 
 3769      6D6D616E 
 3769      647300
 3770              	.LASF95:
 3771 0238 7072696F 		.ascii	"prio\000"
 3771      00
 3772              	.LASF51:
 3773 023d 725F6F6C 		.ascii	"r_older\000"
 3773      64657200 
 3774              	.LASF109:
 3775 0245 746F6B65 		.ascii	"token\000"
 3775      6E00
 3776              	.LASF17:
 3777 024b 74726566 		.ascii	"trefs_t\000"
 3777      735F7400 
 3778              	.LASF93:
 3779 0253 73617665 		.ascii	"saveptr\000"
 3779      70747200 
 3780              	.LASF25:
 3781 025b 705F7072 		.ascii	"p_prev\000"
 3781      657600
 3782              	.LASF18:
 3783 0262 74707269 		.ascii	"tprio_t\000"
 3783      6F5F7400 
 3784              	.LASF91:
 3785 026a 5F737472 		.ascii	"_strtok\000"
 3785      746F6B00 
 3786              	.LASF12:
 3787 0272 696E7433 		.ascii	"int32_t\000"
 3787      325F7400 
 3788              	.LASF1:
 3789 027a 756E7369 		.ascii	"unsigned char\000"
 3789      676E6564 
 3789      20636861 
 3789      7200
 3790              	.LASF61:
 3791 0288 656C5F6C 		.ascii	"el_listener\000"
 3791      69737465 
ARM GAS  /tmp/cc5btYHW.s 			page 70


 3791      6E657200 
 3792              	.LASF39:
 3793 0294 705F6D74 		.ascii	"p_mtxlist\000"
 3793      786C6973 
 3793      7400
 3794              	.LASF2:
 3795 029e 73686F72 		.ascii	"short int\000"
 3795      7420696E 
 3795      7400
 3796              	.LASF31:
 3797 02a8 705F7374 		.ascii	"p_state\000"
 3797      61746500 
 3798              	.LASF90:
 3799 02b0 636D6465 		.ascii	"cmdexec\000"
 3799      78656300 
 3800              	.LASF48:
 3801 02b8 725F7072 		.ascii	"r_prio\000"
 3801      696F00
 3802              	.LASF68:
 3803 02bf 65776D61 		.ascii	"ewmask\000"
 3803      736B00
 3804              	.LASF24:
 3805 02c6 705F6E65 		.ascii	"p_next\000"
 3805      787400
 3806              	.LASF92:
 3807 02cd 64656C69 		.ascii	"delim\000"
 3807      6D00
 3808              	.LASF32:
 3809 02d3 705F666C 		.ascii	"p_flags\000"
 3809      61677300 
 3810              	.LASF23:
 3811 02db 54687265 		.ascii	"Thread\000"
 3811      616400
 3812              	.LASF107:
 3813 02e2 2E2F7372 		.ascii	"./src/shell.c\000"
 3813      632F7368 
 3813      656C6C2E 
 3813      6300
 3814              	.LASF38:
 3815 02f0 705F6570 		.ascii	"p_epending\000"
 3815      656E6469 
 3815      6E6700
 3816              	.LASF13:
 3817 02fb 75696E74 		.ascii	"uint32_t\000"
 3817      33325F74 
 3817      00
 3818              	.LASF47:
 3819 0304 725F7175 		.ascii	"r_queue\000"
 3819      65756500 
 3820              	.LASF106:
 3821 030c 474E5520 		.ascii	"GNU C 4.6.3\000"
 3821      4320342E 
 3821      362E3300 
 3822              	.LASF8:
 3823 0318 6C6F6E67 		.ascii	"long unsigned int\000"
 3823      20756E73 
 3823      69676E65 
ARM GAS  /tmp/cc5btYHW.s 			page 71


 3823      6420696E 
 3823      7400
 3824              	.LASF53:
 3825 032a 725F6375 		.ascii	"r_current\000"
 3825      7272656E 
 3825      7400
 3826              	.LASF71:
 3827 0334 72656164 		.ascii	"read\000"
 3827      00
 3828              	.LASF9:
 3829 0339 63686172 		.ascii	"char\000"
 3829      00
 3830              	.LASF105:
 3831 033e 7368656C 		.ascii	"shell_terminated\000"
 3831      6C5F7465 
 3831      726D696E 
 3831      61746564 
 3831      00
 3832              	.LASF110:
 3833 034f 7368656C 		.ascii	"shellInit\000"
 3833      6C496E69 
 3833      7400
 3834              	.LASF58:
 3835 0359 6D5F6E65 		.ascii	"m_next\000"
 3835      787400
 3836              	.LASF21:
 3837 0360 73797374 		.ascii	"systime_t\000"
 3837      696D655F 
 3837      7400
 3838              	.LASF40:
 3839 036a 705F7265 		.ascii	"p_realprio\000"
 3839      616C7072 
 3839      696F00
 3840              	.LASF83:
 3841 0375 5368656C 		.ascii	"ShellConfig\000"
 3841      6C436F6E 
 3841      66696700 
 3842              	.LASF52:
 3843 0381 725F7072 		.ascii	"r_preempt\000"
 3843      65656D70 
 3843      7400
 3844              	.LASF30:
 3845 038b 705F6E61 		.ascii	"p_name\000"
 3845      6D6500
 3846              	.LASF46:
 3847 0392 636F6E74 		.ascii	"context\000"
 3847      65787400 
 3848              	.LASF37:
 3849 039a 705F6D73 		.ascii	"p_msg\000"
 3849      6700
 3850              	.LASF45:
 3851 03a0 696E7463 		.ascii	"intctx\000"
 3851      747800
 3852              	.LASF84:
 3853 03a7 75736167 		.ascii	"usage\000"
 3853      6500
 3854              	.LASF65:
ARM GAS  /tmp/cc5btYHW.s 			page 72


 3855 03ad 7264796D 		.ascii	"rdymsg\000"
 3855      736700
 3856              	.LASF64:
 3857 03b4 65735F6E 		.ascii	"es_next\000"
 3857      65787400 
 3858              	.LASF111:
 3859 03bc 7368656C 		.ascii	"shell_thread\000"
 3859      6C5F7468 
 3859      72656164 
 3859      00
 3860              	.LASF103:
 3861 03c9 726C6973 		.ascii	"rlist\000"
 3861      7400
 3862              	.LASF11:
 3863 03cf 75696E74 		.ascii	"uint8_t\000"
 3863      385F7400 
 3864              	.LASF76:
 3865 03d7 42617365 		.ascii	"BaseChannel\000"
 3865      4368616E 
 3865      6E656C00 
 3866              	.LASF79:
 3867 03e3 73635F66 		.ascii	"sc_function\000"
 3867      756E6374 
 3867      696F6E00 
 3868              	.LASF59:
 3869 03ef 4576656E 		.ascii	"EventListener\000"
 3869      744C6973 
 3869      74656E65 
 3869      7200
 3870              	.LASF67:
 3871 03fd 77746F62 		.ascii	"wtobjp\000"
 3871      6A7000
 3872              	.LASF86:
 3873 0404 61726763 		.ascii	"argc\000"
 3873      00
 3874              	.LASF88:
 3875 0409 6C697374 		.ascii	"list_commands\000"
 3875      5F636F6D 
 3875      6D616E64 
 3875      7300
 3876              	.LASF73:
 3877 0417 67657477 		.ascii	"getwouldblock\000"
 3877      6F756C64 
 3877      626C6F63 
 3877      6B00
 3878              	.LASF101:
 3879 0425 61726773 		.ascii	"args\000"
 3879      00
 3880              	.LASF87:
 3881 042a 61726776 		.ascii	"argv\000"
 3881      00
 3882              	.LASF57:
 3883 042f 6D5F6F77 		.ascii	"m_owner\000"
 3883      6E657200 
 3884              	.LASF27:
 3885 0437 705F6374 		.ascii	"p_ctx\000"
 3885      7800
ARM GAS  /tmp/cc5btYHW.s 			page 73


 3886              	.LASF35:
 3887 043d 705F7761 		.ascii	"p_waiting\000"
 3887      6974696E 
 3887      6700
 3888              		.ident	"GCC: (Sourcery CodeBench Lite 2012.03-56) 4.6.3"
ARM GAS  /tmp/cc5btYHW.s 			page 74


DEFINED SYMBOLS
                            *ABS*:00000000 shell.c
     /tmp/cc5btYHW.s:21     .text.cmd_info:00000000 $t
     /tmp/cc5btYHW.s:26     .text.cmd_info:00000000 cmd_info
     /tmp/cc5btYHW.s:817    .rodata.str1.4:00000000 .LC0
     /tmp/cc5btYHW.s:819    .rodata.str1.4:0000000c .LC1
     /tmp/cc5btYHW.s:822    .rodata.str1.4:00000014 .LC2
     /tmp/cc5btYHW.s:825    .rodata.str1.4:00000028 .LC3
     /tmp/cc5btYHW.s:82     .text._strtok.constprop.1:00000000 $t
     /tmp/cc5btYHW.s:87     .text._strtok.constprop.1:00000000 _strtok.constprop.1
     /tmp/cc5btYHW.s:802    .rodata:00000000 .LANCHOR0
     /tmp/cc5btYHW.s:156    .text.shellInit:00000000 $t
     /tmp/cc5btYHW.s:162    .text.shellInit:00000000 shellInit
     /tmp/cc5btYHW.s:858    .bss.shell_terminated:00000000 .LANCHOR1
     /tmp/cc5btYHW.s:179    .text.shellCreate:00000000 $t
     /tmp/cc5btYHW.s:185    .text.shellCreate:00000000 shellCreate
     /tmp/cc5btYHW.s:371    .text.shell_thread:00000000 shell_thread
     /tmp/cc5btYHW.s:214    .text.shellCreateStatic:00000000 $t
     /tmp/cc5btYHW.s:220    .text.shellCreateStatic:00000000 shellCreateStatic
     /tmp/cc5btYHW.s:254    .text.shellGetLine:00000000 $t
     /tmp/cc5btYHW.s:260    .text.shellGetLine:00000000 shellGetLine
     /tmp/cc5btYHW.s:366    .text.shell_thread:00000000 $t
     /tmp/cc5btYHW.s:807    .data.local_commands:00000000 .LANCHOR2
     /tmp/cc5btYHW.s:828    .rodata.str1.4:00000030 .LC5
     /tmp/cc5btYHW.s:834    .rodata.str1.4:00000044 .LC7
     /tmp/cc5btYHW.s:831    .rodata.str1.4:00000038 .LC6
     /tmp/cc5btYHW.s:837    .rodata.str1.4:0000005c .LC8
     /tmp/cc5btYHW.s:840    .rodata.str1.4:00000064 .LC9
     /tmp/cc5btYHW.s:843    .rodata.str1.4:0000006c .LC10
     /tmp/cc5btYHW.s:846    .rodata.str1.4:00000084 .LC11
     /tmp/cc5btYHW.s:848    .rodata.str1.4:00000088 .LC12
     /tmp/cc5btYHW.s:851    .rodata.str1.4:0000008c .LC13
     /tmp/cc5btYHW.s:854    .rodata.str1.4:00000090 .LC14
     /tmp/cc5btYHW.s:861    .bss.shell_terminated:00000000 shell_terminated
     /tmp/cc5btYHW.s:801    .rodata:00000000 $d
     /tmp/cc5btYHW.s:806    .data.local_commands:00000000 $d
     /tmp/cc5btYHW.s:810    .data.local_commands:00000000 local_commands
     /tmp/cc5btYHW.s:816    .rodata.str1.4:00000000 $d
     /tmp/cc5btYHW.s:857    .bss.shell_terminated:00000000 $d
                     .debug_frame:00000010 $d

UNDEFINED SYMBOLS
chprintf
strspn
strchr
chThdCreateFromHeap
chThdCreateStatic
rlist
chEvtBroadcastFlagsI
chThdExitS
strcasecmp
