ARM GAS  /tmp/cc4kahim.s 			page 1


   1              		.syntax unified
   2              		.cpu cortex-m4
   3              		.eabi_attribute 27, 3
   4              		.eabi_attribute 28, 1
   5              		.fpu fpv4-sp-d16
   6              		.eabi_attribute 20, 1
   7              		.eabi_attribute 21, 1
   8              		.eabi_attribute 23, 3
   9              		.eabi_attribute 24, 1
  10              		.eabi_attribute 25, 1
  11              		.eabi_attribute 26, 1
  12              		.eabi_attribute 30, 2
  13              		.eabi_attribute 34, 1
  14              		.eabi_attribute 18, 4
  15              		.thumb
  16              		.file	"Sonar.c"
  17              		.text
  18              	.Ltext0:
  19              		.cfi_sections	.debug_frame
  20              		.section	.text.icuWidthCB,"ax",%progbits
  21              		.align	2
  22              		.p2align 4,,15
  23              		.thumb
  24              		.thumb_func
  25              		.type	icuWidthCB, %function
  26              	icuWidthCB:
  27              	.LFB117:
  28              		.file 1 "./src/Sonar.c"
  29              		.loc 1 36 0
  30              		.cfi_startproc
  31              		@ args = 0, pretend = 0, frame = 0
  32              		@ frame_needed = 0, uses_anonymous_args = 0
  33              		@ link register save eliminated.
  34              	.LVL0:
  35              		.loc 1 39 0
  36 0000 C368     		ldr	r3, [r0, #12]
  37 0002 996B     		ldr	r1, [r3, #56]
  38 0004 4FF47A7C 		mov	ip, #1000
  39 0008 4EF22932 		movw	r2, #58153
  40 000c 01FB0CC3 		mla	r3, r1, ip, ip
  41 0010 C6F66322 		movt	r2, 27235
  42 0014 A2FB031C 		umull	r1, ip, r2, r3
  43 0018 CCEB0301 		rsb	r1, ip, r3
  44              		.loc 1 41 0
  45 001c 40F20003 		movw	r3, #:lower16:ICUD1
  46 0020 C0F20003 		movt	r3, #:upper16:ICUD1
  47              		.loc 1 39 0
  48 0024 0CEB5102 		add	r2, ip, r1, lsr #1
  49              		.loc 1 41 0
  50 0028 9842     		cmp	r0, r3
  51              		.loc 1 39 0
  52 002a C2F30F32 		ubfx	r2, r2, #12, #16
  53              	.LVL1:
  54              		.loc 1 41 0
  55 002e 17D0     		beq	.L7
  56              		.loc 1 43 0
  57 0030 40F20001 		movw	r1, #:lower16:ICUD3
ARM GAS  /tmp/cc4kahim.s 			page 2


  58 0034 C0F20001 		movt	r1, #:upper16:ICUD3
  59 0038 8842     		cmp	r0, r1
  60 003a 17D0     		beq	.L8
  61              		.loc 1 45 0
  62 003c 40F20003 		movw	r3, #:lower16:ICUD5
  63 0040 C0F20003 		movt	r3, #:upper16:ICUD5
  64 0044 9842     		cmp	r0, r3
  65 0046 18D0     		beq	.L9
  66              		.loc 1 47 0
  67 0048 40F20001 		movw	r1, #:lower16:ICUD8
  68 004c C0F20001 		movt	r1, #:upper16:ICUD8
  69 0050 8842     		cmp	r0, r1
  70              		.loc 1 48 0
  71 0052 02BF     		ittt	eq
  72 0054 40F20003 		movweq	r3, #:lower16:.LANCHOR0
  73 0058 C0F20003 		movteq	r3, #:upper16:.LANCHOR0
  74 005c DA80     		strheq	r2, [r3, #6]	@ movhi
  75 005e 7047     		bx	lr
  76              	.L7:
  77              		.loc 1 42 0
  78 0060 40F20000 		movw	r0, #:lower16:.LANCHOR0
  79              	.LVL2:
  80 0064 C0F20000 		movt	r0, #:upper16:.LANCHOR0
  81 0068 0280     		strh	r2, [r0, #0]	@ movhi
  82 006a 7047     		bx	lr
  83              	.LVL3:
  84              	.L8:
  85              		.loc 1 44 0
  86 006c 40F2000C 		movw	ip, #:lower16:.LANCHOR0
  87 0070 C0F2000C 		movt	ip, #:upper16:.LANCHOR0
  88 0074 ACF80220 		strh	r2, [ip, #2]	@ movhi
  89 0078 7047     		bx	lr
  90              	.L9:
  91              		.loc 1 46 0
  92 007a 40F20003 		movw	r3, #:lower16:.LANCHOR0
  93 007e C0F20003 		movt	r3, #:upper16:.LANCHOR0
  94 0082 9A80     		strh	r2, [r3, #4]	@ movhi
  95 0084 7047     		bx	lr
  96              		.cfi_endproc
  97              	.LFE117:
  98              		.size	icuWidthCB, .-icuWidthCB
  99 0086 00BFAFF3 		.section	.text.sonarThread,"ax",%progbits
  99      0080AFF3 
  99      0080
 100              		.align	2
 101              		.p2align 4,,15
 102              		.thumb
 103              		.thumb_func
 104              		.type	sonarThread, %function
 105              	sonarThread:
 106              	.LFB118:
 107              		.loc 1 53 0
 108              		.cfi_startproc
 109              		@ args = 0, pretend = 0, frame = 56
 110              		@ frame_needed = 0, uses_anonymous_args = 0
 111              	.LVL4:
 112 0000 30B5     		push	{r4, r5, lr}
ARM GAS  /tmp/cc4kahim.s 			page 3


 113              	.LCFI0:
 114              		.cfi_def_cfa_offset 12
 115              		.cfi_offset 14, -4
 116              		.cfi_offset 5, -8
 117              		.cfi_offset 4, -12
 118              		.loc 1 57 0
 119 0002 40F20003 		movw	r3, #:lower16:.LANCHOR1
 120 0006 C0F20003 		movt	r3, #:upper16:.LANCHOR1
 121 000a 0FCB     		ldmia	r3, {r0, r1, r2, r3}
 122              	.LVL5:
 123              		.loc 1 53 0
 124 000c 91B0     		sub	sp, sp, #68
 125              	.LCFI1:
 126              		.cfi_def_cfa_offset 80
 127              		.loc 1 57 0
 128 000e 0CAC     		add	r4, sp, #48
 129 0010 84E80F00 		stmia	r4, {r0, r1, r2, r3}
 130              		.loc 1 59 0
 131 0014 40F20000 		movw	r0, #:lower16:ICUD1
 132 0018 2146     		mov	r1, r4
 133 001a C0F20000 		movt	r0, #:upper16:ICUD1
 134 001e FFF7FEFF 		bl	icuStart
 135              		.loc 1 60 0
 136 0022 40F20000 		movw	r0, #:lower16:ICUD3
 137 0026 2146     		mov	r1, r4
 138 0028 C0F20000 		movt	r0, #:upper16:ICUD3
 139 002c FFF7FEFF 		bl	icuStart
 140              		.loc 1 61 0
 141 0030 40F20000 		movw	r0, #:lower16:ICUD5
 142 0034 2146     		mov	r1, r4
 143 0036 C0F20000 		movt	r0, #:upper16:ICUD5
 144 003a FFF7FEFF 		bl	icuStart
 145              		.loc 1 62 0
 146 003e 40F20000 		movw	r0, #:lower16:ICUD8
 147 0042 2146     		mov	r1, r4
 148 0044 C0F20000 		movt	r0, #:upper16:ICUD8
 149 0048 FFF7FEFF 		bl	icuStart
 150              		.loc 1 64 0
 151 004c 40F20000 		movw	r0, #:lower16:ICUD1
 152 0050 C0F20000 		movt	r0, #:upper16:ICUD1
 153 0054 FFF7FEFF 		bl	icuEnable
 154              		.loc 1 65 0
 155 0058 40F20000 		movw	r0, #:lower16:ICUD3
 156 005c C0F20000 		movt	r0, #:upper16:ICUD3
 157 0060 FFF7FEFF 		bl	icuEnable
 158              		.loc 1 66 0
 159 0064 40F20000 		movw	r0, #:lower16:ICUD5
 160 0068 C0F20000 		movt	r0, #:upper16:ICUD5
 161 006c FFF7FEFF 		bl	icuEnable
 162              		.loc 1 67 0
 163 0070 40F20000 		movw	r0, #:lower16:ICUD8
 164 0074 C0F20000 		movt	r0, #:upper16:ICUD8
 165 0078 FFF7FEFF 		bl	icuEnable
 166 007c 40F20004 		movw	r4, #:lower16:.LANCHOR0
 167 0080 C0F20004 		movt	r4, #:upper16:.LANCHOR0
 168              	.L11:
 169              		.loc 1 70 0 discriminator 1
ARM GAS  /tmp/cc4kahim.s 			page 4


 170 0084 A188     		ldrh	r1, [r4, #4]
 171 0086 2288     		ldrh	r2, [r4, #0]
 172 0088 6388     		ldrh	r3, [r4, #2]
 173 008a E588     		ldrh	r5, [r4, #6]
 174 008c 0091     		str	r1, [sp, #0]
 175 008e 40F20001 		movw	r1, #:lower16:.LC1
 176 0092 02A8     		add	r0, sp, #8
 177 0094 C0F20001 		movt	r1, #:upper16:.LC1
 178 0098 0195     		str	r5, [sp, #4]
 179 009a FFF7FEFF 		bl	chsprintf
 180              		.loc 1 73 0 discriminator 1
 181 009e 0022     		movs	r2, #0
 182              		.loc 1 77 0 discriminator 1
 183 00a0 40F20000 		movw	r0, #:lower16:outputBuffer
 184 00a4 02A9     		add	r1, sp, #8
 185              		.loc 1 73 0 discriminator 1
 186 00a6 2280     		strh	r2, [r4, #0]	@ movhi
 187              		.loc 1 74 0 discriminator 1
 188 00a8 6280     		strh	r2, [r4, #2]	@ movhi
 189              		.loc 1 75 0 discriminator 1
 190 00aa A280     		strh	r2, [r4, #4]	@ movhi
 191              		.loc 1 76 0 discriminator 1
 192 00ac E280     		strh	r2, [r4, #6]	@ movhi
 193              		.loc 1 77 0 discriminator 1
 194 00ae C0F20000 		movt	r0, #:upper16:outputBuffer
 195 00b2 FFF7FEFF 		bl	bufferPutString
 196              		.loc 1 78 0 discriminator 1
 197 00b6 6420     		movs	r0, #100
 198 00b8 FFF7FEFF 		bl	chThdSleep
 199 00bc E2E7     		b	.L11
 200              		.cfi_endproc
 201              	.LFE118:
 202              		.size	sonarThread, .-sonarThread
 203 00be 00BF     		.section	.text.startSonarThread,"ax",%progbits
 204              		.align	2
 205              		.p2align 4,,15
 206              		.global	startSonarThread
 207              		.thumb
 208              		.thumb_func
 209              		.type	startSonarThread, %function
 210              	startSonarThread:
 211              	.LFB119:
 212              		.loc 1 85 0
 213              		.cfi_startproc
 214              		@ args = 0, pretend = 0, frame = 0
 215              		@ frame_needed = 0, uses_anonymous_args = 0
 216 0000 10B5     		push	{r4, lr}
 217              	.LCFI2:
 218              		.cfi_def_cfa_offset 8
 219              		.cfi_offset 14, -4
 220              		.cfi_offset 4, -8
 221              		.loc 1 86 0
 222 0002 40F20000 		movw	r0, #:lower16:.LANCHOR2
 223              		.loc 1 85 0
 224 0006 82B0     		sub	sp, sp, #8
 225              	.LCFI3:
 226              		.cfi_def_cfa_offset 16
ARM GAS  /tmp/cc4kahim.s 			page 5


 227              		.loc 1 86 0
 228 0008 40F20003 		movw	r3, #:lower16:sonarThread
 229 000c 0024     		movs	r4, #0
 230 000e 4FF49661 		mov	r1, #1200
 231 0012 4022     		movs	r2, #64
 232 0014 C0F20003 		movt	r3, #:upper16:sonarThread
 233 0018 C0F20000 		movt	r0, #:upper16:.LANCHOR2
 234 001c 0094     		str	r4, [sp, #0]
 235 001e FFF7FEFF 		bl	chThdCreateStatic
 236              		.loc 1 88 0
 237 0022 02B0     		add	sp, sp, #8
 238 0024 10BD     		pop	{r4, pc}
 239              		.cfi_endproc
 240              	.LFE119:
 241              		.size	startSonarThread, .-startSonarThread
 242              		.global	sonar_data
 243 0026 00BFAFF3 		.section	.rodata
 243      0080AFF3 
 243      0080
 244              		.align	2
 245              		.set	.LANCHOR1,. + 0
 246              	.LC0:
 247 0000 00       		.byte	0
 248 0001 000000   		.space	3
 249 0004 40420F00 		.word	1000000
 250 0008 00000000 		.word	icuWidthCB
 251 000c 00000000 		.word	0
 252              		.section	.bss.sonar_data,"aw",%nobits
 253              		.align	2
 254              		.set	.LANCHOR0,. + 0
 255              		.type	sonar_data, %object
 256              		.size	sonar_data, 8
 257              	sonar_data:
 258 0000 00000000 		.space	8
 258      00000000 
 259              		.section	.rodata.str1.4,"aMS",%progbits,1
 260              		.align	2
 261              	.LC1:
 262 0000 5B534F4E 		.ascii	"[SONAR] N:%d,S:%d,W:%d,E:%d\000"
 262      41525D20 
 262      4E3A2564 
 262      2C533A25 
 262      642C573A 
 263              		.section	.bss.sonarWorkingArea,"aw",%nobits
 264              		.align	3
 265              		.set	.LANCHOR2,. + 0
 266              		.type	sonarWorkingArea, %object
 267              		.size	sonarWorkingArea, 1200
 268              	sonarWorkingArea:
 269 0000 00000000 		.space	1200
 269      00000000 
 269      00000000 
 269      00000000 
 269      00000000 
 270              		.text
 271              	.Letext0:
 272              		.file 2 "/opt/arm/bin/../lib/gcc/arm-none-eabi/4.6.3/../../../../arm-none-eabi/include/stdint.h"
ARM GAS  /tmp/cc4kahim.s 			page 6


 273              		.file 3 "/opt/ChibiOS/ChibiOS_2.4.4/os/ports/GCC/ARMCMx/chtypes.h"
 274              		.file 4 "/opt/ChibiOS/ChibiOS_2.4.4/os/kernel/include/chlists.h"
 275              		.file 5 "/opt/ChibiOS/ChibiOS_2.4.4/os/kernel/include/chthreads.h"
 276              		.file 6 "/opt/ChibiOS/ChibiOS_2.4.4/os/ports/GCC/ARMCMx/chcore_v7m.h"
 277              		.file 7 "/opt/ChibiOS/ChibiOS_2.4.4/os/kernel/include/chmtx.h"
 278              		.file 8 "/opt/ChibiOS/ChibiOS_2.4.4/os/hal/platforms/STM32/stm32.h"
 279              		.file 9 "/opt/ChibiOS/ChibiOS_2.4.4/os/hal/include/icu.h"
 280              		.file 10 "/opt/ChibiOS/ChibiOS_2.4.4/os/hal/platforms/STM32/icu_lld.h"
 281              		.file 11 "./include/CircularBuffer.h"
 282              		.file 12 "/opt/ChibiOS/ChibiOS_2.4.4/os/ports/common/ARMCMx/CMSIS/include/core_cm4.h"
 283              		.file 13 "./include/FirmwareSpykee.h"
 284              		.section	.debug_info,"",%progbits
 285              	.Ldebug_info0:
 286 0000 04090000 		.4byte	0x904
 287 0004 0200     		.2byte	0x2
 288 0006 00000000 		.4byte	.Ldebug_abbrev0
 289 000a 04       		.byte	0x4
 290 000b 01       		.uleb128 0x1
 291 000c CE030000 		.4byte	.LASF123
 292 0010 01       		.byte	0x1
 293 0011 63040000 		.4byte	.LASF124
 294 0015 A5000000 		.4byte	.LASF125
 295 0019 00000000 		.4byte	0
 296 001d 00000000 		.4byte	0
 297 0021 00000000 		.4byte	.Ldebug_ranges0+0
 298 0025 00000000 		.4byte	.Ldebug_line0
 299 0029 02       		.uleb128 0x2
 300 002a 04       		.byte	0x4
 301 002b 05       		.byte	0x5
 302 002c 696E7400 		.ascii	"int\000"
 303 0030 03       		.uleb128 0x3
 304 0031 04       		.byte	0x4
 305 0032 07       		.byte	0x7
 306 0033 E7010000 		.4byte	.LASF0
 307 0037 03       		.uleb128 0x3
 308 0038 01       		.byte	0x1
 309 0039 06       		.byte	0x6
 310 003a 4D010000 		.4byte	.LASF1
 311 003e 04       		.uleb128 0x4
 312 003f 7C040000 		.4byte	.LASF4
 313 0043 02       		.byte	0x2
 314 0044 2A       		.byte	0x2a
 315 0045 49000000 		.4byte	0x49
 316 0049 03       		.uleb128 0x3
 317 004a 01       		.byte	0x1
 318 004b 08       		.byte	0x8
 319 004c 1F030000 		.4byte	.LASF2
 320 0050 03       		.uleb128 0x3
 321 0051 02       		.byte	0x2
 322 0052 05       		.byte	0x5
 323 0053 5A030000 		.4byte	.LASF3
 324 0057 04       		.uleb128 0x4
 325 0058 B0010000 		.4byte	.LASF5
 326 005c 02       		.byte	0x2
 327 005d 36       		.byte	0x36
 328 005e 62000000 		.4byte	0x62
 329 0062 03       		.uleb128 0x3
ARM GAS  /tmp/cc4kahim.s 			page 7


 330 0063 02       		.byte	0x2
 331 0064 07       		.byte	0x7
 332 0065 8B030000 		.4byte	.LASF6
 333 0069 04       		.uleb128 0x4
 334 006a 17030000 		.4byte	.LASF7
 335 006e 02       		.byte	0x2
 336 006f 4F       		.byte	0x4f
 337 0070 74000000 		.4byte	0x74
 338 0074 03       		.uleb128 0x3
 339 0075 04       		.byte	0x4
 340 0076 05       		.byte	0x5
 341 0077 7E010000 		.4byte	.LASF8
 342 007b 04       		.uleb128 0x4
 343 007c 53040000 		.4byte	.LASF9
 344 0080 02       		.byte	0x2
 345 0081 50       		.byte	0x50
 346 0082 86000000 		.4byte	0x86
 347 0086 03       		.uleb128 0x3
 348 0087 04       		.byte	0x4
 349 0088 07       		.byte	0x7
 350 0089 E2030000 		.4byte	.LASF10
 351 008d 03       		.uleb128 0x3
 352 008e 08       		.byte	0x8
 353 008f 05       		.byte	0x5
 354 0090 3F010000 		.4byte	.LASF11
 355 0094 04       		.uleb128 0x4
 356 0095 40000000 		.4byte	.LASF12
 357 0099 02       		.byte	0x2
 358 009a 78       		.byte	0x78
 359 009b 9F000000 		.4byte	0x9f
 360 009f 03       		.uleb128 0x3
 361 00a0 08       		.byte	0x8
 362 00a1 07       		.byte	0x7
 363 00a2 F0000000 		.4byte	.LASF13
 364 00a6 04       		.uleb128 0x4
 365 00a7 99040000 		.4byte	.LASF14
 366 00ab 03       		.byte	0x3
 367 00ac 2F       		.byte	0x2f
 368 00ad 3E000000 		.4byte	0x3e
 369 00b1 04       		.uleb128 0x4
 370 00b2 9C010000 		.4byte	.LASF15
 371 00b6 03       		.byte	0x3
 372 00b7 30       		.byte	0x30
 373 00b8 3E000000 		.4byte	0x3e
 374 00bc 04       		.uleb128 0x4
 375 00bd E9020000 		.4byte	.LASF16
 376 00c1 03       		.byte	0x3
 377 00c2 31       		.byte	0x31
 378 00c3 3E000000 		.4byte	0x3e
 379 00c7 04       		.uleb128 0x4
 380 00c8 F8020000 		.4byte	.LASF17
 381 00cc 03       		.byte	0x3
 382 00cd 32       		.byte	0x32
 383 00ce 7B000000 		.4byte	0x7b
 384 00d2 04       		.uleb128 0x4
 385 00d3 2E020000 		.4byte	.LASF18
 386 00d7 03       		.byte	0x3
ARM GAS  /tmp/cc4kahim.s 			page 8


 387 00d8 33       		.byte	0x33
 388 00d9 69000000 		.4byte	0x69
 389 00dd 04       		.uleb128 0x4
 390 00de 56020000 		.4byte	.LASF19
 391 00e2 03       		.byte	0x3
 392 00e3 35       		.byte	0x35
 393 00e4 7B000000 		.4byte	0x7b
 394 00e8 04       		.uleb128 0x4
 395 00e9 16040000 		.4byte	.LASF20
 396 00ed 03       		.byte	0x3
 397 00ee 36       		.byte	0x36
 398 00ef 7B000000 		.4byte	0x7b
 399 00f3 04       		.uleb128 0x4
 400 00f4 9E030000 		.4byte	.LASF21
 401 00f8 04       		.byte	0x4
 402 00f9 2A       		.byte	0x2a
 403 00fa FE000000 		.4byte	0xfe
 404 00fe 05       		.uleb128 0x5
 405 00ff 9E030000 		.4byte	.LASF21
 406 0103 48       		.byte	0x48
 407 0104 05       		.byte	0x5
 408 0105 5E       		.byte	0x5e
 409 0106 15020000 		.4byte	0x215
 410 010a 06       		.uleb128 0x6
 411 010b 7C030000 		.4byte	.LASF22
 412 010f 05       		.byte	0x5
 413 0110 5F       		.byte	0x5f
 414 0111 3A020000 		.4byte	0x23a
 415 0115 02       		.byte	0x2
 416 0116 23       		.byte	0x23
 417 0117 00       		.uleb128 0
 418 0118 06       		.uleb128 0x6
 419 0119 F1020000 		.4byte	.LASF23
 420 011d 05       		.byte	0x5
 421 011e 61       		.byte	0x61
 422 011f 3A020000 		.4byte	0x23a
 423 0123 02       		.byte	0x2
 424 0124 23       		.byte	0x23
 425 0125 04       		.uleb128 0x4
 426 0126 06       		.uleb128 0x6
 427 0127 2C010000 		.4byte	.LASF24
 428 012b 05       		.byte	0x5
 429 012c 63       		.byte	0x63
 430 012d C7000000 		.4byte	0xc7
 431 0131 02       		.byte	0x2
 432 0132 23       		.byte	0x23
 433 0133 08       		.uleb128 0x8
 434 0134 06       		.uleb128 0x6
 435 0135 C4040000 		.4byte	.LASF25
 436 0139 05       		.byte	0x5
 437 013a 64       		.byte	0x64
 438 013b 12030000 		.4byte	0x312
 439 013f 02       		.byte	0x2
 440 0140 23       		.byte	0x23
 441 0141 0C       		.uleb128 0xc
 442 0142 06       		.uleb128 0x6
 443 0143 B9010000 		.4byte	.LASF26
ARM GAS  /tmp/cc4kahim.s 			page 9


 444 0147 05       		.byte	0x5
 445 0148 66       		.byte	0x66
 446 0149 3A020000 		.4byte	0x23a
 447 014d 02       		.byte	0x2
 448 014e 23       		.byte	0x23
 449 014f 10       		.uleb128 0x10
 450 0150 06       		.uleb128 0x6
 451 0151 A5020000 		.4byte	.LASF27
 452 0155 05       		.byte	0x5
 453 0156 67       		.byte	0x67
 454 0157 3A020000 		.4byte	0x23a
 455 015b 02       		.byte	0x2
 456 015c 23       		.byte	0x23
 457 015d 14       		.uleb128 0x14
 458 015e 06       		.uleb128 0x6
 459 015f 8B040000 		.4byte	.LASF28
 460 0163 05       		.byte	0x5
 461 0164 6E       		.byte	0x6e
 462 0165 BC030000 		.4byte	0x3bc
 463 0169 02       		.byte	0x2
 464 016a 23       		.byte	0x23
 465 016b 18       		.uleb128 0x18
 466 016c 06       		.uleb128 0x6
 467 016d 64030000 		.4byte	.LASF29
 468 0171 05       		.byte	0x5
 469 0172 79       		.byte	0x79
 470 0173 B1000000 		.4byte	0xb1
 471 0177 02       		.byte	0x2
 472 0178 23       		.byte	0x23
 473 0179 1C       		.uleb128 0x1c
 474 017a 06       		.uleb128 0x6
 475 017b 83030000 		.4byte	.LASF30
 476 017f 05       		.byte	0x5
 477 0180 7D       		.byte	0x7d
 478 0181 A6000000 		.4byte	0xa6
 479 0185 02       		.byte	0x2
 480 0186 23       		.byte	0x23
 481 0187 1D       		.uleb128 0x1d
 482 0188 06       		.uleb128 0x6
 483 0189 5C040000 		.4byte	.LASF31
 484 018d 05       		.byte	0x5
 485 018e 82       		.byte	0x82
 486 018f BC000000 		.4byte	0xbc
 487 0193 02       		.byte	0x2
 488 0194 23       		.byte	0x23
 489 0195 1E       		.uleb128 0x1e
 490 0196 06       		.uleb128 0x6
 491 0197 2C000000 		.4byte	.LASF32
 492 019b 05       		.byte	0x5
 493 019c 89       		.byte	0x89
 494 019d 3A030000 		.4byte	0x33a
 495 01a1 02       		.byte	0x2
 496 01a2 23       		.byte	0x23
 497 01a3 20       		.uleb128 0x20
 498 01a4 07       		.uleb128 0x7
 499 01a5 705F7500 		.ascii	"p_u\000"
 500 01a9 05       		.byte	0x5
ARM GAS  /tmp/cc4kahim.s 			page 10


 501 01aa AE       		.byte	0xae
 502 01ab 87030000 		.4byte	0x387
 503 01af 02       		.byte	0x2
 504 01b0 23       		.byte	0x23
 505 01b1 24       		.uleb128 0x24
 506 01b2 06       		.uleb128 0x6
 507 01b3 CA040000 		.4byte	.LASF33
 508 01b7 05       		.byte	0x5
 509 01b8 B3       		.byte	0xb3
 510 01b9 62020000 		.4byte	0x262
 511 01bd 02       		.byte	0x2
 512 01be 23       		.byte	0x23
 513 01bf 28       		.uleb128 0x28
 514 01c0 06       		.uleb128 0x6
 515 01c1 00020000 		.4byte	.LASF34
 516 01c5 05       		.byte	0x5
 517 01c6 B9       		.byte	0xb9
 518 01c7 40020000 		.4byte	0x240
 519 01cb 02       		.byte	0x2
 520 01cc 23       		.byte	0x23
 521 01cd 2C       		.uleb128 0x2c
 522 01ce 06       		.uleb128 0x6
 523 01cf A7040000 		.4byte	.LASF35
 524 01d3 05       		.byte	0x5
 525 01d4 BD       		.byte	0xbd
 526 01d5 D2000000 		.4byte	0xd2
 527 01d9 02       		.byte	0x2
 528 01da 23       		.byte	0x23
 529 01db 34       		.uleb128 0x34
 530 01dc 06       		.uleb128 0x6
 531 01dd B6030000 		.4byte	.LASF36
 532 01e1 05       		.byte	0x5
 533 01e2 C3       		.byte	0xc3
 534 01e3 DD000000 		.4byte	0xdd
 535 01e7 02       		.byte	0x2
 536 01e8 23       		.byte	0x23
 537 01e9 38       		.uleb128 0x38
 538 01ea 06       		.uleb128 0x6
 539 01eb 50030000 		.4byte	.LASF37
 540 01ef 05       		.byte	0x5
 541 01f0 CA       		.byte	0xca
 542 01f1 CE030000 		.4byte	0x3ce
 543 01f5 02       		.byte	0x2
 544 01f6 23       		.byte	0x23
 545 01f7 3C       		.uleb128 0x3c
 546 01f8 06       		.uleb128 0x6
 547 01f9 20040000 		.4byte	.LASF38
 548 01fd 05       		.byte	0x5
 549 01fe CE       		.byte	0xce
 550 01ff C7000000 		.4byte	0xc7
 551 0203 02       		.byte	0x2
 552 0204 23       		.byte	0x23
 553 0205 40       		.uleb128 0x40
 554 0206 06       		.uleb128 0x6
 555 0207 CB010000 		.4byte	.LASF39
 556 020b 05       		.byte	0x5
 557 020c D4       		.byte	0xd4
ARM GAS  /tmp/cc4kahim.s 			page 11


 558 020d 78020000 		.4byte	0x278
 559 0211 02       		.byte	0x2
 560 0212 23       		.byte	0x23
 561 0213 44       		.uleb128 0x44
 562 0214 00       		.byte	0
 563 0215 08       		.uleb128 0x8
 564 0216 08       		.byte	0x8
 565 0217 04       		.byte	0x4
 566 0218 61       		.byte	0x61
 567 0219 3A020000 		.4byte	0x23a
 568 021d 06       		.uleb128 0x6
 569 021e 7C030000 		.4byte	.LASF22
 570 0222 04       		.byte	0x4
 571 0223 62       		.byte	0x62
 572 0224 3A020000 		.4byte	0x23a
 573 0228 02       		.byte	0x2
 574 0229 23       		.byte	0x23
 575 022a 00       		.uleb128 0
 576 022b 06       		.uleb128 0x6
 577 022c F1020000 		.4byte	.LASF23
 578 0230 04       		.byte	0x4
 579 0231 64       		.byte	0x64
 580 0232 3A020000 		.4byte	0x23a
 581 0236 02       		.byte	0x2
 582 0237 23       		.byte	0x23
 583 0238 04       		.uleb128 0x4
 584 0239 00       		.byte	0
 585 023a 09       		.uleb128 0x9
 586 023b 04       		.byte	0x4
 587 023c F3000000 		.4byte	0xf3
 588 0240 04       		.uleb128 0x4
 589 0241 AD020000 		.4byte	.LASF40
 590 0245 04       		.byte	0x4
 591 0246 66       		.byte	0x66
 592 0247 15020000 		.4byte	0x215
 593 024b 08       		.uleb128 0x8
 594 024c 04       		.byte	0x4
 595 024d 04       		.byte	0x4
 596 024e 6B       		.byte	0x6b
 597 024f 62020000 		.4byte	0x262
 598 0253 06       		.uleb128 0x6
 599 0254 7C030000 		.4byte	.LASF22
 600 0258 04       		.byte	0x4
 601 0259 6D       		.byte	0x6d
 602 025a 3A020000 		.4byte	0x23a
 603 025e 02       		.byte	0x2
 604 025f 23       		.byte	0x23
 605 0260 00       		.uleb128 0
 606 0261 00       		.byte	0
 607 0262 04       		.uleb128 0x4
 608 0263 4A020000 		.4byte	.LASF41
 609 0267 04       		.byte	0x4
 610 0268 70       		.byte	0x70
 611 0269 4B020000 		.4byte	0x24b
 612 026d 04       		.uleb128 0x4
 613 026e D3010000 		.4byte	.LASF42
 614 0272 06       		.byte	0x6
ARM GAS  /tmp/cc4kahim.s 			page 12


 615 0273 D7       		.byte	0xd7
 616 0274 78020000 		.4byte	0x278
 617 0278 0A       		.uleb128 0xa
 618 0279 04       		.byte	0x4
 619 027a 04       		.uleb128 0x4
 620 027b 78020000 		.4byte	.LASF43
 621 027f 06       		.byte	0x6
 622 0280 DD       		.byte	0xdd
 623 0281 94000000 		.4byte	0x94
 624 0285 05       		.uleb128 0x5
 625 0286 3D040000 		.4byte	.LASF44
 626 028a 24       		.byte	0x24
 627 028b 06       		.byte	0x6
 628 028c FE       		.byte	0xfe
 629 028d 12030000 		.4byte	0x312
 630 0291 0B       		.uleb128 0xb
 631 0292 723400   		.ascii	"r4\000"
 632 0295 06       		.byte	0x6
 633 0296 1101     		.2byte	0x111
 634 0298 6D020000 		.4byte	0x26d
 635 029c 02       		.byte	0x2
 636 029d 23       		.byte	0x23
 637 029e 00       		.uleb128 0
 638 029f 0B       		.uleb128 0xb
 639 02a0 723500   		.ascii	"r5\000"
 640 02a3 06       		.byte	0x6
 641 02a4 1201     		.2byte	0x112
 642 02a6 6D020000 		.4byte	0x26d
 643 02aa 02       		.byte	0x2
 644 02ab 23       		.byte	0x23
 645 02ac 04       		.uleb128 0x4
 646 02ad 0B       		.uleb128 0xb
 647 02ae 723600   		.ascii	"r6\000"
 648 02b1 06       		.byte	0x6
 649 02b2 1301     		.2byte	0x113
 650 02b4 6D020000 		.4byte	0x26d
 651 02b8 02       		.byte	0x2
 652 02b9 23       		.byte	0x23
 653 02ba 08       		.uleb128 0x8
 654 02bb 0B       		.uleb128 0xb
 655 02bc 723700   		.ascii	"r7\000"
 656 02bf 06       		.byte	0x6
 657 02c0 1401     		.2byte	0x114
 658 02c2 6D020000 		.4byte	0x26d
 659 02c6 02       		.byte	0x2
 660 02c7 23       		.byte	0x23
 661 02c8 0C       		.uleb128 0xc
 662 02c9 0B       		.uleb128 0xb
 663 02ca 723800   		.ascii	"r8\000"
 664 02cd 06       		.byte	0x6
 665 02ce 1501     		.2byte	0x115
 666 02d0 6D020000 		.4byte	0x26d
 667 02d4 02       		.byte	0x2
 668 02d5 23       		.byte	0x23
 669 02d6 10       		.uleb128 0x10
 670 02d7 0B       		.uleb128 0xb
 671 02d8 723900   		.ascii	"r9\000"
ARM GAS  /tmp/cc4kahim.s 			page 13


 672 02db 06       		.byte	0x6
 673 02dc 1601     		.2byte	0x116
 674 02de 6D020000 		.4byte	0x26d
 675 02e2 02       		.byte	0x2
 676 02e3 23       		.byte	0x23
 677 02e4 14       		.uleb128 0x14
 678 02e5 0B       		.uleb128 0xb
 679 02e6 72313000 		.ascii	"r10\000"
 680 02ea 06       		.byte	0x6
 681 02eb 1701     		.2byte	0x117
 682 02ed 6D020000 		.4byte	0x26d
 683 02f1 02       		.byte	0x2
 684 02f2 23       		.byte	0x23
 685 02f3 18       		.uleb128 0x18
 686 02f4 0B       		.uleb128 0xb
 687 02f5 72313100 		.ascii	"r11\000"
 688 02f9 06       		.byte	0x6
 689 02fa 1801     		.2byte	0x118
 690 02fc 6D020000 		.4byte	0x26d
 691 0300 02       		.byte	0x2
 692 0301 23       		.byte	0x23
 693 0302 1C       		.uleb128 0x1c
 694 0303 0B       		.uleb128 0xb
 695 0304 6C7200   		.ascii	"lr\000"
 696 0307 06       		.byte	0x6
 697 0308 1901     		.2byte	0x119
 698 030a 6D020000 		.4byte	0x26d
 699 030e 02       		.byte	0x2
 700 030f 23       		.byte	0x23
 701 0310 20       		.uleb128 0x20
 702 0311 00       		.byte	0
 703 0312 0C       		.uleb128 0xc
 704 0313 2B040000 		.4byte	.LASF45
 705 0317 04       		.byte	0x4
 706 0318 06       		.byte	0x6
 707 0319 2301     		.2byte	0x123
 708 031b 2F030000 		.4byte	0x32f
 709 031f 0B       		.uleb128 0xb
 710 0320 72313300 		.ascii	"r13\000"
 711 0324 06       		.byte	0x6
 712 0325 2401     		.2byte	0x124
 713 0327 2F030000 		.4byte	0x32f
 714 032b 02       		.byte	0x2
 715 032c 23       		.byte	0x23
 716 032d 00       		.uleb128 0
 717 032e 00       		.byte	0
 718 032f 09       		.uleb128 0x9
 719 0330 04       		.byte	0x4
 720 0331 85020000 		.4byte	0x285
 721 0335 0D       		.uleb128 0xd
 722 0336 7B000000 		.4byte	0x7b
 723 033a 0D       		.uleb128 0xd
 724 033b E8000000 		.4byte	0xe8
 725 033f 05       		.uleb128 0x5
 726 0340 96020000 		.4byte	.LASF46
 727 0344 10       		.byte	0x10
 728 0345 07       		.byte	0x7
ARM GAS  /tmp/cc4kahim.s 			page 14


 729 0346 2C       		.byte	0x2c
 730 0347 76030000 		.4byte	0x376
 731 034b 06       		.uleb128 0x6
 732 034c 59010000 		.4byte	.LASF47
 733 0350 07       		.byte	0x7
 734 0351 2D       		.byte	0x2d
 735 0352 40020000 		.4byte	0x240
 736 0356 02       		.byte	0x2
 737 0357 23       		.byte	0x23
 738 0358 00       		.uleb128 0
 739 0359 06       		.uleb128 0x6
 740 035a BC040000 		.4byte	.LASF48
 741 035e 07       		.byte	0x7
 742 035f 2F       		.byte	0x2f
 743 0360 3A020000 		.4byte	0x23a
 744 0364 02       		.byte	0x2
 745 0365 23       		.byte	0x23
 746 0366 08       		.uleb128 0x8
 747 0367 06       		.uleb128 0x6
 748 0368 0F040000 		.4byte	.LASF49
 749 036c 07       		.byte	0x7
 750 036d 31       		.byte	0x31
 751 036e 76030000 		.4byte	0x376
 752 0372 02       		.byte	0x2
 753 0373 23       		.byte	0x23
 754 0374 0C       		.uleb128 0xc
 755 0375 00       		.byte	0
 756 0376 09       		.uleb128 0x9
 757 0377 04       		.byte	0x4
 758 0378 3F030000 		.4byte	0x33f
 759 037c 04       		.uleb128 0x4
 760 037d 96020000 		.4byte	.LASF46
 761 0381 07       		.byte	0x7
 762 0382 33       		.byte	0x33
 763 0383 3F030000 		.4byte	0x33f
 764 0387 0E       		.uleb128 0xe
 765 0388 04       		.byte	0x4
 766 0389 05       		.byte	0x5
 767 038a 90       		.byte	0x90
 768 038b BC030000 		.4byte	0x3bc
 769 038f 0F       		.uleb128 0xf
 770 0390 33000000 		.4byte	.LASF50
 771 0394 05       		.byte	0x5
 772 0395 97       		.byte	0x97
 773 0396 D2000000 		.4byte	0xd2
 774 039a 0F       		.uleb128 0xf
 775 039b 07010000 		.4byte	.LASF51
 776 039f 05       		.byte	0x5
 777 03a0 9E       		.byte	0x9e
 778 03a1 D2000000 		.4byte	0xd2
 779 03a5 0F       		.uleb128 0xf
 780 03a6 84040000 		.4byte	.LASF52
 781 03aa 05       		.byte	0x5
 782 03ab A5       		.byte	0xa5
 783 03ac 78020000 		.4byte	0x278
 784 03b0 0F       		.uleb128 0xf
 785 03b1 75030000 		.4byte	.LASF53
ARM GAS  /tmp/cc4kahim.s 			page 15


 786 03b5 05       		.byte	0x5
 787 03b6 AC       		.byte	0xac
 788 03b7 DD000000 		.4byte	0xdd
 789 03bb 00       		.byte	0
 790 03bc 09       		.uleb128 0x9
 791 03bd 04       		.byte	0x4
 792 03be C2030000 		.4byte	0x3c2
 793 03c2 10       		.uleb128 0x10
 794 03c3 C7030000 		.4byte	0x3c7
 795 03c7 03       		.uleb128 0x3
 796 03c8 01       		.byte	0x1
 797 03c9 08       		.byte	0x8
 798 03ca F4030000 		.4byte	.LASF54
 799 03ce 09       		.uleb128 0x9
 800 03cf 04       		.byte	0x4
 801 03d0 7C030000 		.4byte	0x37c
 802 03d4 11       		.uleb128 0x11
 803 03d5 7B000000 		.4byte	0x7b
 804 03d9 E4030000 		.4byte	0x3e4
 805 03dd 12       		.uleb128 0x12
 806 03de 30000000 		.4byte	0x30
 807 03e2 03       		.byte	0x3
 808 03e3 00       		.byte	0
 809 03e4 0D       		.uleb128 0xd
 810 03e5 57000000 		.4byte	0x57
 811 03e9 0D       		.uleb128 0xd
 812 03ea 69000000 		.4byte	0x69
 813 03ee 08       		.uleb128 0x8
 814 03ef 54       		.byte	0x54
 815 03f0 08       		.byte	0x8
 816 03f1 72       		.byte	0x72
 817 03f2 C3050000 		.4byte	0x5c3
 818 03f6 07       		.uleb128 0x7
 819 03f7 43523100 		.ascii	"CR1\000"
 820 03fb 08       		.byte	0x8
 821 03fc 73       		.byte	0x73
 822 03fd E4030000 		.4byte	0x3e4
 823 0401 02       		.byte	0x2
 824 0402 23       		.byte	0x23
 825 0403 00       		.uleb128 0
 826 0404 06       		.uleb128 0x6
 827 0405 49000000 		.4byte	.LASF55
 828 0409 08       		.byte	0x8
 829 040a 74       		.byte	0x74
 830 040b 57000000 		.4byte	0x57
 831 040f 02       		.byte	0x2
 832 0410 23       		.byte	0x23
 833 0411 02       		.uleb128 0x2
 834 0412 07       		.uleb128 0x7
 835 0413 43523200 		.ascii	"CR2\000"
 836 0417 08       		.byte	0x8
 837 0418 75       		.byte	0x75
 838 0419 E4030000 		.4byte	0x3e4
 839 041d 02       		.byte	0x2
 840 041e 23       		.byte	0x23
 841 041f 04       		.uleb128 0x4
 842 0420 06       		.uleb128 0x6
ARM GAS  /tmp/cc4kahim.s 			page 16


 843 0421 51000000 		.4byte	.LASF56
 844 0425 08       		.byte	0x8
 845 0426 76       		.byte	0x76
 846 0427 57000000 		.4byte	0x57
 847 042b 02       		.byte	0x2
 848 042c 23       		.byte	0x23
 849 042d 06       		.uleb128 0x6
 850 042e 06       		.uleb128 0x6
 851 042f 29020000 		.4byte	.LASF57
 852 0433 08       		.byte	0x8
 853 0434 77       		.byte	0x77
 854 0435 E4030000 		.4byte	0x3e4
 855 0439 02       		.byte	0x2
 856 043a 23       		.byte	0x23
 857 043b 08       		.uleb128 0x8
 858 043c 06       		.uleb128 0x6
 859 043d DA030000 		.4byte	.LASF58
 860 0441 08       		.byte	0x8
 861 0442 78       		.byte	0x78
 862 0443 57000000 		.4byte	0x57
 863 0447 02       		.byte	0x2
 864 0448 23       		.byte	0x23
 865 0449 0A       		.uleb128 0xa
 866 044a 06       		.uleb128 0x6
 867 044b 27000000 		.4byte	.LASF59
 868 044f 08       		.byte	0x8
 869 0450 79       		.byte	0x79
 870 0451 E4030000 		.4byte	0x3e4
 871 0455 02       		.byte	0x2
 872 0456 23       		.byte	0x23
 873 0457 0C       		.uleb128 0xc
 874 0458 06       		.uleb128 0x6
 875 0459 64000000 		.4byte	.LASF60
 876 045d 08       		.byte	0x8
 877 045e 7A       		.byte	0x7a
 878 045f 57000000 		.4byte	0x57
 879 0463 02       		.byte	0x2
 880 0464 23       		.byte	0x23
 881 0465 0E       		.uleb128 0xe
 882 0466 07       		.uleb128 0x7
 883 0467 535200   		.ascii	"SR\000"
 884 046a 08       		.byte	0x8
 885 046b 7B       		.byte	0x7b
 886 046c E4030000 		.4byte	0x3e4
 887 0470 02       		.byte	0x2
 888 0471 23       		.byte	0x23
 889 0472 10       		.uleb128 0x10
 890 0473 06       		.uleb128 0x6
 891 0474 6C000000 		.4byte	.LASF61
 892 0478 08       		.byte	0x8
 893 0479 7C       		.byte	0x7c
 894 047a 57000000 		.4byte	0x57
 895 047e 02       		.byte	0x2
 896 047f 23       		.byte	0x23
 897 0480 12       		.uleb128 0x12
 898 0481 07       		.uleb128 0x7
 899 0482 45475200 		.ascii	"EGR\000"
ARM GAS  /tmp/cc4kahim.s 			page 17


 900 0486 08       		.byte	0x8
 901 0487 7D       		.byte	0x7d
 902 0488 E4030000 		.4byte	0x3e4
 903 048c 02       		.byte	0x2
 904 048d 23       		.byte	0x23
 905 048e 14       		.uleb128 0x14
 906 048f 06       		.uleb128 0x6
 907 0490 74000000 		.4byte	.LASF62
 908 0494 08       		.byte	0x8
 909 0495 7E       		.byte	0x7e
 910 0496 57000000 		.4byte	0x57
 911 049a 02       		.byte	0x2
 912 049b 23       		.byte	0x23
 913 049c 16       		.uleb128 0x16
 914 049d 06       		.uleb128 0x6
 915 049e 33010000 		.4byte	.LASF63
 916 04a2 08       		.byte	0x8
 917 04a3 7F       		.byte	0x7f
 918 04a4 E4030000 		.4byte	0x3e4
 919 04a8 02       		.byte	0x2
 920 04a9 23       		.byte	0x23
 921 04aa 18       		.uleb128 0x18
 922 04ab 06       		.uleb128 0x6
 923 04ac 7C000000 		.4byte	.LASF64
 924 04b0 08       		.byte	0x8
 925 04b1 80       		.byte	0x80
 926 04b2 57000000 		.4byte	0x57
 927 04b6 02       		.byte	0x2
 928 04b7 23       		.byte	0x23
 929 04b8 1A       		.uleb128 0x1a
 930 04b9 06       		.uleb128 0x6
 931 04ba 39010000 		.4byte	.LASF65
 932 04be 08       		.byte	0x8
 933 04bf 81       		.byte	0x81
 934 04c0 E4030000 		.4byte	0x3e4
 935 04c4 02       		.byte	0x2
 936 04c5 23       		.byte	0x23
 937 04c6 1C       		.uleb128 0x1c
 938 04c7 06       		.uleb128 0x6
 939 04c8 84000000 		.4byte	.LASF66
 940 04cc 08       		.byte	0x8
 941 04cd 82       		.byte	0x82
 942 04ce 57000000 		.4byte	0x57
 943 04d2 02       		.byte	0x2
 944 04d3 23       		.byte	0x23
 945 04d4 1E       		.uleb128 0x1e
 946 04d5 06       		.uleb128 0x6
 947 04d6 A5010000 		.4byte	.LASF67
 948 04da 08       		.byte	0x8
 949 04db 83       		.byte	0x83
 950 04dc E4030000 		.4byte	0x3e4
 951 04e0 02       		.byte	0x2
 952 04e1 23       		.byte	0x23
 953 04e2 20       		.uleb128 0x20
 954 04e3 06       		.uleb128 0x6
 955 04e4 8C000000 		.4byte	.LASF68
 956 04e8 08       		.byte	0x8
ARM GAS  /tmp/cc4kahim.s 			page 18


 957 04e9 84       		.byte	0x84
 958 04ea 57000000 		.4byte	0x57
 959 04ee 02       		.byte	0x2
 960 04ef 23       		.byte	0x23
 961 04f0 22       		.uleb128 0x22
 962 04f1 07       		.uleb128 0x7
 963 04f2 434E5400 		.ascii	"CNT\000"
 964 04f6 08       		.byte	0x8
 965 04f7 85       		.byte	0x85
 966 04f8 35030000 		.4byte	0x335
 967 04fc 02       		.byte	0x2
 968 04fd 23       		.byte	0x23
 969 04fe 24       		.uleb128 0x24
 970 04ff 07       		.uleb128 0x7
 971 0500 50534300 		.ascii	"PSC\000"
 972 0504 08       		.byte	0x8
 973 0505 86       		.byte	0x86
 974 0506 E4030000 		.4byte	0x3e4
 975 050a 02       		.byte	0x2
 976 050b 23       		.byte	0x23
 977 050c 28       		.uleb128 0x28
 978 050d 06       		.uleb128 0x6
 979 050e 94000000 		.4byte	.LASF69
 980 0512 08       		.byte	0x8
 981 0513 87       		.byte	0x87
 982 0514 57000000 		.4byte	0x57
 983 0518 02       		.byte	0x2
 984 0519 23       		.byte	0x23
 985 051a 2A       		.uleb128 0x2a
 986 051b 07       		.uleb128 0x7
 987 051c 41525200 		.ascii	"ARR\000"
 988 0520 08       		.byte	0x8
 989 0521 88       		.byte	0x88
 990 0522 35030000 		.4byte	0x335
 991 0526 02       		.byte	0x2
 992 0527 23       		.byte	0x23
 993 0528 2C       		.uleb128 0x2c
 994 0529 07       		.uleb128 0x7
 995 052a 52435200 		.ascii	"RCR\000"
 996 052e 08       		.byte	0x8
 997 052f 89       		.byte	0x89
 998 0530 E4030000 		.4byte	0x3e4
 999 0534 02       		.byte	0x2
 1000 0535 23       		.byte	0x23
 1001 0536 30       		.uleb128 0x30
 1002 0537 06       		.uleb128 0x6
 1003 0538 66010000 		.4byte	.LASF70
 1004 053c 08       		.byte	0x8
 1005 053d 8A       		.byte	0x8a
 1006 053e 57000000 		.4byte	0x57
 1007 0542 02       		.byte	0x2
 1008 0543 23       		.byte	0x23
 1009 0544 32       		.uleb128 0x32
 1010 0545 07       		.uleb128 0x7
 1011 0546 43435200 		.ascii	"CCR\000"
 1012 054a 08       		.byte	0x8
 1013 054b 8B       		.byte	0x8b
ARM GAS  /tmp/cc4kahim.s 			page 19


 1014 054c C3050000 		.4byte	0x5c3
 1015 0550 02       		.byte	0x2
 1016 0551 23       		.byte	0x23
 1017 0552 34       		.uleb128 0x34
 1018 0553 06       		.uleb128 0x6
 1019 0554 1D010000 		.4byte	.LASF71
 1020 0558 08       		.byte	0x8
 1021 0559 8C       		.byte	0x8c
 1022 055a E4030000 		.4byte	0x3e4
 1023 055e 02       		.byte	0x2
 1024 055f 23       		.byte	0x23
 1025 0560 44       		.uleb128 0x44
 1026 0561 06       		.uleb128 0x6
 1027 0562 9C000000 		.4byte	.LASF72
 1028 0566 08       		.byte	0x8
 1029 0567 8D       		.byte	0x8d
 1030 0568 57000000 		.4byte	0x57
 1031 056c 02       		.byte	0x2
 1032 056d 23       		.byte	0x23
 1033 056e 46       		.uleb128 0x46
 1034 056f 07       		.uleb128 0x7
 1035 0570 44435200 		.ascii	"DCR\000"
 1036 0574 08       		.byte	0x8
 1037 0575 8E       		.byte	0x8e
 1038 0576 E4030000 		.4byte	0x3e4
 1039 057a 02       		.byte	0x2
 1040 057b 23       		.byte	0x23
 1041 057c 48       		.uleb128 0x48
 1042 057d 06       		.uleb128 0x6
 1043 057e 75010000 		.4byte	.LASF73
 1044 0582 08       		.byte	0x8
 1045 0583 8F       		.byte	0x8f
 1046 0584 57000000 		.4byte	0x57
 1047 0588 02       		.byte	0x2
 1048 0589 23       		.byte	0x23
 1049 058a 4A       		.uleb128 0x4a
 1050 058b 06       		.uleb128 0x6
 1051 058c 05040000 		.4byte	.LASF74
 1052 0590 08       		.byte	0x8
 1053 0591 90       		.byte	0x90
 1054 0592 E4030000 		.4byte	0x3e4
 1055 0596 02       		.byte	0x2
 1056 0597 23       		.byte	0x23
 1057 0598 4C       		.uleb128 0x4c
 1058 0599 06       		.uleb128 0x6
 1059 059a E7000000 		.4byte	.LASF75
 1060 059e 08       		.byte	0x8
 1061 059f 91       		.byte	0x91
 1062 05a0 57000000 		.4byte	0x57
 1063 05a4 02       		.byte	0x2
 1064 05a5 23       		.byte	0x23
 1065 05a6 4E       		.uleb128 0x4e
 1066 05a7 07       		.uleb128 0x7
 1067 05a8 4F5200   		.ascii	"OR\000"
 1068 05ab 08       		.byte	0x8
 1069 05ac 92       		.byte	0x92
 1070 05ad E4030000 		.4byte	0x3e4
ARM GAS  /tmp/cc4kahim.s 			page 20


 1071 05b1 02       		.byte	0x2
 1072 05b2 23       		.byte	0x23
 1073 05b3 50       		.uleb128 0x50
 1074 05b4 06       		.uleb128 0x6
 1075 05b5 87010000 		.4byte	.LASF76
 1076 05b9 08       		.byte	0x8
 1077 05ba 93       		.byte	0x93
 1078 05bb 57000000 		.4byte	0x57
 1079 05bf 02       		.byte	0x2
 1080 05c0 23       		.byte	0x23
 1081 05c1 52       		.uleb128 0x52
 1082 05c2 00       		.byte	0
 1083 05c3 0D       		.uleb128 0xd
 1084 05c4 D4030000 		.4byte	0x3d4
 1085 05c8 04       		.uleb128 0x4
 1086 05c9 3E020000 		.4byte	.LASF77
 1087 05cd 08       		.byte	0x8
 1088 05ce 94       		.byte	0x94
 1089 05cf EE030000 		.4byte	0x3ee
 1090 05d3 13       		.uleb128 0x13
 1091 05d4 01       		.byte	0x1
 1092 05d5 09       		.byte	0x9
 1093 05d6 3C       		.byte	0x3c
 1094 05d7 00060000 		.4byte	0x600
 1095 05db 14       		.uleb128 0x14
 1096 05dc 71040000 		.4byte	.LASF78
 1097 05e0 00       		.sleb128 0
 1098 05e1 14       		.uleb128 0x14
 1099 05e2 BA020000 		.4byte	.LASF79
 1100 05e6 01       		.sleb128 1
 1101 05e7 14       		.uleb128 0x14
 1102 05e8 6E020000 		.4byte	.LASF80
 1103 05ec 02       		.sleb128 2
 1104 05ed 14       		.uleb128 0x14
 1105 05ee 62020000 		.4byte	.LASF81
 1106 05f2 03       		.sleb128 3
 1107 05f3 14       		.uleb128 0x14
 1108 05f4 59000000 		.4byte	.LASF82
 1109 05f8 04       		.sleb128 4
 1110 05f9 14       		.uleb128 0x14
 1111 05fa B3040000 		.4byte	.LASF83
 1112 05fe 05       		.sleb128 5
 1113 05ff 00       		.byte	0
 1114 0600 04       		.uleb128 0x4
 1115 0601 DC000000 		.4byte	.LASF84
 1116 0605 09       		.byte	0x9
 1117 0606 43       		.byte	0x43
 1118 0607 D3050000 		.4byte	0x5d3
 1119 060b 04       		.uleb128 0x4
 1120 060c 34020000 		.4byte	.LASF85
 1121 0610 09       		.byte	0x9
 1122 0611 48       		.byte	0x48
 1123 0612 16060000 		.4byte	0x616
 1124 0616 05       		.uleb128 0x5
 1125 0617 34020000 		.4byte	.LASF85
 1126 061b 10       		.byte	0x10
 1127 061c 0A       		.byte	0xa
ARM GAS  /tmp/cc4kahim.s 			page 21


 1128 061d EB       		.byte	0xeb
 1129 061e 5B060000 		.4byte	0x65b
 1130 0622 06       		.uleb128 0x6
 1131 0623 6F010000 		.4byte	.LASF86
 1132 0627 0A       		.byte	0xa
 1133 0628 EF       		.byte	0xef
 1134 0629 00060000 		.4byte	0x600
 1135 062d 02       		.byte	0x2
 1136 062e 23       		.byte	0x23
 1137 062f 00       		.uleb128 0
 1138 0630 06       		.uleb128 0x6
 1139 0631 FE030000 		.4byte	.LASF87
 1140 0635 0A       		.byte	0xa
 1141 0636 F3       		.byte	0xf3
 1142 0637 00070000 		.4byte	0x700
 1143 063b 02       		.byte	0x2
 1144 063c 23       		.byte	0x23
 1145 063d 04       		.uleb128 0x4
 1146 063e 06       		.uleb128 0x6
 1147 063f A1040000 		.4byte	.LASF88
 1148 0643 0A       		.byte	0xa
 1149 0644 FB       		.byte	0xfb
 1150 0645 7B000000 		.4byte	0x7b
 1151 0649 02       		.byte	0x2
 1152 064a 23       		.byte	0x23
 1153 064b 08       		.uleb128 0x8
 1154 064c 07       		.uleb128 0x7
 1155 064d 74696D00 		.ascii	"tim\000"
 1156 0651 0A       		.byte	0xa
 1157 0652 FF       		.byte	0xff
 1158 0653 0B070000 		.4byte	0x70b
 1159 0657 02       		.byte	0x2
 1160 0658 23       		.byte	0x23
 1161 0659 0C       		.uleb128 0xc
 1162 065a 00       		.byte	0
 1163 065b 04       		.uleb128 0x4
 1164 065c 0B020000 		.4byte	.LASF89
 1165 0660 09       		.byte	0x9
 1166 0661 4F       		.byte	0x4f
 1167 0662 66060000 		.4byte	0x666
 1168 0666 09       		.uleb128 0x9
 1169 0667 04       		.byte	0x4
 1170 0668 6C060000 		.4byte	0x66c
 1171 066c 15       		.uleb128 0x15
 1172 066d 01       		.byte	0x1
 1173 066e 78060000 		.4byte	0x678
 1174 0672 16       		.uleb128 0x16
 1175 0673 78060000 		.4byte	0x678
 1176 0677 00       		.byte	0
 1177 0678 09       		.uleb128 0x9
 1178 0679 04       		.byte	0x4
 1179 067a 0B060000 		.4byte	0x60b
 1180 067e 13       		.uleb128 0x13
 1181 067f 01       		.byte	0x1
 1182 0680 0A       		.byte	0xa
 1183 0681 BF       		.byte	0xbf
 1184 0682 93060000 		.4byte	0x693
ARM GAS  /tmp/cc4kahim.s 			page 22


 1185 0686 14       		.uleb128 0x14
 1186 0687 11000000 		.4byte	.LASF90
 1187 068b 00       		.sleb128 0
 1188 068c 14       		.uleb128 0x14
 1189 068d C3020000 		.4byte	.LASF91
 1190 0691 01       		.sleb128 1
 1191 0692 00       		.byte	0
 1192 0693 04       		.uleb128 0x4
 1193 0694 2D030000 		.4byte	.LASF92
 1194 0698 0A       		.byte	0xa
 1195 0699 C2       		.byte	0xc2
 1196 069a 7E060000 		.4byte	0x67e
 1197 069e 04       		.uleb128 0x4
 1198 069f 33040000 		.4byte	.LASF93
 1199 06a3 0A       		.byte	0xa
 1200 06a4 C7       		.byte	0xc7
 1201 06a5 7B000000 		.4byte	0x7b
 1202 06a9 04       		.uleb128 0x4
 1203 06aa 6C030000 		.4byte	.LASF94
 1204 06ae 0A       		.byte	0xa
 1205 06af CC       		.byte	0xcc
 1206 06b0 57000000 		.4byte	0x57
 1207 06b4 08       		.uleb128 0x8
 1208 06b5 10       		.byte	0x10
 1209 06b6 0A       		.byte	0xa
 1210 06b7 D2       		.byte	0xd2
 1211 06b8 F5060000 		.4byte	0x6f5
 1212 06bc 06       		.uleb128 0x6
 1213 06bd F9030000 		.4byte	.LASF95
 1214 06c1 0A       		.byte	0xa
 1215 06c2 D6       		.byte	0xd6
 1216 06c3 93060000 		.4byte	0x693
 1217 06c7 02       		.byte	0x2
 1218 06c8 23       		.byte	0x23
 1219 06c9 00       		.uleb128 0
 1220 06ca 06       		.uleb128 0x6
 1221 06cb 22010000 		.4byte	.LASF96
 1222 06cf 0A       		.byte	0xa
 1223 06d0 DC       		.byte	0xdc
 1224 06d1 9E060000 		.4byte	0x69e
 1225 06d5 02       		.byte	0x2
 1226 06d6 23       		.byte	0x23
 1227 06d7 04       		.uleb128 0x4
 1228 06d8 06       		.uleb128 0x6
 1229 06d9 9C020000 		.4byte	.LASF97
 1230 06dd 0A       		.byte	0xa
 1231 06de E0       		.byte	0xe0
 1232 06df 5B060000 		.4byte	0x65b
 1233 06e3 02       		.byte	0x2
 1234 06e4 23       		.byte	0x23
 1235 06e5 08       		.uleb128 0x8
 1236 06e6 06       		.uleb128 0x6
 1237 06e7 19020000 		.4byte	.LASF98
 1238 06eb 0A       		.byte	0xa
 1239 06ec E4       		.byte	0xe4
 1240 06ed 5B060000 		.4byte	0x65b
 1241 06f1 02       		.byte	0x2
ARM GAS  /tmp/cc4kahim.s 			page 23


 1242 06f2 23       		.byte	0x23
 1243 06f3 0C       		.uleb128 0xc
 1244 06f4 00       		.byte	0
 1245 06f5 04       		.uleb128 0x4
 1246 06f6 C1010000 		.4byte	.LASF99
 1247 06fa 0A       		.byte	0xa
 1248 06fb E6       		.byte	0xe6
 1249 06fc B4060000 		.4byte	0x6b4
 1250 0700 09       		.uleb128 0x9
 1251 0701 04       		.byte	0x4
 1252 0702 06070000 		.4byte	0x706
 1253 0706 10       		.uleb128 0x10
 1254 0707 F5060000 		.4byte	0x6f5
 1255 070b 09       		.uleb128 0x9
 1256 070c 04       		.byte	0x4
 1257 070d C8050000 		.4byte	0x5c8
 1258 0711 05       		.uleb128 0x5
 1259 0712 A5030000 		.4byte	.LASF100
 1260 0716 B0       		.byte	0xb0
 1261 0717 0B       		.byte	0xb
 1262 0718 15       		.byte	0x15
 1263 0719 57070000 		.4byte	0x757
 1264 071d 06       		.uleb128 0x6
 1265 071e AD040000 		.4byte	.LASF101
 1266 0722 0B       		.byte	0xb
 1267 0723 16       		.byte	0x16
 1268 0724 29000000 		.4byte	0x29
 1269 0728 02       		.byte	0x2
 1270 0729 23       		.byte	0x23
 1271 072a 00       		.uleb128 0
 1272 072b 07       		.uleb128 0x7
 1273 072c 656E6400 		.ascii	"end\000"
 1274 0730 0B       		.byte	0xb
 1275 0731 17       		.byte	0x17
 1276 0732 29000000 		.4byte	0x29
 1277 0736 02       		.byte	0x2
 1278 0737 23       		.byte	0x23
 1279 0738 04       		.uleb128 0x4
 1280 0739 06       		.uleb128 0x6
 1281 073a 8E020000 		.4byte	.LASF102
 1282 073e 0B       		.byte	0xb
 1283 073f 18       		.byte	0x18
 1284 0740 57070000 		.4byte	0x757
 1285 0744 02       		.byte	0x2
 1286 0745 23       		.byte	0x23
 1287 0746 08       		.uleb128 0x8
 1288 0747 06       		.uleb128 0x6
 1289 0748 0B030000 		.4byte	.LASF103
 1290 074c 0B       		.byte	0xb
 1291 074d 19       		.byte	0x19
 1292 074e 7C030000 		.4byte	0x37c
 1293 0752 03       		.byte	0x3
 1294 0753 23       		.byte	0x23
 1295 0754 A001     		.uleb128 0xa0
 1296 0756 00       		.byte	0
 1297 0757 11       		.uleb128 0x11
 1298 0758 C7030000 		.4byte	0x3c7
ARM GAS  /tmp/cc4kahim.s 			page 24


 1299 075c 67070000 		.4byte	0x767
 1300 0760 12       		.uleb128 0x12
 1301 0761 30000000 		.4byte	0x30
 1302 0765 95       		.byte	0x95
 1303 0766 00       		.byte	0
 1304 0767 04       		.uleb128 0x4
 1305 0768 41030000 		.4byte	.LASF104
 1306 076c 0B       		.byte	0xb
 1307 076d 1A       		.byte	0x1a
 1308 076e 11070000 		.4byte	0x711
 1309 0772 08       		.uleb128 0x8
 1310 0773 08       		.byte	0x8
 1311 0774 01       		.byte	0x1
 1312 0775 14       		.byte	0x14
 1313 0776 B3070000 		.4byte	0x7b3
 1314 077a 06       		.uleb128 0x6
 1315 077b AA010000 		.4byte	.LASF105
 1316 077f 01       		.byte	0x1
 1317 0780 16       		.byte	0x16
 1318 0781 A9060000 		.4byte	0x6a9
 1319 0785 02       		.byte	0x2
 1320 0786 23       		.byte	0x23
 1321 0787 00       		.uleb128 0
 1322 0788 06       		.uleb128 0x6
 1323 0789 3A000000 		.4byte	.LASF106
 1324 078d 01       		.byte	0x1
 1325 078e 17       		.byte	0x17
 1326 078f A9060000 		.4byte	0x6a9
 1327 0793 02       		.byte	0x2
 1328 0794 23       		.byte	0x23
 1329 0795 02       		.uleb128 0x2
 1330 0796 06       		.uleb128 0x6
 1331 0797 0A040000 		.4byte	.LASF107
 1332 079b 01       		.byte	0x1
 1333 079c 18       		.byte	0x18
 1334 079d A9060000 		.4byte	0x6a9
 1335 07a1 02       		.byte	0x2
 1336 07a2 23       		.byte	0x23
 1337 07a3 04       		.uleb128 0x4
 1338 07a4 06       		.uleb128 0x6
 1339 07a5 61010000 		.4byte	.LASF108
 1340 07a9 01       		.byte	0x1
 1341 07aa 19       		.byte	0x19
 1342 07ab A9060000 		.4byte	0x6a9
 1343 07af 02       		.byte	0x2
 1344 07b0 23       		.byte	0x23
 1345 07b1 06       		.uleb128 0x6
 1346 07b2 00       		.byte	0
 1347 07b3 04       		.uleb128 0x4
 1348 07b4 37030000 		.4byte	.LASF109
 1349 07b8 01       		.byte	0x1
 1350 07b9 1A       		.byte	0x1a
 1351 07ba 72070000 		.4byte	0x772
 1352 07be 17       		.uleb128 0x17
 1353 07bf 83020000 		.4byte	.LASF126
 1354 07c3 01       		.byte	0x1
 1355 07c4 23       		.byte	0x23
ARM GAS  /tmp/cc4kahim.s 			page 25


 1356 07c5 01       		.byte	0x1
 1357 07c6 00000000 		.4byte	.LFB117
 1358 07ca 86000000 		.4byte	.LFE117
 1359 07ce 02       		.byte	0x2
 1360 07cf 7D       		.byte	0x7d
 1361 07d0 00       		.sleb128 0
 1362 07d1 FF070000 		.4byte	0x7ff
 1363 07d5 18       		.uleb128 0x18
 1364 07d6 06030000 		.4byte	.LASF112
 1365 07da 01       		.byte	0x1
 1366 07db 23       		.byte	0x23
 1367 07dc 78060000 		.4byte	0x678
 1368 07e0 00000000 		.4byte	.LLST0
 1369 07e4 19       		.uleb128 0x19
 1370 07e5 D4040000 		.4byte	.LASF110
 1371 07e9 01       		.byte	0x1
 1372 07ea 26       		.byte	0x26
 1373 07eb FF070000 		.4byte	0x7ff
 1374 07ef 9B16     		.2byte	0x169b
 1375 07f1 1A       		.uleb128 0x1a
 1376 07f2 23020000 		.4byte	.LASF111
 1377 07f6 01       		.byte	0x1
 1378 07f7 27       		.byte	0x27
 1379 07f8 A9060000 		.4byte	0x6a9
 1380 07fc 01       		.byte	0x1
 1381 07fd 52       		.byte	0x52
 1382 07fe 00       		.byte	0
 1383 07ff 10       		.uleb128 0x10
 1384 0800 29000000 		.4byte	0x29
 1385 0804 1B       		.uleb128 0x1b
 1386 0805 90010000 		.4byte	.LASF127
 1387 0809 01       		.byte	0x1
 1388 080a 34       		.byte	0x34
 1389 080b 01       		.byte	0x1
 1390 080c D2000000 		.4byte	0xd2
 1391 0810 00000000 		.4byte	.LFB118
 1392 0814 BE000000 		.4byte	.LFE118
 1393 0818 1E000000 		.4byte	.LLST1
 1394 081c 5C080000 		.4byte	0x85c
 1395 0820 1C       		.uleb128 0x1c
 1396 0821 61726700 		.ascii	"arg\000"
 1397 0825 01       		.byte	0x1
 1398 0826 34       		.byte	0x34
 1399 0827 78020000 		.4byte	0x278
 1400 082b 4B000000 		.4byte	.LLST2
 1401 082f 1D       		.uleb128 0x1d
 1402 0830 62756600 		.ascii	"buf\000"
 1403 0834 01       		.byte	0x1
 1404 0835 37       		.byte	0x37
 1405 0836 5C080000 		.4byte	0x85c
 1406 083a 03       		.byte	0x3
 1407 083b 91       		.byte	0x91
 1408 083c B87F     		.sleb128 -72
 1409 083e 1E       		.uleb128 0x1e
 1410 083f 44040000 		.4byte	.LASF113
 1411 0843 01       		.byte	0x1
 1412 0844 38       		.byte	0x38
ARM GAS  /tmp/cc4kahim.s 			page 26


 1413 0845 FF070000 		.4byte	0x7ff
 1414 0849 40420F00 		.4byte	0xf4240
 1415 084d 1A       		.uleb128 0x1a
 1416 084e 92040000 		.4byte	.LASF114
 1417 0852 01       		.byte	0x1
 1418 0853 39       		.byte	0x39
 1419 0854 F5060000 		.4byte	0x6f5
 1420 0858 02       		.byte	0x2
 1421 0859 91       		.byte	0x91
 1422 085a 60       		.sleb128 -32
 1423 085b 00       		.byte	0
 1424 085c 11       		.uleb128 0x11
 1425 085d C7030000 		.4byte	0x3c7
 1426 0861 6C080000 		.4byte	0x86c
 1427 0865 12       		.uleb128 0x12
 1428 0866 30000000 		.4byte	0x30
 1429 086a 27       		.byte	0x27
 1430 086b 00       		.byte	0
 1431 086c 1F       		.uleb128 0x1f
 1432 086d 01       		.byte	0x1
 1433 086e D8020000 		.4byte	.LASF128
 1434 0872 01       		.byte	0x1
 1435 0873 54       		.byte	0x54
 1436 0874 01       		.byte	0x1
 1437 0875 00000000 		.4byte	.LFB119
 1438 0879 26000000 		.4byte	.LFE119
 1439 087d 5E000000 		.4byte	.LLST3
 1440 0881 11       		.uleb128 0x11
 1441 0882 7A020000 		.4byte	0x27a
 1442 0886 91080000 		.4byte	0x891
 1443 088a 12       		.uleb128 0x12
 1444 088b 30000000 		.4byte	0x30
 1445 088f 95       		.byte	0x95
 1446 0890 00       		.byte	0
 1447 0891 1A       		.uleb128 0x1a
 1448 0892 00000000 		.4byte	.LASF115
 1449 0896 01       		.byte	0x1
 1450 0897 1C       		.byte	0x1c
 1451 0898 81080000 		.4byte	0x881
 1452 089c 05       		.byte	0x5
 1453 089d 03       		.byte	0x3
 1454 089e 00000000 		.4byte	sonarWorkingArea
 1455 08a2 20       		.uleb128 0x20
 1456 08a3 10010000 		.4byte	.LASF116
 1457 08a7 0C       		.byte	0xc
 1458 08a8 1A05     		.2byte	0x51a
 1459 08aa E9030000 		.4byte	0x3e9
 1460 08ae 01       		.byte	0x1
 1461 08af 01       		.byte	0x1
 1462 08b0 20       		.uleb128 0x20
 1463 08b1 F4010000 		.4byte	.LASF117
 1464 08b5 0A       		.byte	0xa
 1465 08b6 2301     		.2byte	0x123
 1466 08b8 0B060000 		.4byte	0x60b
 1467 08bc 01       		.byte	0x1
 1468 08bd 01       		.byte	0x1
 1469 08be 20       		.uleb128 0x20
ARM GAS  /tmp/cc4kahim.s 			page 27


 1470 08bf FA010000 		.4byte	.LASF118
 1471 08c3 0A       		.byte	0xa
 1472 08c4 2B01     		.2byte	0x12b
 1473 08c6 0B060000 		.4byte	0x60b
 1474 08ca 01       		.byte	0x1
 1475 08cb 01       		.byte	0x1
 1476 08cc 20       		.uleb128 0x20
 1477 08cd 00030000 		.4byte	.LASF119
 1478 08d1 0A       		.byte	0xa
 1479 08d2 3301     		.2byte	0x133
 1480 08d4 0B060000 		.4byte	0x60b
 1481 08d8 01       		.byte	0x1
 1482 08d9 01       		.byte	0x1
 1483 08da 20       		.uleb128 0x20
 1484 08db 11030000 		.4byte	.LASF120
 1485 08df 0A       		.byte	0xa
 1486 08e0 3701     		.2byte	0x137
 1487 08e2 0B060000 		.4byte	0x60b
 1488 08e6 01       		.byte	0x1
 1489 08e7 01       		.byte	0x1
 1490 08e8 21       		.uleb128 0x21
 1491 08e9 C1030000 		.4byte	.LASF121
 1492 08ed 0D       		.byte	0xd
 1493 08ee 32       		.byte	0x32
 1494 08ef 67070000 		.4byte	0x767
 1495 08f3 01       		.byte	0x1
 1496 08f4 01       		.byte	0x1
 1497 08f5 22       		.uleb128 0x22
 1498 08f6 DC010000 		.4byte	.LASF122
 1499 08fa 01       		.byte	0x1
 1500 08fb 20       		.byte	0x20
 1501 08fc B3070000 		.4byte	0x7b3
 1502 0900 01       		.byte	0x1
 1503 0901 05       		.byte	0x5
 1504 0902 03       		.byte	0x3
 1505 0903 00000000 		.4byte	sonar_data
 1506 0907 00       		.byte	0
 1507              		.section	.debug_abbrev,"",%progbits
 1508              	.Ldebug_abbrev0:
 1509 0000 01       		.uleb128 0x1
 1510 0001 11       		.uleb128 0x11
 1511 0002 01       		.byte	0x1
 1512 0003 25       		.uleb128 0x25
 1513 0004 0E       		.uleb128 0xe
 1514 0005 13       		.uleb128 0x13
 1515 0006 0B       		.uleb128 0xb
 1516 0007 03       		.uleb128 0x3
 1517 0008 0E       		.uleb128 0xe
 1518 0009 1B       		.uleb128 0x1b
 1519 000a 0E       		.uleb128 0xe
 1520 000b 11       		.uleb128 0x11
 1521 000c 01       		.uleb128 0x1
 1522 000d 52       		.uleb128 0x52
 1523 000e 01       		.uleb128 0x1
 1524 000f 55       		.uleb128 0x55
 1525 0010 06       		.uleb128 0x6
 1526 0011 10       		.uleb128 0x10
ARM GAS  /tmp/cc4kahim.s 			page 28


 1527 0012 06       		.uleb128 0x6
 1528 0013 00       		.byte	0
 1529 0014 00       		.byte	0
 1530 0015 02       		.uleb128 0x2
 1531 0016 24       		.uleb128 0x24
 1532 0017 00       		.byte	0
 1533 0018 0B       		.uleb128 0xb
 1534 0019 0B       		.uleb128 0xb
 1535 001a 3E       		.uleb128 0x3e
 1536 001b 0B       		.uleb128 0xb
 1537 001c 03       		.uleb128 0x3
 1538 001d 08       		.uleb128 0x8
 1539 001e 00       		.byte	0
 1540 001f 00       		.byte	0
 1541 0020 03       		.uleb128 0x3
 1542 0021 24       		.uleb128 0x24
 1543 0022 00       		.byte	0
 1544 0023 0B       		.uleb128 0xb
 1545 0024 0B       		.uleb128 0xb
 1546 0025 3E       		.uleb128 0x3e
 1547 0026 0B       		.uleb128 0xb
 1548 0027 03       		.uleb128 0x3
 1549 0028 0E       		.uleb128 0xe
 1550 0029 00       		.byte	0
 1551 002a 00       		.byte	0
 1552 002b 04       		.uleb128 0x4
 1553 002c 16       		.uleb128 0x16
 1554 002d 00       		.byte	0
 1555 002e 03       		.uleb128 0x3
 1556 002f 0E       		.uleb128 0xe
 1557 0030 3A       		.uleb128 0x3a
 1558 0031 0B       		.uleb128 0xb
 1559 0032 3B       		.uleb128 0x3b
 1560 0033 0B       		.uleb128 0xb
 1561 0034 49       		.uleb128 0x49
 1562 0035 13       		.uleb128 0x13
 1563 0036 00       		.byte	0
 1564 0037 00       		.byte	0
 1565 0038 05       		.uleb128 0x5
 1566 0039 13       		.uleb128 0x13
 1567 003a 01       		.byte	0x1
 1568 003b 03       		.uleb128 0x3
 1569 003c 0E       		.uleb128 0xe
 1570 003d 0B       		.uleb128 0xb
 1571 003e 0B       		.uleb128 0xb
 1572 003f 3A       		.uleb128 0x3a
 1573 0040 0B       		.uleb128 0xb
 1574 0041 3B       		.uleb128 0x3b
 1575 0042 0B       		.uleb128 0xb
 1576 0043 01       		.uleb128 0x1
 1577 0044 13       		.uleb128 0x13
 1578 0045 00       		.byte	0
 1579 0046 00       		.byte	0
 1580 0047 06       		.uleb128 0x6
 1581 0048 0D       		.uleb128 0xd
 1582 0049 00       		.byte	0
 1583 004a 03       		.uleb128 0x3
ARM GAS  /tmp/cc4kahim.s 			page 29


 1584 004b 0E       		.uleb128 0xe
 1585 004c 3A       		.uleb128 0x3a
 1586 004d 0B       		.uleb128 0xb
 1587 004e 3B       		.uleb128 0x3b
 1588 004f 0B       		.uleb128 0xb
 1589 0050 49       		.uleb128 0x49
 1590 0051 13       		.uleb128 0x13
 1591 0052 38       		.uleb128 0x38
 1592 0053 0A       		.uleb128 0xa
 1593 0054 00       		.byte	0
 1594 0055 00       		.byte	0
 1595 0056 07       		.uleb128 0x7
 1596 0057 0D       		.uleb128 0xd
 1597 0058 00       		.byte	0
 1598 0059 03       		.uleb128 0x3
 1599 005a 08       		.uleb128 0x8
 1600 005b 3A       		.uleb128 0x3a
 1601 005c 0B       		.uleb128 0xb
 1602 005d 3B       		.uleb128 0x3b
 1603 005e 0B       		.uleb128 0xb
 1604 005f 49       		.uleb128 0x49
 1605 0060 13       		.uleb128 0x13
 1606 0061 38       		.uleb128 0x38
 1607 0062 0A       		.uleb128 0xa
 1608 0063 00       		.byte	0
 1609 0064 00       		.byte	0
 1610 0065 08       		.uleb128 0x8
 1611 0066 13       		.uleb128 0x13
 1612 0067 01       		.byte	0x1
 1613 0068 0B       		.uleb128 0xb
 1614 0069 0B       		.uleb128 0xb
 1615 006a 3A       		.uleb128 0x3a
 1616 006b 0B       		.uleb128 0xb
 1617 006c 3B       		.uleb128 0x3b
 1618 006d 0B       		.uleb128 0xb
 1619 006e 01       		.uleb128 0x1
 1620 006f 13       		.uleb128 0x13
 1621 0070 00       		.byte	0
 1622 0071 00       		.byte	0
 1623 0072 09       		.uleb128 0x9
 1624 0073 0F       		.uleb128 0xf
 1625 0074 00       		.byte	0
 1626 0075 0B       		.uleb128 0xb
 1627 0076 0B       		.uleb128 0xb
 1628 0077 49       		.uleb128 0x49
 1629 0078 13       		.uleb128 0x13
 1630 0079 00       		.byte	0
 1631 007a 00       		.byte	0
 1632 007b 0A       		.uleb128 0xa
 1633 007c 0F       		.uleb128 0xf
 1634 007d 00       		.byte	0
 1635 007e 0B       		.uleb128 0xb
 1636 007f 0B       		.uleb128 0xb
 1637 0080 00       		.byte	0
 1638 0081 00       		.byte	0
 1639 0082 0B       		.uleb128 0xb
 1640 0083 0D       		.uleb128 0xd
ARM GAS  /tmp/cc4kahim.s 			page 30


 1641 0084 00       		.byte	0
 1642 0085 03       		.uleb128 0x3
 1643 0086 08       		.uleb128 0x8
 1644 0087 3A       		.uleb128 0x3a
 1645 0088 0B       		.uleb128 0xb
 1646 0089 3B       		.uleb128 0x3b
 1647 008a 05       		.uleb128 0x5
 1648 008b 49       		.uleb128 0x49
 1649 008c 13       		.uleb128 0x13
 1650 008d 38       		.uleb128 0x38
 1651 008e 0A       		.uleb128 0xa
 1652 008f 00       		.byte	0
 1653 0090 00       		.byte	0
 1654 0091 0C       		.uleb128 0xc
 1655 0092 13       		.uleb128 0x13
 1656 0093 01       		.byte	0x1
 1657 0094 03       		.uleb128 0x3
 1658 0095 0E       		.uleb128 0xe
 1659 0096 0B       		.uleb128 0xb
 1660 0097 0B       		.uleb128 0xb
 1661 0098 3A       		.uleb128 0x3a
 1662 0099 0B       		.uleb128 0xb
 1663 009a 3B       		.uleb128 0x3b
 1664 009b 05       		.uleb128 0x5
 1665 009c 01       		.uleb128 0x1
 1666 009d 13       		.uleb128 0x13
 1667 009e 00       		.byte	0
 1668 009f 00       		.byte	0
 1669 00a0 0D       		.uleb128 0xd
 1670 00a1 35       		.uleb128 0x35
 1671 00a2 00       		.byte	0
 1672 00a3 49       		.uleb128 0x49
 1673 00a4 13       		.uleb128 0x13
 1674 00a5 00       		.byte	0
 1675 00a6 00       		.byte	0
 1676 00a7 0E       		.uleb128 0xe
 1677 00a8 17       		.uleb128 0x17
 1678 00a9 01       		.byte	0x1
 1679 00aa 0B       		.uleb128 0xb
 1680 00ab 0B       		.uleb128 0xb
 1681 00ac 3A       		.uleb128 0x3a
 1682 00ad 0B       		.uleb128 0xb
 1683 00ae 3B       		.uleb128 0x3b
 1684 00af 0B       		.uleb128 0xb
 1685 00b0 01       		.uleb128 0x1
 1686 00b1 13       		.uleb128 0x13
 1687 00b2 00       		.byte	0
 1688 00b3 00       		.byte	0
 1689 00b4 0F       		.uleb128 0xf
 1690 00b5 0D       		.uleb128 0xd
 1691 00b6 00       		.byte	0
 1692 00b7 03       		.uleb128 0x3
 1693 00b8 0E       		.uleb128 0xe
 1694 00b9 3A       		.uleb128 0x3a
 1695 00ba 0B       		.uleb128 0xb
 1696 00bb 3B       		.uleb128 0x3b
 1697 00bc 0B       		.uleb128 0xb
ARM GAS  /tmp/cc4kahim.s 			page 31


 1698 00bd 49       		.uleb128 0x49
 1699 00be 13       		.uleb128 0x13
 1700 00bf 00       		.byte	0
 1701 00c0 00       		.byte	0
 1702 00c1 10       		.uleb128 0x10
 1703 00c2 26       		.uleb128 0x26
 1704 00c3 00       		.byte	0
 1705 00c4 49       		.uleb128 0x49
 1706 00c5 13       		.uleb128 0x13
 1707 00c6 00       		.byte	0
 1708 00c7 00       		.byte	0
 1709 00c8 11       		.uleb128 0x11
 1710 00c9 01       		.uleb128 0x1
 1711 00ca 01       		.byte	0x1
 1712 00cb 49       		.uleb128 0x49
 1713 00cc 13       		.uleb128 0x13
 1714 00cd 01       		.uleb128 0x1
 1715 00ce 13       		.uleb128 0x13
 1716 00cf 00       		.byte	0
 1717 00d0 00       		.byte	0
 1718 00d1 12       		.uleb128 0x12
 1719 00d2 21       		.uleb128 0x21
 1720 00d3 00       		.byte	0
 1721 00d4 49       		.uleb128 0x49
 1722 00d5 13       		.uleb128 0x13
 1723 00d6 2F       		.uleb128 0x2f
 1724 00d7 0B       		.uleb128 0xb
 1725 00d8 00       		.byte	0
 1726 00d9 00       		.byte	0
 1727 00da 13       		.uleb128 0x13
 1728 00db 04       		.uleb128 0x4
 1729 00dc 01       		.byte	0x1
 1730 00dd 0B       		.uleb128 0xb
 1731 00de 0B       		.uleb128 0xb
 1732 00df 3A       		.uleb128 0x3a
 1733 00e0 0B       		.uleb128 0xb
 1734 00e1 3B       		.uleb128 0x3b
 1735 00e2 0B       		.uleb128 0xb
 1736 00e3 01       		.uleb128 0x1
 1737 00e4 13       		.uleb128 0x13
 1738 00e5 00       		.byte	0
 1739 00e6 00       		.byte	0
 1740 00e7 14       		.uleb128 0x14
 1741 00e8 28       		.uleb128 0x28
 1742 00e9 00       		.byte	0
 1743 00ea 03       		.uleb128 0x3
 1744 00eb 0E       		.uleb128 0xe
 1745 00ec 1C       		.uleb128 0x1c
 1746 00ed 0D       		.uleb128 0xd
 1747 00ee 00       		.byte	0
 1748 00ef 00       		.byte	0
 1749 00f0 15       		.uleb128 0x15
 1750 00f1 15       		.uleb128 0x15
 1751 00f2 01       		.byte	0x1
 1752 00f3 27       		.uleb128 0x27
 1753 00f4 0C       		.uleb128 0xc
 1754 00f5 01       		.uleb128 0x1
ARM GAS  /tmp/cc4kahim.s 			page 32


 1755 00f6 13       		.uleb128 0x13
 1756 00f7 00       		.byte	0
 1757 00f8 00       		.byte	0
 1758 00f9 16       		.uleb128 0x16
 1759 00fa 05       		.uleb128 0x5
 1760 00fb 00       		.byte	0
 1761 00fc 49       		.uleb128 0x49
 1762 00fd 13       		.uleb128 0x13
 1763 00fe 00       		.byte	0
 1764 00ff 00       		.byte	0
 1765 0100 17       		.uleb128 0x17
 1766 0101 2E       		.uleb128 0x2e
 1767 0102 01       		.byte	0x1
 1768 0103 03       		.uleb128 0x3
 1769 0104 0E       		.uleb128 0xe
 1770 0105 3A       		.uleb128 0x3a
 1771 0106 0B       		.uleb128 0xb
 1772 0107 3B       		.uleb128 0x3b
 1773 0108 0B       		.uleb128 0xb
 1774 0109 27       		.uleb128 0x27
 1775 010a 0C       		.uleb128 0xc
 1776 010b 11       		.uleb128 0x11
 1777 010c 01       		.uleb128 0x1
 1778 010d 12       		.uleb128 0x12
 1779 010e 01       		.uleb128 0x1
 1780 010f 40       		.uleb128 0x40
 1781 0110 0A       		.uleb128 0xa
 1782 0111 01       		.uleb128 0x1
 1783 0112 13       		.uleb128 0x13
 1784 0113 00       		.byte	0
 1785 0114 00       		.byte	0
 1786 0115 18       		.uleb128 0x18
 1787 0116 05       		.uleb128 0x5
 1788 0117 00       		.byte	0
 1789 0118 03       		.uleb128 0x3
 1790 0119 0E       		.uleb128 0xe
 1791 011a 3A       		.uleb128 0x3a
 1792 011b 0B       		.uleb128 0xb
 1793 011c 3B       		.uleb128 0x3b
 1794 011d 0B       		.uleb128 0xb
 1795 011e 49       		.uleb128 0x49
 1796 011f 13       		.uleb128 0x13
 1797 0120 02       		.uleb128 0x2
 1798 0121 06       		.uleb128 0x6
 1799 0122 00       		.byte	0
 1800 0123 00       		.byte	0
 1801 0124 19       		.uleb128 0x19
 1802 0125 34       		.uleb128 0x34
 1803 0126 00       		.byte	0
 1804 0127 03       		.uleb128 0x3
 1805 0128 0E       		.uleb128 0xe
 1806 0129 3A       		.uleb128 0x3a
 1807 012a 0B       		.uleb128 0xb
 1808 012b 3B       		.uleb128 0x3b
 1809 012c 0B       		.uleb128 0xb
 1810 012d 49       		.uleb128 0x49
 1811 012e 13       		.uleb128 0x13
ARM GAS  /tmp/cc4kahim.s 			page 33


 1812 012f 1C       		.uleb128 0x1c
 1813 0130 05       		.uleb128 0x5
 1814 0131 00       		.byte	0
 1815 0132 00       		.byte	0
 1816 0133 1A       		.uleb128 0x1a
 1817 0134 34       		.uleb128 0x34
 1818 0135 00       		.byte	0
 1819 0136 03       		.uleb128 0x3
 1820 0137 0E       		.uleb128 0xe
 1821 0138 3A       		.uleb128 0x3a
 1822 0139 0B       		.uleb128 0xb
 1823 013a 3B       		.uleb128 0x3b
 1824 013b 0B       		.uleb128 0xb
 1825 013c 49       		.uleb128 0x49
 1826 013d 13       		.uleb128 0x13
 1827 013e 02       		.uleb128 0x2
 1828 013f 0A       		.uleb128 0xa
 1829 0140 00       		.byte	0
 1830 0141 00       		.byte	0
 1831 0142 1B       		.uleb128 0x1b
 1832 0143 2E       		.uleb128 0x2e
 1833 0144 01       		.byte	0x1
 1834 0145 03       		.uleb128 0x3
 1835 0146 0E       		.uleb128 0xe
 1836 0147 3A       		.uleb128 0x3a
 1837 0148 0B       		.uleb128 0xb
 1838 0149 3B       		.uleb128 0x3b
 1839 014a 0B       		.uleb128 0xb
 1840 014b 27       		.uleb128 0x27
 1841 014c 0C       		.uleb128 0xc
 1842 014d 49       		.uleb128 0x49
 1843 014e 13       		.uleb128 0x13
 1844 014f 11       		.uleb128 0x11
 1845 0150 01       		.uleb128 0x1
 1846 0151 12       		.uleb128 0x12
 1847 0152 01       		.uleb128 0x1
 1848 0153 40       		.uleb128 0x40
 1849 0154 06       		.uleb128 0x6
 1850 0155 01       		.uleb128 0x1
 1851 0156 13       		.uleb128 0x13
 1852 0157 00       		.byte	0
 1853 0158 00       		.byte	0
 1854 0159 1C       		.uleb128 0x1c
 1855 015a 05       		.uleb128 0x5
 1856 015b 00       		.byte	0
 1857 015c 03       		.uleb128 0x3
 1858 015d 08       		.uleb128 0x8
 1859 015e 3A       		.uleb128 0x3a
 1860 015f 0B       		.uleb128 0xb
 1861 0160 3B       		.uleb128 0x3b
 1862 0161 0B       		.uleb128 0xb
 1863 0162 49       		.uleb128 0x49
 1864 0163 13       		.uleb128 0x13
 1865 0164 02       		.uleb128 0x2
 1866 0165 06       		.uleb128 0x6
 1867 0166 00       		.byte	0
 1868 0167 00       		.byte	0
ARM GAS  /tmp/cc4kahim.s 			page 34


 1869 0168 1D       		.uleb128 0x1d
 1870 0169 34       		.uleb128 0x34
 1871 016a 00       		.byte	0
 1872 016b 03       		.uleb128 0x3
 1873 016c 08       		.uleb128 0x8
 1874 016d 3A       		.uleb128 0x3a
 1875 016e 0B       		.uleb128 0xb
 1876 016f 3B       		.uleb128 0x3b
 1877 0170 0B       		.uleb128 0xb
 1878 0171 49       		.uleb128 0x49
 1879 0172 13       		.uleb128 0x13
 1880 0173 02       		.uleb128 0x2
 1881 0174 0A       		.uleb128 0xa
 1882 0175 00       		.byte	0
 1883 0176 00       		.byte	0
 1884 0177 1E       		.uleb128 0x1e
 1885 0178 34       		.uleb128 0x34
 1886 0179 00       		.byte	0
 1887 017a 03       		.uleb128 0x3
 1888 017b 0E       		.uleb128 0xe
 1889 017c 3A       		.uleb128 0x3a
 1890 017d 0B       		.uleb128 0xb
 1891 017e 3B       		.uleb128 0x3b
 1892 017f 0B       		.uleb128 0xb
 1893 0180 49       		.uleb128 0x49
 1894 0181 13       		.uleb128 0x13
 1895 0182 1C       		.uleb128 0x1c
 1896 0183 06       		.uleb128 0x6
 1897 0184 00       		.byte	0
 1898 0185 00       		.byte	0
 1899 0186 1F       		.uleb128 0x1f
 1900 0187 2E       		.uleb128 0x2e
 1901 0188 00       		.byte	0
 1902 0189 3F       		.uleb128 0x3f
 1903 018a 0C       		.uleb128 0xc
 1904 018b 03       		.uleb128 0x3
 1905 018c 0E       		.uleb128 0xe
 1906 018d 3A       		.uleb128 0x3a
 1907 018e 0B       		.uleb128 0xb
 1908 018f 3B       		.uleb128 0x3b
 1909 0190 0B       		.uleb128 0xb
 1910 0191 27       		.uleb128 0x27
 1911 0192 0C       		.uleb128 0xc
 1912 0193 11       		.uleb128 0x11
 1913 0194 01       		.uleb128 0x1
 1914 0195 12       		.uleb128 0x12
 1915 0196 01       		.uleb128 0x1
 1916 0197 40       		.uleb128 0x40
 1917 0198 06       		.uleb128 0x6
 1918 0199 00       		.byte	0
 1919 019a 00       		.byte	0
 1920 019b 20       		.uleb128 0x20
 1921 019c 34       		.uleb128 0x34
 1922 019d 00       		.byte	0
 1923 019e 03       		.uleb128 0x3
 1924 019f 0E       		.uleb128 0xe
 1925 01a0 3A       		.uleb128 0x3a
ARM GAS  /tmp/cc4kahim.s 			page 35


 1926 01a1 0B       		.uleb128 0xb
 1927 01a2 3B       		.uleb128 0x3b
 1928 01a3 05       		.uleb128 0x5
 1929 01a4 49       		.uleb128 0x49
 1930 01a5 13       		.uleb128 0x13
 1931 01a6 3F       		.uleb128 0x3f
 1932 01a7 0C       		.uleb128 0xc
 1933 01a8 3C       		.uleb128 0x3c
 1934 01a9 0C       		.uleb128 0xc
 1935 01aa 00       		.byte	0
 1936 01ab 00       		.byte	0
 1937 01ac 21       		.uleb128 0x21
 1938 01ad 34       		.uleb128 0x34
 1939 01ae 00       		.byte	0
 1940 01af 03       		.uleb128 0x3
 1941 01b0 0E       		.uleb128 0xe
 1942 01b1 3A       		.uleb128 0x3a
 1943 01b2 0B       		.uleb128 0xb
 1944 01b3 3B       		.uleb128 0x3b
 1945 01b4 0B       		.uleb128 0xb
 1946 01b5 49       		.uleb128 0x49
 1947 01b6 13       		.uleb128 0x13
 1948 01b7 3F       		.uleb128 0x3f
 1949 01b8 0C       		.uleb128 0xc
 1950 01b9 3C       		.uleb128 0x3c
 1951 01ba 0C       		.uleb128 0xc
 1952 01bb 00       		.byte	0
 1953 01bc 00       		.byte	0
 1954 01bd 22       		.uleb128 0x22
 1955 01be 34       		.uleb128 0x34
 1956 01bf 00       		.byte	0
 1957 01c0 03       		.uleb128 0x3
 1958 01c1 0E       		.uleb128 0xe
 1959 01c2 3A       		.uleb128 0x3a
 1960 01c3 0B       		.uleb128 0xb
 1961 01c4 3B       		.uleb128 0x3b
 1962 01c5 0B       		.uleb128 0xb
 1963 01c6 49       		.uleb128 0x49
 1964 01c7 13       		.uleb128 0x13
 1965 01c8 3F       		.uleb128 0x3f
 1966 01c9 0C       		.uleb128 0xc
 1967 01ca 02       		.uleb128 0x2
 1968 01cb 0A       		.uleb128 0xa
 1969 01cc 00       		.byte	0
 1970 01cd 00       		.byte	0
 1971 01ce 00       		.byte	0
 1972              		.section	.debug_loc,"",%progbits
 1973              	.Ldebug_loc0:
 1974              	.LLST0:
 1975 0000 00000000 		.4byte	.LVL0
 1976 0004 64000000 		.4byte	.LVL2
 1977 0008 0100     		.2byte	0x1
 1978 000a 50       		.byte	0x50
 1979 000b 6C000000 		.4byte	.LVL3
 1980 000f 86000000 		.4byte	.LFE117
 1981 0013 0100     		.2byte	0x1
 1982 0015 50       		.byte	0x50
ARM GAS  /tmp/cc4kahim.s 			page 36


 1983 0016 00000000 		.4byte	0
 1984 001a 00000000 		.4byte	0
 1985              	.LLST1:
 1986 001e 00000000 		.4byte	.LFB118
 1987 0022 02000000 		.4byte	.LCFI0
 1988 0026 0200     		.2byte	0x2
 1989 0028 7D       		.byte	0x7d
 1990 0029 00       		.sleb128 0
 1991 002a 02000000 		.4byte	.LCFI0
 1992 002e 0E000000 		.4byte	.LCFI1
 1993 0032 0200     		.2byte	0x2
 1994 0034 7D       		.byte	0x7d
 1995 0035 0C       		.sleb128 12
 1996 0036 0E000000 		.4byte	.LCFI1
 1997 003a BE000000 		.4byte	.LFE118
 1998 003e 0300     		.2byte	0x3
 1999 0040 7D       		.byte	0x7d
 2000 0041 D000     		.sleb128 80
 2001 0043 00000000 		.4byte	0
 2002 0047 00000000 		.4byte	0
 2003              	.LLST2:
 2004 004b 00000000 		.4byte	.LVL4
 2005 004f 0C000000 		.4byte	.LVL5
 2006 0053 0100     		.2byte	0x1
 2007 0055 50       		.byte	0x50
 2008 0056 00000000 		.4byte	0
 2009 005a 00000000 		.4byte	0
 2010              	.LLST3:
 2011 005e 00000000 		.4byte	.LFB119
 2012 0062 02000000 		.4byte	.LCFI2
 2013 0066 0200     		.2byte	0x2
 2014 0068 7D       		.byte	0x7d
 2015 0069 00       		.sleb128 0
 2016 006a 02000000 		.4byte	.LCFI2
 2017 006e 08000000 		.4byte	.LCFI3
 2018 0072 0200     		.2byte	0x2
 2019 0074 7D       		.byte	0x7d
 2020 0075 08       		.sleb128 8
 2021 0076 08000000 		.4byte	.LCFI3
 2022 007a 26000000 		.4byte	.LFE119
 2023 007e 0200     		.2byte	0x2
 2024 0080 7D       		.byte	0x7d
 2025 0081 10       		.sleb128 16
 2026 0082 00000000 		.4byte	0
 2027 0086 00000000 		.4byte	0
 2028              		.section	.debug_aranges,"",%progbits
 2029 0000 2C000000 		.4byte	0x2c
 2030 0004 0200     		.2byte	0x2
 2031 0006 00000000 		.4byte	.Ldebug_info0
 2032 000a 04       		.byte	0x4
 2033 000b 00       		.byte	0
 2034 000c 0000     		.2byte	0
 2035 000e 0000     		.2byte	0
 2036 0010 00000000 		.4byte	.LFB117
 2037 0014 86000000 		.4byte	.LFE117-.LFB117
 2038 0018 00000000 		.4byte	.LFB118
 2039 001c BE000000 		.4byte	.LFE118-.LFB118
ARM GAS  /tmp/cc4kahim.s 			page 37


 2040 0020 00000000 		.4byte	.LFB119
 2041 0024 26000000 		.4byte	.LFE119-.LFB119
 2042 0028 00000000 		.4byte	0
 2043 002c 00000000 		.4byte	0
 2044              		.section	.debug_ranges,"",%progbits
 2045              	.Ldebug_ranges0:
 2046 0000 00000000 		.4byte	.LFB117
 2047 0004 86000000 		.4byte	.LFE117
 2048 0008 00000000 		.4byte	.LFB118
 2049 000c BE000000 		.4byte	.LFE118
 2050 0010 00000000 		.4byte	.LFB119
 2051 0014 26000000 		.4byte	.LFE119
 2052 0018 00000000 		.4byte	0
 2053 001c 00000000 		.4byte	0
 2054              		.section	.debug_line,"",%progbits
 2055              	.Ldebug_line0:
 2056 0000 9A020000 		.section	.debug_str,"MS",%progbits,1
 2056      02001B02 
 2056      00000201 
 2056      FB0E0D00 
 2056      01010101 
 2057              	.LASF115:
 2058 0000 736F6E61 		.ascii	"sonarWorkingArea\000"
 2058      72576F72 
 2058      6B696E67 
 2058      41726561 
 2058      00
 2059              	.LASF90:
 2060 0011 4943555F 		.ascii	"ICU_INPUT_ACTIVE_HIGH\000"
 2060      494E5055 
 2060      545F4143 
 2060      54495645 
 2060      5F484947 
 2061              	.LASF59:
 2062 0027 44494552 		.ascii	"DIER\000"
 2062      00
 2063              	.LASF32:
 2064 002c 705F7469 		.ascii	"p_time\000"
 2064      6D6500
 2065              	.LASF50:
 2066 0033 7264796D 		.ascii	"rdymsg\000"
 2066      736700
 2067              	.LASF106:
 2068 003a 736F7574 		.ascii	"south\000"
 2068      6800
 2069              	.LASF12:
 2070 0040 75696E74 		.ascii	"uint64_t\000"
 2070      36345F74 
 2070      00
 2071              	.LASF55:
 2072 0049 5F726573 		.ascii	"_resvd0\000"
 2072      76643000 
 2073              	.LASF56:
 2074 0051 5F726573 		.ascii	"_resvd1\000"
 2074      76643100 
 2075              	.LASF82:
 2076 0059 4943555F 		.ascii	"ICU_ACTIVE\000"
ARM GAS  /tmp/cc4kahim.s 			page 38


 2076      41435449 
 2076      564500
 2077              	.LASF60:
 2078 0064 5F726573 		.ascii	"_resvd3\000"
 2078      76643300 
 2079              	.LASF61:
 2080 006c 5F726573 		.ascii	"_resvd4\000"
 2080      76643400 
 2081              	.LASF62:
 2082 0074 5F726573 		.ascii	"_resvd5\000"
 2082      76643500 
 2083              	.LASF64:
 2084 007c 5F726573 		.ascii	"_resvd6\000"
 2084      76643600 
 2085              	.LASF66:
 2086 0084 5F726573 		.ascii	"_resvd7\000"
 2086      76643700 
 2087              	.LASF68:
 2088 008c 5F726573 		.ascii	"_resvd8\000"
 2088      76643800 
 2089              	.LASF69:
 2090 0094 5F726573 		.ascii	"_resvd9\000"
 2090      76643900 
 2091              	.LASF72:
 2092 009c 5F726573 		.ascii	"_resvd11\000"
 2092      76643131 
 2092      00
 2093              	.LASF125:
 2094 00a5 2F686F6D 		.ascii	"/home/mikel/workspace/ros/PacBot/PacBot/FirmwareWit"
 2094      652F6D69 
 2094      6B656C2F 
 2094      776F726B 
 2094      73706163 
 2095 00d8 68495200 		.ascii	"hIR\000"
 2096              	.LASF84:
 2097 00dc 69637573 		.ascii	"icustate_t\000"
 2097      74617465 
 2097      5F7400
 2098              	.LASF75:
 2099 00e7 5F726573 		.ascii	"_resvd13\000"
 2099      76643133 
 2099      00
 2100              	.LASF13:
 2101 00f0 6C6F6E67 		.ascii	"long long unsigned int\000"
 2101      206C6F6E 
 2101      6720756E 
 2101      7369676E 
 2101      65642069 
 2102              	.LASF51:
 2103 0107 65786974 		.ascii	"exitcode\000"
 2103      636F6465 
 2103      00
 2104              	.LASF116:
 2105 0110 49544D5F 		.ascii	"ITM_RxBuffer\000"
 2105      52784275 
 2105      66666572 
 2105      00
ARM GAS  /tmp/cc4kahim.s 			page 39


 2106              	.LASF71:
 2107 011d 42445452 		.ascii	"BDTR\000"
 2107      00
 2108              	.LASF96:
 2109 0122 66726571 		.ascii	"frequency\000"
 2109      75656E63 
 2109      7900
 2110              	.LASF24:
 2111 012c 705F7072 		.ascii	"p_prio\000"
 2111      696F00
 2112              	.LASF63:
 2113 0133 43434D52 		.ascii	"CCMR1\000"
 2113      3100
 2114              	.LASF65:
 2115 0139 43434D52 		.ascii	"CCMR2\000"
 2115      3200
 2116              	.LASF11:
 2117 013f 6C6F6E67 		.ascii	"long long int\000"
 2117      206C6F6E 
 2117      6720696E 
 2117      7400
 2118              	.LASF1:
 2119 014d 7369676E 		.ascii	"signed char\000"
 2119      65642063 
 2119      68617200 
 2120              	.LASF47:
 2121 0159 6D5F7175 		.ascii	"m_queue\000"
 2121      65756500 
 2122              	.LASF108:
 2123 0161 65617374 		.ascii	"east\000"
 2123      00
 2124              	.LASF70:
 2125 0166 5F726573 		.ascii	"_resvd10\000"
 2125      76643130 
 2125      00
 2126              	.LASF86:
 2127 016f 73746174 		.ascii	"state\000"
 2127      6500
 2128              	.LASF73:
 2129 0175 5F726573 		.ascii	"_resvd12\000"
 2129      76643132 
 2129      00
 2130              	.LASF8:
 2131 017e 6C6F6E67 		.ascii	"long int\000"
 2131      20696E74 
 2131      00
 2132              	.LASF76:
 2133 0187 5F726573 		.ascii	"_resvd14\000"
 2133      76643134 
 2133      00
 2134              	.LASF127:
 2135 0190 736F6E61 		.ascii	"sonarThread\000"
 2135      72546872 
 2135      65616400 
 2136              	.LASF15:
 2137 019c 74737461 		.ascii	"tstate_t\000"
 2137      74655F74 
ARM GAS  /tmp/cc4kahim.s 			page 40


 2137      00
 2138              	.LASF67:
 2139 01a5 43434552 		.ascii	"CCER\000"
 2139      00
 2140              	.LASF105:
 2141 01aa 6E6F7274 		.ascii	"north\000"
 2141      6800
 2142              	.LASF5:
 2143 01b0 75696E74 		.ascii	"uint16_t\000"
 2143      31365F74 
 2143      00
 2144              	.LASF26:
 2145 01b9 705F6E65 		.ascii	"p_newer\000"
 2145      77657200 
 2146              	.LASF99:
 2147 01c1 49435543 		.ascii	"ICUConfig\000"
 2147      6F6E6669 
 2147      6700
 2148              	.LASF39:
 2149 01cb 705F6D70 		.ascii	"p_mpool\000"
 2149      6F6F6C00 
 2150              	.LASF42:
 2151 01d3 72656761 		.ascii	"regarm_t\000"
 2151      726D5F74 
 2151      00
 2152              	.LASF122:
 2153 01dc 736F6E61 		.ascii	"sonar_data\000"
 2153      725F6461 
 2153      746100
 2154              	.LASF0:
 2155 01e7 756E7369 		.ascii	"unsigned int\000"
 2155      676E6564 
 2155      20696E74 
 2155      00
 2156              	.LASF117:
 2157 01f4 49435544 		.ascii	"ICUD1\000"
 2157      3100
 2158              	.LASF118:
 2159 01fa 49435544 		.ascii	"ICUD3\000"
 2159      3300
 2160              	.LASF34:
 2161 0200 705F6D73 		.ascii	"p_msgqueue\000"
 2161      67717565 
 2161      756500
 2162              	.LASF89:
 2163 020b 69637563 		.ascii	"icucallback_t\000"
 2163      616C6C62 
 2163      61636B5F 
 2163      7400
 2164              	.LASF98:
 2165 0219 70657269 		.ascii	"period_cb\000"
 2165      6F645F63 
 2165      6200
 2166              	.LASF111:
 2167 0223 77696474 		.ascii	"width\000"
 2167      6800
 2168              	.LASF57:
ARM GAS  /tmp/cc4kahim.s 			page 41


 2169 0229 534D4352 		.ascii	"SMCR\000"
 2169      00
 2170              	.LASF18:
 2171 022e 6D73675F 		.ascii	"msg_t\000"
 2171      7400
 2172              	.LASF85:
 2173 0234 49435544 		.ascii	"ICUDriver\000"
 2173      72697665 
 2173      7200
 2174              	.LASF77:
 2175 023e 73746D33 		.ascii	"stm32_tim_t\000"
 2175      325F7469 
 2175      6D5F7400 
 2176              	.LASF41:
 2177 024a 54687265 		.ascii	"ThreadsList\000"
 2177      6164734C 
 2177      69737400 
 2178              	.LASF19:
 2179 0256 6576656E 		.ascii	"eventmask_t\000"
 2179      746D6173 
 2179      6B5F7400 
 2180              	.LASF81:
 2181 0262 4943555F 		.ascii	"ICU_WAITING\000"
 2181      57414954 
 2181      494E4700 
 2182              	.LASF80:
 2183 026e 4943555F 		.ascii	"ICU_READY\000"
 2183      52454144 
 2183      5900
 2184              	.LASF43:
 2185 0278 73746B61 		.ascii	"stkalign_t\000"
 2185      6C69676E 
 2185      5F7400
 2186              	.LASF126:
 2187 0283 69637557 		.ascii	"icuWidthCB\000"
 2187      69647468 
 2187      434200
 2188              	.LASF102:
 2189 028e 636F6E74 		.ascii	"content\000"
 2189      656E7400 
 2190              	.LASF46:
 2191 0296 4D757465 		.ascii	"Mutex\000"
 2191      7800
 2192              	.LASF97:
 2193 029c 77696474 		.ascii	"width_cb\000"
 2193      685F6362 
 2193      00
 2194              	.LASF27:
 2195 02a5 705F6F6C 		.ascii	"p_older\000"
 2195      64657200 
 2196              	.LASF40:
 2197 02ad 54687265 		.ascii	"ThreadsQueue\000"
 2197      61647351 
 2197      75657565 
 2197      00
 2198              	.LASF79:
 2199 02ba 4943555F 		.ascii	"ICU_STOP\000"
ARM GAS  /tmp/cc4kahim.s 			page 42


 2199      53544F50 
 2199      00
 2200              	.LASF91:
 2201 02c3 4943555F 		.ascii	"ICU_INPUT_ACTIVE_LOW\000"
 2201      494E5055 
 2201      545F4143 
 2201      54495645 
 2201      5F4C4F57 
 2202              	.LASF128:
 2203 02d8 73746172 		.ascii	"startSonarThread\000"
 2203      74536F6E 
 2203      61725468 
 2203      72656164 
 2203      00
 2204              	.LASF16:
 2205 02e9 74726566 		.ascii	"trefs_t\000"
 2205      735F7400 
 2206              	.LASF23:
 2207 02f1 705F7072 		.ascii	"p_prev\000"
 2207      657600
 2208              	.LASF17:
 2209 02f8 74707269 		.ascii	"tprio_t\000"
 2209      6F5F7400 
 2210              	.LASF119:
 2211 0300 49435544 		.ascii	"ICUD5\000"
 2211      3500
 2212              	.LASF112:
 2213 0306 69637570 		.ascii	"icup\000"
 2213      00
 2214              	.LASF103:
 2215 030b 6D757465 		.ascii	"mutex\000"
 2215      7800
 2216              	.LASF120:
 2217 0311 49435544 		.ascii	"ICUD8\000"
 2217      3800
 2218              	.LASF7:
 2219 0317 696E7433 		.ascii	"int32_t\000"
 2219      325F7400 
 2220              	.LASF2:
 2221 031f 756E7369 		.ascii	"unsigned char\000"
 2221      676E6564 
 2221      20636861 
 2221      7200
 2222              	.LASF92:
 2223 032d 6963756D 		.ascii	"icumode_t\000"
 2223      6F64655F 
 2223      7400
 2224              	.LASF109:
 2225 0337 536F6E61 		.ascii	"SonarData\000"
 2225      72446174 
 2225      6100
 2226              	.LASF104:
 2227 0341 43697263 		.ascii	"CircularBuffer\000"
 2227      756C6172 
 2227      42756666 
 2227      657200
 2228              	.LASF37:
ARM GAS  /tmp/cc4kahim.s 			page 43


 2229 0350 705F6D74 		.ascii	"p_mtxlist\000"
 2229      786C6973 
 2229      7400
 2230              	.LASF3:
 2231 035a 73686F72 		.ascii	"short int\000"
 2231      7420696E 
 2231      7400
 2232              	.LASF29:
 2233 0364 705F7374 		.ascii	"p_state\000"
 2233      61746500 
 2234              	.LASF94:
 2235 036c 69637563 		.ascii	"icucnt_t\000"
 2235      6E745F74 
 2235      00
 2236              	.LASF53:
 2237 0375 65776D61 		.ascii	"ewmask\000"
 2237      736B00
 2238              	.LASF22:
 2239 037c 705F6E65 		.ascii	"p_next\000"
 2239      787400
 2240              	.LASF30:
 2241 0383 705F666C 		.ascii	"p_flags\000"
 2241      61677300 
 2242              	.LASF6:
 2243 038b 73686F72 		.ascii	"short unsigned int\000"
 2243      7420756E 
 2243      7369676E 
 2243      65642069 
 2243      6E7400
 2244              	.LASF21:
 2245 039e 54687265 		.ascii	"Thread\000"
 2245      616400
 2246              	.LASF100:
 2247 03a5 43697263 		.ascii	"CircularBuffer_s\000"
 2247      756C6172 
 2247      42756666 
 2247      65725F73 
 2247      00
 2248              	.LASF36:
 2249 03b6 705F6570 		.ascii	"p_epending\000"
 2249      656E6469 
 2249      6E6700
 2250              	.LASF121:
 2251 03c1 6F757470 		.ascii	"outputBuffer\000"
 2251      75744275 
 2251      66666572 
 2251      00
 2252              	.LASF123:
 2253 03ce 474E5520 		.ascii	"GNU C 4.6.3\000"
 2253      4320342E 
 2253      362E3300 
 2254              	.LASF58:
 2255 03da 5F726573 		.ascii	"_resvd2\000"
 2255      76643200 
 2256              	.LASF10:
 2257 03e2 6C6F6E67 		.ascii	"long unsigned int\000"
 2257      20756E73 
ARM GAS  /tmp/cc4kahim.s 			page 44


 2257      69676E65 
 2257      6420696E 
 2257      7400
 2258              	.LASF54:
 2259 03f4 63686172 		.ascii	"char\000"
 2259      00
 2260              	.LASF95:
 2261 03f9 6D6F6465 		.ascii	"mode\000"
 2261      00
 2262              	.LASF87:
 2263 03fe 636F6E66 		.ascii	"config\000"
 2263      696700
 2264              	.LASF74:
 2265 0405 444D4152 		.ascii	"DMAR\000"
 2265      00
 2266              	.LASF107:
 2267 040a 77657374 		.ascii	"west\000"
 2267      00
 2268              	.LASF49:
 2269 040f 6D5F6E65 		.ascii	"m_next\000"
 2269      787400
 2270              	.LASF20:
 2271 0416 73797374 		.ascii	"systime_t\000"
 2271      696D655F 
 2271      7400
 2272              	.LASF38:
 2273 0420 705F7265 		.ascii	"p_realprio\000"
 2273      616C7072 
 2273      696F00
 2274              	.LASF45:
 2275 042b 636F6E74 		.ascii	"context\000"
 2275      65787400 
 2276              	.LASF93:
 2277 0433 69637566 		.ascii	"icufreq_t\000"
 2277      7265715F 
 2277      7400
 2278              	.LASF44:
 2279 043d 696E7463 		.ascii	"intctx\000"
 2279      747800
 2280              	.LASF113:
 2281 0444 66726571 		.ascii	"frequenzaTimer\000"
 2281      75656E7A 
 2281      6154696D 
 2281      657200
 2282              	.LASF9:
 2283 0453 75696E74 		.ascii	"uint32_t\000"
 2283      33325F74 
 2283      00
 2284              	.LASF31:
 2285 045c 705F7265 		.ascii	"p_refs\000"
 2285      667300
 2286              	.LASF124:
 2287 0463 2E2F7372 		.ascii	"./src/Sonar.c\000"
 2287      632F536F 
 2287      6E61722E 
 2287      6300
 2288              	.LASF78:
ARM GAS  /tmp/cc4kahim.s 			page 45


 2289 0471 4943555F 		.ascii	"ICU_UNINIT\000"
 2289      554E494E 
 2289      495400
 2290              	.LASF4:
 2291 047c 75696E74 		.ascii	"uint8_t\000"
 2291      385F7400 
 2292              	.LASF52:
 2293 0484 77746F62 		.ascii	"wtobjp\000"
 2293      6A7000
 2294              	.LASF28:
 2295 048b 705F6E61 		.ascii	"p_name\000"
 2295      6D6500
 2296              	.LASF114:
 2297 0492 69637563 		.ascii	"icucfg\000"
 2297      666700
 2298              	.LASF14:
 2299 0499 746D6F64 		.ascii	"tmode_t\000"
 2299      655F7400 
 2300              	.LASF88:
 2301 04a1 636C6F63 		.ascii	"clock\000"
 2301      6B00
 2302              	.LASF35:
 2303 04a7 705F6D73 		.ascii	"p_msg\000"
 2303      6700
 2304              	.LASF101:
 2305 04ad 73746172 		.ascii	"start\000"
 2305      7400
 2306              	.LASF83:
 2307 04b3 4943555F 		.ascii	"ICU_IDLE\000"
 2307      49444C45 
 2307      00
 2308              	.LASF48:
 2309 04bc 6D5F6F77 		.ascii	"m_owner\000"
 2309      6E657200 
 2310              	.LASF25:
 2311 04c4 705F6374 		.ascii	"p_ctx\000"
 2311      7800
 2312              	.LASF33:
 2313 04ca 705F7761 		.ascii	"p_waiting\000"
 2313      6974696E 
 2313      6700
 2314              	.LASF110:
 2315 04d4 7363616C 		.ascii	"scaleFactor\000"
 2315      65466163 
 2315      746F7200 
 2316              		.ident	"GCC: (Sourcery CodeBench Lite 2012.03-56) 4.6.3"
ARM GAS  /tmp/cc4kahim.s 			page 46


DEFINED SYMBOLS
                            *ABS*:00000000 Sonar.c
     /tmp/cc4kahim.s:21     .text.icuWidthCB:00000000 $t
     /tmp/cc4kahim.s:26     .text.icuWidthCB:00000000 icuWidthCB
     /tmp/cc4kahim.s:254    .bss.sonar_data:00000000 .LANCHOR0
     /tmp/cc4kahim.s:100    .text.sonarThread:00000000 $t
     /tmp/cc4kahim.s:105    .text.sonarThread:00000000 sonarThread
     /tmp/cc4kahim.s:245    .rodata:00000000 .LANCHOR1
     /tmp/cc4kahim.s:261    .rodata.str1.4:00000000 .LC1
     /tmp/cc4kahim.s:204    .text.startSonarThread:00000000 $t
     /tmp/cc4kahim.s:210    .text.startSonarThread:00000000 startSonarThread
     /tmp/cc4kahim.s:265    .bss.sonarWorkingArea:00000000 .LANCHOR2
     /tmp/cc4kahim.s:257    .bss.sonar_data:00000000 sonar_data
     /tmp/cc4kahim.s:244    .rodata:00000000 $d
     /tmp/cc4kahim.s:253    .bss.sonar_data:00000000 $d
     /tmp/cc4kahim.s:260    .rodata.str1.4:00000000 $d
     /tmp/cc4kahim.s:264    .bss.sonarWorkingArea:00000000 $d
     /tmp/cc4kahim.s:268    .bss.sonarWorkingArea:00000000 sonarWorkingArea
                     .debug_frame:00000010 $d

UNDEFINED SYMBOLS
ICUD1
ICUD3
ICUD5
ICUD8
icuStart
icuEnable
chsprintf
outputBuffer
bufferPutString
chThdSleep
chThdCreateStatic
