ARM GAS  /tmp/cc4kahim.s 			page 1


   1              		.syntax unified
   2              		.cpu cortex-m4
   3              		.eabi_attribute 27, 3
   4              		.eabi_attribute 28, 1
   5              		.fpu fpv4-sp-d16
   6              		.eabi_attribute 20, 1
   7              		.eabi_attribute 21, 1
   8              		.eabi_attribute 23, 3
   9              		.eabi_attribute 24, 1
  10              		.eabi_attribute 25, 1
  11              		.eabi_attribute 26, 1
  12              		.eabi_attribute 30, 2
  13              		.eabi_attribute 34, 1
  14              		.eabi_attribute 18, 4
  15              		.thumb
  16              		.file	"Sonar.c"
  17              		.text
  18              	.Ltext0:
  19              		.cfi_sections	.debug_frame
  20              		.section	.text.icuWidthCB,"ax",%progbits
  21              		.align	2
  22              		.p2align 4,,15
  23              		.thumb
  24              		.thumb_func
  25              		.type	icuWidthCB, %function
  26              	icuWidthCB:
  27              	.LFB117:
  28              		.file 1 "./src/Sonar.c"
  29              		.loc 1 36 0
  30              		.cfi_startproc
  31              		@ args = 0, pretend = 0, frame = 0
  32              		@ frame_needed = 0, uses_anonymous_args = 0
  33              		@ link register save eliminated.
  34              	.LVL0:
  35              		.loc 1 39 0
  36 0000 C368     		ldr	r3, [r0, #12]
  37 0002 996B     		ldr	r1, [r3, #56]
  38 0004 4FF47A7C 		mov	ip, #1000
  39 0008 4EF22932 		movw	r2, #58153
  40 000c 01FB0CC3 		mla	r3, r1, ip, ip
  41 0010 C6F66322 		movt	r2, 27235
  42 0014 A2FB031C 		umull	r1, ip, r2, r3
  43 0018 CCEB0301 		rsb	r1, ip, r3
  44              		.loc 1 41 0
  45 001c 40F20003 		movw	r3, #:lower16:ICUD1
  46 0020 C0F20003 		movt	r3, #:upper16:ICUD1
  47              		.loc 1 39 0
  48 0024 0CEB5102 		add	r2, ip, r1, lsr #1
  49              		.loc 1 41 0
  50 0028 9842     		cmp	r0, r3
  51              		.loc 1 39 0
  52 002a C2F30F32 		ubfx	r2, r2, #12, #16
  53              	.LVL1:
  54              		.loc 1 41 0
  55 002e 17D0     		beq	.L7
  56              		.loc 1 43 0
  57 0030 40F20001 		movw	r1, #:lower16:ICUD3
ARM GAS  /tmp/cc4kahim.s 			page 2


  58 0034 C0F20001 		movt	r1, #:upper16:ICUD3
  59 0038 8842     		cmp	r0, r1
  60 003a 17D0     		beq	.L8
  61              		.loc 1 45 0
  62 003c 40F20003 		movw	r3, #:lower16:ICUD5
  63 0040 C0F20003 		movt	r3, #:upper16:ICUD5
  64 0044 9842     		cmp	r0, r3
  65 0046 18D0     		beq	.L9
  66              		.loc 1 47 0
  67 0048 40F20001 		movw	r1, #:lower16:ICUD8
  68 004c C0F20001 		movt	r1, #:upper16:ICUD8
  69 0050 8842     		cmp	r0, r1
  70              		.loc 1 48 0
  71 0052 02BF     		ittt	eq
  72 0054 40F20003 		movweq	r3, #:lower16:.LANCHOR0
  73 0058 C0F20003 		movteq	r3, #:upper16:.LANCHOR0
  74 005c DA80     		strheq	r2, [r3, #6]	@ movhi
  75 005e 7047     		bx	lr
  76              	.L7:
  77              		.loc 1 42 0
  78 0060 40F20000 		movw	r0, #:lower16:.LANCHOR0
  79              	.LVL2:
  80 0064 C0F20000 		movt	r0, #:upper16:.LANCHOR0
  81 0068 0280     		strh	r2, [r0, #0]	@ movhi
  82 006a 7047     		bx	lr
  83              	.LVL3:
  84              	.L8:
  85              		.loc 1 44 0
  86 006c 40F2000C 		movw	ip, #:lower16:.LANCHOR0
  87 0070 C0F2000C 		movt	ip, #:upper16:.LANCHOR0
  88 0074 ACF80220 		strh	r2, [ip, #2]	@ movhi
  89 0078 7047     		bx	lr
  90              	.L9:
  91              		.loc 1 46 0
  92 007a 40F20003 		movw	r3, #:lower16:.LANCHOR0
  93 007e C0F20003 		movt	r3, #:upper16:.LANCHOR0
  94 0082 9A80     		strh	r2, [r3, #4]	@ movhi
  95 0084 7047     		bx	lr
  96              		.cfi_endproc
  97              	.LFE117:
  98              		.size	icuWidthCB, .-icuWidthCB
  99 0086 00BFAFF3 		.section	.text.sonarThread,"ax",%progbits
  99      0080AFF3 
  99      0080
 100              		.align	2
 101              		.p2align 4,,15
 102              		.thumb
 103              		.thumb_func
 104              		.type	sonarThread, %function
 105              	sonarThread:
 106              	.LFB118:
 107              		.loc 1 53 0
 108              		.cfi_startproc
 109              		@ args = 0, pretend = 0, frame = 56
 110              		@ frame_needed = 0, uses_anonymous_args = 0
 111              	.LVL4:
 112 0000 30B5     		push	{r4, r5, lr}
ARM GAS  /tmp/cc4kahim.s 			page 3


 113              	.LCFI0:
 114              		.cfi_def_cfa_offset 12
 115              		.cfi_offset 14, -4
 116              		.cfi_offset 5, -8
 117              		.cfi_offset 4, -12
 118              		.loc 1 57 0
 119 0002 40F20003 		movw	r3, #:lower16:.LANCHOR1
 120 0006 C0F20003 		movt	r3, #:upper16:.LANCHOR1
 121 000a 0FCB     		ldmia	r3, {r0, r1, r2, r3}
 122              	.LVL5:
 123              		.loc 1 53 0
 124 000c 91B0     		sub	sp, sp, #68
 125              	.LCFI1:
 126              		.cfi_def_cfa_offset 80
 127              		.loc 1 57 0
 128 000e 0CAC     		add	r4, sp, #48
 129 0010 84E80F00 		stmia	r4, {r0, r1, r2, r3}
 130              		.loc 1 59 0
 131 0014 40F20000 		movw	r0, #:lower16:ICUD1
 132 0018 2146     		mov	r1, r4
 133 001a C0F20000 		movt	r0, #:upper16:ICUD1
 134 001e FFF7FEFF 		bl	icuStart
 135              		.loc 1 60 0
 136 0022 40F20000 		movw	r0, #:lower16:ICUD3
 137 0026 2146     		mov	r1, r4
 138 0028 C0F20000 		movt	r0, #:upper16:ICUD3
 139 002c FFF7FEFF 		bl	icuStart
 140              		.loc 1 61 0
 141 0030 40F20000 		movw	r0, #:lower16:ICUD5
 142 0034 2146     		mov	r1, r4
 143 0036 C0F20000 		movt	r0, #:upper16:ICUD5
 144 003a FFF7FEFF 		bl	icuStart
 145              		.loc 1 62 0
 146 003e 40F20000 		movw	r0, #:lower16:ICUD8
 147 0042 2146     		mov	r1, r4
 148 0044 C0F20000 		movt	r0, #:upper16:ICUD8
 149 0048 FFF7FEFF 		bl	icuStart
 150              		.loc 1 64 0
 151 004c 40F20000 		movw	r0, #:lower16:ICUD1
 152 0050 C0F20000 		movt	r0, #:upper16:ICUD1
 153 0054 FFF7FEFF 		bl	icuEnable
 154              		.loc 1 65 0
 155 0058 40F20000 		movw	r0, #:lower16:ICUD3
 156 005c C0F20000 		movt	r0, #:upper16:ICUD3
 157 0060 FFF7FEFF 		bl	icuEnable
 158              		.loc 1 66 0
 159 0064 40F20000 		movw	r0, #:lower16:ICUD5
 160 0068 C0F20000 		movt	r0, #:upper16:ICUD5
 161 006c FFF7FEFF 		bl	icuEnable
 162              		.loc 1 67 0
 163 0070 40F20000 		movw	r0, #:lower16:ICUD8
 164 0074 C0F20000 		movt	r0, #:upper16:ICUD8
 165 0078 FFF7FEFF 		bl	icuEnable
 166 007c 40F20004 		movw	r4, #:lower16:.LANCHOR0
 167 0080 C0F20004 		movt	r4, #:upper16:.LANCHOR0
 168              	.L11:
 169              		.loc 1 70 0 discriminator 1
ARM GAS  /tmp/cc4kahim.s 			page 4


 170 0084 A188     		ldrh	r1, [r4, #4]
 171 0086 2288     		ldrh	r2, [r4, #0]
 172 0088 6388     		ldrh	r3, [r4, #2]
 173 008a E588     		ldrh	r5, [r4, #6]
 174 008c 0091     		str	r1, [sp, #0]
 175 008e 40F20001 		movw	r1, #:lower16:.LC1
 176 0092 02A8     		add	r0, sp, #8
 177 0094 C0F20001 		movt	r1, #:upper16:.LC1
 178 0098 0195     		str	r5, [sp, #4]
 179 009a FFF7FEFF 		bl	chsprintf
 180              		.loc 1 73 0 discriminator 1
 181 009e 0022     		movs	r2, #0
 182              		.loc 1 77 0 discriminator 1
 183 00a0 40F20000 		movw	r0, #:lower16:outputBuffer
 184 00a4 02A9     		add	r1, sp, #8
 185              		.loc 1 73 0 discriminator 1
 186 00a6 2280     		strh	r2, [r4, #0]	@ movhi
 187              		.loc 1 74 0 discriminator 1
 188 00a8 6280     		strh	r2, [r4, #2]	@ movhi
 189              		.loc 1 75 0 discriminator 1
 190 00aa A280     		strh	r2, [r4, #4]	@ movhi
 191              		.loc 1 76 0 discriminator 1
 192 00ac E280     		strh	r2, [r4, #6]	@ movhi
 193              		.loc 1 77 0 discriminator 1
 194 00ae C0F20000 		movt	r0, #:upper16:outputBuffer
 195 00b2 FFF7FEFF 		bl	bufferPutString
 196              		.loc 1 78 0 discriminator 1
 197 00b6 6420     		movs	r0, #100
 198 00b8 FFF7FEFF 		bl	chThdSleep
 199 00bc E2E7     		b	.L11
 200              		.cfi_endproc
 201              	.LFE118:
 202              		.size	sonarThread, .-sonarThread
 203 00be 00BF     		.section	.text.startSonarThread,"ax",%progbits
 204              		.align	2
 205              		.p2align 4,,15
 206              		.global	startSonarThread
 207              		.thumb
 208              		.thumb_func
 209              		.type	startSonarThread, %function
 210              	startSonarThread:
 211              	.LFB119:
 212              		.loc 1 85 0
 213              		.cfi_startproc
 214              		@ args = 0, pretend = 0, frame = 0
 215              		@ frame_needed = 0, uses_anonymous_args = 0
 216 0000 10B5     		push	{r4, lr}
 217              	.LCFI2:
 218              		.cfi_def_cfa_offset 8
 219              		.cfi_offset 14, -4
 220              		.cfi_offset 4, -8
 221              		.loc 1 86 0
 222 0002 40F20000 		movw	r0, #:lower16:.LANCHOR2
 223              		.loc 1 85 0
 224 0006 82B0     		sub	sp, sp, #8
 225              	.LCFI3:
 226              		.cfi_def_cfa_offset 16
ARM GAS  /tmp/cc4kahim.s 			page 5


 227              		.loc 1 86 0
 228 0008 40F20003 		movw	r3, #:lower16:sonarThread
 229 000c 0024     		movs	r4, #0
 230 000e 4FF49661 		mov	r1, #1200
 231 0012 4022     		movs	r2, #64
 232 0014 C0F20003 		movt	r3, #:upper16:sonarThread
 233 0018 C0F20000 		movt	r0, #:upper16:.LANCHOR2
 234 001c 0094     		str	r4, [sp, #0]
 235 001e FFF7FEFF 		bl	chThdCreateStatic
 236              		.loc 1 88 0
 237 0022 02B0     		add	sp, sp, #8
 238 0024 10BD     		pop	{r4, pc}
 239              		.cfi_endproc
 240              	.LFE119:
 241              		.size	startSonarThread, .-startSonarThread
 242              		.global	sonar_data
 243 0026 00BFAFF3 		.section	.rodata
 243      0080AFF3 
 243      0080
 244              		.align	2
 245              		.set	.LANCHOR1,. + 0
 246              	.LC0:
 247 0000 00       		.byte	0
 248 0001 000000   		.space	3
 249 0004 40420F00 		.word	1000000
 250 0008 00000000 		.word	icuWidthCB
 251 000c 00000000 		.word	0
 252              		.section	.bss.sonar_data,"aw",%nobits
 253              		.align	2
 254              		.set	.LANCHOR0,. + 0
 255              		.type	sonar_data, %object
 256              		.size	sonar_data, 8
 257              	sonar_data:
 258 0000 00000000 		.space	8
 258      00000000 
 259              		.section	.rodata.str1.4,"aMS",%progbits,1
 260              		.align	2
 261              	.LC1:
 262 0000 5B534F4E 		.ascii	"[SONAR] N:%d,S:%d,W:%d,E:%d\000"
 262      41525D20 
 262      4E3A2564 
 262      2C533A25 
 262      642C573A 
 263              		.section	.bss.sonarWorkingArea,"aw",%nobits
 264              		.align	3
 265              		.set	.LANCHOR2,. + 0
 266              		.type	sonarWorkingArea, %object
 267              		.size	sonarWorkingArea, 1200
 268              	sonarWorkingArea:
 269 0000 00000000 		.space	1200
 269      00000000 
 269      00000000 
 269      00000000 
 269      00000000 
 270              		.text
 271              	.Letext0:
 272              		.file 2 "/opt/arm/bin/../lib/gcc/arm-none-eabi/4.6.3/../../../../arm-none-eabi/include/stdint.h"
ARM GAS  /tmp/cc4kahim.s 			page 6


 273              		.file 3 "/opt/ChibiOS/ChibiOS_2.4.4/os/ports/GCC/ARMCMx/chtypes.h"
 274              		.file 4 "/opt/ChibiOS/ChibiOS_2.4.4/os/kernel/include/chlists.h"
 275              		.file 5 "/opt/ChibiOS/ChibiOS_2.4.4/os/kernel/include/chthreads.h"
 276              		.file 6 "/opt/ChibiOS/ChibiOS_2.4.4/os/ports/GCC/ARMCMx/chcore_v7m.h"
 277              		.file 7 "/opt/ChibiOS/ChibiOS_2.4.4/os/kernel/include/chmtx.h"
 278              		.file 8 "/opt/ChibiOS/ChibiOS_2.4.4/os/hal/platforms/STM32/stm32.h"
 279              		.file 9 "/opt/ChibiOS/ChibiOS_2.4.4/os/hal/include/icu.h"
 280              		.file 10 "/opt/ChibiOS/ChibiOS_2.4.4/os/hal/platforms/STM32/icu_lld.h"
 281              		.file 11 "./include/CircularBuffer.h"
 282              		.file 12 "/opt/ChibiOS/ChibiOS_2.4.4/os/ports/common/ARMCMx/CMSIS/include/core_cm4.h"
 283              		.file 13 "./include/FirmwareSpykee.h"