ARM GAS  /tmp/ccQoL0Sd.s 			page 1


   1              		.syntax unified
   2              		.cpu cortex-m4
   3              		.eabi_attribute 27, 3
   4              		.eabi_attribute 28, 1
   5              		.fpu fpv4-sp-d16
   6              		.eabi_attribute 20, 1
   7              		.eabi_attribute 21, 1
   8              		.eabi_attribute 23, 3
   9              		.eabi_attribute 24, 1
  10              		.eabi_attribute 25, 1
  11              		.eabi_attribute 26, 1
  12              		.eabi_attribute 30, 2
  13              		.eabi_attribute 34, 1
  14              		.eabi_attribute 18, 4
  15              		.thumb
  16              		.file	"spi.c"
  17              		.text
  18              	.Ltext0:
  19              		.cfi_sections	.debug_frame
  20              		.section	.text.spiInit,"ax",%progbits
  21              		.align	2
  22              		.p2align 4,,15
  23              		.global	spiInit
  24              		.thumb
  25              		.thumb_func
  26              		.type	spiInit, %function
  27              	spiInit:
  28              	.LFB117:
  29              		.file 1 "/opt/ChibiOS/ChibiOS_2.4.4/os/hal/src/spi.c"
  30              		.loc 1 68 0
  31              		.cfi_startproc
  32              		@ args = 0, pretend = 0, frame = 0
  33              		@ frame_needed = 0, uses_anonymous_args = 0
  34              		@ link register save eliminated.
  35              		.loc 1 71 0
  36              		.loc 1 70 0
  37 0000 FFF7FEBF 		b	spi_lld_init
  38              		.cfi_endproc
  39              	.LFE117:
  40              		.size	spiInit, .-spiInit
  41 0004 AFF30080 		.section	.text.spiObjectInit,"ax",%progbits
  41      AFF30080 
  41      AFF30080 
  42              		.align	2
  43              		.p2align 4,,15
  44              		.global	spiObjectInit
  45              		.thumb
  46              		.thumb_func
  47              		.type	spiObjectInit, %function
  48              	spiObjectInit:
  49              	.LFB118:
  50              		.loc 1 80 0
  51              		.cfi_startproc
  52              		@ args = 0, pretend = 0, frame = 0
  53              		@ frame_needed = 0, uses_anonymous_args = 0
  54              		@ link register save eliminated.
  55              	.LVL0:
ARM GAS  /tmp/ccQoL0Sd.s 			page 2


  56              		.loc 1 83 0
  57 0000 0023     		movs	r3, #0
  58              		.loc 1 82 0
  59 0002 0122     		movs	r2, #1
  60 0004 0270     		strb	r2, [r0, #0]
  61              		.loc 1 83 0
  62 0006 4360     		str	r3, [r0, #4]
  63              		.loc 1 85 0
  64 0008 8360     		str	r3, [r0, #8]
  65              		.loc 1 89 0
  66 000a 0C30     		adds	r0, r0, #12
  67              	.LVL1:
  68              		.loc 1 97 0
  69              		.loc 1 89 0
  70 000c FFF7FEBF 		b	chMtxInit
  71              	.LVL2:
  72              		.cfi_endproc
  73              	.LFE118:
  74              		.size	spiObjectInit, .-spiObjectInit
  75              		.section	.text.spiStart,"ax",%progbits
  76              		.align	2
  77              		.p2align 4,,15
  78              		.global	spiStart
  79              		.thumb
  80              		.thumb_func
  81              		.type	spiStart, %function
  82              	spiStart:
  83              	.LFB119:
  84              		.loc 1 107 0
  85              		.cfi_startproc
  86              		@ args = 0, pretend = 0, frame = 0
  87              		@ frame_needed = 0, uses_anonymous_args = 0
  88              	.LVL3:
  89 0000 10B5     		push	{r4, lr}
  90              	.LCFI0:
  91              		.cfi_def_cfa_offset 8
  92              		.cfi_offset 14, -4
  93              		.cfi_offset 4, -8
  94              	.LBB2:
  95              		.loc 1 111 0
  96 0002 2023     		movs	r3, #32
  97              	.LVL4:
  98              	.LBE2:
  99              		.loc 1 107 0
 100 0004 0446     		mov	r4, r0
 101              	.LBB3:
 102              		.loc 1 111 0
 103              	@ 111 "/opt/ChibiOS/ChibiOS_2.4.4/os/hal/src/spi.c" 1
 104 0006 83F31188 		msr     BASEPRI, r3
 105              	@ 0 "" 2
 106              	.LVL5:
 107              		.thumb
 108              	.LBE3:
 109              		.loc 1 114 0
 110 000a 4160     		str	r1, [r0, #4]
 111              		.loc 1 115 0
 112 000c FFF7FEFF 		bl	spi_lld_start
ARM GAS  /tmp/ccQoL0Sd.s 			page 3


 113              	.LVL6:
 114              		.loc 1 116 0
 115 0010 0223     		movs	r3, #2
 116 0012 2370     		strb	r3, [r4, #0]
 117              	.LBB4:
 118              		.loc 1 117 0
 119 0014 0023     		movs	r3, #0
 120              	.LVL7:
 121              	@ 117 "/opt/ChibiOS/ChibiOS_2.4.4/os/hal/src/spi.c" 1
 122 0016 83F31188 		msr     BASEPRI, r3
 123              	@ 0 "" 2
 124              	.LVL8:
 125              		.thumb
 126              	.LBE4:
 127              		.loc 1 118 0
 128 001a 10BD     		pop	{r4, pc}
 129              		.cfi_endproc
 130              	.LFE119:
 131              		.size	spiStart, .-spiStart
 132 001c AFF30080 		.section	.text.spiStop,"ax",%progbits
 133              		.align	2
 134              		.p2align 4,,15
 135              		.global	spiStop
 136              		.thumb
 137              		.thumb_func
 138              		.type	spiStop, %function
 139              	spiStop:
 140              	.LFB120:
 141              		.loc 1 129 0
 142              		.cfi_startproc
 143              		@ args = 0, pretend = 0, frame = 0
 144              		@ frame_needed = 0, uses_anonymous_args = 0
 145              	.LVL9:
 146 0000 10B5     		push	{r4, lr}
 147              	.LCFI1:
 148              		.cfi_def_cfa_offset 8
 149              		.cfi_offset 14, -4
 150              		.cfi_offset 4, -8
 151              	.LBB5:
 152              		.loc 1 133 0
 153 0002 2023     		movs	r3, #32
 154              	.LVL10:
 155              	.LBE5:
 156              		.loc 1 129 0
 157 0004 0446     		mov	r4, r0
 158              	.LBB6:
 159              		.loc 1 133 0
 160              	@ 133 "/opt/ChibiOS/ChibiOS_2.4.4/os/hal/src/spi.c" 1
 161 0006 83F31188 		msr     BASEPRI, r3
 162              	@ 0 "" 2
 163              	.LVL11:
 164              		.thumb
 165              	.LBE6:
 166              		.loc 1 136 0
 167 000a FFF7FEFF 		bl	spi_lld_unselect
 168              	.LVL12:
 169              		.loc 1 137 0
ARM GAS  /tmp/ccQoL0Sd.s 			page 4


 170 000e 2046     		mov	r0, r4
 171 0010 FFF7FEFF 		bl	spi_lld_stop
 172              		.loc 1 138 0
 173 0014 0123     		movs	r3, #1
 174 0016 2370     		strb	r3, [r4, #0]
 175              	.LBB7:
 176              		.loc 1 139 0
 177 0018 0023     		movs	r3, #0
 178              	.LVL13:
 179              	@ 139 "/opt/ChibiOS/ChibiOS_2.4.4/os/hal/src/spi.c" 1
 180 001a 83F31188 		msr     BASEPRI, r3
 181              	@ 0 "" 2
 182              	.LVL14:
 183              		.thumb
 184              	.LBE7:
 185              		.loc 1 140 0
 186 001e 10BD     		pop	{r4, pc}
 187              		.cfi_endproc
 188              	.LFE120:
 189              		.size	spiStop, .-spiStop
 190              		.section	.text.spiSelect,"ax",%progbits
 191              		.align	2
 192              		.p2align 4,,15
 193              		.global	spiSelect
 194              		.thumb
 195              		.thumb_func
 196              		.type	spiSelect, %function
 197              	spiSelect:
 198              	.LFB121:
 199              		.loc 1 149 0
 200              		.cfi_startproc
 201              		@ args = 0, pretend = 0, frame = 0
 202              		@ frame_needed = 0, uses_anonymous_args = 0
 203              	.LVL15:
 204 0000 08B5     		push	{r3, lr}
 205              	.LCFI2:
 206              		.cfi_def_cfa_offset 8
 207              		.cfi_offset 14, -4
 208              		.cfi_offset 3, -8
 209              	.LBB8:
 210              		.loc 1 153 0
 211 0002 2023     		movs	r3, #32
 212              	.LVL16:
 213              	@ 153 "/opt/ChibiOS/ChibiOS_2.4.4/os/hal/src/spi.c" 1
 214 0004 83F31188 		msr     BASEPRI, r3
 215              	@ 0 "" 2
 216              	.LVL17:
 217              		.thumb
 218              	.LBE8:
 219              		.loc 1 155 0
 220 0008 FFF7FEFF 		bl	spi_lld_select
 221              	.LVL18:
 222              	.LBB9:
 223              		.loc 1 156 0
 224 000c 0023     		movs	r3, #0
 225              	.LVL19:
 226              	@ 156 "/opt/ChibiOS/ChibiOS_2.4.4/os/hal/src/spi.c" 1
ARM GAS  /tmp/ccQoL0Sd.s 			page 5


 227 000e 83F31188 		msr     BASEPRI, r3
 228              	@ 0 "" 2
 229              	.LVL20:
 230              		.thumb
 231              	.LBE9:
 232              		.loc 1 157 0
 233 0012 08BD     		pop	{r3, pc}
 234              		.cfi_endproc
 235              	.LFE121:
 236              		.size	spiSelect, .-spiSelect
 237 0014 AFF30080 		.section	.text.spiUnselect,"ax",%progbits
 237      AFF30080 
 237      AFF30080 
 238              		.align	2
 239              		.p2align 4,,15
 240              		.global	spiUnselect
 241              		.thumb
 242              		.thumb_func
 243              		.type	spiUnselect, %function
 244              	spiUnselect:
 245              	.LFB122:
 246              		.loc 1 167 0
 247              		.cfi_startproc
 248              		@ args = 0, pretend = 0, frame = 0
 249              		@ frame_needed = 0, uses_anonymous_args = 0
 250              	.LVL21:
 251 0000 08B5     		push	{r3, lr}
 252              	.LCFI3:
 253              		.cfi_def_cfa_offset 8
 254              		.cfi_offset 14, -4
 255              		.cfi_offset 3, -8
 256              	.LBB10:
 257              		.loc 1 171 0
 258 0002 2023     		movs	r3, #32
 259              	.LVL22:
 260              	@ 171 "/opt/ChibiOS/ChibiOS_2.4.4/os/hal/src/spi.c" 1
 261 0004 83F31188 		msr     BASEPRI, r3
 262              	@ 0 "" 2
 263              	.LVL23:
 264              		.thumb
 265              	.LBE10:
 266              		.loc 1 173 0
 267 0008 FFF7FEFF 		bl	spi_lld_unselect
 268              	.LVL24:
 269              	.LBB11:
 270              		.loc 1 174 0
 271 000c 0023     		movs	r3, #0
 272              	.LVL25:
 273              	@ 174 "/opt/ChibiOS/ChibiOS_2.4.4/os/hal/src/spi.c" 1
 274 000e 83F31188 		msr     BASEPRI, r3
 275              	@ 0 "" 2
 276              	.LVL26:
 277              		.thumb
 278              	.LBE11:
 279              		.loc 1 175 0
 280 0012 08BD     		pop	{r3, pc}
 281              		.cfi_endproc
ARM GAS  /tmp/ccQoL0Sd.s 			page 6


 282              	.LFE122:
 283              		.size	spiUnselect, .-spiUnselect
 284 0014 AFF30080 		.section	.text.spiStartIgnore,"ax",%progbits
 284      AFF30080 
 284      AFF30080 
 285              		.align	2
 286              		.p2align 4,,15
 287              		.global	spiStartIgnore
 288              		.thumb
 289              		.thumb_func
 290              		.type	spiStartIgnore, %function
 291              	spiStartIgnore:
 292              	.LFB123:
 293              		.loc 1 190 0
 294              		.cfi_startproc
 295              		@ args = 0, pretend = 0, frame = 0
 296              		@ frame_needed = 0, uses_anonymous_args = 0
 297              	.LVL27:
 298 0000 08B5     		push	{r3, lr}
 299              	.LCFI4:
 300              		.cfi_def_cfa_offset 8
 301              		.cfi_offset 14, -4
 302              		.cfi_offset 3, -8
 303              	.LBB12:
 304              		.loc 1 194 0
 305 0002 2023     		movs	r3, #32
 306              	.LVL28:
 307              	@ 194 "/opt/ChibiOS/ChibiOS_2.4.4/os/hal/src/spi.c" 1
 308 0004 83F31188 		msr     BASEPRI, r3
 309              	@ 0 "" 2
 310              	.LVL29:
 311              		.thumb
 312              	.LBE12:
 313              		.loc 1 196 0
 314 0008 0323     		movs	r3, #3
 315              	.LVL30:
 316 000a 0370     		strb	r3, [r0, #0]
 317 000c FFF7FEFF 		bl	spi_lld_ignore
 318              	.LVL31:
 319              	.LBB13:
 320              		.loc 1 197 0
 321 0010 0023     		movs	r3, #0
 322              	.LVL32:
 323              	@ 197 "/opt/ChibiOS/ChibiOS_2.4.4/os/hal/src/spi.c" 1
 324 0012 83F31188 		msr     BASEPRI, r3
 325              	@ 0 "" 2
 326              	.LVL33:
 327              		.thumb
 328              	.LBE13:
 329              		.loc 1 198 0
 330 0016 08BD     		pop	{r3, pc}
 331              		.cfi_endproc
 332              	.LFE123:
 333              		.size	spiStartIgnore, .-spiStartIgnore
 334 0018 AFF30080 		.section	.text.spiStartExchange,"ax",%progbits
 334      AFF30080 
 335              		.align	2
ARM GAS  /tmp/ccQoL0Sd.s 			page 7


 336              		.p2align 4,,15
 337              		.global	spiStartExchange
 338              		.thumb
 339              		.thumb_func
 340              		.type	spiStartExchange, %function
 341              	spiStartExchange:
 342              	.LFB124:
 343              		.loc 1 218 0
 344              		.cfi_startproc
 345              		@ args = 0, pretend = 0, frame = 0
 346              		@ frame_needed = 0, uses_anonymous_args = 0
 347              	.LVL34:
 348 0000 38B5     		push	{r3, r4, r5, lr}
 349              	.LCFI5:
 350              		.cfi_def_cfa_offset 16
 351              		.cfi_offset 14, -4
 352              		.cfi_offset 5, -8
 353              		.cfi_offset 4, -12
 354              		.cfi_offset 3, -16
 355              		.loc 1 218 0
 356 0002 1D46     		mov	r5, r3
 357              	.LBB14:
 358              		.loc 1 223 0
 359 0004 2023     		movs	r3, #32
 360              	.LVL35:
 361              	@ 223 "/opt/ChibiOS/ChibiOS_2.4.4/os/hal/src/spi.c" 1
 362 0006 83F31188 		msr     BASEPRI, r3
 363              	@ 0 "" 2
 364              	.LVL36:
 365              		.thumb
 366              	.LBE14:
 367              		.loc 1 225 0
 368 000a 2B46     		mov	r3, r5
 369              	.LVL37:
 370 000c 0325     		movs	r5, #3
 371              	.LVL38:
 372 000e 0570     		strb	r5, [r0, #0]
 373 0010 FFF7FEFF 		bl	spi_lld_exchange
 374              	.LVL39:
 375              	.LBB15:
 376              		.loc 1 226 0
 377 0014 0023     		movs	r3, #0
 378              	.LVL40:
 379              	@ 226 "/opt/ChibiOS/ChibiOS_2.4.4/os/hal/src/spi.c" 1
 380 0016 83F31188 		msr     BASEPRI, r3
 381              	@ 0 "" 2
 382              	.LVL41:
 383              		.thumb
 384              	.LBE15:
 385              		.loc 1 227 0
 386 001a 38BD     		pop	{r3, r4, r5, pc}
 387              		.cfi_endproc
 388              	.LFE124:
 389              		.size	spiStartExchange, .-spiStartExchange
 390 001c AFF30080 		.section	.text.spiStartSend,"ax",%progbits
 391              		.align	2
 392              		.p2align 4,,15
ARM GAS  /tmp/ccQoL0Sd.s 			page 8


 393              		.global	spiStartSend
 394              		.thumb
 395              		.thumb_func
 396              		.type	spiStartSend, %function
 397              	spiStartSend:
 398              	.LFB125:
 399              		.loc 1 244 0
 400              		.cfi_startproc
 401              		@ args = 0, pretend = 0, frame = 0
 402              		@ frame_needed = 0, uses_anonymous_args = 0
 403              	.LVL42:
 404 0000 10B5     		push	{r4, lr}
 405              	.LCFI6:
 406              		.cfi_def_cfa_offset 8
 407              		.cfi_offset 14, -4
 408              		.cfi_offset 4, -8
 409              	.LBB16:
 410              		.loc 1 249 0
 411 0002 2023     		movs	r3, #32
 412              	.LVL43:
 413              	@ 249 "/opt/ChibiOS/ChibiOS_2.4.4/os/hal/src/spi.c" 1
 414 0004 83F31188 		msr     BASEPRI, r3
 415              	@ 0 "" 2
 416              	.LVL44:
 417              		.thumb
 418              	.LBE16:
 419              		.loc 1 251 0
 420 0008 0323     		movs	r3, #3
 421              	.LVL45:
 422 000a 0370     		strb	r3, [r0, #0]
 423 000c FFF7FEFF 		bl	spi_lld_send
 424              	.LVL46:
 425              	.LBB17:
 426              		.loc 1 252 0
 427 0010 0023     		movs	r3, #0
 428              	.LVL47:
 429              	@ 252 "/opt/ChibiOS/ChibiOS_2.4.4/os/hal/src/spi.c" 1
 430 0012 83F31188 		msr     BASEPRI, r3
 431              	@ 0 "" 2
 432              	.LVL48:
 433              		.thumb
 434              	.LBE17:
 435              		.loc 1 253 0
 436 0016 10BD     		pop	{r4, pc}
 437              		.cfi_endproc
 438              	.LFE125:
 439              		.size	spiStartSend, .-spiStartSend
 440 0018 AFF30080 		.section	.text.spiStartReceive,"ax",%progbits
 440      AFF30080 
 441              		.align	2
 442              		.p2align 4,,15
 443              		.global	spiStartReceive
 444              		.thumb
 445              		.thumb_func
 446              		.type	spiStartReceive, %function
 447              	spiStartReceive:
 448              	.LFB126:
ARM GAS  /tmp/ccQoL0Sd.s 			page 9


 449              		.loc 1 270 0
 450              		.cfi_startproc
 451              		@ args = 0, pretend = 0, frame = 0
 452              		@ frame_needed = 0, uses_anonymous_args = 0
 453              	.LVL49:
 454 0000 10B5     		push	{r4, lr}
 455              	.LCFI7:
 456              		.cfi_def_cfa_offset 8
 457              		.cfi_offset 14, -4
 458              		.cfi_offset 4, -8
 459              	.LBB18:
 460              		.loc 1 275 0
 461 0002 2023     		movs	r3, #32
 462              	.LVL50:
 463              	@ 275 "/opt/ChibiOS/ChibiOS_2.4.4/os/hal/src/spi.c" 1
 464 0004 83F31188 		msr     BASEPRI, r3
 465              	@ 0 "" 2
 466              	.LVL51:
 467              		.thumb
 468              	.LBE18:
 469              		.loc 1 277 0
 470 0008 0323     		movs	r3, #3
 471              	.LVL52:
 472 000a 0370     		strb	r3, [r0, #0]
 473 000c FFF7FEFF 		bl	spi_lld_receive
 474              	.LVL53:
 475              	.LBB19:
 476              		.loc 1 278 0
 477 0010 0023     		movs	r3, #0
 478              	.LVL54:
 479              	@ 278 "/opt/ChibiOS/ChibiOS_2.4.4/os/hal/src/spi.c" 1
 480 0012 83F31188 		msr     BASEPRI, r3
 481              	@ 0 "" 2
 482              	.LVL55:
 483              		.thumb
 484              	.LBE19:
 485              		.loc 1 279 0
 486 0016 10BD     		pop	{r4, pc}
 487              		.cfi_endproc
 488              	.LFE126:
 489              		.size	spiStartReceive, .-spiStartReceive
 490 0018 AFF30080 		.section	.text.spiIgnore,"ax",%progbits
 490      AFF30080 
 491              		.align	2
 492              		.p2align 4,,15
 493              		.global	spiIgnore
 494              		.thumb
 495              		.thumb_func
 496              		.type	spiIgnore, %function
 497              	spiIgnore:
 498              	.LFB127:
 499              		.loc 1 296 0
 500              		.cfi_startproc
 501              		@ args = 0, pretend = 0, frame = 0
 502              		@ frame_needed = 0, uses_anonymous_args = 0
 503              	.LVL56:
 504 0000 10B5     		push	{r4, lr}
ARM GAS  /tmp/ccQoL0Sd.s 			page 10


 505              	.LCFI8:
 506              		.cfi_def_cfa_offset 8
 507              		.cfi_offset 14, -4
 508              		.cfi_offset 4, -8
 509              	.LBB20:
 510              		.loc 1 300 0
 511 0002 2023     		movs	r3, #32
 512              	.LVL57:
 513              	.LBE20:
 514              		.loc 1 296 0
 515 0004 0446     		mov	r4, r0
 516              	.LBB21:
 517              		.loc 1 300 0
 518              	@ 300 "/opt/ChibiOS/ChibiOS_2.4.4/os/hal/src/spi.c" 1
 519 0006 83F31188 		msr     BASEPRI, r3
 520              	@ 0 "" 2
 521              	.LVL58:
 522              		.thumb
 523              	.LBE21:
 524              		.loc 1 303 0
 525 000a 0322     		movs	r2, #3
 526 000c 0270     		strb	r2, [r0, #0]
 527 000e FFF7FEFF 		bl	spi_lld_ignore
 528              	.LVL59:
 529              		.loc 1 304 0
 530 0012 40F20001 		movw	r1, #:lower16:rlist
 531 0016 C0F20001 		movt	r1, #:upper16:rlist
 532 001a 0220     		movs	r0, #2
 533 001c CB69     		ldr	r3, [r1, #28]
 534 001e A360     		str	r3, [r4, #8]
 535 0020 FFF7FEFF 		bl	chSchGoSleepS
 536              	.LBB22:
 537              		.loc 1 305 0
 538 0024 0023     		movs	r3, #0
 539              	.LVL60:
 540              	@ 305 "/opt/ChibiOS/ChibiOS_2.4.4/os/hal/src/spi.c" 1
 541 0026 83F31188 		msr     BASEPRI, r3
 542              	@ 0 "" 2
 543              	.LVL61:
 544              		.thumb
 545              	.LBE22:
 546              		.loc 1 306 0
 547 002a 10BD     		pop	{r4, pc}
 548              		.cfi_endproc
 549              	.LFE127:
 550              		.size	spiIgnore, .-spiIgnore
 551 002c AFF30080 		.section	.text.spiExchange,"ax",%progbits
 552              		.align	2
 553              		.p2align 4,,15
 554              		.global	spiExchange
 555              		.thumb
 556              		.thumb_func
 557              		.type	spiExchange, %function
 558              	spiExchange:
 559              	.LFB128:
 560              		.loc 1 327 0
 561              		.cfi_startproc
ARM GAS  /tmp/ccQoL0Sd.s 			page 11


 562              		@ args = 0, pretend = 0, frame = 0
 563              		@ frame_needed = 0, uses_anonymous_args = 0
 564              	.LVL62:
 565 0000 38B5     		push	{r3, r4, r5, lr}
 566              	.LCFI9:
 567              		.cfi_def_cfa_offset 16
 568              		.cfi_offset 14, -4
 569              		.cfi_offset 5, -8
 570              		.cfi_offset 4, -12
 571              		.cfi_offset 3, -16
 572              		.loc 1 327 0
 573 0002 1D46     		mov	r5, r3
 574 0004 0446     		mov	r4, r0
 575              	.LBB23:
 576              		.loc 1 332 0
 577 0006 2023     		movs	r3, #32
 578              	.LVL63:
 579              	@ 332 "/opt/ChibiOS/ChibiOS_2.4.4/os/hal/src/spi.c" 1
 580 0008 83F31188 		msr     BASEPRI, r3
 581              	@ 0 "" 2
 582              	.LVL64:
 583              		.thumb
 584              	.LBE23:
 585              		.loc 1 336 0
 586 000c 2B46     		mov	r3, r5
 587              	.LVL65:
 588 000e 0325     		movs	r5, #3
 589              	.LVL66:
 590 0010 0570     		strb	r5, [r0, #0]
 591 0012 FFF7FEFF 		bl	spi_lld_exchange
 592              	.LVL67:
 593              		.loc 1 337 0
 594 0016 40F20001 		movw	r1, #:lower16:rlist
 595 001a C0F20001 		movt	r1, #:upper16:rlist
 596 001e 0220     		movs	r0, #2
 597 0020 CB69     		ldr	r3, [r1, #28]
 598 0022 A360     		str	r3, [r4, #8]
 599 0024 FFF7FEFF 		bl	chSchGoSleepS
 600              	.LBB24:
 601              		.loc 1 338 0
 602 0028 0023     		movs	r3, #0
 603              	.LVL68:
 604              	@ 338 "/opt/ChibiOS/ChibiOS_2.4.4/os/hal/src/spi.c" 1
 605 002a 83F31188 		msr     BASEPRI, r3
 606              	@ 0 "" 2
 607              	.LVL69:
 608              		.thumb
 609              	.LBE24:
 610              		.loc 1 339 0
 611 002e 38BD     		pop	{r3, r4, r5, pc}
 612              		.cfi_endproc
 613              	.LFE128:
 614              		.size	spiExchange, .-spiExchange
 615              		.section	.text.spiSend,"ax",%progbits
 616              		.align	2
 617              		.p2align 4,,15
 618              		.global	spiSend
ARM GAS  /tmp/ccQoL0Sd.s 			page 12


 619              		.thumb
 620              		.thumb_func
 621              		.type	spiSend, %function
 622              	spiSend:
 623              	.LFB129:
 624              		.loc 1 357 0
 625              		.cfi_startproc
 626              		@ args = 0, pretend = 0, frame = 0
 627              		@ frame_needed = 0, uses_anonymous_args = 0
 628              	.LVL70:
 629 0000 10B5     		push	{r4, lr}
 630              	.LCFI10:
 631              		.cfi_def_cfa_offset 8
 632              		.cfi_offset 14, -4
 633              		.cfi_offset 4, -8
 634              	.LBB25:
 635              		.loc 1 361 0
 636 0002 2023     		movs	r3, #32
 637              	.LVL71:
 638              	.LBE25:
 639              		.loc 1 357 0
 640 0004 0446     		mov	r4, r0
 641              	.LBB26:
 642              		.loc 1 361 0
 643              	@ 361 "/opt/ChibiOS/ChibiOS_2.4.4/os/hal/src/spi.c" 1
 644 0006 83F31188 		msr     BASEPRI, r3
 645              	@ 0 "" 2
 646              	.LVL72:
 647              		.thumb
 648              	.LBE26:
 649              		.loc 1 364 0
 650 000a 0323     		movs	r3, #3
 651              	.LVL73:
 652 000c 0370     		strb	r3, [r0, #0]
 653 000e FFF7FEFF 		bl	spi_lld_send
 654              	.LVL74:
 655              		.loc 1 365 0
 656 0012 40F20001 		movw	r1, #:lower16:rlist
 657 0016 C0F20001 		movt	r1, #:upper16:rlist
 658 001a 0220     		movs	r0, #2
 659 001c CB69     		ldr	r3, [r1, #28]
 660 001e A360     		str	r3, [r4, #8]
 661 0020 FFF7FEFF 		bl	chSchGoSleepS
 662              	.LBB27:
 663              		.loc 1 366 0
 664 0024 0023     		movs	r3, #0
 665              	.LVL75:
 666              	@ 366 "/opt/ChibiOS/ChibiOS_2.4.4/os/hal/src/spi.c" 1
 667 0026 83F31188 		msr     BASEPRI, r3
 668              	@ 0 "" 2
 669              	.LVL76:
 670              		.thumb
 671              	.LBE27:
 672              		.loc 1 367 0
 673 002a 10BD     		pop	{r4, pc}
 674              		.cfi_endproc
 675              	.LFE129:
ARM GAS  /tmp/ccQoL0Sd.s 			page 13


 676              		.size	spiSend, .-spiSend
 677 002c AFF30080 		.section	.text.spiReceive,"ax",%progbits
 678              		.align	2
 679              		.p2align 4,,15
 680              		.global	spiReceive
 681              		.thumb
 682              		.thumb_func
 683              		.type	spiReceive, %function
 684              	spiReceive:
 685              	.LFB130:
 686              		.loc 1 385 0
 687              		.cfi_startproc
 688              		@ args = 0, pretend = 0, frame = 0
 689              		@ frame_needed = 0, uses_anonymous_args = 0
 690              	.LVL77:
 691 0000 10B5     		push	{r4, lr}
 692              	.LCFI11:
 693              		.cfi_def_cfa_offset 8
 694              		.cfi_offset 14, -4
 695              		.cfi_offset 4, -8
 696              	.LBB28:
 697              		.loc 1 390 0
 698 0002 2023     		movs	r3, #32
 699              	.LVL78:
 700              	.LBE28:
 701              		.loc 1 385 0
 702 0004 0446     		mov	r4, r0
 703              	.LBB29:
 704              		.loc 1 390 0
 705              	@ 390 "/opt/ChibiOS/ChibiOS_2.4.4/os/hal/src/spi.c" 1
 706 0006 83F31188 		msr     BASEPRI, r3
 707              	@ 0 "" 2
 708              	.LVL79:
 709              		.thumb
 710              	.LBE29:
 711              		.loc 1 394 0
 712 000a 0323     		movs	r3, #3
 713              	.LVL80:
 714 000c 0370     		strb	r3, [r0, #0]
 715 000e FFF7FEFF 		bl	spi_lld_receive
 716              	.LVL81:
 717              		.loc 1 395 0
 718 0012 40F20001 		movw	r1, #:lower16:rlist
 719 0016 C0F20001 		movt	r1, #:upper16:rlist
 720 001a 0220     		movs	r0, #2
 721 001c CB69     		ldr	r3, [r1, #28]
 722 001e A360     		str	r3, [r4, #8]
 723 0020 FFF7FEFF 		bl	chSchGoSleepS
 724              	.LBB30:
 725              		.loc 1 396 0
 726 0024 0023     		movs	r3, #0
 727              	.LVL82:
 728              	@ 396 "/opt/ChibiOS/ChibiOS_2.4.4/os/hal/src/spi.c" 1
 729 0026 83F31188 		msr     BASEPRI, r3
 730              	@ 0 "" 2
 731              	.LVL83:
 732              		.thumb
ARM GAS  /tmp/ccQoL0Sd.s 			page 14


 733              	.LBE30:
 734              		.loc 1 397 0
 735 002a 10BD     		pop	{r4, pc}
 736              		.cfi_endproc
 737              	.LFE130:
 738              		.size	spiReceive, .-spiReceive
 739 002c AFF30080 		.section	.text.spiAcquireBus,"ax",%progbits
 740              		.align	2
 741              		.p2align 4,,15
 742              		.global	spiAcquireBus
 743              		.thumb
 744              		.thumb_func
 745              		.type	spiAcquireBus, %function
 746              	spiAcquireBus:
 747              	.LFB131:
 748              		.loc 1 412 0
 749              		.cfi_startproc
 750              		@ args = 0, pretend = 0, frame = 0
 751              		@ frame_needed = 0, uses_anonymous_args = 0
 752              		@ link register save eliminated.
 753              	.LVL84:
 754              		.loc 1 417 0
 755 0000 0C30     		adds	r0, r0, #12
 756              	.LVL85:
 757              		.loc 1 421 0
 758              		.loc 1 417 0
 759 0002 FFF7FEBF 		b	chMtxLock
 760              	.LVL86:
 761              		.cfi_endproc
 762              	.LFE131:
 763              		.size	spiAcquireBus, .-spiAcquireBus
 764 0006 00BFAFF3 		.section	.text.spiReleaseBus,"ax",%progbits
 764      0080AFF3 
 764      0080
 765              		.align	2
 766              		.p2align 4,,15
 767              		.global	spiReleaseBus
 768              		.thumb
 769              		.thumb_func
 770              		.type	spiReleaseBus, %function
 771              	spiReleaseBus:
 772              	.LFB132:
 773              		.loc 1 432 0
 774              		.cfi_startproc
 775              		@ args = 0, pretend = 0, frame = 0
 776              		@ frame_needed = 0, uses_anonymous_args = 0
 777              		@ link register save eliminated.
 778              	.LVL87:
 779              		.loc 1 442 0
 780              		.loc 1 438 0
 781 0000 FFF7FEBF 		b	chMtxUnlock
 782              	.LVL88:
 783              		.cfi_endproc
 784              	.LFE132:
 785              		.size	spiReleaseBus, .-spiReleaseBus
 786 0004 AFF30080 		.text
 786      AFF30080 
ARM GAS  /tmp/ccQoL0Sd.s 			page 15


 786      AFF30080 
 787              	.Letext0:
 788              		.file 2 "/opt/arm/bin/../lib/gcc/arm-none-eabi/4.6.3/include/stddef.h"
 789              		.file 3 "/opt/arm/bin/../lib/gcc/arm-none-eabi/4.6.3/../../../../arm-none-eabi/include/stdint.h"
 790              		.file 4 "/opt/ChibiOS/ChibiOS_2.4.4/os/ports/GCC/ARMCMx/chtypes.h"
 791              		.file 5 "/opt/ChibiOS/ChibiOS_2.4.4/os/kernel/include/chlists.h"
 792              		.file 6 "/opt/ChibiOS/ChibiOS_2.4.4/os/kernel/include/chthreads.h"
 793              		.file 7 "/opt/ChibiOS/ChibiOS_2.4.4/os/ports/GCC/ARMCMx/chcore_v7m.h"
 794              		.file 8 "/opt/ChibiOS/ChibiOS_2.4.4/os/kernel/include/chschd.h"
 795              		.file 9 "/opt/ChibiOS/ChibiOS_2.4.4/os/kernel/include/chmtx.h"
 796              		.file 10 "/opt/ChibiOS/ChibiOS_2.4.4/os/hal/platforms/STM32F4xx/stm32f4xx.h"
 797              		.file 11 "/opt/ChibiOS/ChibiOS_2.4.4/os/hal/platforms/STM32F4xx/stm32_dma.h"
 798              		.file 12 "/opt/ChibiOS/ChibiOS_2.4.4/os/hal/platforms/STM32/GPIOv2/pal_lld.h"
 799              		.file 13 "/opt/ChibiOS/ChibiOS_2.4.4/os/hal/include/spi.h"
 800              		.file 14 "/opt/ChibiOS/ChibiOS_2.4.4/os/hal/platforms/STM32/spi_lld.h"
 801              		.file 15 "/opt/ChibiOS/ChibiOS_2.4.4/os/ports/common/ARMCMx/CMSIS/include/core_cm4.h"