ARM GAS  /tmp/ccrjV2vp.s 			page 1


   1              		.syntax unified
   2              		.cpu cortex-m4
   3              		.eabi_attribute 27, 3
   4              		.eabi_attribute 28, 1
   5              		.fpu fpv4-sp-d16
   6              		.eabi_attribute 20, 1
   7              		.eabi_attribute 21, 1
   8              		.eabi_attribute 23, 3
   9              		.eabi_attribute 24, 1
  10              		.eabi_attribute 25, 1
  11              		.eabi_attribute 26, 1
  12              		.eabi_attribute 30, 2
  13              		.eabi_attribute 34, 1
  14              		.eabi_attribute 18, 4
  15              		.thumb
  16              		.file	"spi_lld.c"
  17              		.text
  18              	.Ltext0:
  19              		.cfi_sections	.debug_frame
  20              		.section	.text.spi_lld_serve_tx_interrupt,"ax",%progbits
  21              		.align	2
  22              		.p2align 4,,15
  23              		.thumb
  24              		.thumb_func
  25              		.type	spi_lld_serve_tx_interrupt, %function
  26              	spi_lld_serve_tx_interrupt:
  27              	.LFB118:
  28              		.file 1 "/opt/ChibiOS/ChibiOS_2.4.4/os/hal/platforms/STM32/spi_lld.c"
  29              		.loc 1 131 0
  30              		.cfi_startproc
  31              		@ args = 0, pretend = 0, frame = 0
  32              		@ frame_needed = 0, uses_anonymous_args = 0
  33              		@ link register save eliminated.
  34              	.LVL0:
  35              		.loc 1 136 0
  36 0000 11F00C0F 		tst	r1, #12
  37 0004 00D1     		bne	.L4
  38 0006 7047     		bx	lr
  39              	.L4:
  40              		.loc 1 143 0
  41              		.loc 1 137 0
  42 0008 FFF7FEBF 		b	port_halt
  43              	.LVL1:
  44              	.LVL2:
  45              		.cfi_endproc
  46              	.LFE118:
  47              		.size	spi_lld_serve_tx_interrupt, .-spi_lld_serve_tx_interrupt
  48 000c AFF30080 		.section	.text.spi_lld_serve_rx_interrupt,"ax",%progbits
  49              		.align	2
  50              		.p2align 4,,15
  51              		.thumb
  52              		.thumb_func
  53              		.type	spi_lld_serve_rx_interrupt, %function
  54              	spi_lld_serve_rx_interrupt:
  55              	.LFB117:
  56              		.loc 1 105 0
  57              		.cfi_startproc
ARM GAS  /tmp/ccrjV2vp.s 			page 2


  58              		@ args = 0, pretend = 0, frame = 0
  59              		@ frame_needed = 0, uses_anonymous_args = 0
  60              	.LVL3:
  61              		.loc 1 109 0
  62 0000 11F00C0F 		tst	r1, #12
  63              		.loc 1 105 0
  64 0004 38B5     		push	{r3, r4, r5, lr}
  65              	.LCFI0:
  66              		.cfi_def_cfa_offset 16
  67              		.cfi_offset 14, -4
  68              		.cfi_offset 5, -8
  69              		.cfi_offset 4, -12
  70              		.cfi_offset 3, -16
  71              		.loc 1 105 0
  72 0006 0446     		mov	r4, r0
  73              		.loc 1 109 0
  74 0008 38D1     		bne	.L14
  75              	.LVL4:
  76              	.L6:
  77              		.loc 1 117 0
  78 000a 606A     		ldr	r0, [r4, #36]
  79 000c 0268     		ldr	r2, [r0, #0]
  80 000e 1168     		ldr	r1, [r2, #0]
  81 0010 21F01F03 		bic	r3, r1, #31
  82 0014 1360     		str	r3, [r2, #0]
  83              	.L7:
  84              		.loc 1 117 0 is_stmt 0 discriminator 1
  85 0016 1568     		ldr	r5, [r2, #0]
  86 0018 E907     		lsls	r1, r5, #31
  87 001a FCD4     		bmi	.L7
  88              		.loc 1 117 0 discriminator 2
  89 001c 057A     		ldrb	r5, [r0, #8]	@ zero_extendqisi2
  90              		.loc 1 118 0 is_stmt 1 discriminator 2
  91 001e 216A     		ldr	r1, [r4, #32]
  92              		.loc 1 117 0 discriminator 2
  93 0020 4368     		ldr	r3, [r0, #4]
  94              		.loc 1 118 0 discriminator 2
  95 0022 0A68     		ldr	r2, [r1, #0]
  96              		.loc 1 117 0 discriminator 2
  97 0024 3D20     		movs	r0, #61
  98 0026 00FA05F0 		lsl	r0, r0, r5
  99 002a 1860     		str	r0, [r3, #0]
 100              		.loc 1 118 0 discriminator 2
 101 002c 1368     		ldr	r3, [r2, #0]
 102 002e 23F01F00 		bic	r0, r3, #31
 103 0032 1060     		str	r0, [r2, #0]
 104              	.L8:
 105              		.loc 1 118 0 is_stmt 0 discriminator 1
 106 0034 1368     		ldr	r3, [r2, #0]
 107 0036 DB07     		lsls	r3, r3, #31
 108 0038 FCD4     		bmi	.L8
 109              		.loc 1 122 0 is_stmt 1 discriminator 2
 110 003a 6068     		ldr	r0, [r4, #4]
 111              		.loc 1 118 0 discriminator 2
 112 003c 91F808C0 		ldrb	ip, [r1, #8]	@ zero_extendqisi2
 113 0040 4A68     		ldr	r2, [r1, #4]
 114              		.loc 1 122 0 discriminator 2
ARM GAS  /tmp/ccrjV2vp.s 			page 3


 115 0042 0368     		ldr	r3, [r0, #0]
 116              		.loc 1 118 0 discriminator 2
 117 0044 3D21     		movs	r1, #61
 118 0046 01FA0CF1 		lsl	r1, r1, ip
 119 004a 1160     		str	r1, [r2, #0]
 120              		.loc 1 122 0 discriminator 2
 121 004c 9BB1     		cbz	r3, .L9
 122              		.loc 1 122 0 is_stmt 0 discriminator 1
 123 004e 0422     		movs	r2, #4
 124 0050 2270     		strb	r2, [r4, #0]
 125 0052 2046     		mov	r0, r4
 126 0054 9847     		blx	r3
 127 0056 2378     		ldrb	r3, [r4, #0]	@ zero_extendqisi2
 128 0058 042B     		cmp	r3, #4
 129 005a 0CD0     		beq	.L9
 130              	.L10:
 131              		.loc 1 122 0 discriminator 4
 132 005c A068     		ldr	r0, [r4, #8]
 133 005e 48B1     		cbz	r0, .L5
 134              	.LVL5:
 135              	.LBB2:
 136              		.loc 1 122 0 discriminator 5
 137 0060 0025     		movs	r5, #0
 138 0062 A560     		str	r5, [r4, #8]
 139              	.LBB3:
 140 0064 2023     		movs	r3, #32
 141              	.LVL6:
 142              	@ 122 "/opt/ChibiOS/ChibiOS_2.4.4/os/hal/platforms/STM32/spi_lld.c" 1
 143 0066 83F31188 		msr     BASEPRI, r3
 144              	@ 0 "" 2
 145              	.LVL7:
 146              		.thumb
 147              	.LBE3:
 148 006a FFF7FEFF 		bl	chSchReadyI
 149              	.LVL8:
 150              	.LBB4:
 151 006e 2B46     		mov	r3, r5
 152              	.LVL9:
 153              	@ 122 "/opt/ChibiOS/ChibiOS_2.4.4/os/hal/platforms/STM32/spi_lld.c" 1
 154 0070 83F31188 		msr     BASEPRI, r3
 155              	@ 0 "" 2
 156              	.LVL10:
 157              		.thumb
 158              	.L5:
 159 0074 38BD     		pop	{r3, r4, r5, pc}
 160              	.LVL11:
 161              	.L9:
 162              	.LBE4:
 163              	.LBE2:
 164              		.loc 1 122 0 discriminator 2
 165 0076 0221     		movs	r1, #2
 166 0078 2170     		strb	r1, [r4, #0]
 167 007a EFE7     		b	.L10
 168              	.LVL12:
 169              	.L14:
 170              		.loc 1 110 0 is_stmt 1
 171 007c FFF7FEFF 		bl	port_halt
ARM GAS  /tmp/ccrjV2vp.s 			page 4


 172              	.LVL13:
 173 0080 C3E7     		b	.L6
 174              		.cfi_endproc
 175              	.LFE117:
 176              		.size	spi_lld_serve_rx_interrupt, .-spi_lld_serve_rx_interrupt
 177 0082 00BFAFF3 		.section	.text.spi_lld_init,"ax",%progbits
 177      0080AFF3 
 177      0080AFF3 
 177      0080
 178              		.align	2
 179              		.p2align 4,,15
 180              		.global	spi_lld_init
 181              		.thumb
 182              		.thumb_func
 183              		.type	spi_lld_init, %function
 184              	spi_lld_init:
 185              	.LFB119:
 186              		.loc 1 158 0
 187              		.cfi_startproc
 188              		@ args = 0, pretend = 0, frame = 0
 189              		@ frame_needed = 0, uses_anonymous_args = 0
 190 0000 F8B5     		push	{r3, r4, r5, r6, r7, lr}
 191              	.LCFI1:
 192              		.cfi_def_cfa_offset 24
 193              		.cfi_offset 14, -4
 194              		.cfi_offset 7, -8
 195              		.cfi_offset 6, -12
 196              		.cfi_offset 5, -16
 197              		.cfi_offset 4, -20
 198              		.cfi_offset 3, -24
 199              		.loc 1 160 0
 200 0002 40F2000C 		movw	ip, #:lower16:.LANCHOR0
 201              		.loc 1 163 0
 202 0006 40F20005 		movw	r5, #:lower16:.LANCHOR1
 203 000a C0F20005 		movt	r5, #:upper16:.LANCHOR1
 204              		.loc 1 160 0
 205 000e C0F2000C 		movt	ip, #:upper16:.LANCHOR0
 206              		.loc 1 165 0
 207 0012 194E     		ldr	r6, .L16
 208              		.loc 1 163 0
 209 0014 2846     		mov	r0, r5
 210              		.loc 1 160 0
 211 0016 4FF0FF37 		mov	r7, #-1	@ movhi
 212              		.loc 1 181 0
 213 001a 40F20004 		movw	r4, #:lower16:.LANCHOR2
 214 001e C0F20004 		movt	r4, #:upper16:.LANCHOR2
 215              		.loc 1 160 0
 216 0022 ACF80070 		strh	r7, [ip, #0]	@ movhi
 217              		.loc 1 163 0
 218 0026 FFF7FEFF 		bl	spiObjectInit
 219              		.loc 1 164 0
 220 002a 4FF44051 		mov	r1, #12288
 221              		.loc 1 167 0
 222 002e 1622     		movs	r2, #22
 223              		.loc 1 173 0
 224 0030 4623     		movs	r3, #70
 225              		.loc 1 164 0
ARM GAS  /tmp/ccrjV2vp.s 			page 5


 226 0032 C4F20101 		movt	r1, 16385
 227              		.loc 1 167 0
 228 0036 C0F20162 		movt	r2, 1537
 229              		.loc 1 173 0
 230 003a C0F20163 		movt	r3, 1537
 231              		.loc 1 166 0
 232 003e 06F12407 		add	r7, r6, #36
 233              		.loc 1 181 0
 234 0042 2046     		mov	r0, r4
 235              		.loc 1 164 0
 236 0044 E961     		str	r1, [r5, #28]
 237              		.loc 1 165 0
 238 0046 2E62     		str	r6, [r5, #32]
 239              		.loc 1 167 0
 240 0048 AA62     		str	r2, [r5, #40]
 241              		.loc 1 173 0
 242 004a EB62     		str	r3, [r5, #44]
 243              		.loc 1 166 0
 244 004c 6F62     		str	r7, [r5, #36]
 245              		.loc 1 181 0
 246 004e FFF7FEFF 		bl	spiObjectInit
 247              		.loc 1 182 0
 248 0052 4FF46051 		mov	r1, #14336
 249              		.loc 1 185 0
 250 0056 1622     		movs	r2, #22
 251              		.loc 1 191 0
 252 0058 4623     		movs	r3, #70
 253              		.loc 1 183 0
 254 005a A6F13C00 		sub	r0, r6, #60
 255              		.loc 1 182 0
 256 005e C4F20001 		movt	r1, 16384
 257              		.loc 1 184 0
 258 0062 303E     		subs	r6, r6, #48
 259              		.loc 1 185 0
 260 0064 C0F20102 		movt	r2, 1
 261              		.loc 1 191 0
 262 0068 C0F20103 		movt	r3, 1
 263              		.loc 1 182 0
 264 006c E161     		str	r1, [r4, #28]
 265              		.loc 1 183 0
 266 006e 2062     		str	r0, [r4, #32]
 267              		.loc 1 184 0
 268 0070 6662     		str	r6, [r4, #36]
 269              		.loc 1 185 0
 270 0072 A262     		str	r2, [r4, #40]
 271              		.loc 1 191 0
 272 0074 E362     		str	r3, [r4, #44]
 273              		.loc 1 215 0
 274 0076 F8BD     		pop	{r3, r4, r5, r6, r7, pc}
 275              	.L17:
 276              		.align	2
 277              	.L16:
 278 0078 60000000 		.word	_stm32_dma_streams+96
 279              		.cfi_endproc
 280              	.LFE119:
 281              		.size	spi_lld_init, .-spi_lld_init
 282 007c AFF30080 		.section	.text.spi_lld_start,"ax",%progbits
ARM GAS  /tmp/ccrjV2vp.s 			page 6


 283              		.align	2
 284              		.p2align 4,,15
 285              		.global	spi_lld_start
 286              		.thumb
 287              		.thumb_func
 288              		.type	spi_lld_start, %function
 289              	spi_lld_start:
 290              	.LFB120:
 291              		.loc 1 224 0
 292              		.cfi_startproc
 293              		@ args = 0, pretend = 0, frame = 0
 294              		@ frame_needed = 0, uses_anonymous_args = 0
 295              	.LVL14:
 296              		.loc 1 227 0
 297 0000 0378     		ldrb	r3, [r0, #0]	@ zero_extendqisi2
 298 0002 012B     		cmp	r3, #1
 299              		.loc 1 224 0
 300 0004 10B5     		push	{r4, lr}
 301              	.LCFI2:
 302              		.cfi_def_cfa_offset 8
 303              		.cfi_offset 14, -4
 304              		.cfi_offset 4, -8
 305 0006 18BF     		it	ne
 306 0008 C369     		ldrne	r3, [r0, #28]
 307              		.loc 1 224 0
 308 000a 0446     		mov	r4, r0
 309              		.loc 1 227 0
 310 000c 1FD0     		beq	.L27
 311              	.LVL15:
 312              	.L19:
 313              		.loc 1 283 0
 314 000e 6068     		ldr	r0, [r4, #4]
 315              		.loc 1 285 0
 316 0010 A16A     		ldr	r1, [r4, #40]
 317              		.loc 1 283 0
 318 0012 B0F80AC0 		ldrh	ip, [r0, #10]
 319              		.loc 1 287 0
 320 0016 E26A     		ldr	r2, [r4, #44]
 321              		.loc 1 283 0
 322 0018 1CF4006F 		tst	ip, #2048
 323              		.loc 1 285 0
 324 001c 21F4F040 		bic	r0, r1, #30720
 325              		.loc 1 287 0
 326 0020 22F4F041 		bic	r1, r2, #30720
 327              		.loc 1 291 0
 328 0024 1CBF     		itt	ne
 329 0026 40F42050 		orrne	r0, r0, #10240
 330              		.loc 1 293 0
 331 002a 41F42051 		orrne	r1, r1, #10240
 332              		.loc 1 290 0
 333 002e A062     		str	r0, [r4, #40]
 334              		.loc 1 292 0
 335 0030 E162     		str	r1, [r4, #44]
 336              		.loc 1 297 0
 337 0032 4CF44170 		orr	r0, ip, #772
 338              		.loc 1 296 0
 339 0036 0022     		movs	r2, #0
ARM GAS  /tmp/ccrjV2vp.s 			page 7


 340              		.loc 1 299 0
 341 0038 0721     		movs	r1, #7
 342              		.loc 1 296 0
 343 003a 1A80     		strh	r2, [r3, #0]	@ movhi
 344              		.loc 1 297 0
 345 003c 1880     		strh	r0, [r3, #0]	@ movhi
 346              		.loc 1 299 0
 347 003e 9980     		strh	r1, [r3, #4]	@ movhi
 348              		.loc 1 300 0
 349 0040 1A88     		ldrh	r2, [r3, #0]
 350 0042 1FFA82FC 		uxth	ip, r2
 351 0046 4CF04000 		orr	r0, ip, #64
 352 004a 1880     		strh	r0, [r3, #0]	@ movhi
 353              		.loc 1 301 0
 354 004c 10BD     		pop	{r4, pc}
 355              	.L27:
 356              		.loc 1 229 0
 357 004e 40F20003 		movw	r3, #:lower16:.LANCHOR1
 358 0052 C0F20003 		movt	r3, #:upper16:.LANCHOR1
 359 0056 9842     		cmp	r0, r3
 360 0058 0FD0     		beq	.L28
 361              		.loc 1 245 0
 362 005a 40F2000C 		movw	ip, #:lower16:.LANCHOR2
 363 005e C0F2000C 		movt	ip, #:upper16:.LANCHOR2
 364 0062 6045     		cmp	r0, ip
 365 0064 24D0     		beq	.L29
 366              	.L21:
 367              		.loc 1 278 0
 368 0066 216A     		ldr	r1, [r4, #32]
 369              		.loc 1 279 0
 370 0068 626A     		ldr	r2, [r4, #36]
 371              		.loc 1 278 0
 372 006a E369     		ldr	r3, [r4, #28]
 373 006c 0868     		ldr	r0, [r1, #0]
 374              		.loc 1 279 0
 375 006e 1168     		ldr	r1, [r2, #0]
 376              		.loc 1 278 0
 377 0070 03F10C02 		add	r2, r3, #12
 378 0074 8260     		str	r2, [r0, #8]
 379              		.loc 1 279 0
 380 0076 8A60     		str	r2, [r1, #8]
 381 0078 C9E7     		b	.L19
 382              	.L28:
 383              	.LBB5:
 384              		.loc 1 231 0
 385 007a 40F20002 		movw	r2, #:lower16:spi_lld_serve_rx_interrupt
 386 007e 0346     		mov	r3, r0
 387 0080 0A21     		movs	r1, #10
 388 0082 C0F20002 		movt	r2, #:upper16:spi_lld_serve_rx_interrupt
 389 0086 006A     		ldr	r0, [r0, #32]
 390 0088 FFF7FEFF 		bl	dmaStreamAllocate
 391              		.loc 1 236 0
 392 008c 40F20002 		movw	r2, #:lower16:spi_lld_serve_tx_interrupt
 393 0090 0A21     		movs	r1, #10
 394 0092 C0F20002 		movt	r2, #:upper16:spi_lld_serve_tx_interrupt
 395 0096 606A     		ldr	r0, [r4, #36]
 396 0098 2346     		mov	r3, r4
ARM GAS  /tmp/ccrjV2vp.s 			page 8


 397 009a FFF7FEFF 		bl	dmaStreamAllocate
 398              		.loc 1 241 0
 399 009e 4FF46050 		mov	r0, #14336
 400 00a2 C4F20200 		movt	r0, 16386
 401 00a6 416C     		ldr	r1, [r0, #68]
 402 00a8 41F48052 		orr	r2, r1, #4096
 403 00ac 4264     		str	r2, [r0, #68]
 404 00ae DAE7     		b	.L21
 405              	.L29:
 406              	.LBE5:
 407              	.LBB6:
 408              		.loc 1 247 0
 409 00b0 40F20002 		movw	r2, #:lower16:spi_lld_serve_rx_interrupt
 410 00b4 0346     		mov	r3, r0
 411 00b6 0A21     		movs	r1, #10
 412 00b8 C0F20002 		movt	r2, #:upper16:spi_lld_serve_rx_interrupt
 413 00bc 006A     		ldr	r0, [r0, #32]
 414 00be FFF7FEFF 		bl	dmaStreamAllocate
 415              		.loc 1 252 0
 416 00c2 40F20002 		movw	r2, #:lower16:spi_lld_serve_tx_interrupt
 417 00c6 C0F20002 		movt	r2, #:upper16:spi_lld_serve_tx_interrupt
 418 00ca 2346     		mov	r3, r4
 419 00cc 606A     		ldr	r0, [r4, #36]
 420 00ce 0A21     		movs	r1, #10
 421 00d0 FFF7FEFF 		bl	dmaStreamAllocate
 422              		.loc 1 257 0
 423 00d4 4FF46053 		mov	r3, #14336
 424 00d8 C4F20203 		movt	r3, 16386
 425 00dc 186C     		ldr	r0, [r3, #64]
 426 00de 40F48042 		orr	r2, r0, #16384
 427 00e2 1A64     		str	r2, [r3, #64]
 428 00e4 BFE7     		b	.L21
 429              	.LBE6:
 430              		.cfi_endproc
 431              	.LFE120:
 432              		.size	spi_lld_start, .-spi_lld_start
 433 00e6 00BFAFF3 		.section	.text.spi_lld_stop,"ax",%progbits
 433      0080AFF3 
 433      0080
 434              		.align	2
 435              		.p2align 4,,15
 436              		.global	spi_lld_stop
 437              		.thumb
 438              		.thumb_func
 439              		.type	spi_lld_stop, %function
 440              	spi_lld_stop:
 441              	.LFB121:
 442              		.loc 1 310 0
 443              		.cfi_startproc
 444              		@ args = 0, pretend = 0, frame = 0
 445              		@ frame_needed = 0, uses_anonymous_args = 0
 446              	.LVL16:
 447              		.loc 1 313 0
 448 0000 0378     		ldrb	r3, [r0, #0]	@ zero_extendqisi2
 449 0002 022B     		cmp	r3, #2
 450              		.loc 1 310 0
 451 0004 10B5     		push	{r4, lr}
ARM GAS  /tmp/ccrjV2vp.s 			page 9


 452              	.LCFI3:
 453              		.cfi_def_cfa_offset 8
 454              		.cfi_offset 14, -4
 455              		.cfi_offset 4, -8
 456              		.loc 1 310 0
 457 0006 0446     		mov	r4, r0
 458              		.loc 1 313 0
 459 0008 00D0     		beq	.L33
 460 000a 10BD     		pop	{r4, pc}
 461              	.L33:
 462              		.loc 1 316 0
 463 000c C169     		ldr	r1, [r0, #28]
 464              		.loc 1 317 0
 465 000e 006A     		ldr	r0, [r0, #32]
 466              	.LVL17:
 467              		.loc 1 316 0
 468 0010 0022     		movs	r2, #0
 469 0012 0A80     		strh	r2, [r1, #0]	@ movhi
 470              		.loc 1 317 0
 471 0014 FFF7FEFF 		bl	dmaStreamRelease
 472              		.loc 1 318 0
 473 0018 606A     		ldr	r0, [r4, #36]
 474 001a FFF7FEFF 		bl	dmaStreamRelease
 475              		.loc 1 321 0
 476 001e 40F20000 		movw	r0, #:lower16:.LANCHOR1
 477 0022 C0F20000 		movt	r0, #:upper16:.LANCHOR1
 478 0026 8442     		cmp	r4, r0
 479 0028 11D0     		beq	.L34
 480              		.loc 1 325 0
 481 002a 40F2000E 		movw	lr, #:lower16:.LANCHOR2
 482 002e C0F2000E 		movt	lr, #:upper16:.LANCHOR2
 483 0032 7445     		cmp	r4, lr
 484              		.loc 1 326 0
 485 0034 01BF     		itttt	eq
 486 0036 4FF4605E 		moveq	lr, #14336
 487 003a C4F2020E 		movteq	lr, 16386
 488 003e DEF84020 		ldreq	r2, [lr, #64]
 489 0042 22F48042 		biceq	r2, r2, #16384
 490 0046 08BF     		it	eq
 491 0048 CEF84020 		streq	r2, [lr, #64]
 492 004c 10BD     		pop	{r4, pc}
 493              	.L34:
 494              		.loc 1 322 0
 495 004e 4FF4605C 		mov	ip, #14336
 496 0052 C4F2020C 		movt	ip, 16386
 497 0056 DCF84430 		ldr	r3, [ip, #68]
 498 005a 23F48050 		bic	r0, r3, #4096
 499 005e CCF84400 		str	r0, [ip, #68]
 500 0062 10BD     		pop	{r4, pc}
 501              		.cfi_endproc
 502              	.LFE121:
 503              		.size	spi_lld_stop, .-spi_lld_stop
 504 0064 AFF30080 		.section	.text.spi_lld_select,"ax",%progbits
 504      AFF30080 
 504      AFF30080 
 505              		.align	2
 506              		.p2align 4,,15
ARM GAS  /tmp/ccrjV2vp.s 			page 10


 507              		.global	spi_lld_select
 508              		.thumb
 509              		.thumb_func
 510              		.type	spi_lld_select, %function
 511              	spi_lld_select:
 512              	.LFB122:
 513              		.loc 1 342 0
 514              		.cfi_startproc
 515              		@ args = 0, pretend = 0, frame = 0
 516              		@ frame_needed = 0, uses_anonymous_args = 0
 517              		@ link register save eliminated.
 518              	.LVL18:
 519              		.loc 1 344 0
 520 0000 4268     		ldr	r2, [r0, #4]
 521 0002 1089     		ldrh	r0, [r2, #8]
 522              	.LVL19:
 523 0004 5368     		ldr	r3, [r2, #4]
 524 0006 0121     		movs	r1, #1
 525 0008 01FA00F2 		lsl	r2, r1, r0
 526 000c 5A83     		strh	r2, [r3, #26]	@ movhi
 527              		.loc 1 345 0
 528 000e 7047     		bx	lr
 529              		.cfi_endproc
 530              	.LFE122:
 531              		.size	spi_lld_select, .-spi_lld_select
 532              		.section	.text.spi_lld_unselect,"ax",%progbits
 533              		.align	2
 534              		.p2align 4,,15
 535              		.global	spi_lld_unselect
 536              		.thumb
 537              		.thumb_func
 538              		.type	spi_lld_unselect, %function
 539              	spi_lld_unselect:
 540              	.LFB123:
 541              		.loc 1 355 0
 542              		.cfi_startproc
 543              		@ args = 0, pretend = 0, frame = 0
 544              		@ frame_needed = 0, uses_anonymous_args = 0
 545              		@ link register save eliminated.
 546              	.LVL20:
 547              		.loc 1 357 0
 548 0000 4268     		ldr	r2, [r0, #4]
 549 0002 1089     		ldrh	r0, [r2, #8]
 550              	.LVL21:
 551 0004 5368     		ldr	r3, [r2, #4]
 552 0006 0121     		movs	r1, #1
 553 0008 01FA00F2 		lsl	r2, r1, r0
 554 000c 1A83     		strh	r2, [r3, #24]	@ movhi
 555              		.loc 1 358 0
 556 000e 7047     		bx	lr
 557              		.cfi_endproc
 558              	.LFE123:
 559              		.size	spi_lld_unselect, .-spi_lld_unselect
 560              		.section	.text.spi_lld_ignore,"ax",%progbits
 561              		.align	2
 562              		.p2align 4,,15
 563              		.global	spi_lld_ignore
ARM GAS  /tmp/ccrjV2vp.s 			page 11


 564              		.thumb
 565              		.thumb_func
 566              		.type	spi_lld_ignore, %function
 567              	spi_lld_ignore:
 568              	.LFB124:
 569              		.loc 1 371 0
 570              		.cfi_startproc
 571              		@ args = 0, pretend = 0, frame = 0
 572              		@ frame_needed = 0, uses_anonymous_args = 0
 573              		@ link register save eliminated.
 574              	.LVL22:
 575 0000 70B4     		push	{r4, r5, r6}
 576              	.LCFI4:
 577              		.cfi_def_cfa_offset 12
 578              		.cfi_offset 6, -4
 579              		.cfi_offset 5, -8
 580              		.cfi_offset 4, -12
 581              		.loc 1 373 0
 582 0002 066A     		ldr	r6, [r0, #32]
 583              		.loc 1 377 0
 584 0004 456A     		ldr	r5, [r0, #36]
 585              		.loc 1 373 0
 586 0006 3268     		ldr	r2, [r6, #0]
 587              		.loc 1 377 0
 588 0008 2B68     		ldr	r3, [r5, #0]
 589              		.loc 1 375 0
 590 000a 866A     		ldr	r6, [r0, #40]
 591              		.loc 1 379 0
 592 000c C56A     		ldr	r5, [r0, #44]
 593              		.loc 1 373 0
 594 000e 40F20004 		movw	r4, #:lower16:.LANCHOR3
 595              		.loc 1 377 0
 596 0012 40F20000 		movw	r0, #:lower16:.LANCHOR0
 597              	.LVL23:
 598 0016 C0F20000 		movt	r0, #:upper16:.LANCHOR0
 599              		.loc 1 373 0
 600 001a C0F20004 		movt	r4, #:upper16:.LANCHOR3
 601 001e D460     		str	r4, [r2, #12]
 602              		.loc 1 374 0
 603 0020 5160     		str	r1, [r2, #4]
 604              		.loc 1 375 0
 605 0022 1660     		str	r6, [r2, #0]
 606              		.loc 1 377 0
 607 0024 D860     		str	r0, [r3, #12]
 608              		.loc 1 378 0
 609 0026 5960     		str	r1, [r3, #4]
 610              		.loc 1 379 0
 611 0028 1D60     		str	r5, [r3, #0]
 612              		.loc 1 381 0
 613 002a 1068     		ldr	r0, [r2, #0]
 614 002c 40F00101 		orr	r1, r0, #1
 615              	.LVL24:
 616 0030 1160     		str	r1, [r2, #0]
 617              		.loc 1 382 0
 618 0032 1868     		ldr	r0, [r3, #0]
 619 0034 40F00102 		orr	r2, r0, #1
 620              	.LVL25:
ARM GAS  /tmp/ccrjV2vp.s 			page 12


 621 0038 1A60     		str	r2, [r3, #0]
 622              		.loc 1 383 0
 623 003a 70BC     		pop	{r4, r5, r6}
 624 003c 7047     		bx	lr
 625              		.cfi_endproc
 626              	.LFE124:
 627              		.size	spi_lld_ignore, .-spi_lld_ignore
 628 003e 00BF     		.section	.text.spi_lld_exchange,"ax",%progbits
 629              		.align	2
 630              		.p2align 4,,15
 631              		.global	spi_lld_exchange
 632              		.thumb
 633              		.thumb_func
 634              		.type	spi_lld_exchange, %function
 635              	spi_lld_exchange:
 636              	.LFB125:
 637              		.loc 1 401 0
 638              		.cfi_startproc
 639              		@ args = 0, pretend = 0, frame = 0
 640              		@ frame_needed = 0, uses_anonymous_args = 0
 641              		@ link register save eliminated.
 642              	.LVL26:
 643 0000 F0B4     		push	{r4, r5, r6, r7}
 644              	.LCFI5:
 645              		.cfi_def_cfa_offset 16
 646              		.cfi_offset 7, -4
 647              		.cfi_offset 6, -8
 648              		.cfi_offset 5, -12
 649              		.cfi_offset 4, -16
 650              		.loc 1 403 0
 651 0002 046A     		ldr	r4, [r0, #32]
 652              		.loc 1 407 0
 653 0004 476A     		ldr	r7, [r0, #36]
 654              		.loc 1 405 0
 655 0006 866A     		ldr	r6, [r0, #40]
 656              		.loc 1 409 0
 657 0008 C56A     		ldr	r5, [r0, #44]
 658              		.loc 1 403 0
 659 000a 2468     		ldr	r4, [r4, #0]
 660              		.loc 1 407 0
 661 000c 3868     		ldr	r0, [r7, #0]
 662              	.LVL27:
 663              		.loc 1 403 0
 664 000e E360     		str	r3, [r4, #12]
 665              		.loc 1 405 0
 666 0010 46F48066 		orr	r6, r6, #1024
 667              		.loc 1 409 0
 668 0014 45F48065 		orr	r5, r5, #1024
 669              		.loc 1 404 0
 670 0018 6160     		str	r1, [r4, #4]
 671              		.loc 1 405 0
 672 001a 2660     		str	r6, [r4, #0]
 673              		.loc 1 407 0
 674 001c C260     		str	r2, [r0, #12]
 675              		.loc 1 408 0
 676 001e 4160     		str	r1, [r0, #4]
 677              		.loc 1 409 0
ARM GAS  /tmp/ccrjV2vp.s 			page 13


 678 0020 0560     		str	r5, [r0, #0]
 679              		.loc 1 411 0
 680 0022 2368     		ldr	r3, [r4, #0]
 681              	.LVL28:
 682 0024 43F00102 		orr	r2, r3, #1
 683              	.LVL29:
 684 0028 2260     		str	r2, [r4, #0]
 685              		.loc 1 412 0
 686 002a 0168     		ldr	r1, [r0, #0]
 687              	.LVL30:
 688 002c 41F00103 		orr	r3, r1, #1
 689 0030 0360     		str	r3, [r0, #0]
 690              		.loc 1 413 0
 691 0032 F0BC     		pop	{r4, r5, r6, r7}
 692 0034 7047     		bx	lr
 693              		.cfi_endproc
 694              	.LFE125:
 695              		.size	spi_lld_exchange, .-spi_lld_exchange
 696 0036 00BFAFF3 		.section	.text.spi_lld_send,"ax",%progbits
 696      0080AFF3 
 696      0080
 697              		.align	2
 698              		.p2align 4,,15
 699              		.global	spi_lld_send
 700              		.thumb
 701              		.thumb_func
 702              		.type	spi_lld_send, %function
 703              	spi_lld_send:
 704              	.LFB126:
 705              		.loc 1 428 0
 706              		.cfi_startproc
 707              		@ args = 0, pretend = 0, frame = 0
 708              		@ frame_needed = 0, uses_anonymous_args = 0
 709              		@ link register save eliminated.
 710              	.LVL31:
 711 0000 70B4     		push	{r4, r5, r6}
 712              	.LCFI6:
 713              		.cfi_def_cfa_offset 12
 714              		.cfi_offset 6, -4
 715              		.cfi_offset 5, -8
 716              		.cfi_offset 4, -12
 717              		.loc 1 434 0
 718 0002 436A     		ldr	r3, [r0, #36]
 719              		.loc 1 430 0
 720 0004 046A     		ldr	r4, [r0, #32]
 721              		.loc 1 436 0
 722 0006 C66A     		ldr	r6, [r0, #44]
 723              		.loc 1 430 0
 724 0008 2468     		ldr	r4, [r4, #0]
 725              		.loc 1 432 0
 726 000a 806A     		ldr	r0, [r0, #40]
 727              	.LVL32:
 728              		.loc 1 434 0
 729 000c 1B68     		ldr	r3, [r3, #0]
 730              		.loc 1 430 0
 731 000e 40F20005 		movw	r5, #:lower16:.LANCHOR3
 732 0012 C0F20005 		movt	r5, #:upper16:.LANCHOR3
ARM GAS  /tmp/ccrjV2vp.s 			page 14


 733              		.loc 1 436 0
 734 0016 46F48066 		orr	r6, r6, #1024
 735              		.loc 1 430 0
 736 001a E560     		str	r5, [r4, #12]
 737              		.loc 1 431 0
 738 001c 6160     		str	r1, [r4, #4]
 739              		.loc 1 432 0
 740 001e 2060     		str	r0, [r4, #0]
 741              		.loc 1 434 0
 742 0020 DA60     		str	r2, [r3, #12]
 743              		.loc 1 435 0
 744 0022 5960     		str	r1, [r3, #4]
 745              		.loc 1 436 0
 746 0024 1E60     		str	r6, [r3, #0]
 747              		.loc 1 438 0
 748 0026 2268     		ldr	r2, [r4, #0]
 749              	.LVL33:
 750 0028 42F00101 		orr	r1, r2, #1
 751              	.LVL34:
 752 002c 2160     		str	r1, [r4, #0]
 753              		.loc 1 439 0
 754 002e 1868     		ldr	r0, [r3, #0]
 755 0030 40F00102 		orr	r2, r0, #1
 756 0034 1A60     		str	r2, [r3, #0]
 757              		.loc 1 440 0
 758 0036 70BC     		pop	{r4, r5, r6}
 759 0038 7047     		bx	lr
 760              		.cfi_endproc
 761              	.LFE126:
 762              		.size	spi_lld_send, .-spi_lld_send
 763 003a 00BFAFF3 		.section	.text.spi_lld_receive,"ax",%progbits
 763      0080
 764              		.align	2
 765              		.p2align 4,,15
 766              		.global	spi_lld_receive
 767              		.thumb
 768              		.thumb_func
 769              		.type	spi_lld_receive, %function
 770              	spi_lld_receive:
 771              	.LFB127:
 772              		.loc 1 455 0
 773              		.cfi_startproc
 774              		@ args = 0, pretend = 0, frame = 0
 775              		@ frame_needed = 0, uses_anonymous_args = 0
 776              		@ link register save eliminated.
 777              	.LVL35:
 778 0000 70B4     		push	{r4, r5, r6}
 779              	.LCFI7:
 780              		.cfi_def_cfa_offset 12
 781              		.cfi_offset 6, -4
 782              		.cfi_offset 5, -8
 783              		.cfi_offset 4, -12
 784              		.loc 1 461 0
 785 0002 436A     		ldr	r3, [r0, #36]
 786              		.loc 1 457 0
 787 0004 046A     		ldr	r4, [r0, #32]
 788              		.loc 1 459 0
ARM GAS  /tmp/ccrjV2vp.s 			page 15


 789 0006 866A     		ldr	r6, [r0, #40]
 790              		.loc 1 457 0
 791 0008 2468     		ldr	r4, [r4, #0]
 792              		.loc 1 461 0
 793 000a 1B68     		ldr	r3, [r3, #0]
 794              		.loc 1 463 0
 795 000c C06A     		ldr	r0, [r0, #44]
 796              	.LVL36:
 797              		.loc 1 457 0
 798 000e E260     		str	r2, [r4, #12]
 799              		.loc 1 461 0
 800 0010 40F20005 		movw	r5, #:lower16:.LANCHOR0
 801              		.loc 1 459 0
 802 0014 46F48066 		orr	r6, r6, #1024
 803              		.loc 1 461 0
 804 0018 C0F20005 		movt	r5, #:upper16:.LANCHOR0
 805              		.loc 1 458 0
 806 001c 6160     		str	r1, [r4, #4]
 807              		.loc 1 459 0
 808 001e 2660     		str	r6, [r4, #0]
 809              		.loc 1 461 0
 810 0020 DD60     		str	r5, [r3, #12]
 811              		.loc 1 462 0
 812 0022 5960     		str	r1, [r3, #4]
 813              		.loc 1 463 0
 814 0024 1860     		str	r0, [r3, #0]
 815              		.loc 1 465 0
 816 0026 2268     		ldr	r2, [r4, #0]
 817              	.LVL37:
 818 0028 42F00101 		orr	r1, r2, #1
 819              	.LVL38:
 820 002c 2160     		str	r1, [r4, #0]
 821              		.loc 1 466 0
 822 002e 1868     		ldr	r0, [r3, #0]
 823 0030 40F00102 		orr	r2, r0, #1
 824 0034 1A60     		str	r2, [r3, #0]
 825              		.loc 1 467 0
 826 0036 70BC     		pop	{r4, r5, r6}
 827 0038 7047     		bx	lr
 828              		.cfi_endproc
 829              	.LFE127:
 830              		.size	spi_lld_receive, .-spi_lld_receive
 831 003a 00BFAFF3 		.section	.text.spi_lld_polled_exchange,"ax",%progbits
 831      0080
 832              		.align	2
 833              		.p2align 4,,15
 834              		.global	spi_lld_polled_exchange
 835              		.thumb
 836              		.thumb_func
 837              		.type	spi_lld_polled_exchange, %function
 838              	spi_lld_polled_exchange:
 839              	.LFB128:
 840              		.loc 1 481 0
 841              		.cfi_startproc
 842              		@ args = 0, pretend = 0, frame = 0
 843              		@ frame_needed = 0, uses_anonymous_args = 0
 844              		@ link register save eliminated.
ARM GAS  /tmp/ccrjV2vp.s 			page 16


 845              	.LVL39:
 846              		.loc 1 483 0
 847 0000 C369     		ldr	r3, [r0, #28]
 848 0002 9981     		strh	r1, [r3, #12]	@ movhi
 849              	.L42:
 850              		.loc 1 484 0 discriminator 1
 851 0004 1A89     		ldrh	r2, [r3, #8]
 852 0006 D207     		lsls	r2, r2, #31
 853 0008 FCD5     		bpl	.L42
 854              		.loc 1 486 0
 855 000a 9889     		ldrh	r0, [r3, #12]
 856              	.LVL40:
 857              		.loc 1 487 0
 858 000c 80B2     		uxth	r0, r0
 859 000e 7047     		bx	lr
 860              		.cfi_endproc
 861              	.LFE128:
 862              		.size	spi_lld_polled_exchange, .-spi_lld_polled_exchange
 863              		.global	SPID2
 864              		.global	SPID1
 865              		.section	.bss.dummytx,"aw",%nobits
 866              		.align	1
 867              		.set	.LANCHOR0,. + 0
 868              		.type	dummytx, %object
 869              		.size	dummytx, 2
 870              	dummytx:
 871 0000 0000     		.space	2
 872              		.section	.bss.SPID1,"aw",%nobits
 873              		.align	2
 874              		.set	.LANCHOR1,. + 0
 875              		.type	SPID1, %object
 876              		.size	SPID1, 48
 877              	SPID1:
 878 0000 00000000 		.space	48
 878      00000000 
 878      00000000 
 878      00000000 
 878      00000000 
 879              		.section	.bss.SPID2,"aw",%nobits
 880              		.align	2
 881              		.set	.LANCHOR2,. + 0
 882              		.type	SPID2, %object
 883              		.size	SPID2, 48
 884              	SPID2:
 885 0000 00000000 		.space	48
 885      00000000 
 885      00000000 
 885      00000000 
 885      00000000 
 886              		.section	.bss.dummyrx,"aw",%nobits
 887              		.align	1
 888              		.set	.LANCHOR3,. + 0
 889              		.type	dummyrx, %object
 890              		.size	dummyrx, 2
 891              	dummyrx:
 892 0000 0000     		.space	2
 893              		.text
ARM GAS  /tmp/ccrjV2vp.s 			page 17


 894              	.Letext0:
 895              		.file 2 "/opt/arm/bin/../lib/gcc/arm-none-eabi/4.6.3/include/stddef.h"
 896              		.file 3 "/opt/arm/bin/../lib/gcc/arm-none-eabi/4.6.3/../../../../arm-none-eabi/include/stdint.h"
 897              		.file 4 "/opt/ChibiOS/ChibiOS_2.4.4/os/ports/GCC/ARMCMx/chtypes.h"
 898              		.file 5 "/opt/ChibiOS/ChibiOS_2.4.4/os/kernel/include/chlists.h"
 899              		.file 6 "/opt/ChibiOS/ChibiOS_2.4.4/os/kernel/include/chthreads.h"
 900              		.file 7 "/opt/ChibiOS/ChibiOS_2.4.4/os/ports/GCC/ARMCMx/chcore_v7m.h"
 901              		.file 8 "/opt/ChibiOS/ChibiOS_2.4.4/os/kernel/include/chmtx.h"
 902              		.file 9 "/opt/ChibiOS/ChibiOS_2.4.4/os/hal/platforms/STM32F4xx/stm32f4xx.h"
 903              		.file 10 "/opt/ChibiOS/ChibiOS_2.4.4/os/hal/platforms/STM32F4xx/stm32_dma.h"
 904              		.file 11 "/opt/ChibiOS/ChibiOS_2.4.4/os/hal/platforms/STM32/GPIOv2/pal_lld.h"
 905              		.file 12 "/opt/ChibiOS/ChibiOS_2.4.4/os/hal/include/spi.h"
 906              		.file 13 "/opt/ChibiOS/ChibiOS_2.4.4/os/hal/platforms/STM32/spi_lld.h"
 907              		.file 14 "/opt/ChibiOS/ChibiOS_2.4.4/os/ports/common/ARMCMx/CMSIS/include/core_cm4.h"