ARM GAS  /tmp/ccEHdZiW.s 			page 1


   1              		.syntax unified
   2              		.cpu cortex-m4
   3              		.eabi_attribute 27, 3
   4              		.eabi_attribute 28, 1
   5              		.fpu fpv4-sp-d16
   6              		.eabi_attribute 20, 1
   7              		.eabi_attribute 21, 1
   8              		.eabi_attribute 23, 3
   9              		.eabi_attribute 24, 1
  10              		.eabi_attribute 25, 1
  11              		.eabi_attribute 26, 1
  12              		.eabi_attribute 30, 2
  13              		.eabi_attribute 34, 1
  14              		.eabi_attribute 18, 4
  15              		.thumb
  16              		.file	"testmsg.c"
  17              		.text
  18              	.Ltext0:
  19              		.cfi_sections	.debug_frame
  20              		.section	.text.msg1_execute,"ax",%progbits
  21              		.align	2
  22              		.p2align 4,,15
  23              		.thumb
  24              		.thumb_func
  25              		.type	msg1_execute, %function
  26              	msg1_execute:
  27              	.LFB8:
  28              		.file 1 "/opt/ChibiOS/ChibiOS_2.4.4/test/testmsg.c"
  29              		.loc 1 78 0
  30              		.cfi_startproc
  31              		@ args = 0, pretend = 0, frame = 0
  32              		@ frame_needed = 0, uses_anonymous_args = 0
  33 0000 10B5     		push	{r4, lr}
  34              	.LCFI0:
  35              		.cfi_def_cfa_offset 8
  36              		.cfi_offset 14, -4
  37              		.cfi_offset 4, -8
  38              		.loc 1 85 0
  39 0002 40F2000C 		movw	ip, #:lower16:rlist
  40 0006 C0F2000C 		movt	ip, #:upper16:rlist
  41 000a 40F20000 		movw	r0, #:lower16:wa
  42 000e DCF81C10 		ldr	r1, [ip, #28]
  43              		.loc 1 78 0
  44 0012 82B0     		sub	sp, sp, #8
  45              	.LCFI1:
  46              		.cfi_def_cfa_offset 16
  47              		.loc 1 85 0
  48 0014 8A68     		ldr	r2, [r1, #8]
  49 0016 0091     		str	r1, [sp, #0]
  50 0018 C0F20000 		movt	r0, #:upper16:wa
  51 001c 40F20003 		movw	r3, #:lower16:thread
  52 0020 0132     		adds	r2, r2, #1
  53 0022 4FF49871 		mov	r1, #304
  54 0026 C0F20003 		movt	r3, #:upper16:thread
  55 002a 0068     		ldr	r0, [r0, #0]
  56 002c FFF7FEFF 		bl	chThdCreateStatic
  57 0030 40F20003 		movw	r3, #:lower16:threads
ARM GAS  /tmp/ccEHdZiW.s 			page 2


  58 0034 C0F20003 		movt	r3, #:upper16:threads
  59 0038 1860     		str	r0, [r3, #0]
  60              		.loc 1 87 0
  61 003a FFF7FEFF 		bl	chMsgWait
  62              	.LVL0:
  63              		.loc 1 88 0
  64 003e 446B     		ldr	r4, [r0, #52]
  65              	.LVL1:
  66              		.loc 1 89 0
  67 0040 2146     		mov	r1, r4
  68 0042 FFF7FEFF 		bl	chMsgRelease
  69              	.LVL2:
  70              		.loc 1 90 0
  71 0046 E0B2     		uxtb	r0, r4
  72 0048 FFF7FEFF 		bl	test_emit_token
  73              		.loc 1 91 0
  74 004c FFF7FEFF 		bl	chMsgWait
  75              	.LVL3:
  76              		.loc 1 92 0
  77 0050 446B     		ldr	r4, [r0, #52]
  78              	.LVL4:
  79              		.loc 1 93 0
  80 0052 2146     		mov	r1, r4
  81 0054 FFF7FEFF 		bl	chMsgRelease
  82              	.LVL5:
  83              		.loc 1 94 0
  84 0058 E0B2     		uxtb	r0, r4
  85 005a FFF7FEFF 		bl	test_emit_token
  86              		.loc 1 95 0
  87 005e FFF7FEFF 		bl	chMsgWait
  88              	.LVL6:
  89              		.loc 1 96 0
  90 0062 446B     		ldr	r4, [r0, #52]
  91              	.LVL7:
  92              		.loc 1 97 0
  93 0064 2146     		mov	r1, r4
  94 0066 FFF7FEFF 		bl	chMsgRelease
  95              	.LVL8:
  96              		.loc 1 98 0
  97 006a E0B2     		uxtb	r0, r4
  98 006c FFF7FEFF 		bl	test_emit_token
  99              		.loc 1 99 0
 100 0070 40F20001 		movw	r1, #:lower16:.LC0
 101 0074 0120     		movs	r0, #1
 102 0076 C0F20001 		movt	r1, #:upper16:.LC0
 103              		.loc 1 100 0
 104 007a 02B0     		add	sp, sp, #8
 105 007c BDE81040 		pop	{r4, lr}
 106              		.loc 1 99 0
 107 0080 FFF7FEBF 		b	_test_assert_sequence
 108              		.cfi_endproc
 109              	.LFE8:
 110              		.size	msg1_execute, .-msg1_execute
 111 0084 AFF30080 		.section	.text.thread,"ax",%progbits
 111      AFF30080 
 111      AFF30080 
 112              		.align	2
ARM GAS  /tmp/ccEHdZiW.s 			page 3


 113              		.p2align 4,,15
 114              		.thumb
 115              		.thumb_func
 116              		.type	thread, %function
 117              	thread:
 118              	.LFB7:
 119              		.loc 1 70 0
 120              		.cfi_startproc
 121              		@ args = 0, pretend = 0, frame = 0
 122              		@ frame_needed = 0, uses_anonymous_args = 0
 123              	.LVL9:
 124 0000 10B5     		push	{r4, lr}
 125              	.LCFI2:
 126              		.cfi_def_cfa_offset 8
 127              		.cfi_offset 14, -4
 128              		.cfi_offset 4, -8
 129              		.loc 1 72 0
 130 0002 4121     		movs	r1, #65
 131              		.loc 1 70 0
 132 0004 0446     		mov	r4, r0
 133              		.loc 1 72 0
 134 0006 FFF7FEFF 		bl	chMsgSend
 135              	.LVL10:
 136              		.loc 1 73 0
 137 000a 4221     		movs	r1, #66
 138 000c 2046     		mov	r0, r4
 139 000e FFF7FEFF 		bl	chMsgSend
 140              		.loc 1 74 0
 141 0012 2046     		mov	r0, r4
 142 0014 4321     		movs	r1, #67
 143 0016 FFF7FEFF 		bl	chMsgSend
 144              		.loc 1 76 0
 145 001a 0020     		movs	r0, #0
 146 001c 10BD     		pop	{r4, pc}
 147              		.cfi_endproc
 148              	.LFE7:
 149              		.size	thread, .-thread
 150              		.global	patternmsg
 151              		.global	testmsg1
 152 001e 00BF     		.section	.rodata.testmsg1,"a",%progbits
 153              		.align	2
 154              		.type	testmsg1, %object
 155              		.size	testmsg1, 16
 156              	testmsg1:
 157 0000 04000000 		.word	.LC1
 158 0004 00000000 		.word	0
 159 0008 00000000 		.word	0
 160 000c 00000000 		.word	msg1_execute
 161              		.section	.rodata.str1.4,"aMS",%progbits,1
 162              		.align	2
 163              	.LC0:
 164 0000 41424300 		.ascii	"ABC\000"
 165              	.LC1:
 166 0004 4D657373 		.ascii	"Messages, loop\000"
 166      61676573 
 166      2C206C6F 
 166      6F7000
ARM GAS  /tmp/ccEHdZiW.s 			page 4


 167 0013 00       		.section	.rodata.patternmsg,"a",%progbits
 168              		.align	2
 169              		.type	patternmsg, %object
 170              		.size	patternmsg, 8
 171              	patternmsg:
 172 0000 00000000 		.word	testmsg1
 173 0004 00000000 		.word	0
 174              		.text
 175              	.Letext0:
 176              		.file 2 "/opt/arm/bin/../lib/gcc/arm-none-eabi/4.6.3/../../../../arm-none-eabi/include/stdint.h"
 177              		.file 3 "/opt/ChibiOS/ChibiOS_2.4.4/os/ports/GCC/ARMCMx/chtypes.h"
 178              		.file 4 "/opt/ChibiOS/ChibiOS_2.4.4/os/kernel/include/chlists.h"
 179              		.file 5 "/opt/ChibiOS/ChibiOS_2.4.4/os/kernel/include/chthreads.h"
 180              		.file 6 "/opt/ChibiOS/ChibiOS_2.4.4/os/ports/GCC/ARMCMx/chcore_v7m.h"
 181              		.file 7 "/opt/ChibiOS/ChibiOS_2.4.4/os/kernel/include/chschd.h"
 182              		.file 8 "/opt/ChibiOS/ChibiOS_2.4.4/os/kernel/include/chmtx.h"
 183              		.file 9 "/opt/ChibiOS/ChibiOS_2.4.4/test/test.h"