ARM GAS  /tmp/ccEHdZiW.s 			page 1


   1              		.syntax unified
   2              		.cpu cortex-m4
   3              		.eabi_attribute 27, 3
   4              		.eabi_attribute 28, 1
   5              		.fpu fpv4-sp-d16
   6              		.eabi_attribute 20, 1
   7              		.eabi_attribute 21, 1
   8              		.eabi_attribute 23, 3
   9              		.eabi_attribute 24, 1
  10              		.eabi_attribute 25, 1
  11              		.eabi_attribute 26, 1
  12              		.eabi_attribute 30, 2
  13              		.eabi_attribute 34, 1
  14              		.eabi_attribute 18, 4
  15              		.thumb
  16              		.file	"testmsg.c"
  17              		.text
  18              	.Ltext0:
  19              		.cfi_sections	.debug_frame
  20              		.section	.text.msg1_execute,"ax",%progbits
  21              		.align	2
  22              		.p2align 4,,15
  23              		.thumb
  24              		.thumb_func
  25              		.type	msg1_execute, %function
  26              	msg1_execute:
  27              	.LFB8:
  28              		.file 1 "/opt/ChibiOS/ChibiOS_2.4.4/test/testmsg.c"
  29              		.loc 1 78 0
  30              		.cfi_startproc
  31              		@ args = 0, pretend = 0, frame = 0
  32              		@ frame_needed = 0, uses_anonymous_args = 0
  33 0000 10B5     		push	{r4, lr}
  34              	.LCFI0:
  35              		.cfi_def_cfa_offset 8
  36              		.cfi_offset 14, -4
  37              		.cfi_offset 4, -8
  38              		.loc 1 85 0
  39 0002 40F2000C 		movw	ip, #:lower16:rlist
  40 0006 C0F2000C 		movt	ip, #:upper16:rlist
  41 000a 40F20000 		movw	r0, #:lower16:wa
  42 000e DCF81C10 		ldr	r1, [ip, #28]
  43              		.loc 1 78 0
  44 0012 82B0     		sub	sp, sp, #8
  45              	.LCFI1:
  46              		.cfi_def_cfa_offset 16
  47              		.loc 1 85 0
  48 0014 8A68     		ldr	r2, [r1, #8]
  49 0016 0091     		str	r1, [sp, #0]
  50 0018 C0F20000 		movt	r0, #:upper16:wa
  51 001c 40F20003 		movw	r3, #:lower16:thread
  52 0020 0132     		adds	r2, r2, #1
  53 0022 4FF49871 		mov	r1, #304
  54 0026 C0F20003 		movt	r3, #:upper16:thread
  55 002a 0068     		ldr	r0, [r0, #0]
  56 002c FFF7FEFF 		bl	chThdCreateStatic
  57 0030 40F20003 		movw	r3, #:lower16:threads
ARM GAS  /tmp/ccEHdZiW.s 			page 2


  58 0034 C0F20003 		movt	r3, #:upper16:threads
  59 0038 1860     		str	r0, [r3, #0]
  60              		.loc 1 87 0
  61 003a FFF7FEFF 		bl	chMsgWait
  62              	.LVL0:
  63              		.loc 1 88 0
  64 003e 446B     		ldr	r4, [r0, #52]
  65              	.LVL1:
  66              		.loc 1 89 0
  67 0040 2146     		mov	r1, r4
  68 0042 FFF7FEFF 		bl	chMsgRelease
  69              	.LVL2:
  70              		.loc 1 90 0
  71 0046 E0B2     		uxtb	r0, r4
  72 0048 FFF7FEFF 		bl	test_emit_token
  73              		.loc 1 91 0
  74 004c FFF7FEFF 		bl	chMsgWait
  75              	.LVL3:
  76              		.loc 1 92 0
  77 0050 446B     		ldr	r4, [r0, #52]
  78              	.LVL4:
  79              		.loc 1 93 0
  80 0052 2146     		mov	r1, r4
  81 0054 FFF7FEFF 		bl	chMsgRelease
  82              	.LVL5:
  83              		.loc 1 94 0
  84 0058 E0B2     		uxtb	r0, r4
  85 005a FFF7FEFF 		bl	test_emit_token
  86              		.loc 1 95 0
  87 005e FFF7FEFF 		bl	chMsgWait
  88              	.LVL6:
  89              		.loc 1 96 0
  90 0062 446B     		ldr	r4, [r0, #52]
  91              	.LVL7:
  92              		.loc 1 97 0
  93 0064 2146     		mov	r1, r4
  94 0066 FFF7FEFF 		bl	chMsgRelease
  95              	.LVL8:
  96              		.loc 1 98 0
  97 006a E0B2     		uxtb	r0, r4
  98 006c FFF7FEFF 		bl	test_emit_token
  99              		.loc 1 99 0
 100 0070 40F20001 		movw	r1, #:lower16:.LC0
 101 0074 0120     		movs	r0, #1
 102 0076 C0F20001 		movt	r1, #:upper16:.LC0
 103              		.loc 1 100 0
 104 007a 02B0     		add	sp, sp, #8
 105 007c BDE81040 		pop	{r4, lr}
 106              		.loc 1 99 0
 107 0080 FFF7FEBF 		b	_test_assert_sequence
 108              		.cfi_endproc
 109              	.LFE8:
 110              		.size	msg1_execute, .-msg1_execute
 111 0084 AFF30080 		.section	.text.thread,"ax",%progbits
 111      AFF30080 
 111      AFF30080 
 112              		.align	2
ARM GAS  /tmp/ccEHdZiW.s 			page 3


 113              		.p2align 4,,15
 114              		.thumb
 115              		.thumb_func
 116              		.type	thread, %function
 117              	thread:
 118              	.LFB7:
 119              		.loc 1 70 0
 120              		.cfi_startproc
 121              		@ args = 0, pretend = 0, frame = 0
 122              		@ frame_needed = 0, uses_anonymous_args = 0
 123              	.LVL9:
 124 0000 10B5     		push	{r4, lr}
 125              	.LCFI2:
 126              		.cfi_def_cfa_offset 8
 127              		.cfi_offset 14, -4
 128              		.cfi_offset 4, -8
 129              		.loc 1 72 0
 130 0002 4121     		movs	r1, #65
 131              		.loc 1 70 0
 132 0004 0446     		mov	r4, r0
 133              		.loc 1 72 0
 134 0006 FFF7FEFF 		bl	chMsgSend
 135              	.LVL10:
 136              		.loc 1 73 0
 137 000a 4221     		movs	r1, #66
 138 000c 2046     		mov	r0, r4
 139 000e FFF7FEFF 		bl	chMsgSend
 140              		.loc 1 74 0
 141 0012 2046     		mov	r0, r4
 142 0014 4321     		movs	r1, #67
 143 0016 FFF7FEFF 		bl	chMsgSend
 144              		.loc 1 76 0
 145 001a 0020     		movs	r0, #0
 146 001c 10BD     		pop	{r4, pc}
 147              		.cfi_endproc
 148              	.LFE7:
 149              		.size	thread, .-thread
 150              		.global	patternmsg
 151              		.global	testmsg1
 152 001e 00BF     		.section	.rodata.testmsg1,"a",%progbits
 153              		.align	2
 154              		.type	testmsg1, %object
 155              		.size	testmsg1, 16
 156              	testmsg1:
 157 0000 04000000 		.word	.LC1
 158 0004 00000000 		.word	0
 159 0008 00000000 		.word	0
 160 000c 00000000 		.word	msg1_execute
 161              		.section	.rodata.str1.4,"aMS",%progbits,1
 162              		.align	2
 163              	.LC0:
 164 0000 41424300 		.ascii	"ABC\000"
 165              	.LC1:
 166 0004 4D657373 		.ascii	"Messages, loop\000"
 166      61676573 
 166      2C206C6F 
 166      6F7000
ARM GAS  /tmp/ccEHdZiW.s 			page 4


 167 0013 00       		.section	.rodata.patternmsg,"a",%progbits
 168              		.align	2
 169              		.type	patternmsg, %object
 170              		.size	patternmsg, 8
 171              	patternmsg:
 172 0000 00000000 		.word	testmsg1
 173 0004 00000000 		.word	0
 174              		.text
 175              	.Letext0:
 176              		.file 2 "/opt/arm/bin/../lib/gcc/arm-none-eabi/4.6.3/../../../../arm-none-eabi/include/stdint.h"
 177              		.file 3 "/opt/ChibiOS/ChibiOS_2.4.4/os/ports/GCC/ARMCMx/chtypes.h"
 178              		.file 4 "/opt/ChibiOS/ChibiOS_2.4.4/os/kernel/include/chlists.h"
 179              		.file 5 "/opt/ChibiOS/ChibiOS_2.4.4/os/kernel/include/chthreads.h"
 180              		.file 6 "/opt/ChibiOS/ChibiOS_2.4.4/os/ports/GCC/ARMCMx/chcore_v7m.h"
 181              		.file 7 "/opt/ChibiOS/ChibiOS_2.4.4/os/kernel/include/chschd.h"
 182              		.file 8 "/opt/ChibiOS/ChibiOS_2.4.4/os/kernel/include/chmtx.h"
 183              		.file 9 "/opt/ChibiOS/ChibiOS_2.4.4/test/test.h"
 184              		.section	.debug_info,"",%progbits
 185              	.Ldebug_info0:
 186 0000 5F050000 		.4byte	0x55f
 187 0004 0200     		.2byte	0x2
 188 0006 00000000 		.4byte	.Ldebug_abbrev0
 189 000a 04       		.byte	0x4
 190 000b 01       		.uleb128 0x1
 191 000c 1D020000 		.4byte	.LASF70
 192 0010 01       		.byte	0x1
 193 0011 49010000 		.4byte	.LASF71
 194 0015 00000000 		.4byte	0
 195 0019 00000000 		.4byte	0
 196 001d 00000000 		.4byte	.Ldebug_ranges0+0
 197 0021 00000000 		.4byte	.Ldebug_line0
 198 0025 02       		.uleb128 0x2
 199 0026 04       		.byte	0x4
 200 0027 05       		.byte	0x5
 201 0028 696E7400 		.ascii	"int\000"
 202 002c 03       		.uleb128 0x3
 203 002d 04       		.byte	0x4
 204 002e 07       		.byte	0x7
 205 002f 8F000000 		.4byte	.LASF0
 206 0033 03       		.uleb128 0x3
 207 0034 01       		.byte	0x1
 208 0035 06       		.byte	0x6
 209 0036 42000000 		.4byte	.LASF1
 210 003a 04       		.uleb128 0x4
 211 003b 7A020000 		.4byte	.LASF5
 212 003f 02       		.byte	0x2
 213 0040 2A       		.byte	0x2a
 214 0041 45000000 		.4byte	0x45
 215 0045 03       		.uleb128 0x3
 216 0046 01       		.byte	0x1
 217 0047 08       		.byte	0x8
 218 0048 99010000 		.4byte	.LASF2
 219 004c 03       		.uleb128 0x3
 220 004d 02       		.byte	0x2
 221 004e 05       		.byte	0x5
 222 004f B1010000 		.4byte	.LASF3
 223 0053 03       		.uleb128 0x3
ARM GAS  /tmp/ccEHdZiW.s 			page 5


 224 0054 02       		.byte	0x2
 225 0055 07       		.byte	0x7
 226 0056 C4000000 		.4byte	.LASF4
 227 005a 04       		.uleb128 0x4
 228 005b 91010000 		.4byte	.LASF6
 229 005f 02       		.byte	0x2
 230 0060 4F       		.byte	0x4f
 231 0061 65000000 		.4byte	0x65
 232 0065 03       		.uleb128 0x3
 233 0066 04       		.byte	0x4
 234 0067 05       		.byte	0x5
 235 0068 5E000000 		.4byte	.LASF7
 236 006c 04       		.uleb128 0x4
 237 006d 0C020000 		.4byte	.LASF8
 238 0071 02       		.byte	0x2
 239 0072 50       		.byte	0x50
 240 0073 77000000 		.4byte	0x77
 241 0077 03       		.uleb128 0x3
 242 0078 04       		.byte	0x4
 243 0079 07       		.byte	0x7
 244 007a 9C000000 		.4byte	.LASF9
 245 007e 03       		.uleb128 0x3
 246 007f 08       		.byte	0x8
 247 0080 05       		.byte	0x5
 248 0081 34000000 		.4byte	.LASF10
 249 0085 03       		.uleb128 0x3
 250 0086 08       		.byte	0x8
 251 0087 07       		.byte	0x7
 252 0088 0D000000 		.4byte	.LASF11
 253 008c 04       		.uleb128 0x4
 254 008d DD000000 		.4byte	.LASF12
 255 0091 03       		.byte	0x3
 256 0092 2F       		.byte	0x2f
 257 0093 3A000000 		.4byte	0x3a
 258 0097 04       		.uleb128 0x4
 259 0098 67000000 		.4byte	.LASF13
 260 009c 03       		.byte	0x3
 261 009d 30       		.byte	0x30
 262 009e 3A000000 		.4byte	0x3a
 263 00a2 04       		.uleb128 0x4
 264 00a3 41010000 		.4byte	.LASF14
 265 00a7 03       		.byte	0x3
 266 00a8 31       		.byte	0x31
 267 00a9 3A000000 		.4byte	0x3a
 268 00ad 04       		.uleb128 0x4
 269 00ae 82010000 		.4byte	.LASF15
 270 00b2 03       		.byte	0x3
 271 00b3 32       		.byte	0x32
 272 00b4 6C000000 		.4byte	0x6c
 273 00b8 04       		.uleb128 0x4
 274 00b9 D7000000 		.4byte	.LASF16
 275 00bd 03       		.byte	0x3
 276 00be 33       		.byte	0x33
 277 00bf 5A000000 		.4byte	0x5a
 278 00c3 04       		.uleb128 0x4
 279 00c4 F1000000 		.4byte	.LASF17
 280 00c8 03       		.byte	0x3
ARM GAS  /tmp/ccEHdZiW.s 			page 6


 281 00c9 35       		.byte	0x35
 282 00ca 6C000000 		.4byte	0x6c
 283 00ce 04       		.uleb128 0x4
 284 00cf 35020000 		.4byte	.LASF18
 285 00d3 03       		.byte	0x3
 286 00d4 36       		.byte	0x36
 287 00d5 6C000000 		.4byte	0x6c
 288 00d9 04       		.uleb128 0x4
 289 00da 89000000 		.4byte	.LASF19
 290 00de 03       		.byte	0x3
 291 00df 37       		.byte	0x37
 292 00e0 5A000000 		.4byte	0x5a
 293 00e4 04       		.uleb128 0x4
 294 00e5 F1010000 		.4byte	.LASF20
 295 00e9 04       		.byte	0x4
 296 00ea 2A       		.byte	0x2a
 297 00eb EF000000 		.4byte	0xef
 298 00ef 05       		.uleb128 0x5
 299 00f0 F1010000 		.4byte	.LASF20
 300 00f4 48       		.byte	0x48
 301 00f5 05       		.byte	0x5
 302 00f6 5E       		.byte	0x5e
 303 00f7 06020000 		.4byte	0x206
 304 00fb 06       		.uleb128 0x6
 305 00fc E2010000 		.4byte	.LASF21
 306 0100 05       		.byte	0x5
 307 0101 5F       		.byte	0x5f
 308 0102 2B020000 		.4byte	0x22b
 309 0106 02       		.byte	0x2
 310 0107 23       		.byte	0x23
 311 0108 00       		.uleb128 0
 312 0109 06       		.uleb128 0x6
 313 010a 73010000 		.4byte	.LASF22
 314 010e 05       		.byte	0x5
 315 010f 61       		.byte	0x61
 316 0110 2B020000 		.4byte	0x22b
 317 0114 02       		.byte	0x2
 318 0115 23       		.byte	0x23
 319 0116 04       		.uleb128 0x4
 320 0117 06       		.uleb128 0x6
 321 0118 2D000000 		.4byte	.LASF23
 322 011c 05       		.byte	0x5
 323 011d 63       		.byte	0x63
 324 011e AD000000 		.4byte	0xad
 325 0122 02       		.byte	0x2
 326 0123 23       		.byte	0x23
 327 0124 08       		.uleb128 0x8
 328 0125 06       		.uleb128 0x6
 329 0126 AF020000 		.4byte	.LASF24
 330 012a 05       		.byte	0x5
 331 012b 64       		.byte	0x64
 332 012c F8020000 		.4byte	0x2f8
 333 0130 02       		.byte	0x2
 334 0131 23       		.byte	0x23
 335 0132 0C       		.uleb128 0xc
 336 0133 06       		.uleb128 0x6
 337 0134 70000000 		.4byte	.LASF25
ARM GAS  /tmp/ccEHdZiW.s 			page 7


 338 0138 05       		.byte	0x5
 339 0139 66       		.byte	0x66
 340 013a 2B020000 		.4byte	0x22b
 341 013e 02       		.byte	0x2
 342 013f 23       		.byte	0x23
 343 0140 10       		.uleb128 0x10
 344 0141 06       		.uleb128 0x6
 345 0142 0E010000 		.4byte	.LASF26
 346 0146 05       		.byte	0x5
 347 0147 67       		.byte	0x67
 348 0148 2B020000 		.4byte	0x22b
 349 014c 02       		.byte	0x2
 350 014d 23       		.byte	0x23
 351 014e 14       		.uleb128 0x14
 352 014f 06       		.uleb128 0x6
 353 0150 96020000 		.4byte	.LASF27
 354 0154 05       		.byte	0x5
 355 0155 6E       		.byte	0x6e
 356 0156 13040000 		.4byte	0x413
 357 015a 02       		.byte	0x2
 358 015b 23       		.byte	0x23
 359 015c 18       		.uleb128 0x18
 360 015d 06       		.uleb128 0x6
 361 015e BB010000 		.4byte	.LASF28
 362 0162 05       		.byte	0x5
 363 0163 79       		.byte	0x79
 364 0164 97000000 		.4byte	0x97
 365 0168 02       		.byte	0x2
 366 0169 23       		.byte	0x23
 367 016a 1C       		.uleb128 0x1c
 368 016b 06       		.uleb128 0x6
 369 016c E9010000 		.4byte	.LASF29
 370 0170 05       		.byte	0x5
 371 0171 7D       		.byte	0x7d
 372 0172 8C000000 		.4byte	0x8c
 373 0176 02       		.byte	0x2
 374 0177 23       		.byte	0x23
 375 0178 1D       		.uleb128 0x1d
 376 0179 06       		.uleb128 0x6
 377 017a 63020000 		.4byte	.LASF30
 378 017e 05       		.byte	0x5
 379 017f 82       		.byte	0x82
 380 0180 A2000000 		.4byte	0xa2
 381 0184 02       		.byte	0x2
 382 0185 23       		.byte	0x23
 383 0186 1E       		.uleb128 0x1e
 384 0187 06       		.uleb128 0x6
 385 0188 4A020000 		.4byte	.LASF31
 386 018c 05       		.byte	0x5
 387 018d 89       		.byte	0x89
 388 018e 1B030000 		.4byte	0x31b
 389 0192 02       		.byte	0x2
 390 0193 23       		.byte	0x23
 391 0194 20       		.uleb128 0x20
 392 0195 07       		.uleb128 0x7
 393 0196 705F7500 		.ascii	"p_u\000"
 394 019a 05       		.byte	0x5
ARM GAS  /tmp/ccEHdZiW.s 			page 8


 395 019b AE       		.byte	0xae
 396 019c DE030000 		.4byte	0x3de
 397 01a0 02       		.byte	0x2
 398 01a1 23       		.byte	0x23
 399 01a2 24       		.uleb128 0x24
 400 01a3 06       		.uleb128 0x6
 401 01a4 B5020000 		.4byte	.LASF32
 402 01a8 05       		.byte	0x5
 403 01a9 B3       		.byte	0xb3
 404 01aa 53020000 		.4byte	0x253
 405 01ae 02       		.byte	0x2
 406 01af 23       		.byte	0x23
 407 01b0 28       		.uleb128 0x28
 408 01b1 06       		.uleb128 0x6
 409 01b2 58020000 		.4byte	.LASF33
 410 01b6 05       		.byte	0x5
 411 01b7 B9       		.byte	0xb9
 412 01b8 31020000 		.4byte	0x231
 413 01bc 02       		.byte	0x2
 414 01bd 23       		.byte	0x23
 415 01be 2C       		.uleb128 0x2c
 416 01bf 06       		.uleb128 0x6
 417 01c0 00000000 		.4byte	.LASF34
 418 01c4 05       		.byte	0x5
 419 01c5 BD       		.byte	0xbd
 420 01c6 B8000000 		.4byte	0xb8
 421 01ca 02       		.byte	0x2
 422 01cb 23       		.byte	0x23
 423 01cc 34       		.uleb128 0x34
 424 01cd 06       		.uleb128 0x6
 425 01ce 01020000 		.4byte	.LASF35
 426 01d2 05       		.byte	0x5
 427 01d3 C3       		.byte	0xc3
 428 01d4 C3000000 		.4byte	0xc3
 429 01d8 02       		.byte	0x2
 430 01d9 23       		.byte	0x23
 431 01da 38       		.uleb128 0x38
 432 01db 06       		.uleb128 0x6
 433 01dc A7010000 		.4byte	.LASF36
 434 01e0 05       		.byte	0x5
 435 01e1 CA       		.byte	0xca
 436 01e2 25040000 		.4byte	0x425
 437 01e6 02       		.byte	0x2
 438 01e7 23       		.byte	0x23
 439 01e8 3C       		.uleb128 0x3c
 440 01e9 06       		.uleb128 0x6
 441 01ea 3F020000 		.4byte	.LASF37
 442 01ee 05       		.byte	0x5
 443 01ef CE       		.byte	0xce
 444 01f0 AD000000 		.4byte	0xad
 445 01f4 02       		.byte	0x2
 446 01f5 23       		.byte	0x23
 447 01f6 40       		.uleb128 0x40
 448 01f7 06       		.uleb128 0x6
 449 01f8 4E000000 		.4byte	.LASF38
 450 01fc 05       		.byte	0x5
 451 01fd D4       		.byte	0xd4
ARM GAS  /tmp/ccEHdZiW.s 			page 9


 452 01fe 69020000 		.4byte	0x269
 453 0202 02       		.byte	0x2
 454 0203 23       		.byte	0x23
 455 0204 44       		.uleb128 0x44
 456 0205 00       		.byte	0
 457 0206 08       		.uleb128 0x8
 458 0207 08       		.byte	0x8
 459 0208 04       		.byte	0x4
 460 0209 61       		.byte	0x61
 461 020a 2B020000 		.4byte	0x22b
 462 020e 06       		.uleb128 0x6
 463 020f E2010000 		.4byte	.LASF21
 464 0213 04       		.byte	0x4
 465 0214 62       		.byte	0x62
 466 0215 2B020000 		.4byte	0x22b
 467 0219 02       		.byte	0x2
 468 021a 23       		.byte	0x23
 469 021b 00       		.uleb128 0
 470 021c 06       		.uleb128 0x6
 471 021d 73010000 		.4byte	.LASF22
 472 0221 04       		.byte	0x4
 473 0222 64       		.byte	0x64
 474 0223 2B020000 		.4byte	0x22b
 475 0227 02       		.byte	0x2
 476 0228 23       		.byte	0x23
 477 0229 04       		.uleb128 0x4
 478 022a 00       		.byte	0
 479 022b 09       		.uleb128 0x9
 480 022c 04       		.byte	0x4
 481 022d E4000000 		.4byte	0xe4
 482 0231 04       		.uleb128 0x4
 483 0232 1C010000 		.4byte	.LASF39
 484 0236 04       		.byte	0x4
 485 0237 66       		.byte	0x66
 486 0238 06020000 		.4byte	0x206
 487 023c 08       		.uleb128 0x8
 488 023d 04       		.byte	0x4
 489 023e 04       		.byte	0x4
 490 023f 6B       		.byte	0x6b
 491 0240 53020000 		.4byte	0x253
 492 0244 06       		.uleb128 0x6
 493 0245 E2010000 		.4byte	.LASF21
 494 0249 04       		.byte	0x4
 495 024a 6D       		.byte	0x6d
 496 024b 2B020000 		.4byte	0x22b
 497 024f 02       		.byte	0x2
 498 0250 23       		.byte	0x23
 499 0251 00       		.uleb128 0
 500 0252 00       		.byte	0
 501 0253 04       		.uleb128 0x4
 502 0254 E5000000 		.4byte	.LASF40
 503 0258 04       		.byte	0x4
 504 0259 70       		.byte	0x70
 505 025a 3C020000 		.4byte	0x23c
 506 025e 04       		.uleb128 0x4
 507 025f 80000000 		.4byte	.LASF41
 508 0263 06       		.byte	0x6
ARM GAS  /tmp/ccEHdZiW.s 			page 10


 509 0264 D7       		.byte	0xd7
 510 0265 69020000 		.4byte	0x269
 511 0269 0A       		.uleb128 0xa
 512 026a 04       		.byte	0x4
 513 026b 05       		.uleb128 0x5
 514 026c 51020000 		.4byte	.LASF42
 515 0270 24       		.byte	0x24
 516 0271 06       		.byte	0x6
 517 0272 FE       		.byte	0xfe
 518 0273 F8020000 		.4byte	0x2f8
 519 0277 0B       		.uleb128 0xb
 520 0278 723400   		.ascii	"r4\000"
 521 027b 06       		.byte	0x6
 522 027c 1101     		.2byte	0x111
 523 027e 5E020000 		.4byte	0x25e
 524 0282 02       		.byte	0x2
 525 0283 23       		.byte	0x23
 526 0284 00       		.uleb128 0
 527 0285 0B       		.uleb128 0xb
 528 0286 723500   		.ascii	"r5\000"
 529 0289 06       		.byte	0x6
 530 028a 1201     		.2byte	0x112
 531 028c 5E020000 		.4byte	0x25e
 532 0290 02       		.byte	0x2
 533 0291 23       		.byte	0x23
 534 0292 04       		.uleb128 0x4
 535 0293 0B       		.uleb128 0xb
 536 0294 723600   		.ascii	"r6\000"
 537 0297 06       		.byte	0x6
 538 0298 1301     		.2byte	0x113
 539 029a 5E020000 		.4byte	0x25e
 540 029e 02       		.byte	0x2
 541 029f 23       		.byte	0x23
 542 02a0 08       		.uleb128 0x8
 543 02a1 0B       		.uleb128 0xb
 544 02a2 723700   		.ascii	"r7\000"
 545 02a5 06       		.byte	0x6
 546 02a6 1401     		.2byte	0x114
 547 02a8 5E020000 		.4byte	0x25e
 548 02ac 02       		.byte	0x2
 549 02ad 23       		.byte	0x23
 550 02ae 0C       		.uleb128 0xc
 551 02af 0B       		.uleb128 0xb
 552 02b0 723800   		.ascii	"r8\000"
 553 02b3 06       		.byte	0x6
 554 02b4 1501     		.2byte	0x115
 555 02b6 5E020000 		.4byte	0x25e
 556 02ba 02       		.byte	0x2
 557 02bb 23       		.byte	0x23
 558 02bc 10       		.uleb128 0x10
 559 02bd 0B       		.uleb128 0xb
 560 02be 723900   		.ascii	"r9\000"
 561 02c1 06       		.byte	0x6
 562 02c2 1601     		.2byte	0x116
 563 02c4 5E020000 		.4byte	0x25e
 564 02c8 02       		.byte	0x2
 565 02c9 23       		.byte	0x23
ARM GAS  /tmp/ccEHdZiW.s 			page 11


 566 02ca 14       		.uleb128 0x14
 567 02cb 0B       		.uleb128 0xb
 568 02cc 72313000 		.ascii	"r10\000"
 569 02d0 06       		.byte	0x6
 570 02d1 1701     		.2byte	0x117
 571 02d3 5E020000 		.4byte	0x25e
 572 02d7 02       		.byte	0x2
 573 02d8 23       		.byte	0x23
 574 02d9 18       		.uleb128 0x18
 575 02da 0B       		.uleb128 0xb
 576 02db 72313100 		.ascii	"r11\000"
 577 02df 06       		.byte	0x6
 578 02e0 1801     		.2byte	0x118
 579 02e2 5E020000 		.4byte	0x25e
 580 02e6 02       		.byte	0x2
 581 02e7 23       		.byte	0x23
 582 02e8 1C       		.uleb128 0x1c
 583 02e9 0B       		.uleb128 0xb
 584 02ea 6C7200   		.ascii	"lr\000"
 585 02ed 06       		.byte	0x6
 586 02ee 1901     		.2byte	0x119
 587 02f0 5E020000 		.4byte	0x25e
 588 02f4 02       		.byte	0x2
 589 02f5 23       		.byte	0x23
 590 02f6 20       		.uleb128 0x20
 591 02f7 00       		.byte	0
 592 02f8 0C       		.uleb128 0xc
 593 02f9 BC000000 		.4byte	.LASF43
 594 02fd 04       		.byte	0x4
 595 02fe 06       		.byte	0x6
 596 02ff 2301     		.2byte	0x123
 597 0301 15030000 		.4byte	0x315
 598 0305 0B       		.uleb128 0xb
 599 0306 72313300 		.ascii	"r13\000"
 600 030a 06       		.byte	0x6
 601 030b 2401     		.2byte	0x124
 602 030d 15030000 		.4byte	0x315
 603 0311 02       		.byte	0x2
 604 0312 23       		.byte	0x23
 605 0313 00       		.uleb128 0
 606 0314 00       		.byte	0
 607 0315 09       		.uleb128 0x9
 608 0316 04       		.byte	0x4
 609 0317 6B020000 		.4byte	0x26b
 610 031b 0D       		.uleb128 0xd
 611 031c CE000000 		.4byte	0xce
 612 0320 08       		.uleb128 0x8
 613 0321 20       		.byte	0x20
 614 0322 07       		.byte	0x7
 615 0323 5E       		.byte	0x5e
 616 0324 8B030000 		.4byte	0x38b
 617 0328 06       		.uleb128 0x6
 618 0329 15020000 		.4byte	.LASF44
 619 032d 07       		.byte	0x7
 620 032e 5F       		.byte	0x5f
 621 032f 31020000 		.4byte	0x231
 622 0333 02       		.byte	0x2
ARM GAS  /tmp/ccEHdZiW.s 			page 12


 623 0334 23       		.byte	0x23
 624 0335 00       		.uleb128 0
 625 0336 06       		.uleb128 0x6
 626 0337 CB010000 		.4byte	.LASF45
 627 033b 07       		.byte	0x7
 628 033c 60       		.byte	0x60
 629 033d AD000000 		.4byte	0xad
 630 0341 02       		.byte	0x2
 631 0342 23       		.byte	0x23
 632 0343 08       		.uleb128 0x8
 633 0344 06       		.uleb128 0x6
 634 0345 16010000 		.4byte	.LASF46
 635 0349 07       		.byte	0x7
 636 034a 62       		.byte	0x62
 637 034b F8020000 		.4byte	0x2f8
 638 034f 02       		.byte	0x2
 639 0350 23       		.byte	0x23
 640 0351 0C       		.uleb128 0xc
 641 0352 06       		.uleb128 0x6
 642 0353 78000000 		.4byte	.LASF47
 643 0357 07       		.byte	0x7
 644 0358 65       		.byte	0x65
 645 0359 2B020000 		.4byte	0x22b
 646 035d 02       		.byte	0x2
 647 035e 23       		.byte	0x23
 648 035f 10       		.uleb128 0x10
 649 0360 06       		.uleb128 0x6
 650 0361 39010000 		.4byte	.LASF48
 651 0365 07       		.byte	0x7
 652 0366 66       		.byte	0x66
 653 0367 2B020000 		.4byte	0x22b
 654 036b 02       		.byte	0x2
 655 036c 23       		.byte	0x23
 656 036d 14       		.uleb128 0x14
 657 036e 06       		.uleb128 0x6
 658 036f 9D020000 		.4byte	.LASF49
 659 0373 07       		.byte	0x7
 660 0374 6A       		.byte	0x6a
 661 0375 D9000000 		.4byte	0xd9
 662 0379 02       		.byte	0x2
 663 037a 23       		.byte	0x23
 664 037b 18       		.uleb128 0x18
 665 037c 06       		.uleb128 0x6
 666 037d 2F010000 		.4byte	.LASF50
 667 0381 07       		.byte	0x7
 668 0382 6C       		.byte	0x6c
 669 0383 2B020000 		.4byte	0x22b
 670 0387 02       		.byte	0x2
 671 0388 23       		.byte	0x23
 672 0389 1C       		.uleb128 0x1c
 673 038a 00       		.byte	0
 674 038b 04       		.uleb128 0x4
 675 038c 6A020000 		.4byte	.LASF51
 676 0390 07       		.byte	0x7
 677 0391 6E       		.byte	0x6e
 678 0392 20030000 		.4byte	0x320
 679 0396 05       		.uleb128 0x5
ARM GAS  /tmp/ccEHdZiW.s 			page 13


 680 0397 FD000000 		.4byte	.LASF52
 681 039b 10       		.byte	0x10
 682 039c 08       		.byte	0x8
 683 039d 2C       		.byte	0x2c
 684 039e CD030000 		.4byte	0x3cd
 685 03a2 06       		.uleb128 0x6
 686 03a3 56000000 		.4byte	.LASF53
 687 03a7 08       		.byte	0x8
 688 03a8 2D       		.byte	0x2d
 689 03a9 31020000 		.4byte	0x231
 690 03ad 02       		.byte	0x2
 691 03ae 23       		.byte	0x23
 692 03af 00       		.uleb128 0
 693 03b0 06       		.uleb128 0x6
 694 03b1 A7020000 		.4byte	.LASF54
 695 03b5 08       		.byte	0x8
 696 03b6 2F       		.byte	0x2f
 697 03b7 2B020000 		.4byte	0x22b
 698 03bb 02       		.byte	0x2
 699 03bc 23       		.byte	0x23
 700 03bd 08       		.uleb128 0x8
 701 03be 06       		.uleb128 0x6
 702 03bf 2E020000 		.4byte	.LASF55
 703 03c3 08       		.byte	0x8
 704 03c4 31       		.byte	0x31
 705 03c5 CD030000 		.4byte	0x3cd
 706 03c9 02       		.byte	0x2
 707 03ca 23       		.byte	0x23
 708 03cb 0C       		.uleb128 0xc
 709 03cc 00       		.byte	0
 710 03cd 09       		.uleb128 0x9
 711 03ce 04       		.byte	0x4
 712 03cf 96030000 		.4byte	0x396
 713 03d3 04       		.uleb128 0x4
 714 03d4 FD000000 		.4byte	.LASF52
 715 03d8 08       		.byte	0x8
 716 03d9 33       		.byte	0x33
 717 03da 96030000 		.4byte	0x396
 718 03de 0E       		.uleb128 0xe
 719 03df 04       		.byte	0x4
 720 03e0 05       		.byte	0x5
 721 03e1 90       		.byte	0x90
 722 03e2 13040000 		.4byte	0x413
 723 03e6 0F       		.uleb128 0xf
 724 03e7 06000000 		.4byte	.LASF56
 725 03eb 05       		.byte	0x5
 726 03ec 97       		.byte	0x97
 727 03ed B8000000 		.4byte	0xb8
 728 03f1 0F       		.uleb128 0xf
 729 03f2 24000000 		.4byte	.LASF57
 730 03f6 05       		.byte	0x5
 731 03f7 9E       		.byte	0x9e
 732 03f8 B8000000 		.4byte	0xb8
 733 03fc 0F       		.uleb128 0xf
 734 03fd 8F020000 		.4byte	.LASF58
 735 0401 05       		.byte	0x5
 736 0402 A5       		.byte	0xa5
ARM GAS  /tmp/ccEHdZiW.s 			page 14


 737 0403 69020000 		.4byte	0x269
 738 0407 0F       		.uleb128 0xf
 739 0408 DB010000 		.4byte	.LASF59
 740 040c 05       		.byte	0x5
 741 040d AC       		.byte	0xac
 742 040e C3000000 		.4byte	0xc3
 743 0412 00       		.byte	0
 744 0413 09       		.uleb128 0x9
 745 0414 04       		.byte	0x4
 746 0415 19040000 		.4byte	0x419
 747 0419 10       		.uleb128 0x10
 748 041a 1E040000 		.4byte	0x41e
 749 041e 03       		.uleb128 0x3
 750 041f 01       		.byte	0x1
 751 0420 08       		.byte	0x8
 752 0421 29020000 		.4byte	.LASF60
 753 0425 09       		.uleb128 0x9
 754 0426 04       		.byte	0x4
 755 0427 D3030000 		.4byte	0x3d3
 756 042b 05       		.uleb128 0x5
 757 042c F8010000 		.4byte	.LASF61
 758 0430 10       		.byte	0x10
 759 0431 09       		.byte	0x9
 760 0432 46       		.byte	0x46
 761 0433 70040000 		.4byte	0x470
 762 0437 06       		.uleb128 0x6
 763 0438 B7000000 		.4byte	.LASF62
 764 043c 09       		.byte	0x9
 765 043d 47       		.byte	0x47
 766 043e 13040000 		.4byte	0x413
 767 0442 02       		.byte	0x2
 768 0443 23       		.byte	0x23
 769 0444 00       		.uleb128 0
 770 0445 06       		.uleb128 0x6
 771 0446 29010000 		.4byte	.LASF63
 772 044a 09       		.byte	0x9
 773 044b 48       		.byte	0x48
 774 044c 72040000 		.4byte	0x472
 775 0450 02       		.byte	0x2
 776 0451 23       		.byte	0x23
 777 0452 04       		.uleb128 0x4
 778 0453 06       		.uleb128 0x6
 779 0454 AE000000 		.4byte	.LASF64
 780 0458 09       		.byte	0x9
 781 0459 49       		.byte	0x49
 782 045a 72040000 		.4byte	0x472
 783 045e 02       		.byte	0x2
 784 045f 23       		.byte	0x23
 785 0460 08       		.uleb128 0x8
 786 0461 06       		.uleb128 0x6
 787 0462 7A010000 		.4byte	.LASF65
 788 0466 09       		.byte	0x9
 789 0467 4A       		.byte	0x4a
 790 0468 72040000 		.4byte	0x472
 791 046c 02       		.byte	0x2
 792 046d 23       		.byte	0x23
 793 046e 0C       		.uleb128 0xc
ARM GAS  /tmp/ccEHdZiW.s 			page 15


 794 046f 00       		.byte	0
 795 0470 11       		.uleb128 0x11
 796 0471 01       		.byte	0x1
 797 0472 09       		.uleb128 0x9
 798 0473 04       		.byte	0x4
 799 0474 70040000 		.4byte	0x470
 800 0478 12       		.uleb128 0x12
 801 0479 82020000 		.4byte	.LASF72
 802 047d 01       		.byte	0x1
 803 047e 4E       		.byte	0x4e
 804 047f 01       		.byte	0x1
 805 0480 00000000 		.4byte	.LFB8
 806 0484 84000000 		.4byte	.LFE8
 807 0488 00000000 		.4byte	.LLST0
 808 048c AE040000 		.4byte	0x4ae
 809 0490 13       		.uleb128 0x13
 810 0491 747000   		.ascii	"tp\000"
 811 0494 01       		.byte	0x1
 812 0495 4F       		.byte	0x4f
 813 0496 2B020000 		.4byte	0x22b
 814 049a 2C000000 		.4byte	.LLST1
 815 049e 13       		.uleb128 0x13
 816 049f 6D736700 		.ascii	"msg\000"
 817 04a3 01       		.byte	0x1
 818 04a4 50       		.byte	0x50
 819 04a5 B8000000 		.4byte	0xb8
 820 04a9 55000000 		.4byte	.LLST2
 821 04ad 00       		.byte	0
 822 04ae 14       		.uleb128 0x14
 823 04af 8A010000 		.4byte	.LASF73
 824 04b3 01       		.byte	0x1
 825 04b4 46       		.byte	0x46
 826 04b5 01       		.byte	0x1
 827 04b6 B8000000 		.4byte	0xb8
 828 04ba 00000000 		.4byte	.LFB7
 829 04be 1E000000 		.4byte	.LFE7
 830 04c2 A2000000 		.4byte	.LLST3
 831 04c6 D8040000 		.4byte	0x4d8
 832 04ca 15       		.uleb128 0x15
 833 04cb 7000     		.ascii	"p\000"
 834 04cd 01       		.byte	0x1
 835 04ce 46       		.byte	0x46
 836 04cf 69020000 		.4byte	0x269
 837 04d3 C2000000 		.4byte	.LLST4
 838 04d7 00       		.byte	0
 839 04d8 16       		.uleb128 0x16
 840 04d9 74020000 		.4byte	.LASF66
 841 04dd 07       		.byte	0x7
 842 04de 72       		.byte	0x72
 843 04df 8B030000 		.4byte	0x38b
 844 04e3 01       		.byte	0x1
 845 04e4 01       		.byte	0x1
 846 04e5 17       		.uleb128 0x17
 847 04e6 2B020000 		.4byte	0x22b
 848 04ea F5040000 		.4byte	0x4f5
 849 04ee 18       		.uleb128 0x18
 850 04ef 2C000000 		.4byte	0x2c
ARM GAS  /tmp/ccEHdZiW.s 			page 16


 851 04f3 04       		.byte	0x4
 852 04f4 00       		.byte	0
 853 04f5 16       		.uleb128 0x16
 854 04f6 C3010000 		.4byte	.LASF67
 855 04fa 09       		.byte	0x9
 856 04fb B0       		.byte	0xb0
 857 04fc E5040000 		.4byte	0x4e5
 858 0500 01       		.byte	0x1
 859 0501 01       		.byte	0x1
 860 0502 17       		.uleb128 0x17
 861 0503 69020000 		.4byte	0x269
 862 0507 0D050000 		.4byte	0x50d
 863 050b 19       		.uleb128 0x19
 864 050c 00       		.byte	0
 865 050d 1A       		.uleb128 0x1a
 866 050e 776100   		.ascii	"wa\000"
 867 0511 09       		.byte	0x9
 868 0512 B2       		.byte	0xb2
 869 0513 19050000 		.4byte	0x519
 870 0517 01       		.byte	0x1
 871 0518 01       		.byte	0x1
 872 0519 10       		.uleb128 0x10
 873 051a 02050000 		.4byte	0x502
 874 051e 1B       		.uleb128 0x1b
 875 051f D2010000 		.4byte	.LASF68
 876 0523 01       		.byte	0x1
 877 0524 66       		.byte	0x66
 878 0525 30050000 		.4byte	0x530
 879 0529 01       		.byte	0x1
 880 052a 05       		.byte	0x5
 881 052b 03       		.byte	0x3
 882 052c 00000000 		.4byte	testmsg1
 883 0530 10       		.uleb128 0x10
 884 0531 2B040000 		.4byte	0x42b
 885 0535 17       		.uleb128 0x17
 886 0536 45050000 		.4byte	0x545
 887 053a 45050000 		.4byte	0x545
 888 053e 18       		.uleb128 0x18
 889 053f 2C000000 		.4byte	0x2c
 890 0543 01       		.byte	0x1
 891 0544 00       		.byte	0
 892 0545 09       		.uleb128 0x9
 893 0546 04       		.byte	0x4
 894 0547 30050000 		.4byte	0x530
 895 054b 1B       		.uleb128 0x1b
 896 054c 03010000 		.4byte	.LASF69
 897 0550 01       		.byte	0x1
 898 0551 72       		.byte	0x72
 899 0552 5D050000 		.4byte	0x55d
 900 0556 01       		.byte	0x1
 901 0557 05       		.byte	0x5
 902 0558 03       		.byte	0x3
 903 0559 00000000 		.4byte	patternmsg
 904 055d 10       		.uleb128 0x10
 905 055e 35050000 		.4byte	0x535
 906 0562 00       		.byte	0
 907              		.section	.debug_abbrev,"",%progbits
ARM GAS  /tmp/ccEHdZiW.s 			page 17


 908              	.Ldebug_abbrev0:
 909 0000 01       		.uleb128 0x1
 910 0001 11       		.uleb128 0x11
 911 0002 01       		.byte	0x1
 912 0003 25       		.uleb128 0x25
 913 0004 0E       		.uleb128 0xe
 914 0005 13       		.uleb128 0x13
 915 0006 0B       		.uleb128 0xb
 916 0007 03       		.uleb128 0x3
 917 0008 0E       		.uleb128 0xe
 918 0009 11       		.uleb128 0x11
 919 000a 01       		.uleb128 0x1
 920 000b 52       		.uleb128 0x52
 921 000c 01       		.uleb128 0x1
 922 000d 55       		.uleb128 0x55
 923 000e 06       		.uleb128 0x6
 924 000f 10       		.uleb128 0x10
 925 0010 06       		.uleb128 0x6
 926 0011 00       		.byte	0
 927 0012 00       		.byte	0
 928 0013 02       		.uleb128 0x2
 929 0014 24       		.uleb128 0x24
 930 0015 00       		.byte	0
 931 0016 0B       		.uleb128 0xb
 932 0017 0B       		.uleb128 0xb
 933 0018 3E       		.uleb128 0x3e
 934 0019 0B       		.uleb128 0xb
 935 001a 03       		.uleb128 0x3
 936 001b 08       		.uleb128 0x8
 937 001c 00       		.byte	0
 938 001d 00       		.byte	0
 939 001e 03       		.uleb128 0x3
 940 001f 24       		.uleb128 0x24
 941 0020 00       		.byte	0
 942 0021 0B       		.uleb128 0xb
 943 0022 0B       		.uleb128 0xb
 944 0023 3E       		.uleb128 0x3e
 945 0024 0B       		.uleb128 0xb
 946 0025 03       		.uleb128 0x3
 947 0026 0E       		.uleb128 0xe
 948 0027 00       		.byte	0
 949 0028 00       		.byte	0
 950 0029 04       		.uleb128 0x4
 951 002a 16       		.uleb128 0x16
 952 002b 00       		.byte	0
 953 002c 03       		.uleb128 0x3
 954 002d 0E       		.uleb128 0xe
 955 002e 3A       		.uleb128 0x3a
 956 002f 0B       		.uleb128 0xb
 957 0030 3B       		.uleb128 0x3b
 958 0031 0B       		.uleb128 0xb
 959 0032 49       		.uleb128 0x49
 960 0033 13       		.uleb128 0x13
 961 0034 00       		.byte	0
 962 0035 00       		.byte	0
 963 0036 05       		.uleb128 0x5
 964 0037 13       		.uleb128 0x13
ARM GAS  /tmp/ccEHdZiW.s 			page 18


 965 0038 01       		.byte	0x1
 966 0039 03       		.uleb128 0x3
 967 003a 0E       		.uleb128 0xe
 968 003b 0B       		.uleb128 0xb
 969 003c 0B       		.uleb128 0xb
 970 003d 3A       		.uleb128 0x3a
 971 003e 0B       		.uleb128 0xb
 972 003f 3B       		.uleb128 0x3b
 973 0040 0B       		.uleb128 0xb
 974 0041 01       		.uleb128 0x1
 975 0042 13       		.uleb128 0x13
 976 0043 00       		.byte	0
 977 0044 00       		.byte	0
 978 0045 06       		.uleb128 0x6
 979 0046 0D       		.uleb128 0xd
 980 0047 00       		.byte	0
 981 0048 03       		.uleb128 0x3
 982 0049 0E       		.uleb128 0xe
 983 004a 3A       		.uleb128 0x3a
 984 004b 0B       		.uleb128 0xb
 985 004c 3B       		.uleb128 0x3b
 986 004d 0B       		.uleb128 0xb
 987 004e 49       		.uleb128 0x49
 988 004f 13       		.uleb128 0x13
 989 0050 38       		.uleb128 0x38
 990 0051 0A       		.uleb128 0xa
 991 0052 00       		.byte	0
 992 0053 00       		.byte	0
 993 0054 07       		.uleb128 0x7
 994 0055 0D       		.uleb128 0xd
 995 0056 00       		.byte	0
 996 0057 03       		.uleb128 0x3
 997 0058 08       		.uleb128 0x8
 998 0059 3A       		.uleb128 0x3a
 999 005a 0B       		.uleb128 0xb
 1000 005b 3B       		.uleb128 0x3b
 1001 005c 0B       		.uleb128 0xb
 1002 005d 49       		.uleb128 0x49
 1003 005e 13       		.uleb128 0x13
 1004 005f 38       		.uleb128 0x38
 1005 0060 0A       		.uleb128 0xa
 1006 0061 00       		.byte	0
 1007 0062 00       		.byte	0
 1008 0063 08       		.uleb128 0x8
 1009 0064 13       		.uleb128 0x13
 1010 0065 01       		.byte	0x1
 1011 0066 0B       		.uleb128 0xb
 1012 0067 0B       		.uleb128 0xb
 1013 0068 3A       		.uleb128 0x3a
 1014 0069 0B       		.uleb128 0xb
 1015 006a 3B       		.uleb128 0x3b
 1016 006b 0B       		.uleb128 0xb
 1017 006c 01       		.uleb128 0x1
 1018 006d 13       		.uleb128 0x13
 1019 006e 00       		.byte	0
 1020 006f 00       		.byte	0
 1021 0070 09       		.uleb128 0x9
ARM GAS  /tmp/ccEHdZiW.s 			page 19


 1022 0071 0F       		.uleb128 0xf
 1023 0072 00       		.byte	0
 1024 0073 0B       		.uleb128 0xb
 1025 0074 0B       		.uleb128 0xb
 1026 0075 49       		.uleb128 0x49
 1027 0076 13       		.uleb128 0x13
 1028 0077 00       		.byte	0
 1029 0078 00       		.byte	0
 1030 0079 0A       		.uleb128 0xa
 1031 007a 0F       		.uleb128 0xf
 1032 007b 00       		.byte	0
 1033 007c 0B       		.uleb128 0xb
 1034 007d 0B       		.uleb128 0xb
 1035 007e 00       		.byte	0
 1036 007f 00       		.byte	0
 1037 0080 0B       		.uleb128 0xb
 1038 0081 0D       		.uleb128 0xd
 1039 0082 00       		.byte	0
 1040 0083 03       		.uleb128 0x3
 1041 0084 08       		.uleb128 0x8
 1042 0085 3A       		.uleb128 0x3a
 1043 0086 0B       		.uleb128 0xb
 1044 0087 3B       		.uleb128 0x3b
 1045 0088 05       		.uleb128 0x5
 1046 0089 49       		.uleb128 0x49
 1047 008a 13       		.uleb128 0x13
 1048 008b 38       		.uleb128 0x38
 1049 008c 0A       		.uleb128 0xa
 1050 008d 00       		.byte	0
 1051 008e 00       		.byte	0
 1052 008f 0C       		.uleb128 0xc
 1053 0090 13       		.uleb128 0x13
 1054 0091 01       		.byte	0x1
 1055 0092 03       		.uleb128 0x3
 1056 0093 0E       		.uleb128 0xe
 1057 0094 0B       		.uleb128 0xb
 1058 0095 0B       		.uleb128 0xb
 1059 0096 3A       		.uleb128 0x3a
 1060 0097 0B       		.uleb128 0xb
 1061 0098 3B       		.uleb128 0x3b
 1062 0099 05       		.uleb128 0x5
 1063 009a 01       		.uleb128 0x1
 1064 009b 13       		.uleb128 0x13
 1065 009c 00       		.byte	0
 1066 009d 00       		.byte	0
 1067 009e 0D       		.uleb128 0xd
 1068 009f 35       		.uleb128 0x35
 1069 00a0 00       		.byte	0
 1070 00a1 49       		.uleb128 0x49
 1071 00a2 13       		.uleb128 0x13
 1072 00a3 00       		.byte	0
 1073 00a4 00       		.byte	0
 1074 00a5 0E       		.uleb128 0xe
 1075 00a6 17       		.uleb128 0x17
 1076 00a7 01       		.byte	0x1
 1077 00a8 0B       		.uleb128 0xb
 1078 00a9 0B       		.uleb128 0xb
ARM GAS  /tmp/ccEHdZiW.s 			page 20


 1079 00aa 3A       		.uleb128 0x3a
 1080 00ab 0B       		.uleb128 0xb
 1081 00ac 3B       		.uleb128 0x3b
 1082 00ad 0B       		.uleb128 0xb
 1083 00ae 01       		.uleb128 0x1
 1084 00af 13       		.uleb128 0x13
 1085 00b0 00       		.byte	0
 1086 00b1 00       		.byte	0
 1087 00b2 0F       		.uleb128 0xf
 1088 00b3 0D       		.uleb128 0xd
 1089 00b4 00       		.byte	0
 1090 00b5 03       		.uleb128 0x3
 1091 00b6 0E       		.uleb128 0xe
 1092 00b7 3A       		.uleb128 0x3a
 1093 00b8 0B       		.uleb128 0xb
 1094 00b9 3B       		.uleb128 0x3b
 1095 00ba 0B       		.uleb128 0xb
 1096 00bb 49       		.uleb128 0x49
 1097 00bc 13       		.uleb128 0x13
 1098 00bd 00       		.byte	0
 1099 00be 00       		.byte	0
 1100 00bf 10       		.uleb128 0x10
 1101 00c0 26       		.uleb128 0x26
 1102 00c1 00       		.byte	0
 1103 00c2 49       		.uleb128 0x49
 1104 00c3 13       		.uleb128 0x13
 1105 00c4 00       		.byte	0
 1106 00c5 00       		.byte	0
 1107 00c6 11       		.uleb128 0x11
 1108 00c7 15       		.uleb128 0x15
 1109 00c8 00       		.byte	0
 1110 00c9 27       		.uleb128 0x27
 1111 00ca 0C       		.uleb128 0xc
 1112 00cb 00       		.byte	0
 1113 00cc 00       		.byte	0
 1114 00cd 12       		.uleb128 0x12
 1115 00ce 2E       		.uleb128 0x2e
 1116 00cf 01       		.byte	0x1
 1117 00d0 03       		.uleb128 0x3
 1118 00d1 0E       		.uleb128 0xe
 1119 00d2 3A       		.uleb128 0x3a
 1120 00d3 0B       		.uleb128 0xb
 1121 00d4 3B       		.uleb128 0x3b
 1122 00d5 0B       		.uleb128 0xb
 1123 00d6 27       		.uleb128 0x27
 1124 00d7 0C       		.uleb128 0xc
 1125 00d8 11       		.uleb128 0x11
 1126 00d9 01       		.uleb128 0x1
 1127 00da 12       		.uleb128 0x12
 1128 00db 01       		.uleb128 0x1
 1129 00dc 40       		.uleb128 0x40
 1130 00dd 06       		.uleb128 0x6
 1131 00de 01       		.uleb128 0x1
 1132 00df 13       		.uleb128 0x13
 1133 00e0 00       		.byte	0
 1134 00e1 00       		.byte	0
 1135 00e2 13       		.uleb128 0x13
ARM GAS  /tmp/ccEHdZiW.s 			page 21


 1136 00e3 34       		.uleb128 0x34
 1137 00e4 00       		.byte	0
 1138 00e5 03       		.uleb128 0x3
 1139 00e6 08       		.uleb128 0x8
 1140 00e7 3A       		.uleb128 0x3a
 1141 00e8 0B       		.uleb128 0xb
 1142 00e9 3B       		.uleb128 0x3b
 1143 00ea 0B       		.uleb128 0xb
 1144 00eb 49       		.uleb128 0x49
 1145 00ec 13       		.uleb128 0x13
 1146 00ed 02       		.uleb128 0x2
 1147 00ee 06       		.uleb128 0x6
 1148 00ef 00       		.byte	0
 1149 00f0 00       		.byte	0
 1150 00f1 14       		.uleb128 0x14
 1151 00f2 2E       		.uleb128 0x2e
 1152 00f3 01       		.byte	0x1
 1153 00f4 03       		.uleb128 0x3
 1154 00f5 0E       		.uleb128 0xe
 1155 00f6 3A       		.uleb128 0x3a
 1156 00f7 0B       		.uleb128 0xb
 1157 00f8 3B       		.uleb128 0x3b
 1158 00f9 0B       		.uleb128 0xb
 1159 00fa 27       		.uleb128 0x27
 1160 00fb 0C       		.uleb128 0xc
 1161 00fc 49       		.uleb128 0x49
 1162 00fd 13       		.uleb128 0x13
 1163 00fe 11       		.uleb128 0x11
 1164 00ff 01       		.uleb128 0x1
 1165 0100 12       		.uleb128 0x12
 1166 0101 01       		.uleb128 0x1
 1167 0102 40       		.uleb128 0x40
 1168 0103 06       		.uleb128 0x6
 1169 0104 01       		.uleb128 0x1
 1170 0105 13       		.uleb128 0x13
 1171 0106 00       		.byte	0
 1172 0107 00       		.byte	0
 1173 0108 15       		.uleb128 0x15
 1174 0109 05       		.uleb128 0x5
 1175 010a 00       		.byte	0
 1176 010b 03       		.uleb128 0x3
 1177 010c 08       		.uleb128 0x8
 1178 010d 3A       		.uleb128 0x3a
 1179 010e 0B       		.uleb128 0xb
 1180 010f 3B       		.uleb128 0x3b
 1181 0110 0B       		.uleb128 0xb
 1182 0111 49       		.uleb128 0x49
 1183 0112 13       		.uleb128 0x13
 1184 0113 02       		.uleb128 0x2
 1185 0114 06       		.uleb128 0x6
 1186 0115 00       		.byte	0
 1187 0116 00       		.byte	0
 1188 0117 16       		.uleb128 0x16
 1189 0118 34       		.uleb128 0x34
 1190 0119 00       		.byte	0
 1191 011a 03       		.uleb128 0x3
 1192 011b 0E       		.uleb128 0xe
ARM GAS  /tmp/ccEHdZiW.s 			page 22


 1193 011c 3A       		.uleb128 0x3a
 1194 011d 0B       		.uleb128 0xb
 1195 011e 3B       		.uleb128 0x3b
 1196 011f 0B       		.uleb128 0xb
 1197 0120 49       		.uleb128 0x49
 1198 0121 13       		.uleb128 0x13
 1199 0122 3F       		.uleb128 0x3f
 1200 0123 0C       		.uleb128 0xc
 1201 0124 3C       		.uleb128 0x3c
 1202 0125 0C       		.uleb128 0xc
 1203 0126 00       		.byte	0
 1204 0127 00       		.byte	0
 1205 0128 17       		.uleb128 0x17
 1206 0129 01       		.uleb128 0x1
 1207 012a 01       		.byte	0x1
 1208 012b 49       		.uleb128 0x49
 1209 012c 13       		.uleb128 0x13
 1210 012d 01       		.uleb128 0x1
 1211 012e 13       		.uleb128 0x13
 1212 012f 00       		.byte	0
 1213 0130 00       		.byte	0
 1214 0131 18       		.uleb128 0x18
 1215 0132 21       		.uleb128 0x21
 1216 0133 00       		.byte	0
 1217 0134 49       		.uleb128 0x49
 1218 0135 13       		.uleb128 0x13
 1219 0136 2F       		.uleb128 0x2f
 1220 0137 0B       		.uleb128 0xb
 1221 0138 00       		.byte	0
 1222 0139 00       		.byte	0
 1223 013a 19       		.uleb128 0x19
 1224 013b 21       		.uleb128 0x21
 1225 013c 00       		.byte	0
 1226 013d 00       		.byte	0
 1227 013e 00       		.byte	0
 1228 013f 1A       		.uleb128 0x1a
 1229 0140 34       		.uleb128 0x34
 1230 0141 00       		.byte	0
 1231 0142 03       		.uleb128 0x3
 1232 0143 08       		.uleb128 0x8
 1233 0144 3A       		.uleb128 0x3a
 1234 0145 0B       		.uleb128 0xb
 1235 0146 3B       		.uleb128 0x3b
 1236 0147 0B       		.uleb128 0xb
 1237 0148 49       		.uleb128 0x49
 1238 0149 13       		.uleb128 0x13
 1239 014a 3F       		.uleb128 0x3f
 1240 014b 0C       		.uleb128 0xc
 1241 014c 3C       		.uleb128 0x3c
 1242 014d 0C       		.uleb128 0xc
 1243 014e 00       		.byte	0
 1244 014f 00       		.byte	0
 1245 0150 1B       		.uleb128 0x1b
 1246 0151 34       		.uleb128 0x34
 1247 0152 00       		.byte	0
 1248 0153 03       		.uleb128 0x3
 1249 0154 0E       		.uleb128 0xe
ARM GAS  /tmp/ccEHdZiW.s 			page 23


 1250 0155 3A       		.uleb128 0x3a
 1251 0156 0B       		.uleb128 0xb
 1252 0157 3B       		.uleb128 0x3b
 1253 0158 0B       		.uleb128 0xb
 1254 0159 49       		.uleb128 0x49
 1255 015a 13       		.uleb128 0x13
 1256 015b 3F       		.uleb128 0x3f
 1257 015c 0C       		.uleb128 0xc
 1258 015d 02       		.uleb128 0x2
 1259 015e 0A       		.uleb128 0xa
 1260 015f 00       		.byte	0
 1261 0160 00       		.byte	0
 1262 0161 00       		.byte	0
 1263              		.section	.debug_loc,"",%progbits
 1264              	.Ldebug_loc0:
 1265              	.LLST0:
 1266 0000 00000000 		.4byte	.LFB8
 1267 0004 02000000 		.4byte	.LCFI0
 1268 0008 0200     		.2byte	0x2
 1269 000a 7D       		.byte	0x7d
 1270 000b 00       		.sleb128 0
 1271 000c 02000000 		.4byte	.LCFI0
 1272 0010 14000000 		.4byte	.LCFI1
 1273 0014 0200     		.2byte	0x2
 1274 0016 7D       		.byte	0x7d
 1275 0017 08       		.sleb128 8
 1276 0018 14000000 		.4byte	.LCFI1
 1277 001c 84000000 		.4byte	.LFE8
 1278 0020 0200     		.2byte	0x2
 1279 0022 7D       		.byte	0x7d
 1280 0023 10       		.sleb128 16
 1281 0024 00000000 		.4byte	0
 1282 0028 00000000 		.4byte	0
 1283              	.LLST1:
 1284 002c 3E000000 		.4byte	.LVL0
 1285 0030 45000000 		.4byte	.LVL2-1
 1286 0034 0100     		.2byte	0x1
 1287 0036 50       		.byte	0x50
 1288 0037 50000000 		.4byte	.LVL3
 1289 003b 57000000 		.4byte	.LVL5-1
 1290 003f 0100     		.2byte	0x1
 1291 0041 50       		.byte	0x50
 1292 0042 62000000 		.4byte	.LVL6
 1293 0046 69000000 		.4byte	.LVL8-1
 1294 004a 0100     		.2byte	0x1
 1295 004c 50       		.byte	0x50
 1296 004d 00000000 		.4byte	0
 1297 0051 00000000 		.4byte	0
 1298              	.LLST2:
 1299 0055 40000000 		.4byte	.LVL1
 1300 0059 45000000 		.4byte	.LVL2-1
 1301 005d 0200     		.2byte	0x2
 1302 005f 70       		.byte	0x70
 1303 0060 34       		.sleb128 52
 1304 0061 45000000 		.4byte	.LVL2-1
 1305 0065 52000000 		.4byte	.LVL4
 1306 0069 0100     		.2byte	0x1
ARM GAS  /tmp/ccEHdZiW.s 			page 24


 1307 006b 54       		.byte	0x54
 1308 006c 52000000 		.4byte	.LVL4
 1309 0070 57000000 		.4byte	.LVL5-1
 1310 0074 0200     		.2byte	0x2
 1311 0076 70       		.byte	0x70
 1312 0077 34       		.sleb128 52
 1313 0078 57000000 		.4byte	.LVL5-1
 1314 007c 64000000 		.4byte	.LVL7
 1315 0080 0100     		.2byte	0x1
 1316 0082 54       		.byte	0x54
 1317 0083 64000000 		.4byte	.LVL7
 1318 0087 69000000 		.4byte	.LVL8-1
 1319 008b 0200     		.2byte	0x2
 1320 008d 70       		.byte	0x70
 1321 008e 34       		.sleb128 52
 1322 008f 69000000 		.4byte	.LVL8-1
 1323 0093 84000000 		.4byte	.LFE8
 1324 0097 0100     		.2byte	0x1
 1325 0099 54       		.byte	0x54
 1326 009a 00000000 		.4byte	0
 1327 009e 00000000 		.4byte	0
 1328              	.LLST3:
 1329 00a2 00000000 		.4byte	.LFB7
 1330 00a6 02000000 		.4byte	.LCFI2
 1331 00aa 0200     		.2byte	0x2
 1332 00ac 7D       		.byte	0x7d
 1333 00ad 00       		.sleb128 0
 1334 00ae 02000000 		.4byte	.LCFI2
 1335 00b2 1E000000 		.4byte	.LFE7
 1336 00b6 0200     		.2byte	0x2
 1337 00b8 7D       		.byte	0x7d
 1338 00b9 08       		.sleb128 8
 1339 00ba 00000000 		.4byte	0
 1340 00be 00000000 		.4byte	0
 1341              	.LLST4:
 1342 00c2 00000000 		.4byte	.LVL9
 1343 00c6 09000000 		.4byte	.LVL10-1
 1344 00ca 0100     		.2byte	0x1
 1345 00cc 50       		.byte	0x50
 1346 00cd 09000000 		.4byte	.LVL10-1
 1347 00d1 1E000000 		.4byte	.LFE7
 1348 00d5 0100     		.2byte	0x1
 1349 00d7 54       		.byte	0x54
 1350 00d8 00000000 		.4byte	0
 1351 00dc 00000000 		.4byte	0
 1352              		.section	.debug_aranges,"",%progbits
 1353 0000 24000000 		.4byte	0x24
 1354 0004 0200     		.2byte	0x2
 1355 0006 00000000 		.4byte	.Ldebug_info0
 1356 000a 04       		.byte	0x4
 1357 000b 00       		.byte	0
 1358 000c 0000     		.2byte	0
 1359 000e 0000     		.2byte	0
 1360 0010 00000000 		.4byte	.LFB8
 1361 0014 84000000 		.4byte	.LFE8-.LFB8
 1362 0018 00000000 		.4byte	.LFB7
 1363 001c 1E000000 		.4byte	.LFE7-.LFB7
ARM GAS  /tmp/ccEHdZiW.s 			page 25


 1364 0020 00000000 		.4byte	0
 1365 0024 00000000 		.4byte	0
 1366              		.section	.debug_ranges,"",%progbits
 1367              	.Ldebug_ranges0:
 1368 0000 00000000 		.4byte	.LFB8
 1369 0004 84000000 		.4byte	.LFE8
 1370 0008 00000000 		.4byte	.LFB7
 1371 000c 1E000000 		.4byte	.LFE7
 1372 0010 00000000 		.4byte	0
 1373 0014 00000000 		.4byte	0
 1374              		.section	.debug_line,"",%progbits
 1375              	.Ldebug_line0:
 1376 0000 91010000 		.section	.debug_str,"MS",%progbits,1
 1376      02005001 
 1376      00000201 
 1376      FB0E0D00 
 1376      01010101 
 1377              	.LASF34:
 1378 0000 705F6D73 		.ascii	"p_msg\000"
 1378      6700
 1379              	.LASF56:
 1380 0006 7264796D 		.ascii	"rdymsg\000"
 1380      736700
 1381              	.LASF11:
 1382 000d 6C6F6E67 		.ascii	"long long unsigned int\000"
 1382      206C6F6E 
 1382      6720756E 
 1382      7369676E 
 1382      65642069 
 1383              	.LASF57:
 1384 0024 65786974 		.ascii	"exitcode\000"
 1384      636F6465 
 1384      00
 1385              	.LASF23:
 1386 002d 705F7072 		.ascii	"p_prio\000"
 1386      696F00
 1387              	.LASF10:
 1388 0034 6C6F6E67 		.ascii	"long long int\000"
 1388      206C6F6E 
 1388      6720696E 
 1388      7400
 1389              	.LASF1:
 1390 0042 7369676E 		.ascii	"signed char\000"
 1390      65642063 
 1390      68617200 
 1391              	.LASF38:
 1392 004e 705F6D70 		.ascii	"p_mpool\000"
 1392      6F6F6C00 
 1393              	.LASF53:
 1394 0056 6D5F7175 		.ascii	"m_queue\000"
 1394      65756500 
 1395              	.LASF7:
 1396 005e 6C6F6E67 		.ascii	"long int\000"
 1396      20696E74 
 1396      00
 1397              	.LASF13:
 1398 0067 74737461 		.ascii	"tstate_t\000"
ARM GAS  /tmp/ccEHdZiW.s 			page 26


 1398      74655F74 
 1398      00
 1399              	.LASF25:
 1400 0070 705F6E65 		.ascii	"p_newer\000"
 1400      77657200 
 1401              	.LASF47:
 1402 0078 725F6E65 		.ascii	"r_newer\000"
 1402      77657200 
 1403              	.LASF41:
 1404 0080 72656761 		.ascii	"regarm_t\000"
 1404      726D5F74 
 1404      00
 1405              	.LASF19:
 1406 0089 636E745F 		.ascii	"cnt_t\000"
 1406      7400
 1407              	.LASF0:
 1408 008f 756E7369 		.ascii	"unsigned int\000"
 1408      676E6564 
 1408      20696E74 
 1408      00
 1409              	.LASF9:
 1410 009c 6C6F6E67 		.ascii	"long unsigned int\000"
 1410      20756E73 
 1410      69676E65 
 1410      6420696E 
 1410      7400
 1411              	.LASF64:
 1412 00ae 74656172 		.ascii	"teardown\000"
 1412      646F776E 
 1412      00
 1413              	.LASF62:
 1414 00b7 6E616D65 		.ascii	"name\000"
 1414      00
 1415              	.LASF43:
 1416 00bc 636F6E74 		.ascii	"context\000"
 1416      65787400 
 1417              	.LASF4:
 1418 00c4 73686F72 		.ascii	"short unsigned int\000"
 1418      7420756E 
 1418      7369676E 
 1418      65642069 
 1418      6E7400
 1419              	.LASF16:
 1420 00d7 6D73675F 		.ascii	"msg_t\000"
 1420      7400
 1421              	.LASF12:
 1422 00dd 746D6F64 		.ascii	"tmode_t\000"
 1422      655F7400 
 1423              	.LASF40:
 1424 00e5 54687265 		.ascii	"ThreadsList\000"
 1424      6164734C 
 1424      69737400 
 1425              	.LASF17:
 1426 00f1 6576656E 		.ascii	"eventmask_t\000"
 1426      746D6173 
 1426      6B5F7400 
 1427              	.LASF52:
ARM GAS  /tmp/ccEHdZiW.s 			page 27


 1428 00fd 4D757465 		.ascii	"Mutex\000"
 1428      7800
 1429              	.LASF69:
 1430 0103 70617474 		.ascii	"patternmsg\000"
 1430      65726E6D 
 1430      736700
 1431              	.LASF26:
 1432 010e 705F6F6C 		.ascii	"p_older\000"
 1432      64657200 
 1433              	.LASF46:
 1434 0116 725F6374 		.ascii	"r_ctx\000"
 1434      7800
 1435              	.LASF39:
 1436 011c 54687265 		.ascii	"ThreadsQueue\000"
 1436      61647351 
 1436      75657565 
 1436      00
 1437              	.LASF63:
 1438 0129 73657475 		.ascii	"setup\000"
 1438      7000
 1439              	.LASF50:
 1440 012f 725F6375 		.ascii	"r_current\000"
 1440      7272656E 
 1440      7400
 1441              	.LASF48:
 1442 0139 725F6F6C 		.ascii	"r_older\000"
 1442      64657200 
 1443              	.LASF14:
 1444 0141 74726566 		.ascii	"trefs_t\000"
 1444      735F7400 
 1445              	.LASF71:
 1446 0149 2F6F7074 		.ascii	"/opt/ChibiOS/ChibiOS_2.4.4/test/testmsg.c\000"
 1446      2F436869 
 1446      62694F53 
 1446      2F436869 
 1446      62694F53 
 1447              	.LASF22:
 1448 0173 705F7072 		.ascii	"p_prev\000"
 1448      657600
 1449              	.LASF65:
 1450 017a 65786563 		.ascii	"execute\000"
 1450      75746500 
 1451              	.LASF15:
 1452 0182 74707269 		.ascii	"tprio_t\000"
 1452      6F5F7400 
 1453              	.LASF73:
 1454 018a 74687265 		.ascii	"thread\000"
 1454      616400
 1455              	.LASF6:
 1456 0191 696E7433 		.ascii	"int32_t\000"
 1456      325F7400 
 1457              	.LASF2:
 1458 0199 756E7369 		.ascii	"unsigned char\000"
 1458      676E6564 
 1458      20636861 
 1458      7200
 1459              	.LASF36:
ARM GAS  /tmp/ccEHdZiW.s 			page 28


 1460 01a7 705F6D74 		.ascii	"p_mtxlist\000"
 1460      786C6973 
 1460      7400
 1461              	.LASF3:
 1462 01b1 73686F72 		.ascii	"short int\000"
 1462      7420696E 
 1462      7400
 1463              	.LASF28:
 1464 01bb 705F7374 		.ascii	"p_state\000"
 1464      61746500 
 1465              	.LASF67:
 1466 01c3 74687265 		.ascii	"threads\000"
 1466      61647300 
 1467              	.LASF45:
 1468 01cb 725F7072 		.ascii	"r_prio\000"
 1468      696F00
 1469              	.LASF68:
 1470 01d2 74657374 		.ascii	"testmsg1\000"
 1470      6D736731 
 1470      00
 1471              	.LASF59:
 1472 01db 65776D61 		.ascii	"ewmask\000"
 1472      736B00
 1473              	.LASF21:
 1474 01e2 705F6E65 		.ascii	"p_next\000"
 1474      787400
 1475              	.LASF29:
 1476 01e9 705F666C 		.ascii	"p_flags\000"
 1476      61677300 
 1477              	.LASF20:
 1478 01f1 54687265 		.ascii	"Thread\000"
 1478      616400
 1479              	.LASF61:
 1480 01f8 74657374 		.ascii	"testcase\000"
 1480      63617365 
 1480      00
 1481              	.LASF35:
 1482 0201 705F6570 		.ascii	"p_epending\000"
 1482      656E6469 
 1482      6E6700
 1483              	.LASF8:
 1484 020c 75696E74 		.ascii	"uint32_t\000"
 1484      33325F74 
 1484      00
 1485              	.LASF44:
 1486 0215 725F7175 		.ascii	"r_queue\000"
 1486      65756500 
 1487              	.LASF70:
 1488 021d 474E5520 		.ascii	"GNU C 4.6.3\000"
 1488      4320342E 
 1488      362E3300 
 1489              	.LASF60:
 1490 0229 63686172 		.ascii	"char\000"
 1490      00
 1491              	.LASF55:
 1492 022e 6D5F6E65 		.ascii	"m_next\000"
 1492      787400
ARM GAS  /tmp/ccEHdZiW.s 			page 29


 1493              	.LASF18:
 1494 0235 73797374 		.ascii	"systime_t\000"
 1494      696D655F 
 1494      7400
 1495              	.LASF37:
 1496 023f 705F7265 		.ascii	"p_realprio\000"
 1496      616C7072 
 1496      696F00
 1497              	.LASF31:
 1498 024a 705F7469 		.ascii	"p_time\000"
 1498      6D6500
 1499              	.LASF42:
 1500 0251 696E7463 		.ascii	"intctx\000"
 1500      747800
 1501              	.LASF33:
 1502 0258 705F6D73 		.ascii	"p_msgqueue\000"
 1502      67717565 
 1502      756500
 1503              	.LASF30:
 1504 0263 705F7265 		.ascii	"p_refs\000"
 1504      667300
 1505              	.LASF51:
 1506 026a 52656164 		.ascii	"ReadyList\000"
 1506      794C6973 
 1506      7400
 1507              	.LASF66:
 1508 0274 726C6973 		.ascii	"rlist\000"
 1508      7400
 1509              	.LASF5:
 1510 027a 75696E74 		.ascii	"uint8_t\000"
 1510      385F7400 
 1511              	.LASF72:
 1512 0282 6D736731 		.ascii	"msg1_execute\000"
 1512      5F657865 
 1512      63757465 
 1512      00
 1513              	.LASF58:
 1514 028f 77746F62 		.ascii	"wtobjp\000"
 1514      6A7000
 1515              	.LASF27:
 1516 0296 705F6E61 		.ascii	"p_name\000"
 1516      6D6500
 1517              	.LASF49:
 1518 029d 725F7072 		.ascii	"r_preempt\000"
 1518      65656D70 
 1518      7400
 1519              	.LASF54:
 1520 02a7 6D5F6F77 		.ascii	"m_owner\000"
 1520      6E657200 
 1521              	.LASF24:
 1522 02af 705F6374 		.ascii	"p_ctx\000"
 1522      7800
 1523              	.LASF32:
 1524 02b5 705F7761 		.ascii	"p_waiting\000"
 1524      6974696E 
 1524      6700
 1525              		.ident	"GCC: (Sourcery CodeBench Lite 2012.03-56) 4.6.3"
ARM GAS  /tmp/ccEHdZiW.s 			page 30


ARM GAS  /tmp/ccEHdZiW.s 			page 31


DEFINED SYMBOLS
                            *ABS*:00000000 testmsg.c
     /tmp/ccEHdZiW.s:21     .text.msg1_execute:00000000 $t
     /tmp/ccEHdZiW.s:26     .text.msg1_execute:00000000 msg1_execute
     /tmp/ccEHdZiW.s:117    .text.thread:00000000 thread
     /tmp/ccEHdZiW.s:163    .rodata.str1.4:00000000 .LC0
     /tmp/ccEHdZiW.s:112    .text.thread:00000000 $t
     /tmp/ccEHdZiW.s:171    .rodata.patternmsg:00000000 patternmsg
     /tmp/ccEHdZiW.s:156    .rodata.testmsg1:00000000 testmsg1
     /tmp/ccEHdZiW.s:153    .rodata.testmsg1:00000000 $d
     /tmp/ccEHdZiW.s:162    .rodata.str1.4:00000000 $d
     /tmp/ccEHdZiW.s:168    .rodata.patternmsg:00000000 $d
                     .debug_frame:00000010 $d

UNDEFINED SYMBOLS
rlist
wa
chThdCreateStatic
threads
chMsgWait
chMsgRelease
test_emit_token
_test_assert_sequence
chMsgSend
