ARM GAS  /tmp/ccC2Cwnh.s 			page 1


   1              		.syntax unified
   2              		.cpu cortex-m4
   3              		.eabi_attribute 27, 3
   4              		.eabi_attribute 28, 1
   5              		.fpu fpv4-sp-d16
   6              		.eabi_attribute 20, 1
   7              		.eabi_attribute 21, 1
   8              		.eabi_attribute 23, 3
   9              		.eabi_attribute 24, 1
  10              		.eabi_attribute 25, 1
  11              		.eabi_attribute 26, 1
  12              		.eabi_attribute 30, 2
  13              		.eabi_attribute 34, 1
  14              		.eabi_attribute 18, 4
  15              		.thumb
  16              		.file	"testpools.c"
  17              		.text
  18              	.Ltext0:
  19              		.cfi_sections	.debug_frame
  20              		.section	.text.null_provider,"ax",%progbits
  21              		.align	2
  22              		.p2align 4,,15
  23              		.thumb
  24              		.thumb_func
  25              		.type	null_provider, %function
  26              	null_provider:
  27              	.LFB7:
  28              		.file 1 "/opt/ChibiOS/ChibiOS_2.4.4/test/testpools.c"
  29              		.loc 1 71 0
  30              		.cfi_startproc
  31              		@ args = 0, pretend = 0, frame = 0
  32              		@ frame_needed = 0, uses_anonymous_args = 0
  33              		@ link register save eliminated.
  34              	.LVL0:
  35              		.loc 1 75 0
  36 0000 0020     		movs	r0, #0
  37              	.LVL1:
  38 0002 7047     		bx	lr
  39              		.cfi_endproc
  40              	.LFE7:
  41              		.size	null_provider, .-null_provider
  42 0004 AFF30080 		.section	.text.pools1_setup,"ax",%progbits
  42      AFF30080 
  42      AFF30080 
  43              		.align	2
  44              		.p2align 4,,15
  45              		.thumb
  46              		.thumb_func
  47              		.type	pools1_setup, %function
  48              	pools1_setup:
  49              	.LFB8:
  50              		.loc 1 77 0
  51              		.cfi_startproc
  52              		@ args = 0, pretend = 0, frame = 0
  53              		@ frame_needed = 0, uses_anonymous_args = 0
  54              		@ link register save eliminated.
  55              		.loc 1 79 0
ARM GAS  /tmp/ccC2Cwnh.s 			page 2


  56 0000 40F20000 		movw	r0, #:lower16:.LANCHOR0
  57 0004 C0F20000 		movt	r0, #:upper16:.LANCHOR0
  58 0008 4FF49871 		mov	r1, #304
  59 000c 0022     		movs	r2, #0
  60              		.loc 1 80 0
  61              		.loc 1 79 0
  62 000e FFF7FEBF 		b	chPoolInit
  63              		.cfi_endproc
  64              	.LFE8:
  65              		.size	pools1_setup, .-pools1_setup
  66 0012 00BFAFF3 		.section	.text.pools1_execute,"ax",%progbits
  66      0080AFF3 
  66      0080AFF3 
  66      0080
  67              		.align	2
  68              		.p2align 4,,15
  69              		.thumb
  70              		.thumb_func
  71              		.type	pools1_execute, %function
  72              	pools1_execute:
  73              	.LFB9:
  74              		.loc 1 82 0
  75              		.cfi_startproc
  76              		@ args = 0, pretend = 0, frame = 0
  77              		@ frame_needed = 0, uses_anonymous_args = 0
  78              	.LVL2:
  79 0000 10B5     		push	{r4, lr}
  80              	.LCFI0:
  81              		.cfi_def_cfa_offset 8
  82              		.cfi_offset 14, -4
  83              		.cfi_offset 4, -8
  84              		.loc 1 87 0
  85 0002 40F20004 		movw	r4, #:lower16:wa
  86 0006 C0F20004 		movt	r4, #:upper16:wa
  87 000a 40F20000 		movw	r0, #:lower16:.LANCHOR0
  88 000e C0F20000 		movt	r0, #:upper16:.LANCHOR0
  89 0012 2168     		ldr	r1, [r4, #0]
  90 0014 FFF7FEFF 		bl	chPoolFree
  91              	.LVL3:
  92 0018 40F20000 		movw	r0, #:lower16:.LANCHOR0
  93 001c C0F20000 		movt	r0, #:upper16:.LANCHOR0
  94 0020 6168     		ldr	r1, [r4, #4]
  95 0022 FFF7FEFF 		bl	chPoolFree
  96              	.LVL4:
  97 0026 40F20000 		movw	r0, #:lower16:.LANCHOR0
  98 002a C0F20000 		movt	r0, #:upper16:.LANCHOR0
  99 002e A168     		ldr	r1, [r4, #8]
 100 0030 FFF7FEFF 		bl	chPoolFree
 101              	.LVL5:
 102 0034 40F20000 		movw	r0, #:lower16:.LANCHOR0
 103 0038 C0F20000 		movt	r0, #:upper16:.LANCHOR0
 104 003c E168     		ldr	r1, [r4, #12]
 105 003e FFF7FEFF 		bl	chPoolFree
 106              	.LVL6:
 107 0042 40F20000 		movw	r0, #:lower16:.LANCHOR0
 108 0046 2169     		ldr	r1, [r4, #16]
 109 0048 C0F20000 		movt	r0, #:upper16:.LANCHOR0
ARM GAS  /tmp/ccC2Cwnh.s 			page 3


 110 004c FFF7FEFF 		bl	chPoolFree
 111              	.LVL7:
 112              		.loc 1 91 0
 113 0050 40F20000 		movw	r0, #:lower16:.LANCHOR0
 114 0054 C0F20000 		movt	r0, #:upper16:.LANCHOR0
 115 0058 FFF7FEFF 		bl	chPoolAlloc
 116 005c 011C     		adds	r1, r0, #0
 117 005e 18BF     		it	ne
 118 0060 0121     		movne	r1, #1
 119 0062 0120     		movs	r0, #1
 120 0064 FFF7FEFF 		bl	_test_assert
 121 0068 0028     		cmp	r0, #0
 122 006a 41D1     		bne	.L3
 123              	.LVL8:
 124 006c 40F20000 		movw	r0, #:lower16:.LANCHOR0
 125 0070 C0F20000 		movt	r0, #:upper16:.LANCHOR0
 126 0074 FFF7FEFF 		bl	chPoolAlloc
 127 0078 011C     		adds	r1, r0, #0
 128 007a 18BF     		it	ne
 129 007c 0121     		movne	r1, #1
 130 007e 0120     		movs	r0, #1
 131 0080 FFF7FEFF 		bl	_test_assert
 132 0084 A0BB     		cbnz	r0, .L3
 133              	.LVL9:
 134 0086 40F20000 		movw	r0, #:lower16:.LANCHOR0
 135 008a C0F20000 		movt	r0, #:upper16:.LANCHOR0
 136 008e FFF7FEFF 		bl	chPoolAlloc
 137 0092 011C     		adds	r1, r0, #0
 138 0094 18BF     		it	ne
 139 0096 0121     		movne	r1, #1
 140 0098 0120     		movs	r0, #1
 141 009a FFF7FEFF 		bl	_test_assert
 142 009e 38BB     		cbnz	r0, .L3
 143              	.LVL10:
 144 00a0 40F20000 		movw	r0, #:lower16:.LANCHOR0
 145 00a4 C0F20000 		movt	r0, #:upper16:.LANCHOR0
 146 00a8 FFF7FEFF 		bl	chPoolAlloc
 147 00ac 011C     		adds	r1, r0, #0
 148 00ae 18BF     		it	ne
 149 00b0 0121     		movne	r1, #1
 150 00b2 0120     		movs	r0, #1
 151 00b4 FFF7FEFF 		bl	_test_assert
 152 00b8 D0B9     		cbnz	r0, .L3
 153              	.LVL11:
 154 00ba 40F20000 		movw	r0, #:lower16:.LANCHOR0
 155 00be C0F20000 		movt	r0, #:upper16:.LANCHOR0
 156 00c2 FFF7FEFF 		bl	chPoolAlloc
 157 00c6 011C     		adds	r1, r0, #0
 158 00c8 18BF     		it	ne
 159 00ca 0121     		movne	r1, #1
 160 00cc 0120     		movs	r0, #1
 161 00ce FFF7FEFF 		bl	_test_assert
 162 00d2 68B9     		cbnz	r0, .L3
 163              	.LVL12:
 164              		.loc 1 94 0
 165 00d4 40F20000 		movw	r0, #:lower16:.LANCHOR0
 166 00d8 C0F20000 		movt	r0, #:upper16:.LANCHOR0
ARM GAS  /tmp/ccC2Cwnh.s 			page 4


 167 00dc FFF7FEFF 		bl	chPoolAlloc
 168 00e0 D0F10101 		rsbs	r1, r0, #1
 169 00e4 38BF     		it	cc
 170 00e6 0021     		movcc	r1, #0
 171 00e8 0220     		movs	r0, #2
 172 00ea FFF7FEFF 		bl	_test_assert
 173 00ee 00B1     		cbz	r0, .L6
 174              	.LVL13:
 175              	.L3:
 176 00f0 10BD     		pop	{r4, pc}
 177              	.LVL14:
 178              	.L6:
 179              	.LBB4:
 180              	.LBB5:
 181              		.loc 1 97 0
 182 00f2 40F20000 		movw	r0, #:lower16:.LANCHOR0
 183 00f6 40F20002 		movw	r2, #:lower16:null_provider
 184 00fa 1021     		movs	r1, #16
 185 00fc C0F20002 		movt	r2, #:upper16:null_provider
 186 0100 C0F20000 		movt	r0, #:upper16:.LANCHOR0
 187 0104 FFF7FEFF 		bl	chPoolInit
 188              		.loc 1 98 0
 189 0108 40F20000 		movw	r0, #:lower16:.LANCHOR0
 190 010c C0F20000 		movt	r0, #:upper16:.LANCHOR0
 191 0110 FFF7FEFF 		bl	chPoolAlloc
 192 0114 D0F10101 		rsbs	r1, r0, #1
 193 0118 38BF     		it	cc
 194 011a 0021     		movcc	r1, #0
 195 011c 0320     		movs	r0, #3
 196              	.LBE5:
 197              	.LBE4:
 198              		.loc 1 99 0
 199 011e BDE81040 		pop	{r4, lr}
 200              	.LBB7:
 201              	.LBB6:
 202              		.loc 1 98 0
 203 0122 FFF7FEBF 		b	_test_assert
 204              	.LBE6:
 205              	.LBE7:
 206              		.cfi_endproc
 207              	.LFE9:
 208              		.size	pools1_execute, .-pools1_execute
 209              		.global	patternpools
 210              		.global	testpools1
 211 0126 00BFAFF3 		.section	.rodata.str1.4,"aMS",%progbits,1
 211      0080AFF3 
 211      0080
 212              		.align	2
 213              	.LC0:
 214 0000 4D656D6F 		.ascii	"Memory Pools, queue/dequeue\000"
 214      72792050 
 214      6F6F6C73 
 214      2C207175 
 214      6575652F 
 215              		.section	.rodata.patternpools,"a",%progbits
 216              		.align	2
 217              		.type	patternpools, %object
ARM GAS  /tmp/ccC2Cwnh.s 			page 5


 218              		.size	patternpools, 8
 219              	patternpools:
 220 0000 00000000 		.word	testpools1
 221 0004 00000000 		.word	0
 222              		.section	.data.mp1,"aw",%progbits
 223              		.align	2
 224              		.set	.LANCHOR0,. + 0
 225              		.type	mp1, %object
 226              		.size	mp1, 12
 227              	mp1:
 228 0000 00000000 		.word	0
 229 0004 30010000 		.word	304
 230 0008 00000000 		.word	0
 231              		.section	.rodata.testpools1,"a",%progbits
 232              		.align	2
 233              		.type	testpools1, %object
 234              		.size	testpools1, 16
 235              	testpools1:
 236 0000 00000000 		.word	.LC0
 237 0004 00000000 		.word	pools1_setup
 238 0008 00000000 		.word	0
 239 000c 00000000 		.word	pools1_execute
 240              		.text
 241              	.Letext0:
 242              		.file 2 "/opt/arm/bin/../lib/gcc/arm-none-eabi/4.6.3/include/stddef.h"
 243              		.file 3 "/opt/ChibiOS/ChibiOS_2.4.4/os/kernel/include/chmemcore.h"
 244              		.file 4 "/opt/ChibiOS/ChibiOS_2.4.4/os/kernel/include/chmempools.h"
 245              		.file 5 "/opt/ChibiOS/ChibiOS_2.4.4/test/test.h"