ARM GAS  /tmp/ccl535fq.s 			page 1


   1              		.syntax unified
   2              		.cpu cortex-m4
   3              		.eabi_attribute 27, 3
   4              		.eabi_attribute 28, 1
   5              		.fpu fpv4-sp-d16
   6              		.eabi_attribute 20, 1
   7              		.eabi_attribute 21, 1
   8              		.eabi_attribute 23, 3
   9              		.eabi_attribute 24, 1
  10              		.eabi_attribute 25, 1
  11              		.eabi_attribute 26, 1
  12              		.eabi_attribute 30, 2
  13              		.eabi_attribute 34, 1
  14              		.eabi_attribute 18, 4
  15              		.thumb
  16              		.file	"testbmk.c"
  17              		.text
  18              	.Ltext0:
  19              		.cfi_sections	.debug_frame
  20              		.section	.text.thread2,"ax",%progbits
  21              		.align	2
  22              		.p2align 4,,15
  23              		.thumb
  24              		.thumb_func
  25              		.type	thread2, %function
  26              	thread2:
  27              	.LFB11:
  28              		.file 1 "/opt/ChibiOS/ChibiOS_2.4.4/test/testbmk.c"
  29              		.loc 1 165 0
  30              		.cfi_startproc
  31              		@ args = 0, pretend = 0, frame = 0
  32              		@ frame_needed = 0, uses_anonymous_args = 0
  33              		@ link register save eliminated.
  34              	.LVL0:
  35              		.loc 1 168 0
  36 0000 7047     		bx	lr
  37              		.cfi_endproc
  38              	.LFE11:
  39              		.size	thread2, .-thread2
  40 0002 00BFAFF3 		.section	.text.tmo,"ax",%progbits
  40      0080AFF3 
  40      0080AFF3 
  40      0080
  41              		.align	2
  42              		.p2align 4,,15
  43              		.thumb
  44              		.thumb_func
  45              		.type	tmo, %function
  46              	tmo:
  47              	.LFB23:
  48              		.loc 1 511 0
  49              		.cfi_startproc
  50              		@ args = 0, pretend = 0, frame = 0
  51              		@ frame_needed = 0, uses_anonymous_args = 0
  52              		@ link register save eliminated.
  53              	.LVL1:
  54              		.loc 1 511 0
ARM GAS  /tmp/ccl535fq.s 			page 2


  55 0000 7047     		bx	lr
  56              		.cfi_endproc
  57              	.LFE23:
  58              		.size	tmo, .-tmo
  59 0002 00BFAFF3 		.section	.text.bmk13_execute,"ax",%progbits
  59      0080AFF3 
  59      0080AFF3 
  59      0080
  60              		.align	2
  61              		.p2align 4,,15
  62              		.thumb
  63              		.thumb_func
  64              		.type	bmk13_execute, %function
  65              	bmk13_execute:
  66              	.LFB29:
  67              		.loc 1 644 0
  68              		.cfi_startproc
  69              		@ args = 0, pretend = 0, frame = 0
  70              		@ frame_needed = 0, uses_anonymous_args = 0
  71              		.loc 1 646 0
  72 0000 40F20000 		movw	r0, #:lower16:.LC0
  73              		.loc 1 644 0
  74 0004 10B5     		push	{r4, lr}
  75              	.LCFI0:
  76              		.cfi_def_cfa_offset 8
  77              		.cfi_offset 14, -4
  78              		.cfi_offset 4, -8
  79              		.loc 1 646 0
  80 0006 C0F20000 		movt	r0, #:upper16:.LC0
  81              		.loc 1 652 0
  82 000a 40F20004 		movw	r4, #:lower16:.LC1
  83 000e C0F20004 		movt	r4, #:upper16:.LC1
  84              		.loc 1 646 0
  85 0012 FFF7FEFF 		bl	test_print
  86              		.loc 1 647 0
  87 0016 4FF4CC70 		mov	r0, #408
  88 001a FFF7FEFF 		bl	test_printn
  89              		.loc 1 652 0
  90 001e 2046     		mov	r0, r4
  91 0020 FFF7FEFF 		bl	test_println
  92              		.loc 1 653 0
  93 0024 40F20000 		movw	r0, #:lower16:.LC2
  94 0028 C0F20000 		movt	r0, #:upper16:.LC2
  95 002c FFF7FEFF 		bl	test_print
  96              		.loc 1 654 0
  97 0030 4820     		movs	r0, #72
  98 0032 FFF7FEFF 		bl	test_printn
  99              		.loc 1 655 0
 100 0036 2046     		mov	r0, r4
 101 0038 FFF7FEFF 		bl	test_println
 102              		.loc 1 656 0
 103 003c 40F20000 		movw	r0, #:lower16:.LC3
 104 0040 C0F20000 		movt	r0, #:upper16:.LC3
 105 0044 FFF7FEFF 		bl	test_print
 106              		.loc 1 657 0
 107 0048 1420     		movs	r0, #20
 108 004a FFF7FEFF 		bl	test_printn
ARM GAS  /tmp/ccl535fq.s 			page 3


 109              		.loc 1 658 0
 110 004e 2046     		mov	r0, r4
 111 0050 FFF7FEFF 		bl	test_println
 112              		.loc 1 659 0
 113 0054 40F20000 		movw	r0, #:lower16:.LC4
 114 0058 C0F20000 		movt	r0, #:upper16:.LC4
 115 005c FFF7FEFF 		bl	test_print
 116              		.loc 1 660 0
 117 0060 0C20     		movs	r0, #12
 118 0062 FFF7FEFF 		bl	test_printn
 119              		.loc 1 661 0
 120 0066 2046     		mov	r0, r4
 121 0068 FFF7FEFF 		bl	test_println
 122              		.loc 1 663 0
 123 006c 40F20000 		movw	r0, #:lower16:.LC5
 124 0070 C0F20000 		movt	r0, #:upper16:.LC5
 125 0074 FFF7FEFF 		bl	test_print
 126              		.loc 1 664 0
 127 0078 0420     		movs	r0, #4
 128 007a FFF7FEFF 		bl	test_printn
 129              		.loc 1 665 0
 130 007e 2046     		mov	r0, r4
 131 0080 FFF7FEFF 		bl	test_println
 132              		.loc 1 666 0
 133 0084 40F20000 		movw	r0, #:lower16:.LC6
 134 0088 C0F20000 		movt	r0, #:upper16:.LC6
 135 008c FFF7FEFF 		bl	test_print
 136              		.loc 1 667 0
 137 0090 0C20     		movs	r0, #12
 138 0092 FFF7FEFF 		bl	test_printn
 139              		.loc 1 668 0
 140 0096 2046     		mov	r0, r4
 141 0098 FFF7FEFF 		bl	test_println
 142              		.loc 1 671 0
 143 009c 40F20000 		movw	r0, #:lower16:.LC7
 144 00a0 C0F20000 		movt	r0, #:upper16:.LC7
 145 00a4 FFF7FEFF 		bl	test_print
 146              		.loc 1 672 0
 147 00a8 1020     		movs	r0, #16
 148 00aa FFF7FEFF 		bl	test_printn
 149              		.loc 1 673 0
 150 00ae 2046     		mov	r0, r4
 151 00b0 FFF7FEFF 		bl	test_println
 152              		.loc 1 676 0
 153 00b4 40F20000 		movw	r0, #:lower16:.LC8
 154 00b8 C0F20000 		movt	r0, #:upper16:.LC8
 155 00bc FFF7FEFF 		bl	test_print
 156              		.loc 1 677 0
 157 00c0 0820     		movs	r0, #8
 158 00c2 FFF7FEFF 		bl	test_printn
 159              		.loc 1 678 0
 160 00c6 2046     		mov	r0, r4
 161 00c8 FFF7FEFF 		bl	test_println
 162              		.loc 1 681 0
 163 00cc 40F20000 		movw	r0, #:lower16:.LC9
 164 00d0 C0F20000 		movt	r0, #:upper16:.LC9
 165 00d4 FFF7FEFF 		bl	test_print
ARM GAS  /tmp/ccl535fq.s 			page 4


 166              		.loc 1 682 0
 167 00d8 2020     		movs	r0, #32
 168 00da FFF7FEFF 		bl	test_printn
 169              		.loc 1 683 0
 170 00de 2046     		mov	r0, r4
 171 00e0 FFF7FEFF 		bl	test_println
 172              		.loc 1 686 0
 173 00e4 40F20000 		movw	r0, #:lower16:.LC10
 174 00e8 C0F20000 		movt	r0, #:upper16:.LC10
 175 00ec FFF7FEFF 		bl	test_print
 176              		.loc 1 687 0
 177 00f0 2820     		movs	r0, #40
 178 00f2 FFF7FEFF 		bl	test_printn
 179              		.loc 1 688 0
 180 00f6 2046     		mov	r0, r4
 181              		.loc 1 690 0
 182 00f8 BDE81040 		pop	{r4, lr}
 183              		.loc 1 688 0
 184 00fc FFF7FEBF 		b	test_println
 185              		.cfi_endproc
 186              	.LFE29:
 187              		.size	bmk13_execute, .-bmk13_execute
 188              		.section	.text.bmk12_execute,"ax",%progbits
 189              		.align	2
 190              		.p2align 4,,15
 191              		.thumb
 192              		.thumb_func
 193              		.type	bmk12_execute, %function
 194              	bmk12_execute:
 195              	.LFB28:
 196              		.loc 1 605 0
 197              		.cfi_startproc
 198              		@ args = 0, pretend = 0, frame = 0
 199              		@ frame_needed = 0, uses_anonymous_args = 0
 200              	.LVL2:
 201 0000 38B5     		push	{r3, r4, r5, lr}
 202              	.LCFI1:
 203              		.cfi_def_cfa_offset 16
 204              		.cfi_offset 14, -4
 205              		.cfi_offset 5, -8
 206              		.cfi_offset 4, -12
 207              		.cfi_offset 3, -16
 208              		.loc 1 608 0
 209 0002 FFF7FEFF 		bl	test_wait_tick
 210              		.loc 1 609 0
 211 0006 4FF47A70 		mov	r0, #1000
 212 000a FFF7FEFF 		bl	test_start_timer
 213 000e 40F20005 		movw	r5, #:lower16:test_timer_done
 214              		.loc 1 606 0
 215 0012 0024     		movs	r4, #0
 216 0014 C0F20005 		movt	r5, #:upper16:test_timer_done
 217              	.LVL3:
 218              	.L5:
 219              		.loc 1 611 0 discriminator 1
 220 0018 40F20000 		movw	r0, #:lower16:.LANCHOR0
 221 001c C0F20000 		movt	r0, #:upper16:.LANCHOR0
 222 0020 FFF7FEFF 		bl	chMtxLock
ARM GAS  /tmp/ccl535fq.s 			page 5


 223              		.loc 1 612 0 discriminator 1
 224 0024 FFF7FEFF 		bl	chMtxUnlock
 225              		.loc 1 613 0 discriminator 1
 226 0028 40F20000 		movw	r0, #:lower16:.LANCHOR0
 227 002c C0F20000 		movt	r0, #:upper16:.LANCHOR0
 228 0030 FFF7FEFF 		bl	chMtxLock
 229              		.loc 1 614 0 discriminator 1
 230 0034 FFF7FEFF 		bl	chMtxUnlock
 231              		.loc 1 615 0 discriminator 1
 232 0038 40F20000 		movw	r0, #:lower16:.LANCHOR0
 233 003c C0F20000 		movt	r0, #:upper16:.LANCHOR0
 234 0040 FFF7FEFF 		bl	chMtxLock
 235              		.loc 1 616 0 discriminator 1
 236 0044 FFF7FEFF 		bl	chMtxUnlock
 237              		.loc 1 617 0 discriminator 1
 238 0048 40F20000 		movw	r0, #:lower16:.LANCHOR0
 239 004c C0F20000 		movt	r0, #:upper16:.LANCHOR0
 240 0050 FFF7FEFF 		bl	chMtxLock
 241              		.loc 1 618 0 discriminator 1
 242 0054 FFF7FEFF 		bl	chMtxUnlock
 243              		.loc 1 623 0 discriminator 1
 244 0058 2B68     		ldr	r3, [r5, #0]
 245              		.loc 1 619 0 discriminator 1
 246 005a 0134     		adds	r4, r4, #1
 247              	.LVL4:
 248              		.loc 1 623 0 discriminator 1
 249 005c 002B     		cmp	r3, #0
 250 005e DBD0     		beq	.L5
 251              		.loc 1 624 0
 252 0060 40F20000 		movw	r0, #:lower16:.LC11
 253 0064 C0F20000 		movt	r0, #:upper16:.LC11
 254 0068 FFF7FEFF 		bl	test_print
 255              		.loc 1 625 0
 256 006c A000     		lsls	r0, r4, #2
 257 006e FFF7FEFF 		bl	test_printn
 258              		.loc 1 626 0
 259 0072 40F20000 		movw	r0, #:lower16:.LC12
 260 0076 C0F20000 		movt	r0, #:upper16:.LC12
 261              		.loc 1 627 0
 262 007a BDE83840 		pop	{r3, r4, r5, lr}
 263              		.loc 1 626 0
 264 007e FFF7FEBF 		b	test_println
 265              		.cfi_endproc
 266              	.LFE28:
 267              		.size	bmk12_execute, .-bmk12_execute
 268 0082 00BFAFF3 		.section	.text.bmk12_setup,"ax",%progbits
 268      0080AFF3 
 268      0080AFF3 
 268      0080
 269              		.align	2
 270              		.p2align 4,,15
 271              		.thumb
 272              		.thumb_func
 273              		.type	bmk12_setup, %function
 274              	bmk12_setup:
 275              	.LFB27:
 276              		.loc 1 600 0
ARM GAS  /tmp/ccl535fq.s 			page 6


 277              		.cfi_startproc
 278              		@ args = 0, pretend = 0, frame = 0
 279              		@ frame_needed = 0, uses_anonymous_args = 0
 280              		@ link register save eliminated.
 281              		.loc 1 602 0
 282 0000 40F20000 		movw	r0, #:lower16:.LANCHOR0
 283 0004 C0F20000 		movt	r0, #:upper16:.LANCHOR0
 284              		.loc 1 603 0
 285              		.loc 1 602 0
 286 0008 FFF7FEBF 		b	chMtxInit
 287              		.cfi_endproc
 288              	.LFE27:
 289              		.size	bmk12_setup, .-bmk12_setup
 290 000c AFF30080 		.section	.text.thread3,"ax",%progbits
 291              		.align	2
 292              		.p2align 4,,15
 293              		.thumb
 294              		.thumb_func
 295              		.type	thread3, %function
 296              	thread3:
 297              	.LFB17:
 298              		.loc 1 352 0
 299              		.cfi_startproc
 300              		@ args = 0, pretend = 0, frame = 0
 301              		@ frame_needed = 0, uses_anonymous_args = 0
 302              	.LVL5:
 303 0000 10B5     		push	{r4, lr}
 304              	.LCFI2:
 305              		.cfi_def_cfa_offset 8
 306              		.cfi_offset 14, -4
 307              		.cfi_offset 4, -8
 308              		.loc 1 355 0
 309 0002 40F20004 		movw	r4, #:lower16:rlist
 310 0006 C0F20004 		movt	r4, #:upper16:rlist
 311 000a E069     		ldr	r0, [r4, #28]
 312              	.LVL6:
 313 000c 437F     		ldrb	r3, [r0, #29]	@ zero_extendqisi2
 314 000e 5A07     		lsls	r2, r3, #29
 315 0010 09D4     		bmi	.L10
 316              	.L12:
 317              		.loc 1 356 0
 318 0012 40F20000 		movw	r0, #:lower16:.LANCHOR1
 319 0016 C0F20000 		movt	r0, #:upper16:.LANCHOR1
 320 001a FFF7FEFF 		bl	chSemWait
 321              		.loc 1 355 0
 322 001e E269     		ldr	r2, [r4, #28]
 323 0020 517F     		ldrb	r1, [r2, #29]	@ zero_extendqisi2
 324 0022 4B07     		lsls	r3, r1, #29
 325 0024 F5D5     		bpl	.L12
 326              	.L10:
 327              		.loc 1 358 0
 328 0026 0020     		movs	r0, #0
 329 0028 10BD     		pop	{r4, pc}
 330              		.cfi_endproc
 331              	.LFE17:
 332              		.size	thread3, .-thread3
 333 002a 00BFAFF3 		.section	.text.bmk11_execute,"ax",%progbits
ARM GAS  /tmp/ccl535fq.s 			page 7


 333      0080
 334              		.align	2
 335              		.p2align 4,,15
 336              		.thumb
 337              		.thumb_func
 338              		.type	bmk11_execute, %function
 339              	bmk11_execute:
 340              	.LFB26:
 341              		.loc 1 558 0
 342              		.cfi_startproc
 343              		@ args = 0, pretend = 0, frame = 0
 344              		@ frame_needed = 0, uses_anonymous_args = 0
 345              	.LVL7:
 346 0000 38B5     		push	{r3, r4, r5, lr}
 347              	.LCFI3:
 348              		.cfi_def_cfa_offset 16
 349              		.cfi_offset 14, -4
 350              		.cfi_offset 5, -8
 351              		.cfi_offset 4, -12
 352              		.cfi_offset 3, -16
 353              		.loc 1 561 0
 354 0002 FFF7FEFF 		bl	test_wait_tick
 355              		.loc 1 562 0
 356 0006 4FF47A70 		mov	r0, #1000
 357 000a FFF7FEFF 		bl	test_start_timer
 358 000e 40F20005 		movw	r5, #:lower16:test_timer_done
 359              		.loc 1 559 0
 360 0012 0024     		movs	r4, #0
 361 0014 C0F20005 		movt	r5, #:upper16:test_timer_done
 362              	.LVL8:
 363              	.L15:
 364              		.loc 1 564 0 discriminator 1
 365 0018 40F20000 		movw	r0, #:lower16:.LANCHOR1
 366 001c C0F20000 		movt	r0, #:upper16:.LANCHOR1
 367 0020 FFF7FEFF 		bl	chSemWait
 368              		.loc 1 565 0 discriminator 1
 369 0024 40F20000 		movw	r0, #:lower16:.LANCHOR1
 370 0028 C0F20000 		movt	r0, #:upper16:.LANCHOR1
 371 002c FFF7FEFF 		bl	chSemSignal
 372              		.loc 1 566 0 discriminator 1
 373 0030 40F20000 		movw	r0, #:lower16:.LANCHOR1
 374 0034 C0F20000 		movt	r0, #:upper16:.LANCHOR1
 375 0038 FFF7FEFF 		bl	chSemWait
 376              		.loc 1 567 0 discriminator 1
 377 003c 40F20000 		movw	r0, #:lower16:.LANCHOR1
 378 0040 C0F20000 		movt	r0, #:upper16:.LANCHOR1
 379 0044 FFF7FEFF 		bl	chSemSignal
 380              		.loc 1 568 0 discriminator 1
 381 0048 40F20000 		movw	r0, #:lower16:.LANCHOR1
 382 004c C0F20000 		movt	r0, #:upper16:.LANCHOR1
 383 0050 FFF7FEFF 		bl	chSemWait
 384              		.loc 1 569 0 discriminator 1
 385 0054 40F20000 		movw	r0, #:lower16:.LANCHOR1
 386 0058 C0F20000 		movt	r0, #:upper16:.LANCHOR1
 387 005c FFF7FEFF 		bl	chSemSignal
 388              		.loc 1 570 0 discriminator 1
 389 0060 40F20000 		movw	r0, #:lower16:.LANCHOR1
ARM GAS  /tmp/ccl535fq.s 			page 8


 390 0064 C0F20000 		movt	r0, #:upper16:.LANCHOR1
 391 0068 FFF7FEFF 		bl	chSemWait
 392              		.loc 1 571 0 discriminator 1
 393 006c 40F20000 		movw	r0, #:lower16:.LANCHOR1
 394 0070 C0F20000 		movt	r0, #:upper16:.LANCHOR1
 395 0074 FFF7FEFF 		bl	chSemSignal
 396              		.loc 1 576 0 discriminator 1
 397 0078 2B68     		ldr	r3, [r5, #0]
 398              		.loc 1 572 0 discriminator 1
 399 007a 0134     		adds	r4, r4, #1
 400              	.LVL9:
 401              		.loc 1 576 0 discriminator 1
 402 007c 002B     		cmp	r3, #0
 403 007e CBD0     		beq	.L15
 404              		.loc 1 577 0
 405 0080 40F20000 		movw	r0, #:lower16:.LC11
 406 0084 C0F20000 		movt	r0, #:upper16:.LC11
 407 0088 FFF7FEFF 		bl	test_print
 408              		.loc 1 578 0
 409 008c A000     		lsls	r0, r4, #2
 410 008e FFF7FEFF 		bl	test_printn
 411              		.loc 1 579 0
 412 0092 40F20000 		movw	r0, #:lower16:.LC13
 413 0096 C0F20000 		movt	r0, #:upper16:.LC13
 414              		.loc 1 580 0
 415 009a BDE83840 		pop	{r3, r4, r5, lr}
 416              		.loc 1 579 0
 417 009e FFF7FEBF 		b	test_println
 418              		.cfi_endproc
 419              	.LFE26:
 420              		.size	bmk11_execute, .-bmk11_execute
 421 00a2 00BFAFF3 		.section	.text.bmk11_setup,"ax",%progbits
 421      0080AFF3 
 421      0080AFF3 
 421      0080
 422              		.align	2
 423              		.p2align 4,,15
 424              		.thumb
 425              		.thumb_func
 426              		.type	bmk11_setup, %function
 427              	bmk11_setup:
 428              	.LFB25:
 429              		.loc 1 553 0
 430              		.cfi_startproc
 431              		@ args = 0, pretend = 0, frame = 0
 432              		@ frame_needed = 0, uses_anonymous_args = 0
 433              		@ link register save eliminated.
 434              		.loc 1 555 0
 435 0000 40F20000 		movw	r0, #:lower16:.LANCHOR1
 436 0004 C0F20000 		movt	r0, #:upper16:.LANCHOR1
 437 0008 0121     		movs	r1, #1
 438              		.loc 1 556 0
 439              		.loc 1 555 0
 440 000a FFF7FEBF 		b	chSemInit
 441              		.cfi_endproc
 442              	.LFE25:
 443              		.size	bmk11_setup, .-bmk11_setup
ARM GAS  /tmp/ccl535fq.s 			page 9


 444 000e 00BF     		.section	.text.bmk7_setup,"ax",%progbits
 445              		.align	2
 446              		.p2align 4,,15
 447              		.thumb
 448              		.thumb_func
 449              		.type	bmk7_setup, %function
 450              	bmk7_setup:
 451              	.LFB18:
 452              		.loc 1 360 0
 453              		.cfi_startproc
 454              		@ args = 0, pretend = 0, frame = 0
 455              		@ frame_needed = 0, uses_anonymous_args = 0
 456              		@ link register save eliminated.
 457              		.loc 1 362 0
 458 0000 40F20000 		movw	r0, #:lower16:.LANCHOR1
 459 0004 C0F20000 		movt	r0, #:upper16:.LANCHOR1
 460 0008 0021     		movs	r1, #0
 461              		.loc 1 363 0
 462              		.loc 1 362 0
 463 000a FFF7FEBF 		b	chSemInit
 464              		.cfi_endproc
 465              	.LFE18:
 466              		.size	bmk7_setup, .-bmk7_setup
 467 000e 00BF     		.section	.text.bmk10_execute,"ax",%progbits
 468              		.align	2
 469              		.p2align 4,,15
 470              		.thumb
 471              		.thumb_func
 472              		.type	bmk10_execute, %function
 473              	bmk10_execute:
 474              	.LFB24:
 475              		.loc 1 513 0
 476              		.cfi_startproc
 477              		@ args = 0, pretend = 0, frame = 0
 478              		@ frame_needed = 0, uses_anonymous_args = 0
 479              	.LVL10:
 480 0000 38B5     		push	{r3, r4, r5, lr}
 481              	.LCFI4:
 482              		.cfi_def_cfa_offset 16
 483              		.cfi_offset 14, -4
 484              		.cfi_offset 5, -8
 485              		.cfi_offset 4, -12
 486              		.cfi_offset 3, -16
 487              		.loc 1 517 0
 488 0002 FFF7FEFF 		bl	test_wait_tick
 489              		.loc 1 518 0
 490 0006 4FF47A70 		mov	r0, #1000
 491 000a FFF7FEFF 		bl	test_start_timer
 492 000e 40F20005 		movw	r5, #:lower16:test_timer_done
 493              		.loc 1 515 0
 494 0012 0024     		movs	r4, #0
 495 0014 C0F20005 		movt	r5, #:upper16:test_timer_done
 496              	.LVL11:
 497              	.L20:
 498              	.LBB2:
 499              		.loc 1 520 0 discriminator 1
 500 0018 2023     		movs	r3, #32
ARM GAS  /tmp/ccl535fq.s 			page 10


 501              	.LVL12:
 502              	@ 520 "/opt/ChibiOS/ChibiOS_2.4.4/test/testbmk.c" 1
 503 001a 83F31188 		msr     BASEPRI, r3
 504              	@ 0 "" 2
 505              	.LVL13:
 506              		.thumb
 507              	.LBE2:
 508              		.loc 1 521 0 discriminator 1
 509 001e 40F20000 		movw	r0, #:lower16:.LANCHOR2
 510 0022 40F20002 		movw	r2, #:lower16:tmo
 511 0026 0121     		movs	r1, #1
 512 0028 0023     		movs	r3, #0
 513              	.LVL14:
 514 002a C0F20000 		movt	r0, #:upper16:.LANCHOR2
 515 002e C0F20002 		movt	r2, #:upper16:tmo
 516 0032 FFF7FEFF 		bl	chVTSetI
 517              		.loc 1 522 0 discriminator 1
 518 0036 40F20000 		movw	r0, #:lower16:.LANCHOR3
 519 003a 40F20002 		movw	r2, #:lower16:tmo
 520 003e 0023     		movs	r3, #0
 521 0040 42F21071 		movw	r1, #10000
 522 0044 C0F20002 		movt	r2, #:upper16:tmo
 523 0048 C0F20000 		movt	r0, #:upper16:.LANCHOR3
 524 004c FFF7FEFF 		bl	chVTSetI
 525              		.loc 1 523 0 discriminator 1
 526 0050 40F20000 		movw	r0, #:lower16:.LANCHOR2
 527 0054 C0F20000 		movt	r0, #:upper16:.LANCHOR2
 528 0058 FFF7FEFF 		bl	chVTResetI
 529              		.loc 1 524 0 discriminator 1
 530 005c 40F20000 		movw	r0, #:lower16:.LANCHOR3
 531 0060 C0F20000 		movt	r0, #:upper16:.LANCHOR3
 532 0064 FFF7FEFF 		bl	chVTResetI
 533              	.LBB3:
 534              		.loc 1 525 0 discriminator 1
 535 0068 0023     		movs	r3, #0
 536              	.LVL15:
 537              	@ 525 "/opt/ChibiOS/ChibiOS_2.4.4/test/testbmk.c" 1
 538 006a 83F31188 		msr     BASEPRI, r3
 539              	@ 0 "" 2
 540              	.LVL16:
 541              		.thumb
 542              	.LBE3:
 543              		.loc 1 530 0 discriminator 1
 544 006e 2B68     		ldr	r3, [r5, #0]
 545              	.LVL17:
 546              		.loc 1 526 0 discriminator 1
 547 0070 0134     		adds	r4, r4, #1
 548              	.LVL18:
 549              		.loc 1 530 0 discriminator 1
 550 0072 002B     		cmp	r3, #0
 551 0074 D0D0     		beq	.L20
 552              		.loc 1 531 0
 553 0076 40F20000 		movw	r0, #:lower16:.LC11
 554 007a C0F20000 		movt	r0, #:upper16:.LC11
 555 007e FFF7FEFF 		bl	test_print
 556              		.loc 1 532 0
 557 0082 6000     		lsls	r0, r4, #1
ARM GAS  /tmp/ccl535fq.s 			page 11


 558 0084 FFF7FEFF 		bl	test_printn
 559              		.loc 1 533 0
 560 0088 40F20000 		movw	r0, #:lower16:.LC14
 561 008c C0F20000 		movt	r0, #:upper16:.LC14
 562              		.loc 1 534 0
 563 0090 BDE83840 		pop	{r3, r4, r5, lr}
 564              		.loc 1 533 0
 565 0094 FFF7FEBF 		b	test_println
 566              		.cfi_endproc
 567              	.LFE24:
 568              		.size	bmk10_execute, .-bmk10_execute
 569 0098 AFF30080 		.section	.text.bmk9_execute,"ax",%progbits
 569      AFF30080 
 570              		.align	2
 571              		.p2align 4,,15
 572              		.thumb
 573              		.thumb_func
 574              		.type	bmk9_execute, %function
 575              	bmk9_execute:
 576              	.LFB22:
 577              		.loc 1 465 0
 578              		.cfi_startproc
 579              		@ args = 0, pretend = 0, frame = 0
 580              		@ frame_needed = 0, uses_anonymous_args = 0
 581              		.loc 1 470 0
 582 0000 40F20000 		movw	r0, #:lower16:.LANCHOR4
 583 0004 40F20001 		movw	r1, #:lower16:.LANCHOR5
 584              		.loc 1 465 0
 585 0008 38B5     		push	{r3, r4, r5, lr}
 586              	.LCFI5:
 587              		.cfi_def_cfa_offset 16
 588              		.cfi_offset 14, -4
 589              		.cfi_offset 5, -8
 590              		.cfi_offset 4, -12
 591              		.cfi_offset 3, -16
 592              		.loc 1 470 0
 593 000a C0F20001 		movt	r1, #:upper16:.LANCHOR5
 594 000e 1022     		movs	r2, #16
 595 0010 0023     		movs	r3, #0
 596 0012 C0F20000 		movt	r0, #:upper16:.LANCHOR4
 597 0016 FFF7FEFF 		bl	chIQInit
 598              	.LVL19:
 599              		.loc 1 472 0
 600 001a FFF7FEFF 		bl	test_wait_tick
 601              		.loc 1 473 0
 602 001e 4FF47A70 		mov	r0, #1000
 603 0022 FFF7FEFF 		bl	test_start_timer
 604 0026 40F20005 		movw	r5, #:lower16:test_timer_done
 605              		.loc 1 471 0
 606 002a 0024     		movs	r4, #0
 607 002c C0F20005 		movt	r5, #:upper16:test_timer_done
 608              	.LVL20:
 609              	.L23:
 610              	.LBB4:
 611              		.loc 1 475 0 discriminator 1
 612 0030 2023     		movs	r3, #32
 613              	.LVL21:
ARM GAS  /tmp/ccl535fq.s 			page 12


 614              	@ 475 "/opt/ChibiOS/ChibiOS_2.4.4/test/testbmk.c" 1
 615 0032 83F31188 		msr     BASEPRI, r3
 616              	@ 0 "" 2
 617              	.LVL22:
 618              		.thumb
 619              	.LBE4:
 620              		.loc 1 476 0 discriminator 1
 621 0036 40F20000 		movw	r0, #:lower16:.LANCHOR4
 622 003a 0021     		movs	r1, #0
 623 003c C0F20000 		movt	r0, #:upper16:.LANCHOR4
 624 0040 FFF7FEFF 		bl	chIQPutI
 625              	.LVL23:
 626              		.loc 1 477 0 discriminator 1
 627 0044 40F20000 		movw	r0, #:lower16:.LANCHOR4
 628 0048 0121     		movs	r1, #1
 629 004a C0F20000 		movt	r0, #:upper16:.LANCHOR4
 630 004e FFF7FEFF 		bl	chIQPutI
 631              		.loc 1 478 0 discriminator 1
 632 0052 40F20000 		movw	r0, #:lower16:.LANCHOR4
 633 0056 0221     		movs	r1, #2
 634 0058 C0F20000 		movt	r0, #:upper16:.LANCHOR4
 635 005c FFF7FEFF 		bl	chIQPutI
 636              		.loc 1 479 0 discriminator 1
 637 0060 40F20000 		movw	r0, #:lower16:.LANCHOR4
 638 0064 0321     		movs	r1, #3
 639 0066 C0F20000 		movt	r0, #:upper16:.LANCHOR4
 640 006a FFF7FEFF 		bl	chIQPutI
 641              	.LBB5:
 642              		.loc 1 480 0 discriminator 1
 643 006e 0023     		movs	r3, #0
 644              	.LVL24:
 645              	@ 480 "/opt/ChibiOS/ChibiOS_2.4.4/test/testbmk.c" 1
 646 0070 83F31188 		msr     BASEPRI, r3
 647              	@ 0 "" 2
 648              	.LVL25:
 649              		.thumb
 650              	.LBE5:
 651              		.loc 1 481 0 discriminator 1
 652 0074 40F20000 		movw	r0, #:lower16:.LANCHOR4
 653 0078 4FF0FF31 		mov	r1, #-1
 654 007c C0F20000 		movt	r0, #:upper16:.LANCHOR4
 655 0080 FFF7FEFF 		bl	chIQGetTimeout
 656              	.LVL26:
 657              		.loc 1 482 0 discriminator 1
 658 0084 40F20000 		movw	r0, #:lower16:.LANCHOR4
 659 0088 4FF0FF31 		mov	r1, #-1
 660 008c C0F20000 		movt	r0, #:upper16:.LANCHOR4
 661 0090 FFF7FEFF 		bl	chIQGetTimeout
 662              		.loc 1 483 0 discriminator 1
 663 0094 40F20000 		movw	r0, #:lower16:.LANCHOR4
 664 0098 4FF0FF31 		mov	r1, #-1
 665 009c C0F20000 		movt	r0, #:upper16:.LANCHOR4
 666 00a0 FFF7FEFF 		bl	chIQGetTimeout
 667              		.loc 1 484 0 discriminator 1
 668 00a4 40F20000 		movw	r0, #:lower16:.LANCHOR4
 669 00a8 C0F20000 		movt	r0, #:upper16:.LANCHOR4
 670 00ac 4FF0FF31 		mov	r1, #-1
ARM GAS  /tmp/ccl535fq.s 			page 13


 671 00b0 FFF7FEFF 		bl	chIQGetTimeout
 672              		.loc 1 489 0 discriminator 1
 673 00b4 2B68     		ldr	r3, [r5, #0]
 674              		.loc 1 485 0 discriminator 1
 675 00b6 0134     		adds	r4, r4, #1
 676              	.LVL27:
 677              		.loc 1 489 0 discriminator 1
 678 00b8 002B     		cmp	r3, #0
 679 00ba B9D0     		beq	.L23
 680              		.loc 1 490 0
 681 00bc 40F20000 		movw	r0, #:lower16:.LC11
 682 00c0 C0F20000 		movt	r0, #:upper16:.LC11
 683 00c4 FFF7FEFF 		bl	test_print
 684              		.loc 1 491 0
 685 00c8 A000     		lsls	r0, r4, #2
 686 00ca FFF7FEFF 		bl	test_printn
 687              		.loc 1 492 0
 688 00ce 40F20000 		movw	r0, #:lower16:.LC15
 689 00d2 C0F20000 		movt	r0, #:upper16:.LC15
 690              		.loc 1 493 0
 691 00d6 BDE83840 		pop	{r3, r4, r5, lr}
 692              		.loc 1 492 0
 693 00da FFF7FEBF 		b	test_println
 694              		.cfi_endproc
 695              	.LFE22:
 696              		.size	bmk9_execute, .-bmk9_execute
 697 00de 00BF     		.section	.text.bmk6_execute,"ax",%progbits
 698              		.align	2
 699              		.p2align 4,,15
 700              		.thumb
 701              		.thumb_func
 702              		.type	bmk6_execute, %function
 703              	bmk6_execute:
 704              	.LFB16:
 705              		.loc 1 315 0
 706              		.cfi_startproc
 707              		@ args = 0, pretend = 0, frame = 0
 708              		@ frame_needed = 0, uses_anonymous_args = 0
 709              	.LVL28:
 710 0000 2DE9F041 		push	{r4, r5, r6, r7, r8, lr}
 711              	.LCFI6:
 712              		.cfi_def_cfa_offset 24
 713              		.cfi_offset 14, -4
 714              		.cfi_offset 8, -8
 715              		.cfi_offset 7, -12
 716              		.cfi_offset 6, -16
 717              		.cfi_offset 5, -20
 718              		.cfi_offset 4, -24
 719              		.loc 1 319 0
 720 0004 40F20000 		movw	r0, #:lower16:rlist
 721 0008 C0F20000 		movt	r0, #:upper16:rlist
 722              		.loc 1 318 0
 723 000c 40F20003 		movw	r3, #:lower16:wa
 724              		.loc 1 319 0
 725 0010 C269     		ldr	r2, [r0, #28]
 726              		.loc 1 318 0
 727 0012 C0F20003 		movt	r3, #:upper16:wa
ARM GAS  /tmp/ccl535fq.s 			page 14


 728              		.loc 1 315 0
 729 0016 82B0     		sub	sp, sp, #8
 730              	.LCFI7:
 731              		.cfi_def_cfa_offset 32
 732              		.loc 1 319 0
 733 0018 9768     		ldr	r7, [r2, #8]
 734              		.loc 1 318 0
 735 001a D3F80080 		ldr	r8, [r3, #0]
 736              	.LVL29:
 737              		.loc 1 320 0
 738 001e FFF7FEFF 		bl	test_wait_tick
 739              	.LVL30:
 740              		.loc 1 321 0
 741 0022 4FF47A70 		mov	r0, #1000
 742 0026 FFF7FEFF 		bl	test_start_timer
 743              		.loc 1 317 0
 744 002a 0024     		movs	r4, #0
 745 002c 40F20005 		movw	r5, #:lower16:test_timer_done
 746              		.loc 1 319 0
 747 0030 0137     		adds	r7, r7, #1
 748              	.LVL31:
 749 0032 C0F20005 		movt	r5, #:upper16:test_timer_done
 750              		.loc 1 323 0
 751 0036 2646     		mov	r6, r4
 752              	.LVL32:
 753              	.L26:
 754              		.loc 1 323 0 is_stmt 0 discriminator 1
 755 0038 40F20003 		movw	r3, #:lower16:thread2
 756 003c 4FF49871 		mov	r1, #304
 757 0040 4046     		mov	r0, r8
 758 0042 3A46     		mov	r2, r7
 759 0044 C0F20003 		movt	r3, #:upper16:thread2
 760 0048 0096     		str	r6, [sp, #0]
 761 004a FFF7FEFF 		bl	chThdCreateStatic
 762              		.loc 1 328 0 is_stmt 1 discriminator 1
 763 004e 2968     		ldr	r1, [r5, #0]
 764              		.loc 1 324 0 discriminator 1
 765 0050 0134     		adds	r4, r4, #1
 766              	.LVL33:
 767              		.loc 1 328 0 discriminator 1
 768 0052 0029     		cmp	r1, #0
 769 0054 F0D0     		beq	.L26
 770              		.loc 1 329 0
 771 0056 40F20000 		movw	r0, #:lower16:.LC11
 772 005a C0F20000 		movt	r0, #:upper16:.LC11
 773 005e FFF7FEFF 		bl	test_print
 774              		.loc 1 330 0
 775 0062 2046     		mov	r0, r4
 776 0064 FFF7FEFF 		bl	test_printn
 777              		.loc 1 331 0
 778 0068 40F20000 		movw	r0, #:lower16:.LC16
 779 006c C0F20000 		movt	r0, #:upper16:.LC16
 780              		.loc 1 332 0
 781 0070 02B0     		add	sp, sp, #8
 782 0072 BDE8F041 		pop	{r4, r5, r6, r7, r8, lr}
 783              		.loc 1 331 0
 784 0076 FFF7FEBF 		b	test_println
ARM GAS  /tmp/ccl535fq.s 			page 15


 785              		.cfi_endproc
 786              	.LFE16:
 787              		.size	bmk6_execute, .-bmk6_execute
 788 007a 00BFAFF3 		.section	.text.bmk8_execute,"ax",%progbits
 788      0080
 789              		.align	2
 790              		.p2align 4,,15
 791              		.thumb
 792              		.thumb_func
 793              		.type	bmk8_execute, %function
 794              	bmk8_execute:
 795              	.LFB21:
 796              		.loc 1 427 0
 797              		.cfi_startproc
 798              		@ args = 0, pretend = 0, frame = 8
 799              		@ frame_needed = 0, uses_anonymous_args = 0
 800 0000 2DE9F041 		push	{r4, r5, r6, r7, r8, lr}
 801              	.LCFI8:
 802              		.cfi_def_cfa_offset 24
 803              		.cfi_offset 14, -4
 804              		.cfi_offset 8, -8
 805              		.cfi_offset 7, -12
 806              		.cfi_offset 6, -16
 807              		.cfi_offset 5, -20
 808              		.cfi_offset 4, -24
 809              		.loc 1 433 0
 810 0004 40F20007 		movw	r7, #:lower16:rlist
 811              		.loc 1 427 0
 812 0008 84B0     		sub	sp, sp, #16
 813              	.LCFI9:
 814              		.cfi_def_cfa_offset 40
 815              		.loc 1 430 0
 816 000a 04AC     		add	r4, sp, #16
 817              		.loc 1 433 0
 818 000c C0F20007 		movt	r7, #:upper16:rlist
 819              		.loc 1 430 0
 820 0010 0020     		movs	r0, #0
 821 0012 44F8040D 		str	r0, [r4, #-4]!
 822              	.LVL34:
 823              		.loc 1 431 0
 824 0016 FFF7FEFF 		bl	test_wait_tick
 825              		.loc 1 433 0
 826 001a FD69     		ldr	r5, [r7, #28]
 827 001c 40F20006 		movw	r6, #:lower16:wa
 828 0020 C0F20006 		movt	r6, #:upper16:wa
 829 0024 AA68     		ldr	r2, [r5, #8]
 830 0026 3068     		ldr	r0, [r6, #0]
 831 0028 0094     		str	r4, [sp, #0]
 832 002a 40F20005 		movw	r5, #:lower16:thread8
 833 002e C0F20005 		movt	r5, #:upper16:thread8
 834 0032 013A     		subs	r2, r2, #1
 835 0034 2B46     		mov	r3, r5
 836 0036 4FF49871 		mov	r1, #304
 837 003a FFF7FEFF 		bl	chThdCreateStatic
 838              		.loc 1 434 0
 839 003e F969     		ldr	r1, [r7, #28]
 840 0040 D6F804E0 		ldr	lr, [r6, #4]
ARM GAS  /tmp/ccl535fq.s 			page 16


 841 0044 8B68     		ldr	r3, [r1, #8]
 842 0046 0094     		str	r4, [sp, #0]
 843              		.loc 1 433 0
 844 0048 40F20008 		movw	r8, #:lower16:threads
 845 004c C0F20008 		movt	r8, #:upper16:threads
 846              		.loc 1 434 0
 847 0050 5A1E     		subs	r2, r3, #1
 848              		.loc 1 433 0
 849 0052 C8F80000 		str	r0, [r8, #0]
 850              		.loc 1 434 0
 851 0056 2B46     		mov	r3, r5
 852 0058 7046     		mov	r0, lr
 853 005a 4FF49871 		mov	r1, #304
 854 005e FFF7FEFF 		bl	chThdCreateStatic
 855              		.loc 1 435 0
 856 0062 FA69     		ldr	r2, [r7, #28]
 857 0064 D6F808C0 		ldr	ip, [r6, #8]
 858 0068 9368     		ldr	r3, [r2, #8]
 859              		.loc 1 434 0
 860 006a C8F80400 		str	r0, [r8, #4]
 861              		.loc 1 435 0
 862 006e 5A1E     		subs	r2, r3, #1
 863 0070 6046     		mov	r0, ip
 864 0072 2B46     		mov	r3, r5
 865 0074 4FF49871 		mov	r1, #304
 866 0078 0094     		str	r4, [sp, #0]
 867 007a FFF7FEFF 		bl	chThdCreateStatic
 868              		.loc 1 436 0
 869 007e F969     		ldr	r1, [r7, #28]
 870 0080 D6F80CE0 		ldr	lr, [r6, #12]
 871 0084 8A68     		ldr	r2, [r1, #8]
 872              		.loc 1 435 0
 873 0086 C8F80800 		str	r0, [r8, #8]
 874              		.loc 1 436 0
 875 008a 013A     		subs	r2, r2, #1
 876 008c 7046     		mov	r0, lr
 877 008e 2B46     		mov	r3, r5
 878 0090 4FF49871 		mov	r1, #304
 879 0094 0094     		str	r4, [sp, #0]
 880 0096 FFF7FEFF 		bl	chThdCreateStatic
 881              		.loc 1 437 0
 882 009a FB69     		ldr	r3, [r7, #28]
 883 009c 3669     		ldr	r6, [r6, #16]
 884 009e 9A68     		ldr	r2, [r3, #8]
 885              		.loc 1 436 0
 886 00a0 C8F80C00 		str	r0, [r8, #12]
 887              		.loc 1 437 0
 888 00a4 4FF49871 		mov	r1, #304
 889 00a8 013A     		subs	r2, r2, #1
 890 00aa 2B46     		mov	r3, r5
 891 00ac 3046     		mov	r0, r6
 892 00ae 0094     		str	r4, [sp, #0]
 893 00b0 FFF7FEFF 		bl	chThdCreateStatic
 894 00b4 C8F81000 		str	r0, [r8, #16]
 895              		.loc 1 439 0
 896 00b8 4FF47A70 		mov	r0, #1000
 897 00bc FFF7FEFF 		bl	chThdSleep
ARM GAS  /tmp/ccl535fq.s 			page 17


 898              		.loc 1 440 0
 899 00c0 FFF7FEFF 		bl	test_terminate_threads
 900              		.loc 1 441 0
 901 00c4 FFF7FEFF 		bl	test_wait_threads
 902              		.loc 1 443 0
 903 00c8 40F20000 		movw	r0, #:lower16:.LC11
 904 00cc C0F20000 		movt	r0, #:upper16:.LC11
 905 00d0 FFF7FEFF 		bl	test_print
 906              		.loc 1 444 0
 907 00d4 0398     		ldr	r0, [sp, #12]
 908 00d6 FFF7FEFF 		bl	test_printn
 909              		.loc 1 445 0
 910 00da 40F20000 		movw	r0, #:lower16:.LC17
 911 00de C0F20000 		movt	r0, #:upper16:.LC17
 912 00e2 FFF7FEFF 		bl	test_println
 913              		.loc 1 446 0
 914 00e6 04B0     		add	sp, sp, #16
 915 00e8 BDE8F081 		pop	{r4, r5, r6, r7, r8, pc}
 916              		.cfi_endproc
 917              	.LFE21:
 918              		.size	bmk8_execute, .-bmk8_execute
 919 00ec AFF30080 		.section	.text.thread8,"ax",%progbits
 920              		.align	2
 921              		.p2align 4,,15
 922              		.thumb
 923              		.thumb_func
 924              		.type	thread8, %function
 925              	thread8:
 926              	.LFB20:
 927              		.loc 1 412 0
 928              		.cfi_startproc
 929              		@ args = 0, pretend = 0, frame = 0
 930              		@ frame_needed = 0, uses_anonymous_args = 0
 931              	.LVL35:
 932 0000 38B5     		push	{r3, r4, r5, lr}
 933              	.LCFI10:
 934              		.cfi_def_cfa_offset 16
 935              		.cfi_offset 14, -4
 936              		.cfi_offset 5, -8
 937              		.cfi_offset 4, -12
 938              		.cfi_offset 3, -16
 939 0002 40F20004 		movw	r4, #:lower16:rlist
 940              		.loc 1 412 0
 941 0006 0546     		mov	r5, r0
 942 0008 C0F20004 		movt	r4, #:upper16:rlist
 943              	.LVL36:
 944              	.L30:
 945              		.loc 1 415 0 discriminator 1
 946 000c FFF7FEFF 		bl	chThdYield
 947              		.loc 1 416 0 discriminator 1
 948 0010 FFF7FEFF 		bl	chThdYield
 949              		.loc 1 417 0 discriminator 1
 950 0014 FFF7FEFF 		bl	chThdYield
 951              		.loc 1 418 0 discriminator 1
 952 0018 FFF7FEFF 		bl	chThdYield
 953              		.loc 1 419 0 discriminator 1
 954 001c 2968     		ldr	r1, [r5, #0]
ARM GAS  /tmp/ccl535fq.s 			page 18


 955              		.loc 1 423 0 discriminator 1
 956 001e E069     		ldr	r0, [r4, #28]
 957              		.loc 1 419 0 discriminator 1
 958 0020 0A1D     		adds	r2, r1, #4
 959 0022 2A60     		str	r2, [r5, #0]
 960              		.loc 1 423 0 discriminator 1
 961 0024 437F     		ldrb	r3, [r0, #29]	@ zero_extendqisi2
 962 0026 5907     		lsls	r1, r3, #29
 963 0028 F0D5     		bpl	.L30
 964              		.loc 1 425 0
 965 002a 0020     		movs	r0, #0
 966 002c 38BD     		pop	{r3, r4, r5, pc}
 967              		.cfi_endproc
 968              	.LFE20:
 969              		.size	thread8, .-thread8
 970 002e 00BF     		.section	.text.bmk7_execute,"ax",%progbits
 971              		.align	2
 972              		.p2align 4,,15
 973              		.thumb
 974              		.thumb_func
 975              		.type	bmk7_execute, %function
 976              	bmk7_execute:
 977              	.LFB19:
 978              		.loc 1 365 0
 979              		.cfi_startproc
 980              		@ args = 0, pretend = 0, frame = 0
 981              		@ frame_needed = 0, uses_anonymous_args = 0
 982 0000 F0B5     		push	{r4, r5, r6, r7, lr}
 983              	.LCFI11:
 984              		.cfi_def_cfa_offset 20
 985              		.cfi_offset 14, -4
 986              		.cfi_offset 7, -8
 987              		.cfi_offset 6, -12
 988              		.cfi_offset 5, -16
 989              		.cfi_offset 4, -20
 990              		.loc 1 368 0
 991 0002 40F20006 		movw	r6, #:lower16:rlist
 992 0006 C0F20006 		movt	r6, #:upper16:rlist
 993 000a 40F20005 		movw	r5, #:lower16:wa
 994 000e F769     		ldr	r7, [r6, #28]
 995 0010 C0F20005 		movt	r5, #:upper16:wa
 996 0014 BA68     		ldr	r2, [r7, #8]
 997 0016 2868     		ldr	r0, [r5, #0]
 998              		.loc 1 365 0
 999 0018 83B0     		sub	sp, sp, #12
 1000              	.LCFI12:
 1001              		.cfi_def_cfa_offset 32
 1002              		.loc 1 368 0
 1003 001a 40F20003 		movw	r3, #:lower16:thread3
 1004 001e 0027     		movs	r7, #0
 1005 0020 4FF49871 		mov	r1, #304
 1006 0024 0532     		adds	r2, r2, #5
 1007 0026 C0F20003 		movt	r3, #:upper16:thread3
 1008 002a 0097     		str	r7, [sp, #0]
 1009 002c FFF7FEFF 		bl	chThdCreateStatic
 1010              		.loc 1 369 0
 1011 0030 F469     		ldr	r4, [r6, #28]
ARM GAS  /tmp/ccl535fq.s 			page 19


 1012 0032 D5F804E0 		ldr	lr, [r5, #4]
 1013 0036 A268     		ldr	r2, [r4, #8]
 1014 0038 0097     		str	r7, [sp, #0]
 1015              		.loc 1 368 0
 1016 003a 40F20004 		movw	r4, #:lower16:threads
 1017 003e C0F20004 		movt	r4, #:upper16:threads
 1018              		.loc 1 369 0
 1019 0042 40F20003 		movw	r3, #:lower16:thread3
 1020              		.loc 1 368 0
 1021 0046 2060     		str	r0, [r4, #0]
 1022              		.loc 1 369 0
 1023 0048 4FF49871 		mov	r1, #304
 1024 004c 7046     		mov	r0, lr
 1025 004e 0432     		adds	r2, r2, #4
 1026 0050 C0F20003 		movt	r3, #:upper16:thread3
 1027 0054 FFF7FEFF 		bl	chThdCreateStatic
 1028              		.loc 1 370 0
 1029 0058 F369     		ldr	r3, [r6, #28]
 1030 005a D5F808C0 		ldr	ip, [r5, #8]
 1031 005e 9A68     		ldr	r2, [r3, #8]
 1032              		.loc 1 369 0
 1033 0060 6060     		str	r0, [r4, #4]
 1034              		.loc 1 370 0
 1035 0062 40F20003 		movw	r3, #:lower16:thread3
 1036 0066 6046     		mov	r0, ip
 1037 0068 4FF49871 		mov	r1, #304
 1038 006c 0332     		adds	r2, r2, #3
 1039 006e C0F20003 		movt	r3, #:upper16:thread3
 1040 0072 0097     		str	r7, [sp, #0]
 1041 0074 FFF7FEFF 		bl	chThdCreateStatic
 1042              		.loc 1 371 0
 1043 0078 F169     		ldr	r1, [r6, #28]
 1044 007a D5F80CE0 		ldr	lr, [r5, #12]
 1045 007e 8A68     		ldr	r2, [r1, #8]
 1046              		.loc 1 370 0
 1047 0080 A060     		str	r0, [r4, #8]
 1048              		.loc 1 371 0
 1049 0082 40F20003 		movw	r3, #:lower16:thread3
 1050 0086 7046     		mov	r0, lr
 1051 0088 4FF49871 		mov	r1, #304
 1052 008c 0232     		adds	r2, r2, #2
 1053 008e C0F20003 		movt	r3, #:upper16:thread3
 1054 0092 0097     		str	r7, [sp, #0]
 1055 0094 FFF7FEFF 		bl	chThdCreateStatic
 1056              		.loc 1 372 0
 1057 0098 F369     		ldr	r3, [r6, #28]
 1058 009a 2D69     		ldr	r5, [r5, #16]
 1059 009c 9A68     		ldr	r2, [r3, #8]
 1060              		.loc 1 371 0
 1061 009e E060     		str	r0, [r4, #12]
 1062              		.loc 1 372 0
 1063 00a0 40F20003 		movw	r3, #:lower16:thread3
 1064 00a4 4FF49871 		mov	r1, #304
 1065 00a8 0132     		adds	r2, r2, #1
 1066 00aa C0F20003 		movt	r3, #:upper16:thread3
 1067 00ae 2846     		mov	r0, r5
 1068 00b0 0097     		str	r7, [sp, #0]
ARM GAS  /tmp/ccl535fq.s 			page 20


 1069 00b2 FFF7FEFF 		bl	chThdCreateStatic
 1070 00b6 2061     		str	r0, [r4, #16]
 1071              	.LVL37:
 1072              		.loc 1 375 0
 1073 00b8 FFF7FEFF 		bl	test_wait_tick
 1074              		.loc 1 376 0
 1075 00bc 4FF47A70 		mov	r0, #1000
 1076 00c0 FFF7FEFF 		bl	test_start_timer
 1077 00c4 40F20004 		movw	r4, #:lower16:test_timer_done
 1078 00c8 C0F20004 		movt	r4, #:upper16:test_timer_done
 1079              	.LVL38:
 1080              	.L33:
 1081              		.loc 1 378 0 discriminator 1
 1082 00cc 40F20000 		movw	r0, #:lower16:.LANCHOR1
 1083 00d0 C0F20000 		movt	r0, #:upper16:.LANCHOR1
 1084 00d4 0021     		movs	r1, #0
 1085 00d6 FFF7FEFF 		bl	chSemReset
 1086              		.loc 1 383 0 discriminator 1
 1087 00da 2068     		ldr	r0, [r4, #0]
 1088              		.loc 1 379 0 discriminator 1
 1089 00dc 0137     		adds	r7, r7, #1
 1090              	.LVL39:
 1091              		.loc 1 383 0 discriminator 1
 1092 00de 0028     		cmp	r0, #0
 1093 00e0 F4D0     		beq	.L33
 1094              		.loc 1 384 0
 1095 00e2 FFF7FEFF 		bl	test_terminate_threads
 1096              		.loc 1 385 0
 1097 00e6 40F20000 		movw	r0, #:lower16:.LANCHOR1
 1098 00ea 0021     		movs	r1, #0
 1099 00ec C0F20000 		movt	r0, #:upper16:.LANCHOR1
 1100 00f0 FFF7FEFF 		bl	chSemReset
 1101              		.loc 1 386 0
 1102 00f4 FFF7FEFF 		bl	test_wait_threads
 1103              		.loc 1 388 0
 1104 00f8 40F20000 		movw	r0, #:lower16:.LC11
 1105 00fc C0F20000 		movt	r0, #:upper16:.LC11
 1106 0100 FFF7FEFF 		bl	test_print
 1107              		.loc 1 389 0
 1108 0104 3846     		mov	r0, r7
 1109 0106 FFF7FEFF 		bl	test_printn
 1110              		.loc 1 390 0
 1111 010a 40F20000 		movw	r0, #:lower16:.LC18
 1112 010e C0F20000 		movt	r0, #:upper16:.LC18
 1113              		.loc 1 391 0
 1114 0112 07EB4707 		add	r7, r7, r7, lsl #1
 1115              	.LVL40:
 1116              		.loc 1 390 0
 1117 0116 FFF7FEFF 		bl	test_print
 1118              		.loc 1 391 0
 1119 011a 7800     		lsls	r0, r7, #1
 1120 011c FFF7FEFF 		bl	test_printn
 1121              		.loc 1 392 0
 1122 0120 40F20000 		movw	r0, #:lower16:.LC17
 1123 0124 C0F20000 		movt	r0, #:upper16:.LC17
 1124              		.loc 1 393 0
 1125 0128 03B0     		add	sp, sp, #12
ARM GAS  /tmp/ccl535fq.s 			page 21


 1126 012a BDE8F040 		pop	{r4, r5, r6, r7, lr}
 1127              		.loc 1 392 0
 1128 012e FFF7FEBF 		b	test_println
 1129              		.cfi_endproc
 1130              	.LFE19:
 1131              		.size	bmk7_execute, .-bmk7_execute
 1132 0132 00BFAFF3 		.section	.text.bmk5_execute,"ax",%progbits
 1132      0080AFF3 
 1132      0080AFF3 
 1132      0080
 1133              		.align	2
 1134              		.p2align 4,,15
 1135              		.thumb
 1136              		.thumb_func
 1137              		.type	bmk5_execute, %function
 1138              	bmk5_execute:
 1139              	.LFB15:
 1140              		.loc 1 276 0
 1141              		.cfi_startproc
 1142              		@ args = 0, pretend = 0, frame = 0
 1143              		@ frame_needed = 0, uses_anonymous_args = 0
 1144              	.LVL41:
 1145 0000 2DE9F041 		push	{r4, r5, r6, r7, r8, lr}
 1146              	.LCFI13:
 1147              		.cfi_def_cfa_offset 24
 1148              		.cfi_offset 14, -4
 1149              		.cfi_offset 8, -8
 1150              		.cfi_offset 7, -12
 1151              		.cfi_offset 6, -16
 1152              		.cfi_offset 5, -20
 1153              		.cfi_offset 4, -24
 1154              		.loc 1 280 0
 1155 0004 40F20000 		movw	r0, #:lower16:rlist
 1156 0008 C0F20000 		movt	r0, #:upper16:rlist
 1157              		.loc 1 279 0
 1158 000c 40F20003 		movw	r3, #:lower16:wa
 1159              		.loc 1 280 0
 1160 0010 C269     		ldr	r2, [r0, #28]
 1161              		.loc 1 279 0
 1162 0012 C0F20003 		movt	r3, #:upper16:wa
 1163              		.loc 1 276 0
 1164 0016 82B0     		sub	sp, sp, #8
 1165              	.LCFI14:
 1166              		.cfi_def_cfa_offset 32
 1167              		.loc 1 280 0
 1168 0018 9768     		ldr	r7, [r2, #8]
 1169              		.loc 1 279 0
 1170 001a D3F80080 		ldr	r8, [r3, #0]
 1171              	.LVL42:
 1172              		.loc 1 281 0
 1173 001e FFF7FEFF 		bl	test_wait_tick
 1174              	.LVL43:
 1175              		.loc 1 282 0
 1176 0022 4FF47A70 		mov	r0, #1000
 1177 0026 FFF7FEFF 		bl	test_start_timer
 1178              		.loc 1 278 0
 1179 002a 0024     		movs	r4, #0
ARM GAS  /tmp/ccl535fq.s 			page 22


 1180 002c 40F20005 		movw	r5, #:lower16:test_timer_done
 1181              		.loc 1 280 0
 1182 0030 013F     		subs	r7, r7, #1
 1183              	.LVL44:
 1184 0032 C0F20005 		movt	r5, #:upper16:test_timer_done
 1185              		.loc 1 284 0
 1186 0036 2646     		mov	r6, r4
 1187              	.LVL45:
 1188              	.L36:
 1189              		.loc 1 284 0 is_stmt 0 discriminator 1
 1190 0038 40F20003 		movw	r3, #:lower16:thread2
 1191 003c 4FF49871 		mov	r1, #304
 1192 0040 3A46     		mov	r2, r7
 1193 0042 C0F20003 		movt	r3, #:upper16:thread2
 1194 0046 4046     		mov	r0, r8
 1195 0048 0096     		str	r6, [sp, #0]
 1196 004a FFF7FEFF 		bl	chThdCreateStatic
 1197 004e FFF7FEFF 		bl	chThdWait
 1198              		.loc 1 289 0 is_stmt 1 discriminator 1
 1199 0052 2968     		ldr	r1, [r5, #0]
 1200              		.loc 1 285 0 discriminator 1
 1201 0054 0134     		adds	r4, r4, #1
 1202              	.LVL46:
 1203              		.loc 1 289 0 discriminator 1
 1204 0056 0029     		cmp	r1, #0
 1205 0058 EED0     		beq	.L36
 1206              		.loc 1 290 0
 1207 005a 40F20000 		movw	r0, #:lower16:.LC11
 1208 005e C0F20000 		movt	r0, #:upper16:.LC11
 1209 0062 FFF7FEFF 		bl	test_print
 1210              		.loc 1 291 0
 1211 0066 2046     		mov	r0, r4
 1212 0068 FFF7FEFF 		bl	test_printn
 1213              		.loc 1 292 0
 1214 006c 40F20000 		movw	r0, #:lower16:.LC16
 1215 0070 C0F20000 		movt	r0, #:upper16:.LC16
 1216              		.loc 1 293 0
 1217 0074 02B0     		add	sp, sp, #8
 1218 0076 BDE8F041 		pop	{r4, r5, r6, r7, r8, lr}
 1219              		.loc 1 292 0
 1220 007a FFF7FEBF 		b	test_println
 1221              		.cfi_endproc
 1222              	.LFE15:
 1223              		.size	bmk5_execute, .-bmk5_execute
 1224 007e 00BF     		.section	.text.bmk4_execute,"ax",%progbits
 1225              		.align	2
 1226              		.p2align 4,,15
 1227              		.thumb
 1228              		.thumb_func
 1229              		.type	bmk4_execute, %function
 1230              	bmk4_execute:
 1231              	.LFB14:
 1232              		.loc 1 228 0
 1233              		.cfi_startproc
 1234              		@ args = 0, pretend = 0, frame = 0
 1235              		@ frame_needed = 0, uses_anonymous_args = 0
 1236 0000 70B5     		push	{r4, r5, r6, lr}
ARM GAS  /tmp/ccl535fq.s 			page 23


 1237              	.LCFI15:
 1238              		.cfi_def_cfa_offset 16
 1239              		.cfi_offset 14, -4
 1240              		.cfi_offset 6, -8
 1241              		.cfi_offset 5, -12
 1242              		.cfi_offset 4, -16
 1243              		.loc 1 232 0
 1244 0002 40F20004 		movw	r4, #:lower16:rlist
 1245 0006 C0F20004 		movt	r4, #:upper16:rlist
 1246 000a 40F20000 		movw	r0, #:lower16:wa
 1247 000e E169     		ldr	r1, [r4, #28]
 1248 0010 C0F20000 		movt	r0, #:upper16:wa
 1249 0014 8A68     		ldr	r2, [r1, #8]
 1250 0016 0068     		ldr	r0, [r0, #0]
 1251              		.loc 1 228 0
 1252 0018 82B0     		sub	sp, sp, #8
 1253              	.LCFI16:
 1254              		.cfi_def_cfa_offset 24
 1255              		.loc 1 232 0
 1256 001a 40F20003 		movw	r3, #:lower16:thread4
 1257 001e 4FF49871 		mov	r1, #304
 1258 0022 0132     		adds	r2, r2, #1
 1259 0024 C0F20003 		movt	r3, #:upper16:thread4
 1260 0028 0024     		movs	r4, #0
 1261 002a 0094     		str	r4, [sp, #0]
 1262 002c FFF7FEFF 		bl	chThdCreateStatic
 1263 0030 40F20003 		movw	r3, #:lower16:threads
 1264 0034 C0F20003 		movt	r3, #:upper16:threads
 1265 0038 0546     		mov	r5, r0
 1266 003a 1860     		str	r0, [r3, #0]
 1267              	.LVL47:
 1268              		.loc 1 234 0
 1269 003c FFF7FEFF 		bl	test_wait_tick
 1270              	.LVL48:
 1271              		.loc 1 235 0
 1272 0040 4FF47A70 		mov	r0, #1000
 1273 0044 FFF7FEFF 		bl	test_start_timer
 1274 0048 40F20006 		movw	r6, #:lower16:test_timer_done
 1275 004c C0F20006 		movt	r6, #:upper16:test_timer_done
 1276              	.LVL49:
 1277              	.L39:
 1278              	.LBB6:
 1279              		.loc 1 237 0 discriminator 1
 1280 0050 2023     		movs	r3, #32
 1281              	.LVL50:
 1282              	@ 237 "/opt/ChibiOS/ChibiOS_2.4.4/test/testbmk.c" 1
 1283 0052 83F31188 		msr     BASEPRI, r3
 1284              	@ 0 "" 2
 1285              	.LVL51:
 1286              		.thumb
 1287              	.LBE6:
 1288              		.loc 1 238 0 discriminator 1
 1289 0056 0021     		movs	r1, #0
 1290 0058 2846     		mov	r0, r5
 1291 005a FFF7FEFF 		bl	chSchWakeupS
 1292              	.LVL52:
 1293              		.loc 1 239 0 discriminator 1
ARM GAS  /tmp/ccl535fq.s 			page 24


 1294 005e 2846     		mov	r0, r5
 1295 0060 0021     		movs	r1, #0
 1296 0062 FFF7FEFF 		bl	chSchWakeupS
 1297              		.loc 1 240 0 discriminator 1
 1298 0066 2846     		mov	r0, r5
 1299 0068 0021     		movs	r1, #0
 1300 006a FFF7FEFF 		bl	chSchWakeupS
 1301              		.loc 1 241 0 discriminator 1
 1302 006e 2846     		mov	r0, r5
 1303 0070 0021     		movs	r1, #0
 1304 0072 FFF7FEFF 		bl	chSchWakeupS
 1305              	.LBB7:
 1306              		.loc 1 242 0 discriminator 1
 1307 0076 0023     		movs	r3, #0
 1308              	.LVL53:
 1309              	@ 242 "/opt/ChibiOS/ChibiOS_2.4.4/test/testbmk.c" 1
 1310 0078 83F31188 		msr     BASEPRI, r3
 1311              	@ 0 "" 2
 1312              	.LVL54:
 1313              		.thumb
 1314              	.LBE7:
 1315              		.loc 1 247 0 discriminator 1
 1316 007c 3368     		ldr	r3, [r6, #0]
 1317              	.LVL55:
 1318              		.loc 1 243 0 discriminator 1
 1319 007e 0434     		adds	r4, r4, #4
 1320              	.LVL56:
 1321              		.loc 1 247 0 discriminator 1
 1322 0080 002B     		cmp	r3, #0
 1323 0082 E5D0     		beq	.L39
 1324              	.LBB8:
 1325              		.loc 1 248 0
 1326 0084 2023     		movs	r3, #32
 1327              	.LVL57:
 1328              	@ 248 "/opt/ChibiOS/ChibiOS_2.4.4/test/testbmk.c" 1
 1329 0086 83F31188 		msr     BASEPRI, r3
 1330              	@ 0 "" 2
 1331              	.LVL58:
 1332              		.thumb
 1333              	.LBE8:
 1334              		.loc 1 249 0
 1335 008a 4FF0FF31 		mov	r1, #-1
 1336 008e 2846     		mov	r0, r5
 1337 0090 FFF7FEFF 		bl	chSchWakeupS
 1338              	.LVL59:
 1339              	.LBB9:
 1340              		.loc 1 250 0
 1341 0094 0023     		movs	r3, #0
 1342              	.LVL60:
 1343              	@ 250 "/opt/ChibiOS/ChibiOS_2.4.4/test/testbmk.c" 1
 1344 0096 83F31188 		msr     BASEPRI, r3
 1345              	@ 0 "" 2
 1346              	.LVL61:
 1347              		.thumb
 1348              	.LBE9:
 1349              		.loc 1 252 0
 1350 009a FFF7FEFF 		bl	test_wait_threads
ARM GAS  /tmp/ccl535fq.s 			page 25


 1351              	.LVL62:
 1352              		.loc 1 253 0
 1353 009e 40F20000 		movw	r0, #:lower16:.LC11
 1354 00a2 C0F20000 		movt	r0, #:upper16:.LC11
 1355 00a6 FFF7FEFF 		bl	test_print
 1356              		.loc 1 254 0
 1357 00aa 6000     		lsls	r0, r4, #1
 1358 00ac FFF7FEFF 		bl	test_printn
 1359              		.loc 1 255 0
 1360 00b0 40F20000 		movw	r0, #:lower16:.LC17
 1361 00b4 C0F20000 		movt	r0, #:upper16:.LC17
 1362              		.loc 1 256 0
 1363 00b8 02B0     		add	sp, sp, #8
 1364 00ba BDE87040 		pop	{r4, r5, r6, lr}
 1365              		.loc 1 255 0
 1366 00be FFF7FEBF 		b	test_println
 1367              		.cfi_endproc
 1368              	.LFE14:
 1369              		.size	bmk4_execute, .-bmk4_execute
 1370 00c2 00BFAFF3 		.section	.text.msg_loop_test,"ax",%progbits
 1370      0080AFF3 
 1370      0080AFF3 
 1370      0080
 1371              		.align	2
 1372              		.p2align 4,,15
 1373              		.thumb
 1374              		.thumb_func
 1375              		.type	msg_loop_test, %function
 1376              	msg_loop_test:
 1377              	.LFB8:
 1378              		.loc 1 91 0
 1379              		.cfi_startproc
 1380              		@ args = 0, pretend = 0, frame = 0
 1381              		@ frame_needed = 0, uses_anonymous_args = 0
 1382              	.LVL63:
 1383 0000 70B5     		push	{r4, r5, r6, lr}
 1384              	.LCFI17:
 1385              		.cfi_def_cfa_offset 16
 1386              		.cfi_offset 14, -4
 1387              		.cfi_offset 6, -8
 1388              		.cfi_offset 5, -12
 1389              		.cfi_offset 4, -16
 1390              		.loc 1 91 0
 1391 0002 0646     		mov	r6, r0
 1392              		.loc 1 94 0
 1393 0004 FFF7FEFF 		bl	test_wait_tick
 1394              	.LVL64:
 1395              		.loc 1 95 0
 1396 0008 4FF47A70 		mov	r0, #1000
 1397 000c FFF7FEFF 		bl	test_start_timer
 1398 0010 40F20005 		movw	r5, #:lower16:test_timer_done
 1399              		.loc 1 93 0
 1400 0014 0024     		movs	r4, #0
 1401 0016 C0F20005 		movt	r5, #:upper16:test_timer_done
 1402              	.LVL65:
 1403              	.L42:
 1404              		.loc 1 97 0 discriminator 1
ARM GAS  /tmp/ccl535fq.s 			page 26


 1405 001a 3046     		mov	r0, r6
 1406 001c 0121     		movs	r1, #1
 1407 001e FFF7FEFF 		bl	chMsgSend
 1408              		.loc 1 102 0 discriminator 1
 1409 0022 2B68     		ldr	r3, [r5, #0]
 1410              		.loc 1 98 0 discriminator 1
 1411 0024 0134     		adds	r4, r4, #1
 1412              	.LVL66:
 1413              		.loc 1 102 0 discriminator 1
 1414 0026 002B     		cmp	r3, #0
 1415 0028 F7D0     		beq	.L42
 1416              		.loc 1 103 0
 1417 002a 3046     		mov	r0, r6
 1418 002c 0021     		movs	r1, #0
 1419 002e FFF7FEFF 		bl	chMsgSend
 1420              		.loc 1 105 0
 1421 0032 2046     		mov	r0, r4
 1422 0034 70BD     		pop	{r4, r5, r6, pc}
 1423              		.cfi_endproc
 1424              	.LFE8:
 1425              		.size	msg_loop_test, .-msg_loop_test
 1426 0036 00BFAFF3 		.section	.text.bmk3_execute,"ax",%progbits
 1426      0080AFF3 
 1426      0080
 1427              		.align	2
 1428              		.p2align 4,,15
 1429              		.thumb
 1430              		.thumb_func
 1431              		.type	bmk3_execute, %function
 1432              	bmk3_execute:
 1433              	.LFB12:
 1434              		.loc 1 180 0
 1435              		.cfi_startproc
 1436              		@ args = 0, pretend = 0, frame = 0
 1437              		@ frame_needed = 0, uses_anonymous_args = 0
 1438 0000 2DE9F041 		push	{r4, r5, r6, r7, r8, lr}
 1439              	.LCFI18:
 1440              		.cfi_def_cfa_offset 24
 1441              		.cfi_offset 14, -4
 1442              		.cfi_offset 8, -8
 1443              		.cfi_offset 7, -12
 1444              		.cfi_offset 6, -16
 1445              		.cfi_offset 5, -20
 1446              		.cfi_offset 4, -24
 1447              		.loc 1 183 0
 1448 0004 40F20006 		movw	r6, #:lower16:rlist
 1449 0008 C0F20006 		movt	r6, #:upper16:rlist
 1450 000c 40F20005 		movw	r5, #:lower16:wa
 1451 0010 F169     		ldr	r1, [r6, #28]
 1452 0012 C0F20005 		movt	r5, #:upper16:wa
 1453 0016 8C68     		ldr	r4, [r1, #8]
 1454 0018 2868     		ldr	r0, [r5, #0]
 1455              		.loc 1 180 0
 1456 001a 82B0     		sub	sp, sp, #8
 1457              	.LCFI19:
 1458              		.cfi_def_cfa_offset 32
 1459              		.loc 1 183 0
ARM GAS  /tmp/ccl535fq.s 			page 27


 1460 001c 40F20003 		movw	r3, #:lower16:thread1
 1461 0020 4FF00008 		mov	r8, #0
 1462 0024 621C     		adds	r2, r4, #1
 1463 0026 4FF49871 		mov	r1, #304
 1464 002a C0F20003 		movt	r3, #:upper16:thread1
 1465 002e CDF80080 		str	r8, [sp, #0]
 1466 0032 FFF7FEFF 		bl	chThdCreateStatic
 1467              		.loc 1 184 0
 1468 0036 F769     		ldr	r7, [r6, #28]
 1469 0038 D5F804E0 		ldr	lr, [r5, #4]
 1470 003c BB68     		ldr	r3, [r7, #8]
 1471 003e CDF80080 		str	r8, [sp, #0]
 1472              		.loc 1 183 0
 1473 0042 40F20004 		movw	r4, #:lower16:threads
 1474 0046 C0F20004 		movt	r4, #:upper16:threads
 1475              		.loc 1 184 0
 1476 004a 40F20007 		movw	r7, #:lower16:thread2
 1477 004e C0F20007 		movt	r7, #:upper16:thread2
 1478 0052 9A1E     		subs	r2, r3, #2
 1479              		.loc 1 183 0
 1480 0054 2060     		str	r0, [r4, #0]
 1481              		.loc 1 184 0
 1482 0056 3B46     		mov	r3, r7
 1483 0058 7046     		mov	r0, lr
 1484 005a 4FF49871 		mov	r1, #304
 1485 005e FFF7FEFF 		bl	chThdCreateStatic
 1486              		.loc 1 185 0
 1487 0062 F269     		ldr	r2, [r6, #28]
 1488 0064 D5F808C0 		ldr	ip, [r5, #8]
 1489 0068 9368     		ldr	r3, [r2, #8]
 1490              		.loc 1 184 0
 1491 006a 6060     		str	r0, [r4, #4]
 1492              		.loc 1 185 0
 1493 006c DA1E     		subs	r2, r3, #3
 1494 006e 6046     		mov	r0, ip
 1495 0070 3B46     		mov	r3, r7
 1496 0072 4FF49871 		mov	r1, #304
 1497 0076 CDF80080 		str	r8, [sp, #0]
 1498 007a FFF7FEFF 		bl	chThdCreateStatic
 1499              		.loc 1 186 0
 1500 007e F169     		ldr	r1, [r6, #28]
 1501 0080 D5F80CE0 		ldr	lr, [r5, #12]
 1502 0084 8A68     		ldr	r2, [r1, #8]
 1503              		.loc 1 185 0
 1504 0086 A060     		str	r0, [r4, #8]
 1505              		.loc 1 186 0
 1506 0088 043A     		subs	r2, r2, #4
 1507 008a 7046     		mov	r0, lr
 1508 008c 3B46     		mov	r3, r7
 1509 008e 4FF49871 		mov	r1, #304
 1510 0092 CDF80080 		str	r8, [sp, #0]
 1511 0096 FFF7FEFF 		bl	chThdCreateStatic
 1512              		.loc 1 187 0
 1513 009a F369     		ldr	r3, [r6, #28]
 1514 009c 2D69     		ldr	r5, [r5, #16]
 1515 009e 9A68     		ldr	r2, [r3, #8]
 1516              		.loc 1 186 0
ARM GAS  /tmp/ccl535fq.s 			page 28


 1517 00a0 E060     		str	r0, [r4, #12]
 1518              		.loc 1 187 0
 1519 00a2 4FF49871 		mov	r1, #304
 1520 00a6 053A     		subs	r2, r2, #5
 1521 00a8 3B46     		mov	r3, r7
 1522 00aa 2846     		mov	r0, r5
 1523 00ac CDF80080 		str	r8, [sp, #0]
 1524 00b0 FFF7FEFF 		bl	chThdCreateStatic
 1525 00b4 2061     		str	r0, [r4, #16]
 1526              		.loc 1 188 0
 1527 00b6 2068     		ldr	r0, [r4, #0]
 1528 00b8 FFF7FEFF 		bl	msg_loop_test
 1529 00bc 0446     		mov	r4, r0
 1530              	.LVL67:
 1531              		.loc 1 189 0
 1532 00be FFF7FEFF 		bl	test_wait_threads
 1533              	.LVL68:
 1534              		.loc 1 190 0
 1535 00c2 40F20000 		movw	r0, #:lower16:.LC11
 1536 00c6 C0F20000 		movt	r0, #:upper16:.LC11
 1537 00ca FFF7FEFF 		bl	test_print
 1538              		.loc 1 191 0
 1539 00ce 2046     		mov	r0, r4
 1540 00d0 FFF7FEFF 		bl	test_printn
 1541              		.loc 1 192 0
 1542 00d4 40F20000 		movw	r0, #:lower16:.LC19
 1543 00d8 C0F20000 		movt	r0, #:upper16:.LC19
 1544 00dc FFF7FEFF 		bl	test_print
 1545              		.loc 1 193 0
 1546 00e0 6000     		lsls	r0, r4, #1
 1547 00e2 FFF7FEFF 		bl	test_printn
 1548              		.loc 1 194 0
 1549 00e6 40F20000 		movw	r0, #:lower16:.LC17
 1550 00ea C0F20000 		movt	r0, #:upper16:.LC17
 1551              		.loc 1 195 0
 1552 00ee 02B0     		add	sp, sp, #8
 1553 00f0 BDE8F041 		pop	{r4, r5, r6, r7, r8, lr}
 1554              		.loc 1 194 0
 1555 00f4 FFF7FEBF 		b	test_println
 1556              		.cfi_endproc
 1557              	.LFE12:
 1558              		.size	bmk3_execute, .-bmk3_execute
 1559 00f8 AFF30080 		.section	.text.bmk2_execute,"ax",%progbits
 1559      AFF30080 
 1560              		.align	2
 1561              		.p2align 4,,15
 1562              		.thumb
 1563              		.thumb_func
 1564              		.type	bmk2_execute, %function
 1565              	bmk2_execute:
 1566              	.LFB10:
 1567              		.loc 1 145 0
 1568              		.cfi_startproc
 1569              		@ args = 0, pretend = 0, frame = 0
 1570              		@ frame_needed = 0, uses_anonymous_args = 0
 1571              		.loc 1 148 0
 1572 0000 40F2000C 		movw	ip, #:lower16:rlist
ARM GAS  /tmp/ccl535fq.s 			page 29


 1573              		.loc 1 145 0
 1574 0004 10B5     		push	{r4, lr}
 1575              	.LCFI20:
 1576              		.cfi_def_cfa_offset 8
 1577              		.cfi_offset 14, -4
 1578              		.cfi_offset 4, -8
 1579              		.loc 1 148 0
 1580 0006 C0F2000C 		movt	ip, #:upper16:rlist
 1581 000a 40F20000 		movw	r0, #:lower16:wa
 1582 000e DCF81C10 		ldr	r1, [ip, #28]
 1583 0012 C0F20000 		movt	r0, #:upper16:wa
 1584 0016 8A68     		ldr	r2, [r1, #8]
 1585 0018 0068     		ldr	r0, [r0, #0]
 1586              		.loc 1 145 0
 1587 001a 82B0     		sub	sp, sp, #8
 1588              	.LCFI21:
 1589              		.cfi_def_cfa_offset 16
 1590              		.loc 1 148 0
 1591 001c 40F20003 		movw	r3, #:lower16:thread1
 1592 0020 4FF49871 		mov	r1, #304
 1593 0024 0132     		adds	r2, r2, #1
 1594 0026 0024     		movs	r4, #0
 1595 0028 C0F20003 		movt	r3, #:upper16:thread1
 1596 002c 0094     		str	r4, [sp, #0]
 1597 002e FFF7FEFF 		bl	chThdCreateStatic
 1598 0032 40F20003 		movw	r3, #:lower16:threads
 1599 0036 C0F20003 		movt	r3, #:upper16:threads
 1600 003a 1860     		str	r0, [r3, #0]
 1601              		.loc 1 149 0
 1602 003c FFF7FEFF 		bl	msg_loop_test
 1603 0040 0446     		mov	r4, r0
 1604              	.LVL69:
 1605              		.loc 1 150 0
 1606 0042 FFF7FEFF 		bl	test_wait_threads
 1607              	.LVL70:
 1608              		.loc 1 151 0
 1609 0046 40F20000 		movw	r0, #:lower16:.LC11
 1610 004a C0F20000 		movt	r0, #:upper16:.LC11
 1611 004e FFF7FEFF 		bl	test_print
 1612              		.loc 1 152 0
 1613 0052 2046     		mov	r0, r4
 1614 0054 FFF7FEFF 		bl	test_printn
 1615              		.loc 1 153 0
 1616 0058 40F20000 		movw	r0, #:lower16:.LC19
 1617 005c C0F20000 		movt	r0, #:upper16:.LC19
 1618 0060 FFF7FEFF 		bl	test_print
 1619              		.loc 1 154 0
 1620 0064 6000     		lsls	r0, r4, #1
 1621 0066 FFF7FEFF 		bl	test_printn
 1622              		.loc 1 155 0
 1623 006a 40F20000 		movw	r0, #:lower16:.LC17
 1624 006e C0F20000 		movt	r0, #:upper16:.LC17
 1625              		.loc 1 156 0
 1626 0072 02B0     		add	sp, sp, #8
 1627 0074 BDE81040 		pop	{r4, lr}
 1628              		.loc 1 155 0
 1629 0078 FFF7FEBF 		b	test_println
ARM GAS  /tmp/ccl535fq.s 			page 30


 1630              		.cfi_endproc
 1631              	.LFE10:
 1632              		.size	bmk2_execute, .-bmk2_execute
 1633 007c AFF30080 		.section	.text.bmk1_execute,"ax",%progbits
 1634              		.align	2
 1635              		.p2align 4,,15
 1636              		.thumb
 1637              		.thumb_func
 1638              		.type	bmk1_execute, %function
 1639              	bmk1_execute:
 1640              	.LFB9:
 1641              		.loc 1 116 0
 1642              		.cfi_startproc
 1643              		@ args = 0, pretend = 0, frame = 0
 1644              		@ frame_needed = 0, uses_anonymous_args = 0
 1645              		.loc 1 119 0
 1646 0000 40F2000C 		movw	ip, #:lower16:rlist
 1647              		.loc 1 116 0
 1648 0004 10B5     		push	{r4, lr}
 1649              	.LCFI22:
 1650              		.cfi_def_cfa_offset 8
 1651              		.cfi_offset 14, -4
 1652              		.cfi_offset 4, -8
 1653              		.loc 1 119 0
 1654 0006 C0F2000C 		movt	ip, #:upper16:rlist
 1655 000a 40F20000 		movw	r0, #:lower16:wa
 1656 000e DCF81C10 		ldr	r1, [ip, #28]
 1657 0012 C0F20000 		movt	r0, #:upper16:wa
 1658 0016 8A68     		ldr	r2, [r1, #8]
 1659 0018 0068     		ldr	r0, [r0, #0]
 1660              		.loc 1 116 0
 1661 001a 82B0     		sub	sp, sp, #8
 1662              	.LCFI23:
 1663              		.cfi_def_cfa_offset 16
 1664              		.loc 1 119 0
 1665 001c 40F20003 		movw	r3, #:lower16:thread1
 1666 0020 4FF49871 		mov	r1, #304
 1667 0024 013A     		subs	r2, r2, #1
 1668 0026 0024     		movs	r4, #0
 1669 0028 C0F20003 		movt	r3, #:upper16:thread1
 1670 002c 0094     		str	r4, [sp, #0]
 1671 002e FFF7FEFF 		bl	chThdCreateStatic
 1672 0032 40F20003 		movw	r3, #:lower16:threads
 1673 0036 C0F20003 		movt	r3, #:upper16:threads
 1674 003a 1860     		str	r0, [r3, #0]
 1675              		.loc 1 120 0
 1676 003c FFF7FEFF 		bl	msg_loop_test
 1677 0040 0446     		mov	r4, r0
 1678              	.LVL71:
 1679              		.loc 1 121 0
 1680 0042 FFF7FEFF 		bl	test_wait_threads
 1681              	.LVL72:
 1682              		.loc 1 122 0
 1683 0046 40F20000 		movw	r0, #:lower16:.LC11
 1684 004a C0F20000 		movt	r0, #:upper16:.LC11
 1685 004e FFF7FEFF 		bl	test_print
 1686              		.loc 1 123 0
ARM GAS  /tmp/ccl535fq.s 			page 31


 1687 0052 2046     		mov	r0, r4
 1688 0054 FFF7FEFF 		bl	test_printn
 1689              		.loc 1 124 0
 1690 0058 40F20000 		movw	r0, #:lower16:.LC19
 1691 005c C0F20000 		movt	r0, #:upper16:.LC19
 1692 0060 FFF7FEFF 		bl	test_print
 1693              		.loc 1 125 0
 1694 0064 6000     		lsls	r0, r4, #1
 1695 0066 FFF7FEFF 		bl	test_printn
 1696              		.loc 1 126 0
 1697 006a 40F20000 		movw	r0, #:lower16:.LC17
 1698 006e C0F20000 		movt	r0, #:upper16:.LC17
 1699              		.loc 1 127 0
 1700 0072 02B0     		add	sp, sp, #8
 1701 0074 BDE81040 		pop	{r4, lr}
 1702              		.loc 1 126 0
 1703 0078 FFF7FEBF 		b	test_println
 1704              		.cfi_endproc
 1705              	.LFE9:
 1706              		.size	bmk1_execute, .-bmk1_execute
 1707 007c AFF30080 		.section	.text.thread1,"ax",%progbits
 1708              		.align	2
 1709              		.p2align 4,,15
 1710              		.thumb
 1711              		.thumb_func
 1712              		.type	thread1, %function
 1713              	thread1:
 1714              	.LFB7:
 1715              		.loc 1 75 0
 1716              		.cfi_startproc
 1717              		@ args = 0, pretend = 0, frame = 0
 1718              		@ frame_needed = 0, uses_anonymous_args = 0
 1719              	.LVL73:
 1720 0000 10B5     		push	{r4, lr}
 1721              	.LCFI24:
 1722              		.cfi_def_cfa_offset 8
 1723              		.cfi_offset 14, -4
 1724              		.cfi_offset 4, -8
 1725              	.LVL74:
 1726              	.L48:
 1727              		.loc 1 81 0 discriminator 1
 1728 0002 FFF7FEFF 		bl	chMsgWait
 1729              	.LVL75:
 1730              		.loc 1 82 0 discriminator 1
 1731 0006 446B     		ldr	r4, [r0, #52]
 1732              	.LVL76:
 1733              		.loc 1 83 0 discriminator 1
 1734 0008 2146     		mov	r1, r4
 1735 000a FFF7FEFF 		bl	chMsgRelease
 1736              	.LVL77:
 1737              		.loc 1 84 0 discriminator 1
 1738 000e 002C     		cmp	r4, #0
 1739 0010 F7D1     		bne	.L48
 1740              		.loc 1 86 0
 1741 0012 2046     		mov	r0, r4
 1742 0014 10BD     		pop	{r4, pc}
 1743              		.cfi_endproc
ARM GAS  /tmp/ccl535fq.s 			page 32


 1744              	.LFE7:
 1745              		.size	thread1, .-thread1
 1746 0016 00BFAFF3 		.section	.text.thread4,"ax",%progbits
 1746      0080AFF3 
 1746      0080
 1747              		.align	2
 1748              		.p2align 4,,15
 1749              		.global	thread4
 1750              		.thumb
 1751              		.thumb_func
 1752              		.type	thread4, %function
 1753              	thread4:
 1754              	.LFB13:
 1755              		.loc 1 214 0
 1756              		.cfi_startproc
 1757              		@ args = 0, pretend = 0, frame = 0
 1758              		@ frame_needed = 0, uses_anonymous_args = 0
 1759              	.LVL78:
 1760              		.loc 1 216 0
 1761 0000 40F20002 		movw	r2, #:lower16:rlist
 1762 0004 C0F20002 		movt	r2, #:upper16:rlist
 1763              		.loc 1 214 0
 1764 0008 10B5     		push	{r4, lr}
 1765              	.LCFI25:
 1766              		.cfi_def_cfa_offset 8
 1767              		.cfi_offset 14, -4
 1768              		.cfi_offset 4, -8
 1769              	.LBB10:
 1770              		.loc 1 219 0
 1771 000a 2023     		movs	r3, #32
 1772              	.LVL79:
 1773              	.LBE10:
 1774              		.loc 1 216 0
 1775 000c D469     		ldr	r4, [r2, #28]
 1776              	.LVL80:
 1777              	.LBB11:
 1778              		.loc 1 219 0
 1779              	@ 219 "/opt/ChibiOS/ChibiOS_2.4.4/test/testbmk.c" 1
 1780 000e 83F31188 		msr     BASEPRI, r3
 1781              	@ 0 "" 2
 1782              	.LVL81:
 1783              		.thumb
 1784              	.L51:
 1785              	.LBE11:
 1786              		.loc 1 221 0 discriminator 1
 1787 0012 0220     		movs	r0, #2
 1788 0014 FFF7FEFF 		bl	chSchGoSleepS
 1789              	.LVL82:
 1790              		.loc 1 223 0 discriminator 1
 1791 0018 636A     		ldr	r3, [r4, #36]
 1792 001a 002B     		cmp	r3, #0
 1793 001c F9D0     		beq	.L51
 1794              	.LBB12:
 1795              		.loc 1 224 0
 1796 001e 0023     		movs	r3, #0
 1797              	.LVL83:
 1798              	@ 224 "/opt/ChibiOS/ChibiOS_2.4.4/test/testbmk.c" 1
ARM GAS  /tmp/ccl535fq.s 			page 33


 1799 0020 83F31188 		msr     BASEPRI, r3
 1800              	@ 0 "" 2
 1801              	.LVL84:
 1802              		.thumb
 1803              	.LBE12:
 1804              		.loc 1 226 0
 1805 0024 1846     		mov	r0, r3
 1806 0026 10BD     		pop	{r4, pc}
 1807              		.cfi_endproc
 1808              	.LFE13:
 1809              		.size	thread4, .-thread4
 1810              		.global	patternbmk
 1811              		.global	testbmk13
 1812              		.global	testbmk12
 1813              		.global	testbmk11
 1814              		.global	testbmk10
 1815              		.global	testbmk9
 1816              		.global	testbmk8
 1817              		.global	testbmk7
 1818              		.global	testbmk6
 1819              		.global	testbmk5
 1820              		.global	testbmk4
 1821              		.global	testbmk3
 1822              		.global	testbmk2
 1823              		.global	testbmk1
 1824 0028 AFF30080 		.section	.rodata.testbmk8,"a",%progbits
 1824      AFF30080 
 1825              		.align	2
 1826              		.type	testbmk8, %object
 1827              		.size	testbmk8, 16
 1828              	testbmk8:
 1829 0000 D0010000 		.word	.LC25
 1830 0004 00000000 		.word	0
 1831 0008 00000000 		.word	0
 1832 000c 00000000 		.word	bmk8_execute
 1833              		.section	.rodata.patternbmk,"a",%progbits
 1834              		.align	2
 1835              		.type	patternbmk, %object
 1836              		.size	patternbmk, 56
 1837              	patternbmk:
 1838 0000 00000000 		.word	testbmk1
 1839 0004 00000000 		.word	testbmk2
 1840 0008 00000000 		.word	testbmk3
 1841 000c 00000000 		.word	testbmk4
 1842 0010 00000000 		.word	testbmk5
 1843 0014 00000000 		.word	testbmk6
 1844 0018 00000000 		.word	testbmk7
 1845 001c 00000000 		.word	testbmk8
 1846 0020 00000000 		.word	testbmk9
 1847 0024 00000000 		.word	testbmk10
 1848 0028 00000000 		.word	testbmk11
 1849 002c 00000000 		.word	testbmk12
 1850 0030 00000000 		.word	testbmk13
 1851 0034 00000000 		.word	0
 1852              		.section	.bss.iq.4841,"aw",%nobits
 1853              		.align	2
 1854              		.set	.LANCHOR4,. + 0
ARM GAS  /tmp/ccl535fq.s 			page 34


 1855              		.type	iq.4841, %object
 1856              		.size	iq.4841, 32
 1857              	iq.4841:
 1858 0000 00000000 		.space	32
 1858      00000000 
 1858      00000000 
 1858      00000000 
 1858      00000000 
 1859              		.section	.rodata.testbmk2,"a",%progbits
 1860              		.align	2
 1861              		.type	testbmk2, %object
 1862              		.size	testbmk2, 16
 1863              	testbmk2:
 1864 0000 98020000 		.word	.LC31
 1865 0004 00000000 		.word	0
 1866 0008 00000000 		.word	0
 1867 000c 00000000 		.word	bmk2_execute
 1868              		.section	.bss.ib.4840,"aw",%nobits
 1869              		.align	2
 1870              		.set	.LANCHOR5,. + 0
 1871              		.type	ib.4840, %object
 1872              		.size	ib.4840, 16
 1873              	ib.4840:
 1874 0000 00000000 		.space	16
 1874      00000000 
 1874      00000000 
 1874      00000000 
 1875              		.section	.rodata.testbmk10,"a",%progbits
 1876              		.align	2
 1877              		.type	testbmk10, %object
 1878              		.size	testbmk10, 16
 1879              	testbmk10:
 1880 0000 88010000 		.word	.LC23
 1881 0004 00000000 		.word	0
 1882 0008 00000000 		.word	0
 1883 000c 00000000 		.word	bmk10_execute
 1884              		.section	.bss.vt2.4854,"aw",%nobits
 1885              		.align	2
 1886              		.set	.LANCHOR3,. + 0
 1887              		.type	vt2.4854, %object
 1888              		.size	vt2.4854, 20
 1889              	vt2.4854:
 1890 0000 00000000 		.space	20
 1890      00000000 
 1890      00000000 
 1890      00000000 
 1890      00000000 
 1891              		.section	.rodata.testbmk4,"a",%progbits
 1892              		.align	2
 1893              		.type	testbmk4, %object
 1894              		.size	testbmk4, 16
 1895              	testbmk4:
 1896 0000 64020000 		.word	.LC29
 1897 0004 00000000 		.word	0
 1898 0008 00000000 		.word	0
 1899 000c 00000000 		.word	bmk4_execute
 1900              		.section	.bss.mtx1,"aw",%nobits
ARM GAS  /tmp/ccl535fq.s 			page 35


 1901              		.align	2
 1902              		.set	.LANCHOR0,. + 0
 1903              		.type	mtx1, %object
 1904              		.size	mtx1, 16
 1905              	mtx1:
 1906 0000 00000000 		.space	16
 1906      00000000 
 1906      00000000 
 1906      00000000 
 1907              		.section	.rodata.testbmk3,"a",%progbits
 1908              		.align	2
 1909              		.type	testbmk3, %object
 1910              		.size	testbmk3, 16
 1911              	testbmk3:
 1912 0000 80020000 		.word	.LC30
 1913 0004 00000000 		.word	0
 1914 0008 00000000 		.word	0
 1915 000c 00000000 		.word	bmk3_execute
 1916              		.section	.bss.vt1.4853,"aw",%nobits
 1917              		.align	2
 1918              		.set	.LANCHOR2,. + 0
 1919              		.type	vt1.4853, %object
 1920              		.size	vt1.4853, 20
 1921              	vt1.4853:
 1922 0000 00000000 		.space	20
 1922      00000000 
 1922      00000000 
 1922      00000000 
 1922      00000000 
 1923              		.section	.rodata.str1.4,"aMS",%progbits,1
 1924              		.align	2
 1925              	.LC0:
 1926 0000 2D2D2D20 		.ascii	"--- System: \000"
 1926      53797374 
 1926      656D3A20 
 1926      00
 1927 000d 000000   		.space	3
 1928              	.LC1:
 1929 0010 20627974 		.ascii	" bytes\000"
 1929      657300
 1930 0017 00       		.space	1
 1931              	.LC2:
 1932 0018 2D2D2D20 		.ascii	"--- Thread: \000"
 1932      54687265 
 1932      61643A20 
 1932      00
 1933 0025 000000   		.space	3
 1934              	.LC3:
 1935 0028 2D2D2D20 		.ascii	"--- Timer : \000"
 1935      54696D65 
 1935      72203A20 
 1935      00
 1936 0035 000000   		.space	3
 1937              	.LC4:
 1938 0038 2D2D2D20 		.ascii	"--- Semaph: \000"
 1938      53656D61 
 1938      70683A20 
ARM GAS  /tmp/ccl535fq.s 			page 36


 1938      00
 1939 0045 000000   		.space	3
 1940              	.LC5:
 1941 0048 2D2D2D20 		.ascii	"--- EventS: \000"
 1941      4576656E 
 1941      74533A20 
 1941      00
 1942 0055 000000   		.space	3
 1943              	.LC6:
 1944 0058 2D2D2D20 		.ascii	"--- EventL: \000"
 1944      4576656E 
 1944      744C3A20 
 1944      00
 1945 0065 000000   		.space	3
 1946              	.LC7:
 1947 0068 2D2D2D20 		.ascii	"--- Mutex : \000"
 1947      4D757465 
 1947      78203A20 
 1947      00
 1948 0075 000000   		.space	3
 1949              	.LC8:
 1950 0078 2D2D2D20 		.ascii	"--- CondV.: \000"
 1950      436F6E64 
 1950      562E3A20 
 1950      00
 1951 0085 000000   		.space	3
 1952              	.LC9:
 1953 0088 2D2D2D20 		.ascii	"--- Queue : \000"
 1953      51756575 
 1953      65203A20 
 1953      00
 1954 0095 000000   		.space	3
 1955              	.LC10:
 1956 0098 2D2D2D20 		.ascii	"--- MailB.: \000"
 1956      4D61696C 
 1956      422E3A20 
 1956      00
 1957 00a5 000000   		.space	3
 1958              	.LC11:
 1959 00a8 2D2D2D20 		.ascii	"--- Score : \000"
 1959      53636F72 
 1959      65203A20 
 1959      00
 1960 00b5 000000   		.space	3
 1961              	.LC12:
 1962 00b8 206C6F63 		.ascii	" lock+unlock/S\000"
 1962      6B2B756E 
 1962      6C6F636B 
 1962      2F5300
 1963 00c7 00       		.space	1
 1964              	.LC13:
 1965 00c8 20776169 		.ascii	" wait+signal/S\000"
 1965      742B7369 
 1965      676E616C 
 1965      2F5300
 1966 00d7 00       		.space	1
 1967              	.LC14:
ARM GAS  /tmp/ccl535fq.s 			page 37


 1968 00d8 2074696D 		.ascii	" timers/S\000"
 1968      6572732F 
 1968      5300
 1969 00e2 0000     		.space	2
 1970              	.LC15:
 1971 00e4 20627974 		.ascii	" bytes/S\000"
 1971      65732F53 
 1971      00
 1972 00ed 000000   		.space	3
 1973              	.LC16:
 1974 00f0 20746872 		.ascii	" threads/S\000"
 1974      65616473 
 1974      2F5300
 1975 00fb 00       		.space	1
 1976              	.LC17:
 1977 00fc 20637478 		.ascii	" ctxswc/S\000"
 1977      7377632F 
 1977      5300
 1978 0106 0000     		.space	2
 1979              	.LC18:
 1980 0108 20726573 		.ascii	" reschedules/S, \000"
 1980      63686564 
 1980      756C6573 
 1980      2F532C20 
 1980      00
 1981 0119 000000   		.space	3
 1982              	.LC19:
 1983 011c 206D7367 		.ascii	" msgs/S, \000"
 1983      732F532C 
 1983      2000
 1984 0126 0000     		.space	2
 1985              	.LC20:
 1986 0128 42656E63 		.ascii	"Benchmark, RAM footprint\000"
 1986      686D6172 
 1986      6B2C2052 
 1986      414D2066 
 1986      6F6F7470 
 1987 0141 000000   		.space	3
 1988              	.LC21:
 1989 0144 42656E63 		.ascii	"Benchmark, mutexes lock/unlock\000"
 1989      686D6172 
 1989      6B2C206D 
 1989      75746578 
 1989      6573206C 
 1990 0163 00       		.space	1
 1991              	.LC22:
 1992 0164 42656E63 		.ascii	"Benchmark, semaphores wait/signal\000"
 1992      686D6172 
 1992      6B2C2073 
 1992      656D6170 
 1992      686F7265 
 1993 0186 0000     		.space	2
 1994              	.LC23:
 1995 0188 42656E63 		.ascii	"Benchmark, virtual timers set/reset\000"
 1995      686D6172 
 1995      6B2C2076 
 1995      69727475 
ARM GAS  /tmp/ccl535fq.s 			page 38


 1995      616C2074 
 1996              	.LC24:
 1997 01ac 42656E63 		.ascii	"Benchmark, I/O Queues throughput\000"
 1997      686D6172 
 1997      6B2C2049 
 1997      2F4F2051 
 1997      75657565 
 1998 01cd 000000   		.space	3
 1999              	.LC25:
 2000 01d0 42656E63 		.ascii	"Benchmark, round robin context switching\000"
 2000      686D6172 
 2000      6B2C2072 
 2000      6F756E64 
 2000      20726F62 
 2001 01f9 000000   		.space	3
 2002              	.LC26:
 2003 01fc 42656E63 		.ascii	"Benchmark, mass reschedule, 5 threads\000"
 2003      686D6172 
 2003      6B2C206D 
 2003      61737320 
 2003      72657363 
 2004 0222 0000     		.space	2
 2005              	.LC27:
 2006 0224 42656E63 		.ascii	"Benchmark, threads, create only\000"
 2006      686D6172 
 2006      6B2C2074 
 2006      68726561 
 2006      64732C20 
 2007              	.LC28:
 2008 0244 42656E63 		.ascii	"Benchmark, threads, full cycle\000"
 2008      686D6172 
 2008      6B2C2074 
 2008      68726561 
 2008      64732C20 
 2009 0263 00       		.space	1
 2010              	.LC29:
 2011 0264 42656E63 		.ascii	"Benchmark, context switch\000"
 2011      686D6172 
 2011      6B2C2063 
 2011      6F6E7465 
 2011      78742073 
 2012 027e 0000     		.space	2
 2013              	.LC30:
 2014 0280 42656E63 		.ascii	"Benchmark, messages #3\000"
 2014      686D6172 
 2014      6B2C206D 
 2014      65737361 
 2014      67657320 
 2015 0297 00       		.space	1
 2016              	.LC31:
 2017 0298 42656E63 		.ascii	"Benchmark, messages #2\000"
 2017      686D6172 
 2017      6B2C206D 
 2017      65737361 
 2017      67657320 
 2018 02af 00       		.space	1
 2019              	.LC32:
ARM GAS  /tmp/ccl535fq.s 			page 39


 2020 02b0 42656E63 		.ascii	"Benchmark, messages #1\000"
 2020      686D6172 
 2020      6B2C206D 
 2020      65737361 
 2020      67657320 
 2021 02c7 00       		.section	.rodata.testbmk9,"a",%progbits
 2022              		.align	2
 2023              		.type	testbmk9, %object
 2024              		.size	testbmk9, 16
 2025              	testbmk9:
 2026 0000 AC010000 		.word	.LC24
 2027 0004 00000000 		.word	0
 2028 0008 00000000 		.word	0
 2029 000c 00000000 		.word	bmk9_execute
 2030              		.section	.bss.sem1,"aw",%nobits
 2031              		.align	2
 2032              		.set	.LANCHOR1,. + 0
 2033              		.type	sem1, %object
 2034              		.size	sem1, 12
 2035              	sem1:
 2036 0000 00000000 		.space	12
 2036      00000000 
 2036      00000000 
 2037              		.section	.rodata.testbmk1,"a",%progbits
 2038              		.align	2
 2039              		.type	testbmk1, %object
 2040              		.size	testbmk1, 16
 2041              	testbmk1:
 2042 0000 B0020000 		.word	.LC32
 2043 0004 00000000 		.word	0
 2044 0008 00000000 		.word	0
 2045 000c 00000000 		.word	bmk1_execute
 2046              		.section	.rodata.testbmk11,"a",%progbits
 2047              		.align	2
 2048              		.type	testbmk11, %object
 2049              		.size	testbmk11, 16
 2050              	testbmk11:
 2051 0000 64010000 		.word	.LC22
 2052 0004 00000000 		.word	bmk11_setup
 2053 0008 00000000 		.word	0
 2054 000c 00000000 		.word	bmk11_execute
 2055              		.section	.rodata.testbmk12,"a",%progbits
 2056              		.align	2
 2057              		.type	testbmk12, %object
 2058              		.size	testbmk12, 16
 2059              	testbmk12:
 2060 0000 44010000 		.word	.LC21
 2061 0004 00000000 		.word	bmk12_setup
 2062 0008 00000000 		.word	0
 2063 000c 00000000 		.word	bmk12_execute
 2064              		.section	.rodata.testbmk13,"a",%progbits
 2065              		.align	2
 2066              		.type	testbmk13, %object
 2067              		.size	testbmk13, 16
 2068              	testbmk13:
 2069 0000 28010000 		.word	.LC20
 2070 0004 00000000 		.word	0
ARM GAS  /tmp/ccl535fq.s 			page 40


 2071 0008 00000000 		.word	0
 2072 000c 00000000 		.word	bmk13_execute
 2073              		.section	.rodata.testbmk5,"a",%progbits
 2074              		.align	2
 2075              		.type	testbmk5, %object
 2076              		.size	testbmk5, 16
 2077              	testbmk5:
 2078 0000 44020000 		.word	.LC28
 2079 0004 00000000 		.word	0
 2080 0008 00000000 		.word	0
 2081 000c 00000000 		.word	bmk5_execute
 2082              		.section	.rodata.testbmk6,"a",%progbits
 2083              		.align	2
 2084              		.type	testbmk6, %object
 2085              		.size	testbmk6, 16
 2086              	testbmk6:
 2087 0000 24020000 		.word	.LC27
 2088 0004 00000000 		.word	0
 2089 0008 00000000 		.word	0
 2090 000c 00000000 		.word	bmk6_execute
 2091              		.section	.rodata.testbmk7,"a",%progbits
 2092              		.align	2
 2093              		.type	testbmk7, %object
 2094              		.size	testbmk7, 16
 2095              	testbmk7:
 2096 0000 FC010000 		.word	.LC26
 2097 0004 00000000 		.word	bmk7_setup
 2098 0008 00000000 		.word	0
 2099 000c 00000000 		.word	bmk7_execute
 2100              		.text
 2101              	.Letext0:
 2102              		.file 2 "/opt/arm/bin/../lib/gcc/arm-none-eabi/4.6.3/include/stddef.h"
 2103              		.file 3 "/opt/arm/bin/../lib/gcc/arm-none-eabi/4.6.3/../../../../arm-none-eabi/include/stdint.h"
 2104              		.file 4 "/opt/ChibiOS/ChibiOS_2.4.4/os/ports/GCC/ARMCMx/chtypes.h"
 2105              		.file 5 "/opt/ChibiOS/ChibiOS_2.4.4/os/kernel/include/chlists.h"
 2106              		.file 6 "/opt/ChibiOS/ChibiOS_2.4.4/os/kernel/include/chthreads.h"
 2107              		.file 7 "/opt/ChibiOS/ChibiOS_2.4.4/os/ports/GCC/ARMCMx/chcore_v7m.h"
 2108              		.file 8 "/opt/ChibiOS/ChibiOS_2.4.4/os/kernel/include/chvt.h"
 2109              		.file 9 "/opt/ChibiOS/ChibiOS_2.4.4/os/kernel/include/chschd.h"
 2110              		.file 10 "/opt/ChibiOS/ChibiOS_2.4.4/os/kernel/include/chsem.h"
 2111              		.file 11 "/opt/ChibiOS/ChibiOS_2.4.4/os/kernel/include/chmtx.h"
 2112              		.file 12 "/opt/ChibiOS/ChibiOS_2.4.4/os/kernel/include/chqueues.h"
 2113              		.file 13 "/opt/ChibiOS/ChibiOS_2.4.4/test/test.h"