ARM GAS  /tmp/cc67k4gd.s 			page 1


   1              		.syntax unified
   2              		.cpu cortex-m4
   3              		.eabi_attribute 27, 3
   4              		.eabi_attribute 28, 1
   5              		.fpu fpv4-sp-d16
   6              		.eabi_attribute 20, 1
   7              		.eabi_attribute 21, 1
   8              		.eabi_attribute 23, 3
   9              		.eabi_attribute 24, 1
  10              		.eabi_attribute 25, 1
  11              		.eabi_attribute 26, 1
  12              		.eabi_attribute 30, 2
  13              		.eabi_attribute 34, 1
  14              		.eabi_attribute 18, 4
  15              		.thumb
  16              		.file	"testheap.c"
  17              		.text
  18              	.Ltext0:
  19              		.cfi_sections	.debug_frame
  20              		.section	.text.heap1_execute,"ax",%progbits
  21              		.align	2
  22              		.p2align 4,,15
  23              		.thumb
  24              		.thumb_func
  25              		.type	heap1_execute, %function
  26              	heap1_execute:
  27              	.LFB8:
  28              		.file 1 "/opt/ChibiOS/ChibiOS_2.4.4/test/testheap.c"
  29              		.loc 1 80 0
  30              		.cfi_startproc
  31              		@ args = 0, pretend = 0, frame = 8
  32              		@ frame_needed = 0, uses_anonymous_args = 0
  33 0000 70B5     		push	{r4, r5, r6, lr}
  34              	.LCFI0:
  35              		.cfi_def_cfa_offset 16
  36              		.cfi_offset 14, -4
  37              		.cfi_offset 6, -8
  38              		.cfi_offset 5, -12
  39              		.cfi_offset 4, -16
  40 0002 82B0     		sub	sp, sp, #8
  41              	.LCFI1:
  42              		.cfi_def_cfa_offset 24
  43              		.loc 1 85 0
  44 0004 FFF7FEFF 		bl	chCoreStatus
  45              		.loc 1 91 0
  46 0008 01A9     		add	r1, sp, #4
  47 000a 0020     		movs	r0, #0
  48 000c FFF7FEFF 		bl	chHeapStatus
  49              		.loc 1 92 0
  50 0010 1021     		movs	r1, #16
  51 0012 0020     		movs	r0, #0
  52 0014 FFF7FEFF 		bl	chHeapAlloc
  53              	.LVL0:
  54              		.loc 1 93 0
  55 0018 011C     		adds	r1, r0, #0
  56 001a 18BF     		it	ne
  57 001c 0121     		movne	r1, #1
ARM GAS  /tmp/cc67k4gd.s 			page 2


  58 001e 0446     		mov	r4, r0
  59 0020 0120     		movs	r0, #1
  60              	.LVL1:
  61 0022 FFF7FEFF 		bl	_test_assert
  62 0026 0546     		mov	r5, r0
  63 0028 08B1     		cbz	r0, .L7
  64              	.LVL2:
  65              	.L1:
  66              		.loc 1 151 0
  67 002a 02B0     		add	sp, sp, #8
  68 002c 70BD     		pop	{r4, r5, r6, pc}
  69              	.LVL3:
  70              	.L7:
  71              		.loc 1 94 0
  72 002e 2046     		mov	r0, r4
  73 0030 FFF7FEFF 		bl	chHeapFree
  74              		.loc 1 95 0
  75 0034 6FF0FF01 		mvn	r1, #255
  76 0038 2846     		mov	r0, r5
  77 003a FFF7FEFF 		bl	chHeapAlloc
  78              	.LVL4:
  79              		.loc 1 96 0
  80 003e D0F10101 		rsbs	r1, r0, #1
  81 0042 38BF     		it	cc
  82 0044 0021     		movcc	r1, #0
  83 0046 0220     		movs	r0, #2
  84              	.LVL5:
  85 0048 FFF7FEFF 		bl	_test_assert
  86 004c 0028     		cmp	r0, #0
  87 004e ECD1     		bne	.L1
  88              		.loc 1 99 0
  89 0050 40F20000 		movw	r0, #:lower16:.LANCHOR0
  90 0054 01A9     		add	r1, sp, #4
  91 0056 C0F20000 		movt	r0, #:upper16:.LANCHOR0
  92 005a FFF7FEFF 		bl	chHeapStatus
  93              		.loc 1 102 0
  94 005e 40F20000 		movw	r0, #:lower16:.LANCHOR0
  95 0062 1021     		movs	r1, #16
  96 0064 C0F20000 		movt	r0, #:upper16:.LANCHOR0
  97 0068 FFF7FEFF 		bl	chHeapAlloc
  98 006c 0546     		mov	r5, r0
  99              	.LVL6:
 100              		.loc 1 103 0
 101 006e 40F20000 		movw	r0, #:lower16:.LANCHOR0
 102              	.LVL7:
 103 0072 1021     		movs	r1, #16
 104 0074 C0F20000 		movt	r0, #:upper16:.LANCHOR0
 105 0078 FFF7FEFF 		bl	chHeapAlloc
 106 007c 0446     		mov	r4, r0
 107              	.LVL8:
 108              		.loc 1 104 0
 109 007e 40F20000 		movw	r0, #:lower16:.LANCHOR0
 110              	.LVL9:
 111 0082 1021     		movs	r1, #16
 112 0084 C0F20000 		movt	r0, #:upper16:.LANCHOR0
 113 0088 FFF7FEFF 		bl	chHeapAlloc
 114 008c 0646     		mov	r6, r0
ARM GAS  /tmp/cc67k4gd.s 			page 3


 115              	.LVL10:
 116              		.loc 1 105 0
 117 008e 2846     		mov	r0, r5
 118              	.LVL11:
 119 0090 FFF7FEFF 		bl	chHeapFree
 120              		.loc 1 106 0
 121 0094 2046     		mov	r0, r4
 122 0096 FFF7FEFF 		bl	chHeapFree
 123              		.loc 1 107 0
 124 009a 3046     		mov	r0, r6
 125 009c FFF7FEFF 		bl	chHeapFree
 126              		.loc 1 108 0
 127 00a0 40F20000 		movw	r0, #:lower16:.LANCHOR0
 128 00a4 6946     		mov	r1, sp
 129 00a6 C0F20000 		movt	r0, #:upper16:.LANCHOR0
 130 00aa FFF7FEFF 		bl	chHeapStatus
 131 00ae A0F10100 		sub	r0, r0, #1
 132 00b2 4142     		rsbs	r1, r0, #0
 133 00b4 41EB0001 		adc	r1, r1, r0
 134 00b8 0320     		movs	r0, #3
 135 00ba FFF7FEFF 		bl	_test_assert
 136 00be 0028     		cmp	r0, #0
 137 00c0 B3D1     		bne	.L1
 138              		.loc 1 111 0
 139 00c2 40F20000 		movw	r0, #:lower16:.LANCHOR0
 140 00c6 1021     		movs	r1, #16
 141 00c8 C0F20000 		movt	r0, #:upper16:.LANCHOR0
 142 00cc FFF7FEFF 		bl	chHeapAlloc
 143 00d0 0446     		mov	r4, r0
 144              	.LVL12:
 145              		.loc 1 112 0
 146 00d2 40F20000 		movw	r0, #:lower16:.LANCHOR0
 147              	.LVL13:
 148 00d6 1021     		movs	r1, #16
 149 00d8 C0F20000 		movt	r0, #:upper16:.LANCHOR0
 150 00dc FFF7FEFF 		bl	chHeapAlloc
 151 00e0 0546     		mov	r5, r0
 152              	.LVL14:
 153              		.loc 1 113 0
 154 00e2 40F20000 		movw	r0, #:lower16:.LANCHOR0
 155              	.LVL15:
 156 00e6 1021     		movs	r1, #16
 157 00e8 C0F20000 		movt	r0, #:upper16:.LANCHOR0
 158 00ec FFF7FEFF 		bl	chHeapAlloc
 159              	.LVL16:
 160              		.loc 1 114 0
 161 00f0 FFF7FEFF 		bl	chHeapFree
 162              		.loc 1 115 0
 163 00f4 2846     		mov	r0, r5
 164 00f6 FFF7FEFF 		bl	chHeapFree
 165              		.loc 1 116 0
 166 00fa 2046     		mov	r0, r4
 167 00fc FFF7FEFF 		bl	chHeapFree
 168              		.loc 1 117 0
 169 0100 40F20000 		movw	r0, #:lower16:.LANCHOR0
 170 0104 6946     		mov	r1, sp
 171 0106 C0F20000 		movt	r0, #:upper16:.LANCHOR0
ARM GAS  /tmp/cc67k4gd.s 			page 4


 172 010a FFF7FEFF 		bl	chHeapStatus
 173 010e A0F10103 		sub	r3, r0, #1
 174 0112 5A42     		rsbs	r2, r3, #0
 175 0114 42EB0301 		adc	r1, r2, r3
 176 0118 0420     		movs	r0, #4
 177 011a FFF7FEFF 		bl	_test_assert
 178 011e 0028     		cmp	r0, #0
 179 0120 83D1     		bne	.L1
 180              		.loc 1 120 0
 181 0122 40F20000 		movw	r0, #:lower16:.LANCHOR0
 182 0126 1121     		movs	r1, #17
 183 0128 C0F20000 		movt	r0, #:upper16:.LANCHOR0
 184 012c FFF7FEFF 		bl	chHeapAlloc
 185 0130 0446     		mov	r4, r0
 186              	.LVL17:
 187              		.loc 1 121 0
 188 0132 40F20000 		movw	r0, #:lower16:.LANCHOR0
 189              	.LVL18:
 190 0136 1021     		movs	r1, #16
 191 0138 C0F20000 		movt	r0, #:upper16:.LANCHOR0
 192 013c FFF7FEFF 		bl	chHeapAlloc
 193 0140 0546     		mov	r5, r0
 194              	.LVL19:
 195              		.loc 1 122 0
 196 0142 2046     		mov	r0, r4
 197              	.LVL20:
 198 0144 FFF7FEFF 		bl	chHeapFree
 199              		.loc 1 123 0
 200 0148 40F20000 		movw	r0, #:lower16:.LANCHOR0
 201 014c 6946     		mov	r1, sp
 202 014e C0F20000 		movt	r0, #:upper16:.LANCHOR0
 203 0152 FFF7FEFF 		bl	chHeapStatus
 204 0156 A0F10201 		sub	r1, r0, #2
 205 015a D1F1000C 		rsbs	ip, r1, #0
 206 015e 4CEB0101 		adc	r1, ip, r1
 207 0162 0520     		movs	r0, #5
 208 0164 FFF7FEFF 		bl	_test_assert
 209 0168 0028     		cmp	r0, #0
 210 016a 7FF45EAF 		bne	.L1
 211              		.loc 1 124 0
 212 016e 40F20000 		movw	r0, #:lower16:.LANCHOR0
 213 0172 1021     		movs	r1, #16
 214 0174 C0F20000 		movt	r0, #:upper16:.LANCHOR0
 215 0178 FFF7FEFF 		bl	chHeapAlloc
 216 017c 0446     		mov	r4, r0
 217              	.LVL21:
 218              		.loc 1 127 0
 219 017e 40F20000 		movw	r0, #:lower16:.LANCHOR0
 220              	.LVL22:
 221 0182 6946     		mov	r1, sp
 222 0184 C0F20000 		movt	r0, #:upper16:.LANCHOR0
 223 0188 FFF7FEFF 		bl	chHeapStatus
 224 018c 0128     		cmp	r0, #1
 225 018e 08BF     		it	eq
 226 0190 0146     		moveq	r1, r0
 227 0192 0BD0     		beq	.L3
 228              		.loc 1 127 0 is_stmt 0 discriminator 2
ARM GAS  /tmp/cc67k4gd.s 			page 5


 229 0194 40F20000 		movw	r0, #:lower16:.LANCHOR0
 230 0198 6946     		mov	r1, sp
 231 019a C0F20000 		movt	r0, #:upper16:.LANCHOR0
 232 019e FFF7FEFF 		bl	chHeapStatus
 233 01a2 A0F10202 		sub	r2, r0, #2
 234 01a6 5042     		rsbs	r0, r2, #0
 235 01a8 40EB0201 		adc	r1, r0, r2
 236              	.L3:
 237              		.loc 1 127 0 discriminator 4
 238 01ac 0620     		movs	r0, #6
 239 01ae FFF7FEFF 		bl	_test_assert
 240 01b2 0028     		cmp	r0, #0
 241 01b4 7FF439AF 		bne	.L1
 242              		.loc 1 129 0 is_stmt 1
 243 01b8 2846     		mov	r0, r5
 244 01ba FFF7FEFF 		bl	chHeapFree
 245              		.loc 1 130 0
 246 01be 2046     		mov	r0, r4
 247 01c0 FFF7FEFF 		bl	chHeapFree
 248              		.loc 1 131 0
 249 01c4 40F20000 		movw	r0, #:lower16:.LANCHOR0
 250 01c8 6946     		mov	r1, sp
 251 01ca C0F20000 		movt	r0, #:upper16:.LANCHOR0
 252 01ce FFF7FEFF 		bl	chHeapStatus
 253 01d2 A0F10101 		sub	r1, r0, #1
 254 01d6 4B42     		rsbs	r3, r1, #0
 255 01d8 43EB0101 		adc	r1, r3, r1
 256 01dc 0720     		movs	r0, #7
 257 01de FFF7FEFF 		bl	_test_assert
 258 01e2 0028     		cmp	r0, #0
 259 01e4 7FF421AF 		bne	.L1
 260              		.loc 1 134 0
 261 01e8 40F20000 		movw	r0, #:lower16:.LANCHOR0
 262 01ec 1021     		movs	r1, #16
 263 01ee C0F20000 		movt	r0, #:upper16:.LANCHOR0
 264 01f2 FFF7FEFF 		bl	chHeapAlloc
 265 01f6 0546     		mov	r5, r0
 266              	.LVL23:
 267              		.loc 1 135 0
 268 01f8 40F20000 		movw	r0, #:lower16:.LANCHOR0
 269              	.LVL24:
 270 01fc 1021     		movs	r1, #16
 271 01fe C0F20000 		movt	r0, #:upper16:.LANCHOR0
 272 0202 FFF7FEFF 		bl	chHeapAlloc
 273 0206 0446     		mov	r4, r0
 274              	.LVL25:
 275              		.loc 1 136 0
 276 0208 2846     		mov	r0, r5
 277              	.LVL26:
 278 020a FFF7FEFF 		bl	chHeapFree
 279              		.loc 1 137 0
 280 020e 40F20000 		movw	r0, #:lower16:.LANCHOR0
 281 0212 6946     		mov	r1, sp
 282 0214 C0F20000 		movt	r0, #:upper16:.LANCHOR0
 283 0218 FFF7FEFF 		bl	chHeapStatus
 284 021c A0F10202 		sub	r2, r0, #2
 285 0220 5042     		rsbs	r0, r2, #0
ARM GAS  /tmp/cc67k4gd.s 			page 6


 286 0222 40EB0201 		adc	r1, r0, r2
 287 0226 0820     		movs	r0, #8
 288 0228 FFF7FEFF 		bl	_test_assert
 289 022c 0028     		cmp	r0, #0
 290 022e 7FF4FCAE 		bne	.L1
 291              		.loc 1 138 0
 292 0232 40F20000 		movw	r0, #:lower16:.LANCHOR0
 293 0236 2021     		movs	r1, #32
 294 0238 C0F20000 		movt	r0, #:upper16:.LANCHOR0
 295 023c FFF7FEFF 		bl	chHeapAlloc
 296              	.LVL27:
 297              		.loc 1 139 0
 298 0240 FFF7FEFF 		bl	chHeapFree
 299              		.loc 1 140 0
 300 0244 2046     		mov	r0, r4
 301 0246 FFF7FEFF 		bl	chHeapFree
 302              		.loc 1 141 0
 303 024a 40F20000 		movw	r0, #:lower16:.LANCHOR0
 304 024e 6946     		mov	r1, sp
 305 0250 C0F20000 		movt	r0, #:upper16:.LANCHOR0
 306 0254 FFF7FEFF 		bl	chHeapStatus
 307 0258 A0F10101 		sub	r1, r0, #1
 308 025c 4B42     		rsbs	r3, r1, #0
 309 025e 43EB0101 		adc	r1, r3, r1
 310 0262 0920     		movs	r0, #9
 311 0264 FFF7FEFF 		bl	_test_assert
 312 0268 0028     		cmp	r0, #0
 313 026a 7FF4DEAE 		bne	.L1
 314              		.loc 1 144 0
 315 026e 40F20000 		movw	r0, #:lower16:.LANCHOR0
 316 0272 6946     		mov	r1, sp
 317 0274 C0F20000 		movt	r0, #:upper16:.LANCHOR0
 318 0278 FFF7FEFF 		bl	chHeapStatus
 319              		.loc 1 145 0
 320 027c 40F20000 		movw	r0, #:lower16:.LANCHOR0
 321              	.LVL28:
 322 0280 0099     		ldr	r1, [sp, #0]
 323 0282 C0F20000 		movt	r0, #:upper16:.LANCHOR0
 324 0286 FFF7FEFF 		bl	chHeapAlloc
 325 028a 0446     		mov	r4, r0
 326              	.LVL29:
 327              		.loc 1 146 0
 328 028c 40F20000 		movw	r0, #:lower16:.LANCHOR0
 329              	.LVL30:
 330 0290 6946     		mov	r1, sp
 331 0292 C0F20000 		movt	r0, #:upper16:.LANCHOR0
 332 0296 FFF7FEFF 		bl	chHeapStatus
 333 029a D0F10101 		rsbs	r1, r0, #1
 334 029e 38BF     		it	cc
 335 02a0 0021     		movcc	r1, #0
 336 02a2 0A20     		movs	r0, #10
 337 02a4 FFF7FEFF 		bl	_test_assert
 338 02a8 0028     		cmp	r0, #0
 339 02aa 7FF4BEAE 		bne	.L1
 340              		.loc 1 147 0
 341 02ae 2046     		mov	r0, r4
 342 02b0 FFF7FEFF 		bl	chHeapFree
ARM GAS  /tmp/cc67k4gd.s 			page 7


 343              		.loc 1 149 0
 344 02b4 40F20000 		movw	r0, #:lower16:.LANCHOR0
 345 02b8 6946     		mov	r1, sp
 346 02ba C0F20000 		movt	r0, #:upper16:.LANCHOR0
 347 02be FFF7FEFF 		bl	chHeapStatus
 348 02c2 A0F1010C 		sub	ip, r0, #1
 349 02c6 DCF10000 		rsbs	r0, ip, #0
 350 02ca 40EB0C01 		adc	r1, r0, ip
 351 02ce 0B20     		movs	r0, #11
 352 02d0 FFF7FEFF 		bl	_test_assert
 353 02d4 0028     		cmp	r0, #0
 354 02d6 7FF4A8AE 		bne	.L1
 355              	.LVL31:
 356              		.loc 1 150 0
 357 02da 9DE80A00 		ldmia	sp, {r1, r3}
 358 02de C3EB010E 		rsb	lr, r3, r1
 359 02e2 0C20     		movs	r0, #12
 360 02e4 DEF10002 		rsbs	r2, lr, #0
 361 02e8 42EB0E01 		adc	r1, r2, lr
 362 02ec FFF7FEFF 		bl	_test_assert
 363 02f0 9BE6     		b	.L1
 364              		.cfi_endproc
 365              	.LFE8:
 366              		.size	heap1_execute, .-heap1_execute
 367 02f2 00BFAFF3 		.section	.text.heap1_setup,"ax",%progbits
 367      0080AFF3 
 367      0080AFF3 
 367      0080
 368              		.align	2
 369              		.p2align 4,,15
 370              		.thumb
 371              		.thumb_func
 372              		.type	heap1_setup, %function
 373              	heap1_setup:
 374              	.LFB7:
 375              		.loc 1 75 0
 376              		.cfi_startproc
 377              		@ args = 0, pretend = 0, frame = 0
 378              		@ frame_needed = 0, uses_anonymous_args = 0
 379              		@ link register save eliminated.
 380              		.loc 1 77 0
 381 0000 40F20000 		movw	r0, #:lower16:.LANCHOR0
 382 0004 40F20001 		movw	r1, #:lower16:test
 383 0008 C0F20000 		movt	r0, #:upper16:.LANCHOR0
 384 000c C0F20001 		movt	r1, #:upper16:test
 385 0010 4FF4BE62 		mov	r2, #1520
 386              		.loc 1 78 0
 387              		.loc 1 77 0
 388 0014 FFF7FEBF 		b	chHeapInit
 389              		.cfi_endproc
 390              	.LFE7:
 391              		.size	heap1_setup, .-heap1_setup
 392              		.global	patternheap
 393              		.global	testheap1
 394 0018 AFF30080 		.section	.rodata.patternheap,"a",%progbits
 394      AFF30080 
 395              		.align	2
ARM GAS  /tmp/cc67k4gd.s 			page 8


 396              		.type	patternheap, %object
 397              		.size	patternheap, 8
 398              	patternheap:
 399 0000 00000000 		.word	testheap1
 400 0004 00000000 		.word	0
 401              		.section	.rodata.str1.4,"aMS",%progbits,1
 402              		.align	2
 403              	.LC0:
 404 0000 48656170 		.ascii	"Heap, allocation and fragmentation test\000"
 404      2C20616C 
 404      6C6F6361 
 404      74696F6E 
 404      20616E64 
 405              		.section	.rodata.testheap1,"a",%progbits
 406              		.align	2
 407              		.type	testheap1, %object
 408              		.size	testheap1, 16
 409              	testheap1:
 410 0000 00000000 		.word	.LC0
 411 0004 00000000 		.word	heap1_setup
 412 0008 00000000 		.word	0
 413 000c 00000000 		.word	heap1_execute
 414              		.section	.bss.test_heap,"aw",%nobits
 415              		.align	3
 416              		.set	.LANCHOR0,. + 0
 417              		.type	test_heap, %object
 418              		.size	test_heap, 32
 419              	test_heap:
 420 0000 00000000 		.space	32
 420      00000000 
 420      00000000 
 420      00000000 
 420      00000000 
 421              		.text
 422              	.Letext0:
 423              		.file 2 "/opt/arm/bin/../lib/gcc/arm-none-eabi/4.6.3/include/stddef.h"
 424              		.file 3 "/opt/arm/bin/../lib/gcc/arm-none-eabi/4.6.3/../../../../arm-none-eabi/include/stdint.h"
 425              		.file 4 "/opt/ChibiOS/ChibiOS_2.4.4/os/ports/GCC/ARMCMx/chtypes.h"
 426              		.file 5 "/opt/ChibiOS/ChibiOS_2.4.4/os/kernel/include/chlists.h"
 427              		.file 6 "/opt/ChibiOS/ChibiOS_2.4.4/os/kernel/include/chthreads.h"
 428              		.file 7 "/opt/ChibiOS/ChibiOS_2.4.4/os/ports/GCC/ARMCMx/chcore_v7m.h"
 429              		.file 8 "/opt/ChibiOS/ChibiOS_2.4.4/os/kernel/include/chmtx.h"
 430              		.file 9 "/opt/ChibiOS/ChibiOS_2.4.4/os/kernel/include/chmemcore.h"
 431              		.file 10 "/opt/ChibiOS/ChibiOS_2.4.4/os/kernel/include/chheap.h"
 432              		.file 11 "/opt/ChibiOS/ChibiOS_2.4.4/test/test.h"