ARM GAS  /tmp/ccG6RTZn.s 			page 1


   1              		.syntax unified
   2              		.cpu cortex-m4
   3              		.eabi_attribute 27, 3
   4              		.eabi_attribute 28, 1
   5              		.fpu fpv4-sp-d16
   6              		.eabi_attribute 20, 1
   7              		.eabi_attribute 21, 1
   8              		.eabi_attribute 23, 3
   9              		.eabi_attribute 24, 1
  10              		.eabi_attribute 25, 1
  11              		.eabi_attribute 26, 1
  12              		.eabi_attribute 30, 2
  13              		.eabi_attribute 34, 1
  14              		.eabi_attribute 18, 4
  15              		.thumb
  16              		.file	"test.c"
  17              		.text
  18              	.Ltext0:
  19              		.cfi_sections	.debug_frame
  20              		.section	.text.tmr,"ax",%progbits
  21              		.align	2
  22              		.p2align 4,,15
  23              		.thumb
  24              		.thumb_func
  25              		.type	tmr, %function
  26              	tmr:
  27              	.LFB131:
  28              		.file 1 "/opt/ChibiOS/ChibiOS_2.4.4/test/test.c"
  29              		.loc 1 273 0
  30              		.cfi_startproc
  31              		@ args = 0, pretend = 0, frame = 0
  32              		@ frame_needed = 0, uses_anonymous_args = 0
  33              		@ link register save eliminated.
  34              	.LVL0:
  35              		.loc 1 276 0
  36 0000 40F20003 		movw	r3, #:lower16:.LANCHOR0
  37 0004 C0F20003 		movt	r3, #:upper16:.LANCHOR0
  38 0008 0122     		movs	r2, #1
  39 000a 1A60     		str	r2, [r3, #0]
  40              		.loc 1 277 0
  41 000c 7047     		bx	lr
  42              		.cfi_endproc
  43              	.LFE131:
  44              		.size	tmr, .-tmr
  45 000e 00BF     		.section	.text.print_line,"ax",%progbits
  46              		.align	2
  47              		.p2align 4,,15
  48              		.thumb
  49              		.thumb_func
  50              		.type	print_line, %function
  51              	print_line:
  52              	.LFB134:
  53              		.loc 1 314 0
  54              		.cfi_startproc
  55              		@ args = 0, pretend = 0, frame = 0
  56              		@ frame_needed = 0, uses_anonymous_args = 0
  57              	.LVL1:
ARM GAS  /tmp/ccG6RTZn.s 			page 2


  58 0000 70B5     		push	{r4, r5, r6, lr}
  59              	.LCFI0:
  60              		.cfi_def_cfa_offset 16
  61              		.cfi_offset 14, -4
  62              		.cfi_offset 6, -8
  63              		.cfi_offset 5, -12
  64              		.cfi_offset 4, -16
  65 0002 40F20006 		movw	r6, #:lower16:.LANCHOR1
  66              		.loc 1 314 0
  67 0006 4C25     		movs	r5, #76
  68 0008 C0F20006 		movt	r6, #:upper16:.LANCHOR1
  69              	.LVL2:
  70              	.L3:
  71              		.loc 1 318 0 discriminator 2
  72 000c 3068     		ldr	r0, [r6, #0]
  73 000e 0368     		ldr	r3, [r0, #0]
  74 0010 2D21     		movs	r1, #45
  75 0012 1C69     		ldr	r4, [r3, #16]
  76 0014 4FF0FF32 		mov	r2, #-1
  77 0018 A047     		blx	r4
  78 001a 3068     		ldr	r0, [r6, #0]
  79 001c 0168     		ldr	r1, [r0, #0]
  80 001e 013D     		subs	r5, r5, #1
  81 0020 0B69     		ldr	r3, [r1, #16]
  82 0022 4FF0FF32 		mov	r2, #-1
  83 0026 2D21     		movs	r1, #45
  84 0028 40F20004 		movw	r4, #:lower16:.LANCHOR1
  85 002c 9847     		blx	r3
  86              		.loc 1 317 0 discriminator 2
  87 002e 013D     		subs	r5, r5, #1
  88              		.loc 1 318 0 discriminator 2
  89 0030 C0F20004 		movt	r4, #:upper16:.LANCHOR1
  90              		.loc 1 317 0 discriminator 2
  91 0034 EAD1     		bne	.L3
  92              		.loc 1 319 0
  93 0036 2068     		ldr	r0, [r4, #0]
  94 0038 0368     		ldr	r3, [r0, #0]
  95 003a 0D21     		movs	r1, #13
  96 003c 4FF0FF32 		mov	r2, #-1
  97 0040 1B69     		ldr	r3, [r3, #16]
  98 0042 9847     		blx	r3
  99              		.loc 1 320 0
 100 0044 2068     		ldr	r0, [r4, #0]
 101 0046 0268     		ldr	r2, [r0, #0]
 102 0048 0A21     		movs	r1, #10
 103 004a 1369     		ldr	r3, [r2, #16]
 104 004c 4FF0FF32 		mov	r2, #-1
 105 0050 9847     		blx	r3
 106              		.loc 1 321 0
 107 0052 70BD     		pop	{r4, r5, r6, pc}
 108              		.cfi_endproc
 109              	.LFE134:
 110              		.size	print_line, .-print_line
 111              		.section	.text.test_printn,"ax",%progbits
 112              		.align	2
 113              		.p2align 4,,15
 114              		.global	test_printn
ARM GAS  /tmp/ccG6RTZn.s 			page 3


 115              		.thumb
 116              		.thumb_func
 117              		.type	test_printn, %function
 118              	test_printn:
 119              	.LFB117:
 120              		.loc 1 102 0
 121              		.cfi_startproc
 122              		@ args = 0, pretend = 0, frame = 16
 123              		@ frame_needed = 0, uses_anonymous_args = 0
 124              	.LVL3:
 125 0000 F0B5     		push	{r4, r5, r6, r7, lr}
 126              	.LCFI1:
 127              		.cfi_def_cfa_offset 20
 128              		.cfi_offset 14, -4
 129              		.cfi_offset 7, -8
 130              		.cfi_offset 6, -12
 131              		.cfi_offset 5, -16
 132              		.cfi_offset 4, -20
 133 0002 85B0     		sub	sp, sp, #20
 134              	.LCFI2:
 135              		.cfi_def_cfa_offset 40
 136              		.loc 1 105 0
 137 0004 0028     		cmp	r0, #0
 138 0006 42D0     		beq	.L18
 139              		.loc 1 110 0
 140 0008 4CF6CD42 		movw	r2, #52429
 141              	.LBB24:
 142              	.LBB25:
 143              		.loc 1 108 0
 144 000c 6F46     		mov	r7, sp
 145              	.LBE25:
 146              	.LBE24:
 147              		.loc 1 105 0
 148 000e 6C46     		mov	r4, sp
 149              		.loc 1 110 0
 150 0010 CCF6CC42 		movt	r2, 52428
 151              	.LVL4:
 152              	.L10:
 153 0014 A2FB0013 		umull	r1, r3, r2, r0
 154 0018 DB08     		lsrs	r3, r3, #3
 155 001a 03EB830C 		add	ip, r3, r3, lsl #2
 156 001e A0EB4C01 		sub	r1, r0, ip, lsl #1
 157 0022 3031     		adds	r1, r1, #48
 158 0024 C9B2     		uxtb	r1, r1
 159              		.loc 1 109 0
 160 0026 1846     		mov	r0, r3
 161              		.loc 1 110 0
 162 0028 04F8011B 		strb	r1, [r4], #1
 163              	.LVL5:
 164              		.loc 1 109 0
 165 002c 002B     		cmp	r3, #0
 166 002e F1D1     		bne	.L10
 167              		.loc 1 111 0
 168 0030 BC42     		cmp	r4, r7
 169 0032 2AD9     		bls	.L7
 170              		.loc 1 102 0
 171 0034 013C     		subs	r4, r4, #1
ARM GAS  /tmp/ccG6RTZn.s 			page 4


 172              	.LVL6:
 173 0036 40F20006 		movw	r6, #:lower16:.LANCHOR1
 174 003a E307     		lsls	r3, r4, #31
 175              	.LVL7:
 176 003c C0F20006 		movt	r6, #:upper16:.LANCHOR1
 177 0040 1BD5     		bpl	.L11
 178              		.loc 1 112 0
 179 0042 3068     		ldr	r0, [r6, #0]
 180              	.LVL8:
 181 0044 0268     		ldr	r2, [r0, #0]
 182 0046 1369     		ldr	r3, [r2, #16]
 183 0048 4FF0FF32 		mov	r2, #-1
 184 004c 9847     		blx	r3
 185 004e 3068     		ldr	r0, [r6, #0]
 186              		.loc 1 111 0
 187 0050 14F8011D 		ldrb	r1, [r4, #-1]!	@ zero_extendqisi2
 188              		.loc 1 112 0
 189 0054 0268     		ldr	r2, [r0, #0]
 190 0056 1369     		ldr	r3, [r2, #16]
 191 0058 4FF0FF32 		mov	r2, #-1
 192 005c 9847     		blx	r3
 193              		.loc 1 111 0
 194 005e BC42     		cmp	r4, r7
 195 0060 13D0     		beq	.L7
 196              	.L19:
 197              		.loc 1 112 0
 198 0062 3068     		ldr	r0, [r6, #0]
 199 0064 14F8011C 		ldrb	r1, [r4, #-1]	@ zero_extendqisi2
 200 0068 0268     		ldr	r2, [r0, #0]
 201              		.loc 1 111 0
 202 006a 651E     		subs	r5, r4, #1
 203              		.loc 1 112 0
 204 006c 1369     		ldr	r3, [r2, #16]
 205 006e 4FF0FF32 		mov	r2, #-1
 206 0072 9847     		blx	r3
 207              		.loc 1 111 0
 208 0074 15F8011C 		ldrb	r1, [r5, #-1]	@ zero_extendqisi2
 209 0078 023C     		subs	r4, r4, #2
 210              	.L11:
 211              		.loc 1 112 0
 212 007a 3068     		ldr	r0, [r6, #0]
 213 007c 0268     		ldr	r2, [r0, #0]
 214 007e 1369     		ldr	r3, [r2, #16]
 215 0080 4FF0FF32 		mov	r2, #-1
 216 0084 9847     		blx	r3
 217              		.loc 1 111 0
 218 0086 BC42     		cmp	r4, r7
 219 0088 EBD1     		bne	.L19
 220              	.L7:
 221              		.loc 1 114 0
 222 008a 05B0     		add	sp, sp, #20
 223 008c F0BD     		pop	{r4, r5, r6, r7, pc}
 224              	.LVL9:
 225              	.L18:
 226              	.LBB27:
 227              	.LBB26:
 228              		.loc 1 106 0
ARM GAS  /tmp/ccG6RTZn.s 			page 5


 229 008e 40F20000 		movw	r0, #:lower16:.LANCHOR1
 230              	.LVL10:
 231 0092 C0F20000 		movt	r0, #:upper16:.LANCHOR1
 232 0096 3021     		movs	r1, #48
 233 0098 0068     		ldr	r0, [r0, #0]
 234 009a 0268     		ldr	r2, [r0, #0]
 235 009c 1369     		ldr	r3, [r2, #16]
 236 009e 4FF0FF32 		mov	r2, #-1
 237 00a2 9847     		blx	r3
 238 00a4 F1E7     		b	.L7
 239              	.LBE26:
 240              	.LBE27:
 241              		.cfi_endproc
 242              	.LFE117:
 243              		.size	test_printn, .-test_printn
 244              		.section	.text.test_print,"ax",%progbits
 245              		.align	2
 246              		.p2align 4,,15
 247              		.global	test_print
 248              		.thumb
 249              		.thumb_func
 250              		.type	test_print, %function
 251              	test_print:
 252              	.LFB118:
 253              		.loc 1 121 0
 254              		.cfi_startproc
 255              		@ args = 0, pretend = 0, frame = 0
 256              		@ frame_needed = 0, uses_anonymous_args = 0
 257              	.LVL11:
 258 0000 38B5     		push	{r3, r4, r5, lr}
 259              	.LCFI3:
 260              		.cfi_def_cfa_offset 16
 261              		.cfi_offset 14, -4
 262              		.cfi_offset 5, -8
 263              		.cfi_offset 4, -12
 264              		.cfi_offset 3, -16
 265              		.loc 1 123 0
 266 0002 0178     		ldrb	r1, [r0, #0]	@ zero_extendqisi2
 267 0004 71B1     		cbz	r1, .L20
 268 0006 40F20005 		movw	r5, #:lower16:.LANCHOR1
 269 000a 0446     		mov	r4, r0
 270 000c C0F20005 		movt	r5, #:upper16:.LANCHOR1
 271              	.LVL12:
 272              	.L22:
 273              		.loc 1 124 0
 274 0010 2868     		ldr	r0, [r5, #0]
 275 0012 0268     		ldr	r2, [r0, #0]
 276 0014 1369     		ldr	r3, [r2, #16]
 277 0016 4FF0FF32 		mov	r2, #-1
 278 001a 9847     		blx	r3
 279              		.loc 1 123 0
 280 001c 14F8011F 		ldrb	r1, [r4, #1]!	@ zero_extendqisi2
 281 0020 0029     		cmp	r1, #0
 282 0022 F5D1     		bne	.L22
 283              	.L20:
 284 0024 38BD     		pop	{r3, r4, r5, pc}
 285              		.cfi_endproc
ARM GAS  /tmp/ccG6RTZn.s 			page 6


 286              	.LFE118:
 287              		.size	test_print, .-test_print
 288 0026 00BFAFF3 		.section	.text.test_println,"ax",%progbits
 288      0080AFF3 
 288      0080
 289              		.align	2
 290              		.p2align 4,,15
 291              		.global	test_println
 292              		.thumb
 293              		.thumb_func
 294              		.type	test_println, %function
 295              	test_println:
 296              	.LFB119:
 297              		.loc 1 132 0
 298              		.cfi_startproc
 299              		@ args = 0, pretend = 0, frame = 0
 300              		@ frame_needed = 0, uses_anonymous_args = 0
 301              	.LVL13:
 302 0000 10B5     		push	{r4, lr}
 303              	.LCFI4:
 304              		.cfi_def_cfa_offset 8
 305              		.cfi_offset 14, -4
 306              		.cfi_offset 4, -8
 307              		.loc 1 135 0
 308 0002 40F20004 		movw	r4, #:lower16:.LANCHOR1
 309 0006 C0F20004 		movt	r4, #:upper16:.LANCHOR1
 310              		.loc 1 134 0
 311 000a FFF7FEFF 		bl	test_print
 312              	.LVL14:
 313              		.loc 1 135 0
 314 000e 2068     		ldr	r0, [r4, #0]
 315 0010 0368     		ldr	r3, [r0, #0]
 316 0012 0D21     		movs	r1, #13
 317 0014 4FF0FF32 		mov	r2, #-1
 318 0018 1B69     		ldr	r3, [r3, #16]
 319 001a 9847     		blx	r3
 320              		.loc 1 136 0
 321 001c 2068     		ldr	r0, [r4, #0]
 322 001e 0168     		ldr	r1, [r0, #0]
 323 0020 4FF0FF32 		mov	r2, #-1
 324 0024 0B69     		ldr	r3, [r1, #16]
 325 0026 0A21     		movs	r1, #10
 326 0028 9847     		blx	r3
 327              		.loc 1 137 0
 328 002a 10BD     		pop	{r4, pc}
 329              		.cfi_endproc
 330              	.LFE119:
 331              		.size	test_println, .-test_println
 332 002c AFF30080 		.section	.text.test_emit_token,"ax",%progbits
 333              		.align	2
 334              		.p2align 4,,15
 335              		.global	test_emit_token
 336              		.thumb
 337              		.thumb_func
 338              		.type	test_emit_token, %function
 339              	test_emit_token:
 340              	.LFB122:
ARM GAS  /tmp/ccG6RTZn.s 			page 7


 341              		.loc 1 159 0
 342              		.cfi_startproc
 343              		@ args = 0, pretend = 0, frame = 0
 344              		@ frame_needed = 0, uses_anonymous_args = 0
 345              		@ link register save eliminated.
 346              	.LVL15:
 347              	.LBB28:
 348              		.loc 1 161 0
 349 0000 2023     		movs	r3, #32
 350              	.LVL16:
 351              	@ 161 "/opt/ChibiOS/ChibiOS_2.4.4/test/test.c" 1
 352 0002 83F31188 		msr     BASEPRI, r3
 353              	@ 0 "" 2
 354              	.LVL17:
 355              		.thumb
 356              	.LBE28:
 357              		.loc 1 162 0
 358 0006 40F20002 		movw	r2, #:lower16:.LANCHOR2
 359 000a C0F20002 		movt	r2, #:upper16:.LANCHOR2
 360              	.LBB29:
 361              		.loc 1 163 0
 362 000e 0023     		movs	r3, #0
 363              	.LVL18:
 364              	.LBE29:
 365              		.loc 1 162 0
 366 0010 1168     		ldr	r1, [r2, #0]
 367 0012 01F8010B 		strb	r0, [r1], #1
 368 0016 1160     		str	r1, [r2, #0]
 369              	.LBB30:
 370              		.loc 1 163 0
 371              	@ 163 "/opt/ChibiOS/ChibiOS_2.4.4/test/test.c" 1
 372 0018 83F31188 		msr     BASEPRI, r3
 373              	@ 0 "" 2
 374              	.LVL19:
 375              		.thumb
 376              	.LBE30:
 377              		.loc 1 164 0
 378 001c 7047     		bx	lr
 379              		.cfi_endproc
 380              	.LFE122:
 381              		.size	test_emit_token, .-test_emit_token
 382 001e 00BF     		.section	.text._test_fail,"ax",%progbits
 383              		.align	2
 384              		.p2align 4,,15
 385              		.global	_test_fail
 386              		.thumb
 387              		.thumb_func
 388              		.type	_test_fail, %function
 389              	_test_fail:
 390              	.LFB123:
 391              		.loc 1 169 0
 392              		.cfi_startproc
 393              		@ args = 0, pretend = 0, frame = 0
 394              		@ frame_needed = 0, uses_anonymous_args = 0
 395              		@ link register save eliminated.
 396              	.LVL20:
 397 0000 10B4     		push	{r4}
ARM GAS  /tmp/ccG6RTZn.s 			page 8


 398              	.LCFI5:
 399              		.cfi_def_cfa_offset 4
 400              		.cfi_offset 4, -4
 401              		.loc 1 171 0
 402 0002 40F20001 		movw	r1, #:lower16:.LANCHOR3
 403              		.loc 1 172 0
 404 0006 40F20002 		movw	r2, #:lower16:.LANCHOR4
 405              		.loc 1 173 0
 406 000a 40F20004 		movw	r4, #:lower16:.LANCHOR5
 407              		.loc 1 171 0
 408 000e C0F20001 		movt	r1, #:upper16:.LANCHOR3
 409              		.loc 1 172 0
 410 0012 C0F20002 		movt	r2, #:upper16:.LANCHOR4
 411              		.loc 1 173 0
 412 0016 C0F20004 		movt	r4, #:upper16:.LANCHOR5
 413              		.loc 1 171 0
 414 001a 0123     		movs	r3, #1
 415              		.loc 1 173 0
 416 001c 2060     		str	r0, [r4, #0]
 417              		.loc 1 171 0
 418 001e 0B60     		str	r3, [r1, #0]
 419              		.loc 1 172 0
 420 0020 1360     		str	r3, [r2, #0]
 421              		.loc 1 175 0
 422 0022 1846     		mov	r0, r3
 423              	.LVL21:
 424 0024 10BC     		pop	{r4}
 425 0026 7047     		bx	lr
 426              		.cfi_endproc
 427              	.LFE123:
 428              		.size	_test_fail, .-_test_fail
 429 0028 AFF30080 		.section	.text._test_assert,"ax",%progbits
 429      AFF30080 
 430              		.align	2
 431              		.p2align 4,,15
 432              		.global	_test_assert
 433              		.thumb
 434              		.thumb_func
 435              		.type	_test_assert, %function
 436              	_test_assert:
 437              	.LFB124:
 438              		.loc 1 177 0
 439              		.cfi_startproc
 440              		@ args = 0, pretend = 0, frame = 0
 441              		@ frame_needed = 0, uses_anonymous_args = 0
 442              		@ link register save eliminated.
 443              	.LVL22:
 444 0000 10B4     		push	{r4}
 445              	.LCFI6:
 446              		.cfi_def_cfa_offset 4
 447              		.cfi_offset 4, -4
 448              		.loc 1 179 0
 449 0002 91B9     		cbnz	r1, .L29
 450              	.LVL23:
 451              	.LBB31:
 452              	.LBB32:
 453              		.loc 1 171 0
ARM GAS  /tmp/ccG6RTZn.s 			page 9


 454 0004 40F20004 		movw	r4, #:lower16:.LANCHOR3
 455              		.loc 1 172 0
 456 0008 40F20001 		movw	r1, #:lower16:.LANCHOR4
 457              	.LVL24:
 458              		.loc 1 173 0
 459 000c 40F20002 		movw	r2, #:lower16:.LANCHOR5
 460              		.loc 1 171 0
 461 0010 C0F20004 		movt	r4, #:upper16:.LANCHOR3
 462              		.loc 1 172 0
 463 0014 C0F20001 		movt	r1, #:upper16:.LANCHOR4
 464              		.loc 1 173 0
 465 0018 C0F20002 		movt	r2, #:upper16:.LANCHOR5
 466              		.loc 1 171 0
 467 001c 0123     		movs	r3, #1
 468              		.loc 1 173 0
 469 001e 1060     		str	r0, [r2, #0]
 470              		.loc 1 171 0
 471 0020 2360     		str	r3, [r4, #0]
 472              		.loc 1 172 0
 473 0022 0B60     		str	r3, [r1, #0]
 474              	.LBE32:
 475              	.LBE31:
 476              		.loc 1 180 0
 477 0024 1846     		mov	r0, r3
 478              	.LVL25:
 479              	.L28:
 480              		.loc 1 182 0
 481 0026 10BC     		pop	{r4}
 482 0028 7047     		bx	lr
 483              	.LVL26:
 484              	.L29:
 485              		.loc 1 181 0
 486 002a 0020     		movs	r0, #0
 487              	.LVL27:
 488 002c FBE7     		b	.L28
 489              		.cfi_endproc
 490              	.LFE124:
 491              		.size	_test_assert, .-_test_assert
 492 002e 00BF     		.section	.text._test_assert_sequence,"ax",%progbits
 493              		.align	2
 494              		.p2align 4,,15
 495              		.global	_test_assert_sequence
 496              		.thumb
 497              		.thumb_func
 498              		.type	_test_assert_sequence, %function
 499              	_test_assert_sequence:
 500              	.LFB125:
 501              		.loc 1 184 0
 502              		.cfi_startproc
 503              		@ args = 0, pretend = 0, frame = 0
 504              		@ frame_needed = 0, uses_anonymous_args = 0
 505              		@ link register save eliminated.
 506              	.LVL28:
 507 0000 F0B4     		push	{r4, r5, r6, r7}
 508              	.LCFI7:
 509              		.cfi_def_cfa_offset 16
 510              		.cfi_offset 7, -4
ARM GAS  /tmp/ccG6RTZn.s 			page 10


 511              		.cfi_offset 6, -8
 512              		.cfi_offset 5, -12
 513              		.cfi_offset 4, -16
 514              		.loc 1 193 0
 515 0002 40F20004 		movw	r4, #:lower16:.LANCHOR2
 516 0006 C0F20004 		movt	r4, #:upper16:.LANCHOR2
 517              		.loc 1 185 0
 518 000a 40F20002 		movw	r2, #:lower16:.LANCHOR6
 519              		.loc 1 193 0
 520 000e 2368     		ldr	r3, [r4, #0]
 521              		.loc 1 185 0
 522 0010 C0F20002 		movt	r2, #:upper16:.LANCHOR6
 523 0014 9D1A     		subs	r5, r3, r2
 524 0016 15F0010F 		tst	r5, #1
 525 001a 1646     		mov	r6, r2
 526 001c 17D0     		beq	.L31
 527              	.LVL29:
 528              		.loc 1 186 0
 529 001e 9342     		cmp	r3, r2
 530 0020 17D9     		bls	.L43
 531              		.loc 1 187 0
 532 0022 11F8015B 		ldrb	r5, [r1], #1	@ zero_extendqisi2
 533              	.LVL30:
 534 0026 1778     		ldrb	r7, [r2, #0]	@ zero_extendqisi2
 535              		.loc 1 186 0
 536 0028 561C     		adds	r6, r2, #1
 537              		.loc 1 187 0
 538 002a AF42     		cmp	r7, r5
 539 002c 0FD0     		beq	.L31
 540 002e 15E0     		b	.L45
 541              	.L33:
 542 0030 0D46     		mov	r5, r1
 543 0032 96F800C0 		ldrb	ip, [r6, #0]	@ zero_extendqisi2
 544 0036 15F8017B 		ldrb	r7, [r5], #1	@ zero_extendqisi2
 545              		.loc 1 186 0
 546 003a 0136     		adds	r6, r6, #1
 547              		.loc 1 187 0
 548 003c BC45     		cmp	ip, r7
 549 003e 0DD1     		bne	.L45
 550              	.LVL31:
 551 0040 4F78     		ldrb	r7, [r1, #1]	@ zero_extendqisi2
 552 0042 96F800C0 		ldrb	ip, [r6, #0]	@ zero_extendqisi2
 553 0046 691C     		adds	r1, r5, #1
 554              	.LVL32:
 555              		.loc 1 186 0
 556 0048 0136     		adds	r6, r6, #1
 557              		.loc 1 187 0
 558 004a BC45     		cmp	ip, r7
 559 004c 06D1     		bne	.L45
 560              	.L31:
 561              		.loc 1 186 0 discriminator 1
 562 004e B342     		cmp	r3, r6
 563 0050 EED8     		bhi	.L33
 564              	.L43:
 565              		.loc 1 190 0
 566 0052 0B78     		ldrb	r3, [r1, #0]	@ zero_extendqisi2
 567 0054 13B9     		cbnz	r3, .L45
ARM GAS  /tmp/ccG6RTZn.s 			page 11


 568              	.LBB33:
 569              	.LBB34:
 570              		.loc 1 144 0
 571 0056 2260     		str	r2, [r4, #0]
 572              	.LBE34:
 573              	.LBE33:
 574              		.loc 1 193 0
 575 0058 1846     		mov	r0, r3
 576              	.LVL33:
 577 005a 10E0     		b	.L32
 578              	.LVL34:
 579              	.L45:
 580              	.LBB35:
 581              	.LBB36:
 582              		.loc 1 171 0
 583 005c 40F20004 		movw	r4, #:lower16:.LANCHOR3
 584              		.loc 1 172 0
 585 0060 40F20001 		movw	r1, #:lower16:.LANCHOR4
 586              		.loc 1 173 0
 587 0064 40F20002 		movw	r2, #:lower16:.LANCHOR5
 588              		.loc 1 171 0
 589 0068 C0F20004 		movt	r4, #:upper16:.LANCHOR3
 590              		.loc 1 172 0
 591 006c C0F20001 		movt	r1, #:upper16:.LANCHOR4
 592              		.loc 1 173 0
 593 0070 C0F20002 		movt	r2, #:upper16:.LANCHOR5
 594              		.loc 1 171 0
 595 0074 0123     		movs	r3, #1
 596              		.loc 1 173 0
 597 0076 1060     		str	r0, [r2, #0]
 598              		.loc 1 171 0
 599 0078 2360     		str	r3, [r4, #0]
 600              		.loc 1 172 0
 601 007a 0B60     		str	r3, [r1, #0]
 602              	.LBE36:
 603              	.LBE35:
 604              		.loc 1 191 0
 605 007c 1846     		mov	r0, r3
 606              	.LVL35:
 607              	.L32:
 608              		.loc 1 194 0
 609 007e F0BC     		pop	{r4, r5, r6, r7}
 610 0080 7047     		bx	lr
 611              		.cfi_endproc
 612              	.LFE125:
 613              		.size	_test_assert_sequence, .-_test_assert_sequence
 614 0082 00BFAFF3 		.section	.text._test_assert_time_window,"ax",%progbits
 614      0080AFF3 
 614      0080AFF3 
 614      0080
 615              		.align	2
 616              		.p2align 4,,15
 617              		.global	_test_assert_time_window
 618              		.thumb
 619              		.thumb_func
 620              		.type	_test_assert_time_window, %function
 621              	_test_assert_time_window:
ARM GAS  /tmp/ccG6RTZn.s 			page 12


 622              	.LFB126:
 623              		.loc 1 196 0
 624              		.cfi_startproc
 625              		@ args = 0, pretend = 0, frame = 0
 626              		@ frame_needed = 0, uses_anonymous_args = 0
 627              	.LVL36:
 628 0000 10B5     		push	{r4, lr}
 629              	.LCFI8:
 630              		.cfi_def_cfa_offset 8
 631              		.cfi_offset 14, -4
 632              		.cfi_offset 4, -8
 633              		.loc 1 196 0
 634 0002 0446     		mov	r4, r0
 635              		.loc 1 198 0
 636 0004 0846     		mov	r0, r1
 637              	.LVL37:
 638 0006 1146     		mov	r1, r2
 639              	.LVL38:
 640 0008 FFF7FEFF 		bl	chTimeIsWithin
 641              	.LVL39:
 642              	.LBB37:
 643              	.LBB38:
 644              		.loc 1 179 0
 645 000c 80B9     		cbnz	r0, .L48
 646              	.LVL40:
 647              	.LBB39:
 648              	.LBB40:
 649              		.loc 1 171 0
 650 000e 40F20001 		movw	r1, #:lower16:.LANCHOR3
 651              		.loc 1 172 0
 652 0012 40F20002 		movw	r2, #:lower16:.LANCHOR4
 653              		.loc 1 173 0
 654 0016 40F20003 		movw	r3, #:lower16:.LANCHOR5
 655              		.loc 1 171 0
 656 001a C0F20001 		movt	r1, #:upper16:.LANCHOR3
 657              		.loc 1 172 0
 658 001e C0F20002 		movt	r2, #:upper16:.LANCHOR4
 659              		.loc 1 173 0
 660 0022 C0F20003 		movt	r3, #:upper16:.LANCHOR5
 661              		.loc 1 171 0
 662 0026 0120     		movs	r0, #1
 663              	.LVL41:
 664 0028 0860     		str	r0, [r1, #0]
 665              		.loc 1 172 0
 666 002a 1060     		str	r0, [r2, #0]
 667              		.loc 1 173 0
 668 002c 1C60     		str	r4, [r3, #0]
 669 002e 10BD     		pop	{r4, pc}
 670              	.LVL42:
 671              	.L48:
 672              	.LBE40:
 673              	.LBE39:
 674              		.loc 1 181 0
 675 0030 0020     		movs	r0, #0
 676              	.LVL43:
 677              	.LBE38:
 678              	.LBE37:
ARM GAS  /tmp/ccG6RTZn.s 			page 13


 679              		.loc 1 199 0
 680 0032 10BD     		pop	{r4, pc}
 681              		.cfi_endproc
 682              	.LFE126:
 683              		.size	_test_assert_time_window, .-_test_assert_time_window
 684 0034 AFF30080 		.section	.text.test_terminate_threads,"ax",%progbits
 684      AFF30080 
 684      AFF30080 
 685              		.align	2
 686              		.p2align 4,,15
 687              		.global	test_terminate_threads
 688              		.thumb
 689              		.thumb_func
 690              		.type	test_terminate_threads, %function
 691              	test_terminate_threads:
 692              	.LFB127:
 693              		.loc 1 208 0
 694              		.cfi_startproc
 695              		@ args = 0, pretend = 0, frame = 0
 696              		@ frame_needed = 0, uses_anonymous_args = 0
 697              	.LVL44:
 698 0000 10B5     		push	{r4, lr}
 699              	.LCFI9:
 700              		.cfi_def_cfa_offset 8
 701              		.cfi_offset 14, -4
 702              		.cfi_offset 4, -8
 703              		.loc 1 212 0
 704 0002 40F20004 		movw	r4, #:lower16:.LANCHOR7
 705 0006 C0F20004 		movt	r4, #:upper16:.LANCHOR7
 706 000a 2068     		ldr	r0, [r4, #0]
 707 000c 08B1     		cbz	r0, .L50
 708              		.loc 1 213 0
 709 000e FFF7FEFF 		bl	chThdTerminate
 710              	.L50:
 711              	.LVL45:
 712              		.loc 1 212 0
 713 0012 6068     		ldr	r0, [r4, #4]
 714 0014 08B1     		cbz	r0, .L51
 715              		.loc 1 213 0
 716 0016 FFF7FEFF 		bl	chThdTerminate
 717              	.L51:
 718              	.LVL46:
 719              		.loc 1 212 0
 720 001a A068     		ldr	r0, [r4, #8]
 721 001c 08B1     		cbz	r0, .L52
 722              		.loc 1 213 0
 723 001e FFF7FEFF 		bl	chThdTerminate
 724              	.L52:
 725              	.LVL47:
 726              		.loc 1 212 0
 727 0022 E068     		ldr	r0, [r4, #12]
 728 0024 08B1     		cbz	r0, .L53
 729              		.loc 1 213 0
 730 0026 FFF7FEFF 		bl	chThdTerminate
 731              	.L53:
 732              	.LVL48:
 733              		.loc 1 212 0
ARM GAS  /tmp/ccG6RTZn.s 			page 14


 734 002a 2069     		ldr	r0, [r4, #16]
 735 002c 18B1     		cbz	r0, .L49
 736              		.loc 1 214 0
 737 002e BDE81040 		pop	{r4, lr}
 738              		.loc 1 213 0
 739 0032 FFF7FEBF 		b	chThdTerminate
 740              	.L49:
 741 0036 10BD     		pop	{r4, pc}
 742              		.cfi_endproc
 743              	.LFE127:
 744              		.size	test_terminate_threads, .-test_terminate_threads
 745 0038 AFF30080 		.section	.text.test_wait_threads,"ax",%progbits
 745      AFF30080 
 746              		.align	2
 747              		.p2align 4,,15
 748              		.global	test_wait_threads
 749              		.thumb
 750              		.thumb_func
 751              		.type	test_wait_threads, %function
 752              	test_wait_threads:
 753              	.LFB128:
 754              		.loc 1 219 0
 755              		.cfi_startproc
 756              		@ args = 0, pretend = 0, frame = 0
 757              		@ frame_needed = 0, uses_anonymous_args = 0
 758              	.LVL49:
 759 0000 38B5     		push	{r3, r4, r5, lr}
 760              	.LCFI10:
 761              		.cfi_def_cfa_offset 16
 762              		.cfi_offset 14, -4
 763              		.cfi_offset 5, -8
 764              		.cfi_offset 4, -12
 765              		.cfi_offset 3, -16
 766              		.loc 1 223 0
 767 0002 40F20004 		movw	r4, #:lower16:.LANCHOR7
 768 0006 C0F20004 		movt	r4, #:upper16:.LANCHOR7
 769 000a 2068     		ldr	r0, [r4, #0]
 770 000c 18B1     		cbz	r0, .L56
 771              		.loc 1 224 0
 772 000e FFF7FEFF 		bl	chThdWait
 773              		.loc 1 225 0
 774 0012 0023     		movs	r3, #0
 775 0014 2360     		str	r3, [r4, #0]
 776              	.L56:
 777              	.LVL50:
 778              		.loc 1 223 0
 779 0016 6068     		ldr	r0, [r4, #4]
 780 0018 40F20005 		movw	r5, #:lower16:.LANCHOR7
 781 001c C0F20005 		movt	r5, #:upper16:.LANCHOR7
 782 0020 18B1     		cbz	r0, .L57
 783              		.loc 1 224 0
 784 0022 FFF7FEFF 		bl	chThdWait
 785              		.loc 1 225 0
 786 0026 0020     		movs	r0, #0
 787 0028 6860     		str	r0, [r5, #4]
 788              	.L57:
 789              	.LVL51:
ARM GAS  /tmp/ccG6RTZn.s 			page 15


 790              		.loc 1 223 0
 791 002a A068     		ldr	r0, [r4, #8]
 792 002c 40F20005 		movw	r5, #:lower16:.LANCHOR7
 793 0030 C0F20005 		movt	r5, #:upper16:.LANCHOR7
 794 0034 18B1     		cbz	r0, .L58
 795              		.loc 1 224 0
 796 0036 FFF7FEFF 		bl	chThdWait
 797              		.loc 1 225 0
 798 003a 0021     		movs	r1, #0
 799 003c A960     		str	r1, [r5, #8]
 800              	.L58:
 801              	.LVL52:
 802              		.loc 1 223 0
 803 003e E068     		ldr	r0, [r4, #12]
 804 0040 40F20005 		movw	r5, #:lower16:.LANCHOR7
 805 0044 C0F20005 		movt	r5, #:upper16:.LANCHOR7
 806 0048 18B1     		cbz	r0, .L59
 807              		.loc 1 224 0
 808 004a FFF7FEFF 		bl	chThdWait
 809              		.loc 1 225 0
 810 004e 0022     		movs	r2, #0
 811 0050 EA60     		str	r2, [r5, #12]
 812              	.L59:
 813              	.LVL53:
 814              		.loc 1 223 0
 815 0052 2069     		ldr	r0, [r4, #16]
 816 0054 40F20004 		movw	r4, #:lower16:.LANCHOR7
 817 0058 C0F20004 		movt	r4, #:upper16:.LANCHOR7
 818 005c 18B1     		cbz	r0, .L55
 819              		.loc 1 224 0
 820 005e FFF7FEFF 		bl	chThdWait
 821              		.loc 1 225 0
 822 0062 0023     		movs	r3, #0
 823 0064 2361     		str	r3, [r4, #16]
 824              	.LVL54:
 825              	.L55:
 826 0066 38BD     		pop	{r3, r4, r5, pc}
 827              		.cfi_endproc
 828              	.LFE128:
 829              		.size	test_wait_threads, .-test_wait_threads
 830 0068 AFF30080 		.section	.text.test_cpu_pulse,"ax",%progbits
 830      AFF30080 
 831              		.align	2
 832              		.p2align 4,,15
 833              		.global	test_cpu_pulse
 834              		.thumb
 835              		.thumb_func
 836              		.type	test_cpu_pulse, %function
 837              	test_cpu_pulse:
 838              	.LFB129:
 839              		.loc 1 236 0
 840              		.cfi_startproc
 841              		@ args = 0, pretend = 0, frame = 0
 842              		@ frame_needed = 0, uses_anonymous_args = 0
 843              		@ link register save eliminated.
 844              	.LVL55:
 845              		.loc 1 239 0
ARM GAS  /tmp/ccG6RTZn.s 			page 16


 846 0000 40F20003 		movw	r3, #:lower16:rlist
 847 0004 C0F20003 		movt	r3, #:upper16:rlist
 848              		.loc 1 240 0
 849 0008 4FF47A71 		mov	r1, #1000
 850              		.loc 1 239 0
 851 000c DB69     		ldr	r3, [r3, #28]
 852              		.loc 1 236 0
 853 000e 30B4     		push	{r4, r5}
 854              	.LCFI11:
 855              		.cfi_def_cfa_offset 8
 856              		.cfi_offset 5, -4
 857              		.cfi_offset 4, -8
 858              		.loc 1 240 0
 859 0010 01FB00F5 		mul	r5, r1, r0
 860 0014 44F6D354 		movw	r4, #19923
 861              		.loc 1 239 0
 862 0018 196A     		ldr	r1, [r3, #32]
 863              	.LVL56:
 864              		.loc 1 240 0
 865 001a 6A1E     		subs	r2, r5, #1
 866 001c C1F26204 		movt	r4, 4194
 867 0020 4D1C     		adds	r5, r1, #1
 868 0022 A4FB0220 		umull	r2, r0, r4, r2
 869              	.LVL57:
 870 0026 05EB9010 		add	r0, r5, r0, lsr #6
 871              	.LVL58:
 872              	.L64:
 873              		.loc 1 242 0
 874 002a 1A6A     		ldr	r2, [r3, #32]
 875              	.LVL59:
 876              		.loc 1 247 0
 877 002c 8A42     		cmp	r2, r1
 878 002e 34BF     		ite	cc
 879 0030 0024     		movcc	r4, #0
 880 0032 0124     		movcs	r4, #1
 881 0034 8142     		cmp	r1, r0
 882 0036 08D2     		bcs	.L62
 883              		.loc 1 247 0 is_stmt 0 discriminator 1
 884 0038 8242     		cmp	r2, r0
 885 003a 2CBF     		ite	cs
 886 003c 0022     		movcs	r2, #0
 887 003e 04F00102 		andcc	r2, r4, #1
 888              	.LVL60:
 889              		.loc 1 248 0 is_stmt 1 discriminator 1
 890 0042 002A     		cmp	r2, #0
 891 0044 F1D1     		bne	.L64
 892              	.L66:
 893              		.loc 1 249 0
 894 0046 30BC     		pop	{r4, r5}
 895 0048 7047     		bx	lr
 896              	.LVL61:
 897              	.L62:
 898              		.loc 1 247 0 discriminator 2
 899 004a 8242     		cmp	r2, r0
 900 004c 2CBF     		ite	cs
 901 004e 2246     		movcs	r2, r4
 902 0050 44F00102 		orrcc	r2, r4, #1
ARM GAS  /tmp/ccG6RTZn.s 			page 17


 903              	.LVL62:
 904              		.loc 1 248 0 discriminator 2
 905 0054 002A     		cmp	r2, #0
 906 0056 E8D1     		bne	.L64
 907 0058 F5E7     		b	.L66
 908              		.cfi_endproc
 909              	.LFE129:
 910              		.size	test_cpu_pulse, .-test_cpu_pulse
 911 005a 00BFAFF3 		.section	.text.test_wait_tick,"ax",%progbits
 911      0080
 912              		.align	2
 913              		.p2align 4,,15
 914              		.global	test_wait_tick
 915              		.thumb
 916              		.thumb_func
 917              		.type	test_wait_tick, %function
 918              	test_wait_tick:
 919              	.LFB130:
 920              		.loc 1 257 0
 921              		.cfi_startproc
 922              		@ args = 0, pretend = 0, frame = 0
 923              		@ frame_needed = 0, uses_anonymous_args = 0
 924 0000 08B5     		push	{r3, lr}
 925              	.LCFI12:
 926              		.cfi_def_cfa_offset 8
 927              		.cfi_offset 14, -4
 928              		.cfi_offset 3, -8
 929              		.loc 1 259 0
 930 0002 0120     		movs	r0, #1
 931 0004 FFF7FEFF 		bl	chThdSleep
 932              		.loc 1 260 0
 933 0008 40F20003 		movw	r3, #:lower16:vtlist
 934 000c C0F20003 		movt	r3, #:upper16:vtlist
 935 0010 D868     		ldr	r0, [r3, #12]
 936              		.loc 1 261 0
 937 0012 08BD     		pop	{r3, pc}
 938              		.cfi_endproc
 939              	.LFE130:
 940              		.size	test_wait_tick, .-test_wait_tick
 941 0014 AFF30080 		.section	.text.test_start_timer,"ax",%progbits
 941      AFF30080 
 941      AFF30080 
 942              		.align	2
 943              		.p2align 4,,15
 944              		.global	test_start_timer
 945              		.thumb
 946              		.thumb_func
 947              		.type	test_start_timer, %function
 948              	test_start_timer:
 949              	.LFB132:
 950              		.loc 1 284 0
 951              		.cfi_startproc
 952              		@ args = 0, pretend = 0, frame = 0
 953              		@ frame_needed = 0, uses_anonymous_args = 0
 954              	.LVL63:
 955              		.loc 1 287 0
 956 0000 40F2000C 		movw	ip, #:lower16:.LANCHOR0
ARM GAS  /tmp/ccG6RTZn.s 			page 18


 957 0004 C0F2000C 		movt	ip, #:upper16:.LANCHOR0
 958              		.loc 1 284 0
 959 0008 10B5     		push	{r4, lr}
 960              	.LCFI13:
 961              		.cfi_def_cfa_offset 8
 962              		.cfi_offset 14, -4
 963              		.cfi_offset 4, -8
 964              		.loc 1 287 0
 965 000a 0024     		movs	r4, #0
 966 000c CCF80040 		str	r4, [ip, #0]
 967              	.LVL64:
 968              	.LBB41:
 969              		.loc 1 288 0
 970 0010 2023     		movs	r3, #32
 971              	.LVL65:
 972              	@ 288 "/opt/ChibiOS/ChibiOS_2.4.4/test/test.c" 1
 973 0012 83F31188 		msr     BASEPRI, r3
 974              	@ 0 "" 2
 975              	.LVL66:
 976              		.thumb
 977              	.LBE41:
 978              		.loc 1 286 0
 979 0016 4FF47A72 		mov	r2, #1000
 980 001a 02FB00F1 		mul	r1, r2, r0
 981 001e 44F6D353 		movw	r3, #19923
 982              	.LVL67:
 983 0022 4A1E     		subs	r2, r1, #1
 984 0024 C1F26203 		movt	r3, 4194
 985 0028 A3FB0220 		umull	r2, r0, r3, r2
 986              	.LVL68:
 987 002c 8109     		lsrs	r1, r0, #6
 988              		.loc 1 289 0
 989 002e 40F20002 		movw	r2, #:lower16:tmr
 990 0032 40F20000 		movw	r0, #:lower16:.LANCHOR8
 991 0036 2346     		mov	r3, r4
 992 0038 C0F20000 		movt	r0, #:upper16:.LANCHOR8
 993 003c 0131     		adds	r1, r1, #1
 994 003e C0F20002 		movt	r2, #:upper16:tmr
 995 0042 FFF7FEFF 		bl	chVTSetI
 996              	.LBB42:
 997              		.loc 1 290 0
 998 0046 2346     		mov	r3, r4
 999              	.LVL69:
 1000              	@ 290 "/opt/ChibiOS/ChibiOS_2.4.4/test/test.c" 1
 1001 0048 83F31188 		msr     BASEPRI, r3
 1002              	@ 0 "" 2
 1003              	.LVL70:
 1004              		.thumb
 1005              	.LBE42:
 1006              		.loc 1 291 0
 1007 004c 10BD     		pop	{r4, pc}
 1008              		.cfi_endproc
 1009              	.LFE132:
 1010              		.size	test_start_timer, .-test_start_timer
 1011 004e 00BF     		.section	.text.TestThread,"ax",%progbits
 1012              		.align	2
 1013              		.p2align 4,,15
ARM GAS  /tmp/ccG6RTZn.s 			page 19


 1014              		.global	TestThread
 1015              		.thumb
 1016              		.thumb_func
 1017              		.type	TestThread, %function
 1018              	TestThread:
 1019              	.LFB135:
 1020              		.loc 1 329 0
 1021              		.cfi_startproc
 1022              		@ args = 0, pretend = 0, frame = 16
 1023              		@ frame_needed = 0, uses_anonymous_args = 0
 1024              	.LVL71:
 1025 0000 2DE9F04F 		push	{r4, r5, r6, r7, r8, r9, sl, fp, lr}
 1026              	.LCFI14:
 1027              		.cfi_def_cfa_offset 36
 1028              		.cfi_offset 14, -4
 1029              		.cfi_offset 11, -8
 1030              		.cfi_offset 10, -12
 1031              		.cfi_offset 9, -16
 1032              		.cfi_offset 8, -20
 1033              		.cfi_offset 7, -24
 1034              		.cfi_offset 6, -28
 1035              		.cfi_offset 5, -32
 1036              		.cfi_offset 4, -36
 1037              		.loc 1 332 0
 1038 0004 40F20006 		movw	r6, #:lower16:.LANCHOR1
 1039 0008 C0F20006 		movt	r6, #:upper16:.LANCHOR1
 1040              		.loc 1 329 0
 1041 000c 85B0     		sub	sp, sp, #20
 1042              	.LCFI15:
 1043              		.cfi_def_cfa_offset 56
 1044              		.loc 1 332 0
 1045 000e 3060     		str	r0, [r6, #0]
 1046              		.loc 1 333 0
 1047 0010 40F20000 		movw	r0, #:lower16:.LC0
 1048              	.LVL72:
 1049              		.loc 1 364 0
 1050 0014 40F20005 		movw	r5, #:lower16:.LANCHOR4
 1051              		.loc 1 333 0
 1052 0018 C0F20000 		movt	r0, #:upper16:.LC0
 1053              		.loc 1 364 0
 1054 001c 0395     		str	r5, [sp, #12]
 1055              		.loc 1 333 0
 1056 001e FFF7FEFF 		bl	test_println
 1057              	.LVL73:
 1058              		.loc 1 334 0
 1059 0022 40F20000 		movw	r0, #:lower16:.LC1
 1060 0026 C0F20000 		movt	r0, #:upper16:.LC1
 1061 002a FFF7FEFF 		bl	test_println
 1062              		.loc 1 335 0
 1063 002e 40F20000 		movw	r0, #:lower16:.LC2
 1064 0032 C0F20000 		movt	r0, #:upper16:.LC2
 1065 0036 FFF7FEFF 		bl	test_println
 1066              		.loc 1 336 0
 1067 003a 40F20000 		movw	r0, #:lower16:.LC3
 1068 003e C0F20000 		movt	r0, #:upper16:.LC3
 1069 0042 FFF7FEFF 		bl	test_print
 1070              		.loc 1 337 0
ARM GAS  /tmp/ccG6RTZn.s 			page 20


 1071 0046 40F20000 		movw	r0, #:lower16:.LC4
 1072 004a C0F20000 		movt	r0, #:upper16:.LC4
 1073 004e FFF7FEFF 		bl	test_println
 1074              		.loc 1 338 0
 1075 0052 40F20000 		movw	r0, #:lower16:.LC5
 1076 0056 C0F20000 		movt	r0, #:upper16:.LC5
 1077 005a FFF7FEFF 		bl	test_print
 1078              		.loc 1 339 0
 1079 005e 40F20000 		movw	r0, #:lower16:.LC6
 1080 0062 C0F20000 		movt	r0, #:upper16:.LC6
 1081 0066 FFF7FEFF 		bl	test_println
 1082              		.loc 1 341 0
 1083 006a 40F20000 		movw	r0, #:lower16:.LC7
 1084 006e C0F20000 		movt	r0, #:upper16:.LC7
 1085 0072 FFF7FEFF 		bl	test_print
 1086              		.loc 1 342 0
 1087 0076 40F20000 		movw	r0, #:lower16:.LC8
 1088 007a C0F20000 		movt	r0, #:upper16:.LC8
 1089 007e FFF7FEFF 		bl	test_println
 1090              		.loc 1 344 0
 1091 0082 40F20000 		movw	r0, #:lower16:.LC9
 1092 0086 C0F20000 		movt	r0, #:upper16:.LC9
 1093 008a FFF7FEFF 		bl	test_print
 1094              		.loc 1 345 0
 1095 008e 40F20000 		movw	r0, #:lower16:.LC10
 1096 0092 C0F20000 		movt	r0, #:upper16:.LC10
 1097 0096 FFF7FEFF 		bl	test_println
 1098              		.loc 1 347 0
 1099 009a 40F20000 		movw	r0, #:lower16:.LC11
 1100 009e C0F20000 		movt	r0, #:upper16:.LC11
 1101 00a2 FFF7FEFF 		bl	test_print
 1102              		.loc 1 348 0
 1103 00a6 40F20000 		movw	r0, #:lower16:.LC12
 1104 00aa C0F20000 		movt	r0, #:upper16:.LC12
 1105 00ae FFF7FEFF 		bl	test_println
 1106              		.loc 1 351 0
 1107 00b2 40F20000 		movw	r0, #:lower16:.LC13
 1108 00b6 C0F20000 		movt	r0, #:upper16:.LC13
 1109 00ba FFF7FEFF 		bl	test_print
 1110              		.loc 1 352 0
 1111 00be 40F20000 		movw	r0, #:lower16:.LC14
 1112 00c2 C0F20000 		movt	r0, #:upper16:.LC14
 1113 00c6 FFF7FEFF 		bl	test_println
 1114              		.loc 1 355 0
 1115 00ca 40F20000 		movw	r0, #:lower16:.LC15
 1116 00ce C0F20000 		movt	r0, #:upper16:.LC15
 1117 00d2 FFF7FEFF 		bl	test_print
 1118              		.loc 1 356 0
 1119 00d6 40F20000 		movw	r0, #:lower16:.LC16
 1120 00da C0F20000 		movt	r0, #:upper16:.LC16
 1121 00de FFF7FEFF 		bl	test_println
 1122              		.loc 1 359 0
 1123 00e2 40F20000 		movw	r0, #:lower16:.LC17
 1124 00e6 C0F20000 		movt	r0, #:upper16:.LC17
 1125 00ea FFF7FEFF 		bl	test_print
 1126              		.loc 1 360 0
 1127 00ee 40F20000 		movw	r0, #:lower16:.LC18
ARM GAS  /tmp/ccG6RTZn.s 			page 21


 1128 00f2 C0F20000 		movt	r0, #:upper16:.LC18
 1129 00f6 FFF7FEFF 		bl	test_println
 1130              		.loc 1 364 0
 1131 00fa 039B     		ldr	r3, [sp, #12]
 1132              		.loc 1 362 0
 1133 00fc 40F20000 		movw	r0, #:lower16:.LC0
 1134              		.loc 1 364 0
 1135 0100 C0F20003 		movt	r3, #:upper16:.LANCHOR4
 1136              		.loc 1 362 0
 1137 0104 C0F20000 		movt	r0, #:upper16:.LC0
 1138              		.loc 1 364 0
 1139 0108 0393     		str	r3, [sp, #12]
 1140              		.loc 1 362 0
 1141 010a FFF7FEFF 		bl	test_println
 1142              		.loc 1 364 0
 1143 010e 0398     		ldr	r0, [sp, #12]
 1144 0110 40F20001 		movw	r1, #:lower16:.LANCHOR9
 1145 0114 0022     		movs	r2, #0
 1146 0116 40F20003 		movw	r3, #:lower16:patternthd
 1147              	.LBB43:
 1148              	.LBB44:
 1149              	.LBB45:
 1150              	.LBB46:
 1151              		.loc 1 144 0
 1152 011a 40F20005 		movw	r5, #:lower16:.LANCHOR2
 1153 011e 40F2000B 		movw	fp, #:lower16:.LANCHOR6
 1154              	.LBE46:
 1155              	.LBE45:
 1156              		.loc 1 301 0
 1157 0122 40F2000A 		movw	sl, #:lower16:.LANCHOR3
 1158              		.loc 1 303 0
 1159 0126 40F20007 		movw	r7, #:lower16:.LANCHOR7
 1160              	.LBE44:
 1161              	.LBE43:
 1162              		.loc 1 364 0
 1163 012a C0F20001 		movt	r1, #:upper16:.LANCHOR9
 1164 012e 0260     		str	r2, [r0, #0]
 1165              	.LVL74:
 1166 0130 C0F20003 		movt	r3, #:upper16:patternthd
 1167 0134 0291     		str	r1, [sp, #8]
 1168              		.loc 1 365 0
 1169 0136 0192     		str	r2, [sp, #4]
 1170              	.LBB53:
 1171              	.LBB51:
 1172              	.LBB49:
 1173              	.LBB47:
 1174              		.loc 1 144 0
 1175 0138 C0F20005 		movt	r5, #:upper16:.LANCHOR2
 1176 013c C0F2000B 		movt	fp, #:upper16:.LANCHOR6
 1177              	.LBE47:
 1178              	.LBE49:
 1179              		.loc 1 301 0
 1180 0140 C0F2000A 		movt	sl, #:upper16:.LANCHOR3
 1181              		.loc 1 303 0
 1182 0144 C0F20007 		movt	r7, #:upper16:.LANCHOR7
 1183              	.LVL75:
 1184              	.L70:
ARM GAS  /tmp/ccG6RTZn.s 			page 22


 1185              	.LBE51:
 1186              	.LBE53:
 1187              		.loc 1 366 0 discriminator 1
 1188 0148 0199     		ldr	r1, [sp, #4]
 1189 014a 4A1C     		adds	r2, r1, #1
 1190 014c 0192     		str	r2, [sp, #4]
 1191 014e 9846     		mov	r8, r3
 1192              		.loc 1 329 0 discriminator 1
 1193 0150 4FF00009 		mov	r9, #0
 1194              	.L83:
 1195              	.LVL76:
 1196              		.loc 1 368 0 discriminator 1
 1197 0154 58F8041B 		ldr	r1, [r8], #4
 1198 0158 0029     		cmp	r1, #0
 1199 015a 73D0     		beq	.L84
 1200              	.L77:
 1201              		.loc 1 369 0
 1202 015c FFF7FEFF 		bl	print_line
 1203              		.loc 1 370 0
 1204 0160 40F20000 		movw	r0, #:lower16:.LC19
 1205 0164 C0F20000 		movt	r0, #:upper16:.LC19
 1206 0168 FFF7FEFF 		bl	test_print
 1207              		.loc 1 371 0
 1208 016c 0198     		ldr	r0, [sp, #4]
 1209 016e FFF7FEFF 		bl	test_printn
 1210              		.loc 1 372 0
 1211 0172 40F20000 		movw	r0, #:lower16:.LC20
 1212 0176 C0F20000 		movt	r0, #:upper16:.LC20
 1213              		.loc 1 373 0
 1214 017a 09F10109 		add	r9, r9, #1
 1215              	.LVL77:
 1216              		.loc 1 372 0
 1217 017e FFF7FEFF 		bl	test_print
 1218              		.loc 1 373 0
 1219 0182 4846     		mov	r0, r9
 1220 0184 FFF7FEFF 		bl	test_printn
 1221              		.loc 1 374 0
 1222 0188 40F20000 		movw	r0, #:lower16:.LC21
 1223 018c C0F20000 		movt	r0, #:upper16:.LC21
 1224 0190 FFF7FEFF 		bl	test_print
 1225              		.loc 1 375 0
 1226 0194 58F8044C 		ldr	r4, [r8, #-4]
 1227 0198 2068     		ldr	r0, [r4, #0]
 1228 019a FFF7FEFF 		bl	test_print
 1229              		.loc 1 376 0
 1230 019e 40F20000 		movw	r0, #:lower16:.LC22
 1231 01a2 C0F20000 		movt	r0, #:upper16:.LC22
 1232 01a6 FFF7FEFF 		bl	test_println
 1233              		.loc 1 378 0
 1234 01aa C820     		movs	r0, #200
 1235 01ac FFF7FEFF 		bl	chThdSleep
 1236              		.loc 1 380 0
 1237 01b0 58F8044C 		ldr	r4, [r8, #-4]
 1238              	.LVL78:
 1239              	.LBB54:
 1240              	.LBB52:
 1241              	.LBB50:
ARM GAS  /tmp/ccG6RTZn.s 			page 23


 1242              	.LBB48:
 1243              		.loc 1 144 0
 1244 01b4 C5F800B0 		str	fp, [r5, #0]
 1245              	.LBE48:
 1246              	.LBE50:
 1247              		.loc 1 301 0
 1248 01b8 0022     		movs	r2, #0
 1249              		.loc 1 303 0
 1250 01ba 3A60     		str	r2, [r7, #0]
 1251 01bc 7A60     		str	r2, [r7, #4]
 1252 01be BA60     		str	r2, [r7, #8]
 1253 01c0 FA60     		str	r2, [r7, #12]
 1254 01c2 3A61     		str	r2, [r7, #16]
 1255              		.loc 1 305 0
 1256 01c4 6368     		ldr	r3, [r4, #4]
 1257              		.loc 1 301 0
 1258 01c6 CAF80020 		str	r2, [sl, #0]
 1259              	.LVL79:
 1260              		.loc 1 305 0
 1261 01ca 03B1     		cbz	r3, .L71
 1262              		.loc 1 306 0
 1263 01cc 9847     		blx	r3
 1264              	.LVL80:
 1265              	.L71:
 1266              		.loc 1 307 0
 1267 01ce E168     		ldr	r1, [r4, #12]
 1268 01d0 8847     		blx	r1
 1269              		.loc 1 308 0
 1270 01d2 A368     		ldr	r3, [r4, #8]
 1271 01d4 03B1     		cbz	r3, .L72
 1272              		.loc 1 309 0
 1273 01d6 9847     		blx	r3
 1274              	.L72:
 1275              		.loc 1 311 0
 1276 01d8 FFF7FEFF 		bl	test_wait_threads
 1277              	.LBE52:
 1278              	.LBE54:
 1279              		.loc 1 381 0
 1280 01dc DAF80000 		ldr	r0, [sl, #0]
 1281 01e0 0028     		cmp	r0, #0
 1282 01e2 52D0     		beq	.L73
 1283              		.loc 1 382 0
 1284 01e4 40F20000 		movw	r0, #:lower16:.LC23
 1285 01e8 C0F20000 		movt	r0, #:upper16:.LC23
 1286 01ec FFF7FEFF 		bl	test_print
 1287              		.loc 1 383 0
 1288 01f0 40F2000C 		movw	ip, #:lower16:.LANCHOR5
 1289 01f4 C0F2000C 		movt	ip, #:upper16:.LANCHOR5
 1290 01f8 DCF80000 		ldr	r0, [ip, #0]
 1291 01fc FFF7FEFF 		bl	test_printn
 1292              		.loc 1 384 0
 1293 0200 40F20000 		movw	r0, #:lower16:.LC24
 1294 0204 C0F20000 		movt	r0, #:upper16:.LC24
 1295 0208 FFF7FEFF 		bl	test_print
 1296              	.LVL81:
 1297              	.LBB55:
 1298              	.LBB56:
ARM GAS  /tmp/ccG6RTZn.s 			page 24


 1299              		.loc 1 150 0
 1300 020c 2B68     		ldr	r3, [r5, #0]
 1301 020e 5B45     		cmp	r3, fp
 1302 0210 0ED9     		bls	.L74
 1303 0212 40F20004 		movw	r4, #:lower16:.LANCHOR6
 1304              	.LVL82:
 1305 0216 C0F20004 		movt	r4, #:upper16:.LANCHOR6
 1306              	.LVL83:
 1307              	.L75:
 1308              		.loc 1 151 0
 1309 021a 3068     		ldr	r0, [r6, #0]
 1310 021c 14F8011B 		ldrb	r1, [r4], #1	@ zero_extendqisi2
 1311              	.LVL84:
 1312 0220 0268     		ldr	r2, [r0, #0]
 1313 0222 1369     		ldr	r3, [r2, #16]
 1314 0224 4FF0FF32 		mov	r2, #-1
 1315 0228 9847     		blx	r3
 1316              	.LVL85:
 1317              		.loc 1 150 0
 1318 022a 2A68     		ldr	r2, [r5, #0]
 1319 022c A242     		cmp	r2, r4
 1320 022e F4D8     		bhi	.L75
 1321              	.LVL86:
 1322              	.L74:
 1323              	.LBE56:
 1324              	.LBE55:
 1325              		.loc 1 386 0
 1326 0230 40F20000 		movw	r0, #:lower16:.LC25
 1327 0234 C0F20000 		movt	r0, #:upper16:.LC25
 1328 0238 FFF7FEFF 		bl	test_println
 1329              	.LVL87:
 1330              		.loc 1 368 0
 1331 023c 58F8041B 		ldr	r1, [r8], #4
 1332 0240 0029     		cmp	r1, #0
 1333 0242 8BD1     		bne	.L77
 1334              	.LVL88:
 1335              	.L84:
 1336              		.loc 1 366 0
 1337 0244 0298     		ldr	r0, [sp, #8]
 1338 0246 50F8043F 		ldr	r3, [r0, #4]!
 1339 024a 0290     		str	r0, [sp, #8]
 1340 024c 002B     		cmp	r3, #0
 1341 024e 7FF47BAF 		bne	.L70
 1342              		.loc 1 394 0
 1343 0252 FFF7FEFF 		bl	print_line
 1344              		.loc 1 395 0
 1345 0256 40F20000 		movw	r0, #:lower16:.LC0
 1346 025a C0F20000 		movt	r0, #:upper16:.LC0
 1347 025e FFF7FEFF 		bl	test_println
 1348              		.loc 1 396 0
 1349 0262 40F20000 		movw	r0, #:lower16:.LC27
 1350 0266 C0F20000 		movt	r0, #:upper16:.LC27
 1351 026a FFF7FEFF 		bl	test_print
 1352              		.loc 1 397 0
 1353 026e 0398     		ldr	r0, [sp, #12]
 1354 0270 0368     		ldr	r3, [r0, #0]
 1355 0272 8BB9     		cbnz	r3, .L85
ARM GAS  /tmp/ccG6RTZn.s 			page 25


 1356              		.loc 1 400 0
 1357 0274 40F20000 		movw	r0, #:lower16:.LC29
 1358 0278 C0F20000 		movt	r0, #:upper16:.LC29
 1359 027c FFF7FEFF 		bl	test_println
 1360              	.L81:
 1361              		.loc 1 403 0
 1362 0280 039A     		ldr	r2, [sp, #12]
 1363 0282 1068     		ldr	r0, [r2, #0]
 1364 0284 05B0     		add	sp, sp, #20
 1365 0286 BDE8F08F 		pop	{r4, r5, r6, r7, r8, r9, sl, fp, pc}
 1366              	.LVL89:
 1367              	.L73:
 1368              		.loc 1 389 0
 1369 028a 40F20000 		movw	r0, #:lower16:.LC26
 1370 028e C0F20000 		movt	r0, #:upper16:.LC26
 1371 0292 FFF7FEFF 		bl	test_println
 1372 0296 5DE7     		b	.L83
 1373              	.LVL90:
 1374              	.L85:
 1375              		.loc 1 398 0
 1376 0298 40F20000 		movw	r0, #:lower16:.LC28
 1377 029c C0F20000 		movt	r0, #:upper16:.LC28
 1378 02a0 FFF7FEFF 		bl	test_println
 1379 02a4 ECE7     		b	.L81
 1380              		.cfi_endproc
 1381              	.LFE135:
 1382              		.size	TestThread, .-TestThread
 1383              		.global	test_timer_done
 1384              		.global	wa
 1385              		.global	threads
 1386              		.global	test
 1387 02a6 00BFAFF3 		.section	.bss.test,"aw",%nobits
 1387      0080AFF3 
 1387      0080
 1388              		.align	3
 1389              		.type	test, %object
 1390              		.size	test, 1520
 1391              	test:
 1392 0000 00000000 		.space	1520
 1392      00000000 
 1392      00000000 
 1392      00000000 
 1392      00000000 
 1393              		.section	.bss.failpoint,"aw",%nobits
 1394              		.align	2
 1395              		.set	.LANCHOR5,. + 0
 1396              		.type	failpoint, %object
 1397              		.size	failpoint, 4
 1398              	failpoint:
 1399 0000 00000000 		.space	4
 1400              		.section	.bss.local_fail,"aw",%nobits
 1401              		.align	2
 1402              		.set	.LANCHOR3,. + 0
 1403              		.type	local_fail, %object
 1404              		.size	local_fail, 4
 1405              	local_fail:
 1406 0000 00000000 		.space	4
ARM GAS  /tmp/ccG6RTZn.s 			page 26


 1407              		.section	.bss.test_timer_done,"aw",%nobits
 1408              		.align	2
 1409              		.set	.LANCHOR0,. + 0
 1410              		.type	test_timer_done, %object
 1411              		.size	test_timer_done, 4
 1412              	test_timer_done:
 1413 0000 00000000 		.space	4
 1414              		.section	.rodata.wa,"a",%progbits
 1415              		.align	2
 1416              		.type	wa, %object
 1417              		.size	wa, 20
 1418              	wa:
 1419 0000 00000000 		.word	test
 1420 0004 30010000 		.word	test+304
 1421 0008 60020000 		.word	test+608
 1422 000c 90030000 		.word	test+912
 1423 0010 C0040000 		.word	test+1216
 1424              		.section	.bss.tokp,"aw",%nobits
 1425              		.align	2
 1426              		.set	.LANCHOR2,. + 0
 1427              		.type	tokp, %object
 1428              		.size	tokp, 4
 1429              	tokp:
 1430 0000 00000000 		.space	4
 1431              		.section	.bss.global_fail,"aw",%nobits
 1432              		.align	2
 1433              		.set	.LANCHOR4,. + 0
 1434              		.type	global_fail, %object
 1435              		.size	global_fail, 4
 1436              	global_fail:
 1437 0000 00000000 		.space	4
 1438              		.section	.rodata.str1.4,"aMS",%progbits,1
 1439              		.align	2
 1440              	.LC0:
 1441 0000 00       		.ascii	"\000"
 1442 0001 000000   		.space	3
 1443              	.LC1:
 1444 0004 2A2A2A20 		.ascii	"*** ChibiOS/RT test suite\000"
 1444      43686962 
 1444      694F532F 
 1444      52542074 
 1444      65737420 
 1445 001e 0000     		.space	2
 1446              	.LC2:
 1447 0020 2A2A2A00 		.ascii	"***\000"
 1448              	.LC3:
 1449 0024 2A2A2A20 		.ascii	"*** Kernel:       \000"
 1449      4B65726E 
 1449      656C3A20 
 1449      20202020 
 1449      202000
 1450 0037 00       		.space	1
 1451              	.LC4:
 1452 0038 322E342E 		.ascii	"2.4.4\000"
 1452      3400
 1453 003e 0000     		.space	2
 1454              	.LC5:
ARM GAS  /tmp/ccG6RTZn.s 			page 27


 1455 0040 2A2A2A20 		.ascii	"*** Compiled:     \000"
 1455      436F6D70 
 1455      696C6564 
 1455      3A202020 
 1455      202000
 1456 0053 00       		.space	1
 1457              	.LC6:
 1458 0054 4F637420 		.ascii	"Oct 25 2013 - 16:25:12\000"
 1458      32352032 
 1458      30313320 
 1458      2D203136 
 1458      3A32353A 
 1459 006b 00       		.space	1
 1460              	.LC7:
 1461 006c 2A2A2A20 		.ascii	"*** Compiler:     \000"
 1461      436F6D70 
 1461      696C6572 
 1461      3A202020 
 1461      202000
 1462 007f 00       		.space	1
 1463              	.LC8:
 1464 0080 47434320 		.ascii	"GCC 4.6.3\000"
 1464      342E362E 
 1464      3300
 1465 008a 0000     		.space	2
 1466              	.LC9:
 1467 008c 2A2A2A20 		.ascii	"*** Architecture: \000"
 1467      41726368 
 1467      69746563 
 1467      74757265 
 1467      3A2000
 1468 009f 00       		.space	1
 1469              	.LC10:
 1470 00a0 41524D76 		.ascii	"ARMv7-ME\000"
 1470      372D4D45 
 1470      00
 1471 00a9 000000   		.space	3
 1472              	.LC11:
 1473 00ac 2A2A2A20 		.ascii	"*** Core Variant: \000"
 1473      436F7265 
 1473      20566172 
 1473      69616E74 
 1473      3A2000
 1474 00bf 00       		.space	1
 1475              	.LC12:
 1476 00c0 436F7274 		.ascii	"Cortex-M4\000"
 1476      65782D4D 
 1476      3400
 1477 00ca 0000     		.space	2
 1478              	.LC13:
 1479 00cc 2A2A2A20 		.ascii	"*** Port Info:    \000"
 1479      506F7274 
 1479      20496E66 
 1479      6F3A2020 
 1479      202000
 1480 00df 00       		.space	1
 1481              	.LC14:
ARM GAS  /tmp/ccG6RTZn.s 			page 28


 1482 00e0 41647661 		.ascii	"Advanced kernel mode\000"
 1482      6E636564 
 1482      206B6572 
 1482      6E656C20 
 1482      6D6F6465 
 1483 00f5 000000   		.space	3
 1484              	.LC15:
 1485 00f8 2A2A2A20 		.ascii	"*** Platform:     \000"
 1485      506C6174 
 1485      666F726D 
 1485      3A202020 
 1485      202000
 1486 010b 00       		.space	1
 1487              	.LC16:
 1488 010c 53544D33 		.ascii	"STM32F4 High Performance & DSP\000"
 1488      32463420 
 1488      48696768 
 1488      20506572 
 1488      666F726D 
 1489 012b 00       		.space	1
 1490              	.LC17:
 1491 012c 2A2A2A20 		.ascii	"*** Test Board:   \000"
 1491      54657374 
 1491      20426F61 
 1491      72643A20 
 1491      202000
 1492 013f 00       		.space	1
 1493              	.LC18:
 1494 0140 53542053 		.ascii	"ST STM32F4-Discovery\000"
 1494      544D3332 
 1494      46342D44 
 1494      6973636F 
 1494      76657279 
 1495 0155 000000   		.space	3
 1496              	.LC19:
 1497 0158 2D2D2D20 		.ascii	"--- Test Case \000"
 1497      54657374 
 1497      20436173 
 1497      652000
 1498 0167 00       		.space	1
 1499              	.LC20:
 1500 0168 2E00     		.ascii	".\000"
 1501 016a 0000     		.space	2
 1502              	.LC21:
 1503 016c 202800   		.ascii	" (\000"
 1504 016f 00       		.space	1
 1505              	.LC22:
 1506 0170 2900     		.ascii	")\000"
 1507 0172 0000     		.space	2
 1508              	.LC23:
 1509 0174 2D2D2D20 		.ascii	"--- Result: FAILURE (#\000"
 1509      52657375 
 1509      6C743A20 
 1509      4641494C 
 1509      55524520 
 1510 018b 00       		.space	1
 1511              	.LC24:
ARM GAS  /tmp/ccG6RTZn.s 			page 29


 1512 018c 205B00   		.ascii	" [\000"
 1513 018f 00       		.space	1
 1514              	.LC25:
 1515 0190 5D2900   		.ascii	"])\000"
 1516 0193 00       		.space	1
 1517              	.LC26:
 1518 0194 2D2D2D20 		.ascii	"--- Result: SUCCESS\000"
 1518      52657375 
 1518      6C743A20 
 1518      53554343 
 1518      45535300 
 1519              	.LC27:
 1520 01a8 46696E61 		.ascii	"Final result: \000"
 1520      6C207265 
 1520      73756C74 
 1520      3A2000
 1521 01b7 00       		.space	1
 1522              	.LC28:
 1523 01b8 4641494C 		.ascii	"FAILURE\000"
 1523      55524500 
 1524              	.LC29:
 1525 01c0 53554343 		.ascii	"SUCCESS\000"
 1525      45535300 
 1526              		.section	.bss.vt,"aw",%nobits
 1527              		.align	2
 1528              		.set	.LANCHOR8,. + 0
 1529              		.type	vt, %object
 1530              		.size	vt, 20
 1531              	vt:
 1532 0000 00000000 		.space	20
 1532      00000000 
 1532      00000000 
 1532      00000000 
 1532      00000000 
 1533              		.section	.bss.threads,"aw",%nobits
 1534              		.align	2
 1535              		.set	.LANCHOR7,. + 0
 1536              		.type	threads, %object
 1537              		.size	threads, 20
 1538              	threads:
 1539 0000 00000000 		.space	20
 1539      00000000 
 1539      00000000 
 1539      00000000 
 1539      00000000 
 1540              		.section	.rodata.patterns,"a",%progbits
 1541              		.align	2
 1542              		.set	.LANCHOR9,. + 0
 1543              		.type	patterns, %object
 1544              		.size	patterns, 48
 1545              	patterns:
 1546 0000 00000000 		.word	patternthd
 1547 0004 00000000 		.word	patternsem
 1548 0008 00000000 		.word	patternmtx
 1549 000c 00000000 		.word	patternmsg
 1550 0010 00000000 		.word	patternmbox
 1551 0014 00000000 		.word	patternevt
ARM GAS  /tmp/ccG6RTZn.s 			page 30


 1552 0018 00000000 		.word	patternheap
 1553 001c 00000000 		.word	patternpools
 1554 0020 00000000 		.word	patterndyn
 1555 0024 00000000 		.word	patternqueues
 1556 0028 00000000 		.word	patternbmk
 1557 002c 00000000 		.word	0
 1558              		.section	.bss.chp,"aw",%nobits
 1559              		.align	2
 1560              		.set	.LANCHOR1,. + 0
 1561              		.type	chp, %object
 1562              		.size	chp, 4
 1563              	chp:
 1564 0000 00000000 		.space	4
 1565              		.section	.bss.tokens_buffer,"aw",%nobits
 1566              		.align	2
 1567              		.set	.LANCHOR6,. + 0
 1568              		.type	tokens_buffer, %object
 1569              		.size	tokens_buffer, 16
 1570              	tokens_buffer:
 1571 0000 00000000 		.space	16
 1571      00000000 
 1571      00000000 
 1571      00000000 
 1572              		.text
 1573              	.Letext0:
 1574              		.file 2 "/opt/arm/bin/../lib/gcc/arm-none-eabi/4.6.3/include/stddef.h"
 1575              		.file 3 "/opt/arm/bin/../lib/gcc/arm-none-eabi/4.6.3/../../../../arm-none-eabi/include/stdint.h"
 1576              		.file 4 "/opt/ChibiOS/ChibiOS_2.4.4/os/ports/GCC/ARMCMx/chtypes.h"
 1577              		.file 5 "/opt/ChibiOS/ChibiOS_2.4.4/os/kernel/include/chlists.h"
 1578              		.file 6 "/opt/ChibiOS/ChibiOS_2.4.4/os/kernel/include/chthreads.h"
 1579              		.file 7 "/opt/ChibiOS/ChibiOS_2.4.4/os/ports/GCC/ARMCMx/chcore_v7m.h"
 1580              		.file 8 "/opt/ChibiOS/ChibiOS_2.4.4/os/kernel/include/chvt.h"
 1581              		.file 9 "/opt/ChibiOS/ChibiOS_2.4.4/os/kernel/include/chschd.h"
 1582              		.file 10 "/opt/ChibiOS/ChibiOS_2.4.4/os/kernel/include/chmtx.h"
 1583              		.file 11 "/opt/ChibiOS/ChibiOS_2.4.4/os/kernel/include/chioch.h"
 1584              		.file 12 "/opt/ChibiOS/ChibiOS_2.4.4/test/test.h"
 1585              		.file 13 "/opt/ChibiOS/ChibiOS_2.4.4/os/ports/common/ARMCMx/CMSIS/include/core_cm4.h"
 1586              		.file 14 "/opt/ChibiOS/ChibiOS_2.4.4/test/testthd.h"
 1587              		.file 15 "/opt/ChibiOS/ChibiOS_2.4.4/test/testsem.h"
 1588              		.file 16 "/opt/ChibiOS/ChibiOS_2.4.4/test/testmtx.h"
 1589              		.file 17 "/opt/ChibiOS/ChibiOS_2.4.4/test/testmsg.h"
 1590              		.file 18 "/opt/ChibiOS/ChibiOS_2.4.4/test/testmbox.h"
 1591              		.file 19 "/opt/ChibiOS/ChibiOS_2.4.4/test/testevt.h"
 1592              		.file 20 "/opt/ChibiOS/ChibiOS_2.4.4/test/testheap.h"
 1593              		.file 21 "/opt/ChibiOS/ChibiOS_2.4.4/test/testpools.h"
 1594              		.file 22 "/opt/ChibiOS/ChibiOS_2.4.4/test/testdyn.h"
 1595              		.file 23 "/opt/ChibiOS/ChibiOS_2.4.4/test/testqueues.h"
 1596              		.file 24 "/opt/ChibiOS/ChibiOS_2.4.4/test/testbmk.h"