ARM GAS  /tmp/cciySa64.s 			page 1


   1              		.syntax unified
   2              		.cpu cortex-m4
   3              		.eabi_attribute 27, 3
   4              		.eabi_attribute 28, 1
   5              		.fpu fpv4-sp-d16
   6              		.eabi_attribute 20, 1
   7              		.eabi_attribute 21, 1
   8              		.eabi_attribute 23, 3
   9              		.eabi_attribute 24, 1
  10              		.eabi_attribute 25, 1
  11              		.eabi_attribute 26, 1
  12              		.eabi_attribute 30, 2
  13              		.eabi_attribute 34, 1
  14              		.eabi_attribute 18, 4
  15              		.thumb
  16              		.file	"testevt.c"
  17              		.text
  18              	.Ltext0:
  19              		.cfi_sections	.debug_frame
  20              		.section	.text.evt3_setup,"ax",%progbits
  21              		.align	2
  22              		.p2align 4,,15
  23              		.thumb
  24              		.thumb_func
  25              		.type	evt3_setup, %function
  26              	evt3_setup:
  27              	.LFB16:
  28              		.file 1 "/opt/ChibiOS/ChibiOS_2.4.4/test/testevt.c"
  29              		.loc 1 258 0
  30              		.cfi_startproc
  31              		@ args = 0, pretend = 0, frame = 0
  32              		@ frame_needed = 0, uses_anonymous_args = 0
  33              		@ link register save eliminated.
  34              		.loc 1 260 0
  35 0000 4FF0FF30 		mov	r0, #-1
  36              		.loc 1 261 0
  37              		.loc 1 260 0
  38 0004 FFF7FEBF 		b	chEvtClearFlags
  39              		.cfi_endproc
  40              	.LFE16:
  41              		.size	evt3_setup, .-evt3_setup
  42 0008 AFF30080 		.section	.text.evt2_setup,"ax",%progbits
  42      AFF30080 
  43              		.align	2
  44              		.p2align 4,,15
  45              		.thumb
  46              		.thumb_func
  47              		.type	evt2_setup, %function
  48              	evt2_setup:
  49              	.LFB12:
  50              		.loc 1 139 0
  51              		.cfi_startproc
  52              		@ args = 0, pretend = 0, frame = 0
  53              		@ frame_needed = 0, uses_anonymous_args = 0
  54              		@ link register save eliminated.
  55              		.loc 1 141 0
  56 0000 4FF0FF30 		mov	r0, #-1
ARM GAS  /tmp/cciySa64.s 			page 2


  57              		.loc 1 142 0
  58              		.loc 1 141 0
  59 0004 FFF7FEBF 		b	chEvtClearFlags
  60              		.cfi_endproc
  61              	.LFE12:
  62              		.size	evt2_setup, .-evt2_setup
  63 0008 AFF30080 		.section	.text.evt1_setup,"ax",%progbits
  63      AFF30080 
  64              		.align	2
  65              		.p2align 4,,15
  66              		.thumb
  67              		.thumb_func
  68              		.type	evt1_setup, %function
  69              	evt1_setup:
  70              	.LFB7:
  71              		.loc 1 86 0
  72              		.cfi_startproc
  73              		@ args = 0, pretend = 0, frame = 0
  74              		@ frame_needed = 0, uses_anonymous_args = 0
  75              		@ link register save eliminated.
  76              		.loc 1 88 0
  77 0000 4FF0FF30 		mov	r0, #-1
  78              		.loc 1 89 0
  79              		.loc 1 88 0
  80 0004 FFF7FEBF 		b	chEvtClearFlags
  81              		.cfi_endproc
  82              	.LFE7:
  83              		.size	evt1_setup, .-evt1_setup
  84 0008 AFF30080 		.section	.text.thread2,"ax",%progbits
  84      AFF30080 
  85              		.align	2
  86              		.p2align 4,,15
  87              		.thumb
  88              		.thumb_func
  89              		.type	thread2, %function
  90              	thread2:
  91              	.LFB14:
  92              		.loc 1 151 0
  93              		.cfi_startproc
  94              		@ args = 0, pretend = 0, frame = 0
  95              		@ frame_needed = 0, uses_anonymous_args = 0
  96              	.LVL0:
  97              		.loc 1 154 0
  98 0000 40F20000 		movw	r0, #:lower16:.LANCHOR0
  99              	.LVL1:
 100              		.loc 1 151 0
 101 0004 08B5     		push	{r3, lr}
 102              	.LCFI0:
 103              		.cfi_def_cfa_offset 8
 104              		.cfi_offset 14, -4
 105              		.cfi_offset 3, -8
 106              		.loc 1 154 0
 107 0006 0021     		movs	r1, #0
 108 0008 C0F20000 		movt	r0, #:upper16:.LANCHOR0
 109 000c FFF7FEFF 		bl	chEvtBroadcastFlags
 110              		.loc 1 155 0
 111 0010 3220     		movs	r0, #50
ARM GAS  /tmp/cciySa64.s 			page 3


 112 0012 FFF7FEFF 		bl	chThdSleep
 113              		.loc 1 156 0
 114 0016 40F20000 		movw	r0, #:lower16:.LANCHOR1
 115 001a C0F20000 		movt	r0, #:upper16:.LANCHOR1
 116 001e 0021     		movs	r1, #0
 117 0020 FFF7FEFF 		bl	chEvtBroadcastFlags
 118              		.loc 1 158 0
 119 0024 0020     		movs	r0, #0
 120 0026 08BD     		pop	{r3, pc}
 121              		.cfi_endproc
 122              	.LFE14:
 123              		.size	thread2, .-thread2
 124 0028 AFF30080 		.section	.text.thread1,"ax",%progbits
 124      AFF30080 
 125              		.align	2
 126              		.p2align 4,,15
 127              		.thumb
 128              		.thumb_func
 129              		.type	thread1, %function
 130              	thread1:
 131              	.LFB13:
 132              		.loc 1 144 0
 133              		.cfi_startproc
 134              		@ args = 0, pretend = 0, frame = 0
 135              		@ frame_needed = 0, uses_anonymous_args = 0
 136              	.LVL2:
 137 0000 10B5     		push	{r4, lr}
 138              	.LCFI1:
 139              		.cfi_def_cfa_offset 8
 140              		.cfi_offset 14, -4
 141              		.cfi_offset 4, -8
 142              		.loc 1 144 0
 143 0002 0446     		mov	r4, r0
 144              		.loc 1 146 0
 145 0004 3220     		movs	r0, #50
 146              	.LVL3:
 147 0006 FFF7FEFF 		bl	chThdSleep
 148              		.loc 1 147 0
 149 000a 2046     		mov	r0, r4
 150 000c 0121     		movs	r1, #1
 151 000e FFF7FEFF 		bl	chEvtSignalFlags
 152              		.loc 1 149 0
 153 0012 0020     		movs	r0, #0
 154 0014 10BD     		pop	{r4, pc}
 155              		.cfi_endproc
 156              	.LFE13:
 157              		.size	thread1, .-thread1
 158 0016 00BFAFF3 		.section	.text.evt1_execute,"ax",%progbits
 158      0080AFF3 
 158      0080
 159              		.align	2
 160              		.p2align 4,,15
 161              		.thumb
 162              		.thumb_func
 163              		.type	evt1_execute, %function
 164              	evt1_execute:
 165              	.LFB11:
ARM GAS  /tmp/cciySa64.s 			page 4


 166              		.loc 1 96 0
 167              		.cfi_startproc
 168              		@ args = 0, pretend = 0, frame = 24
 169              		@ frame_needed = 0, uses_anonymous_args = 0
 170 0000 10B5     		push	{r4, lr}
 171              	.LCFI2:
 172              		.cfi_def_cfa_offset 8
 173              		.cfi_offset 14, -4
 174              		.cfi_offset 4, -8
 175              		.loc 1 102 0
 176 0002 40F20004 		movw	r4, #:lower16:.LANCHOR0
 177              		.loc 1 96 0
 178 0006 86B0     		sub	sp, sp, #24
 179              	.LCFI3:
 180              		.cfi_def_cfa_offset 32
 181              		.loc 1 102 0
 182 0008 C0F20004 		movt	r4, #:upper16:.LANCHOR0
 183              		.loc 1 103 0
 184 000c 0122     		movs	r2, #1
 185 000e 2046     		mov	r0, r4
 186 0010 6946     		mov	r1, sp
 187              		.loc 1 102 0
 188 0012 2460     		str	r4, [r4, #0]
 189              		.loc 1 103 0
 190 0014 FFF7FEFF 		bl	chEvtRegisterMask
 191              		.loc 1 104 0
 192 0018 2046     		mov	r0, r4
 193 001a 03A9     		add	r1, sp, #12
 194 001c 0222     		movs	r2, #2
 195 001e FFF7FEFF 		bl	chEvtRegisterMask
 196              		.loc 1 105 0
 197 0022 2168     		ldr	r1, [r4, #0]
 198 0024 0120     		movs	r0, #1
 199 0026 091B     		subs	r1, r1, r4
 200 0028 18BF     		it	ne
 201 002a 0121     		movne	r1, #1
 202 002c FFF7FEFF 		bl	_test_assert
 203 0030 08B1     		cbz	r0, .L9
 204              	.L6:
 205              		.loc 1 116 0
 206 0032 06B0     		add	sp, sp, #24
 207 0034 10BD     		pop	{r4, pc}
 208              	.L9:
 209              		.loc 1 106 0
 210 0036 2046     		mov	r0, r4
 211 0038 6946     		mov	r1, sp
 212 003a FFF7FEFF 		bl	chEvtUnregister
 213              		.loc 1 107 0
 214 003e 2268     		ldr	r2, [r4, #0]
 215 0040 0220     		movs	r0, #2
 216 0042 111B     		subs	r1, r2, r4
 217 0044 18BF     		it	ne
 218 0046 0121     		movne	r1, #1
 219 0048 FFF7FEFF 		bl	_test_assert
 220 004c 0028     		cmp	r0, #0
 221 004e F0D1     		bne	.L6
 222              		.loc 1 108 0
ARM GAS  /tmp/cciySa64.s 			page 5


 223 0050 2046     		mov	r0, r4
 224 0052 03A9     		add	r1, sp, #12
 225 0054 FFF7FEFF 		bl	chEvtUnregister
 226              		.loc 1 109 0
 227 0058 2168     		ldr	r1, [r4, #0]
 228 005a 0B1B     		subs	r3, r1, r4
 229 005c 0320     		movs	r0, #3
 230 005e D3F1000C 		rsbs	ip, r3, #0
 231 0062 4CEB0301 		adc	r1, ip, r3
 232 0066 FFF7FEFF 		bl	_test_assert
 233 006a 0028     		cmp	r0, #0
 234 006c E1D1     		bne	.L6
 235              		.loc 1 114 0
 236 006e 40F20000 		movw	r0, #:lower16:.LANCHOR2
 237 0072 0721     		movs	r1, #7
 238 0074 C0F20000 		movt	r0, #:upper16:.LANCHOR2
 239 0078 FFF7FEFF 		bl	chEvtDispatch
 240              		.loc 1 115 0
 241 007c 40F20001 		movw	r1, #:lower16:.LC0
 242 0080 0420     		movs	r0, #4
 243 0082 C0F20001 		movt	r1, #:upper16:.LC0
 244 0086 FFF7FEFF 		bl	_test_assert_sequence
 245 008a D2E7     		b	.L6
 246              		.cfi_endproc
 247              	.LFE11:
 248              		.size	evt1_execute, .-evt1_execute
 249 008c AFF30080 		.section	.text.h3,"ax",%progbits
 250              		.align	2
 251              		.p2align 4,,15
 252              		.thumb
 253              		.thumb_func
 254              		.type	h3, %function
 255              	h3:
 256              	.LFB10:
 257              		.loc 1 93 0
 258              		.cfi_startproc
 259              		@ args = 0, pretend = 0, frame = 0
 260              		@ frame_needed = 0, uses_anonymous_args = 0
 261              		@ link register save eliminated.
 262              	.LVL4:
 263              		.loc 1 93 0
 264 0000 4320     		movs	r0, #67
 265              	.LVL5:
 266 0002 FFF7FEBF 		b	test_emit_token
 267              		.cfi_endproc
 268              	.LFE10:
 269              		.size	h3, .-h3
 270 0006 00BFAFF3 		.section	.text.h2,"ax",%progbits
 270      0080AFF3 
 270      0080
 271              		.align	2
 272              		.p2align 4,,15
 273              		.thumb
 274              		.thumb_func
 275              		.type	h2, %function
 276              	h2:
 277              	.LFB9:
ARM GAS  /tmp/cciySa64.s 			page 6


 278              		.loc 1 92 0
 279              		.cfi_startproc
 280              		@ args = 0, pretend = 0, frame = 0
 281              		@ frame_needed = 0, uses_anonymous_args = 0
 282              		@ link register save eliminated.
 283              	.LVL6:
 284              		.loc 1 92 0
 285 0000 4220     		movs	r0, #66
 286              	.LVL7:
 287 0002 FFF7FEBF 		b	test_emit_token
 288              		.cfi_endproc
 289              	.LFE9:
 290              		.size	h2, .-h2
 291 0006 00BFAFF3 		.section	.text.h1,"ax",%progbits
 291      0080AFF3 
 291      0080
 292              		.align	2
 293              		.p2align 4,,15
 294              		.thumb
 295              		.thumb_func
 296              		.type	h1, %function
 297              	h1:
 298              	.LFB8:
 299              		.loc 1 91 0
 300              		.cfi_startproc
 301              		@ args = 0, pretend = 0, frame = 0
 302              		@ frame_needed = 0, uses_anonymous_args = 0
 303              		@ link register save eliminated.
 304              	.LVL8:
 305              		.loc 1 91 0
 306 0000 4120     		movs	r0, #65
 307              	.LVL9:
 308 0002 FFF7FEBF 		b	test_emit_token
 309              		.cfi_endproc
 310              	.LFE8:
 311              		.size	h1, .-h1
 312 0006 00BFAFF3 		.section	.text.evt3_execute,"ax",%progbits
 312      0080AFF3 
 312      0080
 313              		.align	2
 314              		.p2align 4,,15
 315              		.thumb
 316              		.thumb_func
 317              		.type	evt3_execute, %function
 318              	evt3_execute:
 319              	.LFB17:
 320              		.loc 1 263 0
 321              		.cfi_startproc
 322              		@ args = 0, pretend = 0, frame = 0
 323              		@ frame_needed = 0, uses_anonymous_args = 0
 324 0000 08B5     		push	{r3, lr}
 325              	.LCFI4:
 326              		.cfi_def_cfa_offset 8
 327              		.cfi_offset 14, -4
 328              		.cfi_offset 3, -8
 329              		.loc 1 269 0
 330 0002 0021     		movs	r1, #0
ARM GAS  /tmp/cciySa64.s 			page 7


 331 0004 4FF0FF30 		mov	r0, #-1
 332 0008 FFF7FEFF 		bl	chEvtWaitOneTimeout
 333              	.LVL10:
 334              		.loc 1 270 0
 335 000c D0F10101 		rsbs	r1, r0, #1
 336 0010 38BF     		it	cc
 337 0012 0021     		movcc	r1, #0
 338 0014 0120     		movs	r0, #1
 339              	.LVL11:
 340 0016 FFF7FEFF 		bl	_test_assert
 341 001a 00B1     		cbz	r0, .L15
 342              	.L13:
 343 001c 08BD     		pop	{r3, pc}
 344              	.L15:
 345              		.loc 1 271 0
 346 001e 0146     		mov	r1, r0
 347 0020 4FF0FF30 		mov	r0, #-1
 348 0024 FFF7FEFF 		bl	chEvtWaitAnyTimeout
 349              	.LVL12:
 350              		.loc 1 272 0
 351 0028 D0F10101 		rsbs	r1, r0, #1
 352 002c 38BF     		it	cc
 353 002e 0021     		movcc	r1, #0
 354 0030 0220     		movs	r0, #2
 355              	.LVL13:
 356 0032 FFF7FEFF 		bl	_test_assert
 357 0036 0028     		cmp	r0, #0
 358 0038 F0D1     		bne	.L13
 359              		.loc 1 273 0
 360 003a 0146     		mov	r1, r0
 361 003c 4FF0FF30 		mov	r0, #-1
 362 0040 FFF7FEFF 		bl	chEvtWaitAllTimeout
 363              	.LVL14:
 364              		.loc 1 274 0
 365 0044 D0F10101 		rsbs	r1, r0, #1
 366 0048 38BF     		it	cc
 367 004a 0021     		movcc	r1, #0
 368 004c 0320     		movs	r0, #3
 369              	.LVL15:
 370 004e FFF7FEFF 		bl	_test_assert
 371 0052 0028     		cmp	r0, #0
 372 0054 E2D1     		bne	.L13
 373              	.LBB4:
 374              	.LBB5:
 375              		.loc 1 275 0
 376 0056 0A21     		movs	r1, #10
 377 0058 4FF0FF30 		mov	r0, #-1
 378 005c FFF7FEFF 		bl	chEvtWaitOneTimeout
 379              	.LVL16:
 380              		.loc 1 276 0
 381 0060 D0F10101 		rsbs	r1, r0, #1
 382 0064 38BF     		it	cc
 383 0066 0021     		movcc	r1, #0
 384 0068 0420     		movs	r0, #4
 385              	.LVL17:
 386 006a FFF7FEFF 		bl	_test_assert
 387 006e 0028     		cmp	r0, #0
ARM GAS  /tmp/cciySa64.s 			page 8


 388 0070 D4D1     		bne	.L13
 389              		.loc 1 277 0
 390 0072 0A21     		movs	r1, #10
 391 0074 4FF0FF30 		mov	r0, #-1
 392 0078 FFF7FEFF 		bl	chEvtWaitAnyTimeout
 393              	.LVL18:
 394              		.loc 1 278 0
 395 007c D0F10101 		rsbs	r1, r0, #1
 396 0080 38BF     		it	cc
 397 0082 0021     		movcc	r1, #0
 398 0084 0520     		movs	r0, #5
 399              	.LVL19:
 400 0086 FFF7FEFF 		bl	_test_assert
 401 008a 0028     		cmp	r0, #0
 402 008c C6D1     		bne	.L13
 403              		.loc 1 279 0
 404 008e 0A21     		movs	r1, #10
 405 0090 4FF0FF30 		mov	r0, #-1
 406 0094 FFF7FEFF 		bl	chEvtWaitAllTimeout
 407              	.LVL20:
 408              		.loc 1 280 0
 409 0098 D0F10101 		rsbs	r1, r0, #1
 410 009c 38BF     		it	cc
 411 009e 0021     		movcc	r1, #0
 412 00a0 0620     		movs	r0, #6
 413              	.LVL21:
 414              	.LBE5:
 415              	.LBE4:
 416              		.loc 1 281 0
 417 00a2 BDE80840 		pop	{r3, lr}
 418              	.LBB7:
 419              	.LBB6:
 420              		.loc 1 280 0
 421 00a6 FFF7FEBF 		b	_test_assert
 422              	.LBE6:
 423              	.LBE7:
 424              		.cfi_endproc
 425              	.LFE17:
 426              		.size	evt3_execute, .-evt3_execute
 427 00aa 00BFAFF3 		.section	.text.evt2_execute,"ax",%progbits
 427      0080
 428              		.align	2
 429              		.p2align 4,,15
 430              		.thumb
 431              		.thumb_func
 432              		.type	evt2_execute, %function
 433              	evt2_execute:
 434              	.LFB15:
 435              		.loc 1 160 0
 436              		.cfi_startproc
 437              		@ args = 0, pretend = 0, frame = 24
 438              		@ frame_needed = 0, uses_anonymous_args = 0
 439 0000 2DE9F043 		push	{r4, r5, r6, r7, r8, r9, lr}
 440              	.LCFI5:
 441              		.cfi_def_cfa_offset 28
 442              		.cfi_offset 14, -4
 443              		.cfi_offset 9, -8
ARM GAS  /tmp/cciySa64.s 			page 9


 444              		.cfi_offset 8, -12
 445              		.cfi_offset 7, -16
 446              		.cfi_offset 6, -20
 447              		.cfi_offset 5, -24
 448              		.cfi_offset 4, -28
 449              		.loc 1 168 0
 450 0004 0520     		movs	r0, #5
 451              		.loc 1 160 0
 452 0006 89B0     		sub	sp, sp, #36
 453              	.LCFI6:
 454              		.cfi_def_cfa_offset 64
 455              		.loc 1 168 0
 456 0008 FFF7FEFF 		bl	chEvtAddFlags
 457              		.loc 1 169 0
 458 000c 4FF0FF30 		mov	r0, #-1
 459 0010 FFF7FEFF 		bl	chEvtWaitOne
 460              	.LVL22:
 461              		.loc 1 170 0
 462 0014 A0F10100 		sub	r0, r0, #1
 463              	.LVL23:
 464 0018 4142     		rsbs	r1, r0, #0
 465 001a 41EB0001 		adc	r1, r1, r0
 466 001e 0120     		movs	r0, #1
 467              	.LVL24:
 468 0020 FFF7FEFF 		bl	_test_assert
 469 0024 10B1     		cbz	r0, .L18
 470              	.L16:
 471              		.loc 1 233 0
 472 0026 09B0     		add	sp, sp, #36
 473 0028 BDE8F083 		pop	{r4, r5, r6, r7, r8, r9, pc}
 474              	.L18:
 475              		.loc 1 171 0
 476 002c 4FF0FF30 		mov	r0, #-1
 477 0030 FFF7FEFF 		bl	chEvtWaitOne
 478              	.LVL25:
 479              		.loc 1 172 0
 480 0034 A0F10403 		sub	r3, r0, #4
 481 0038 5A42     		rsbs	r2, r3, #0
 482 003a 42EB0301 		adc	r1, r2, r3
 483 003e 0220     		movs	r0, #2
 484              	.LVL26:
 485 0040 FFF7FEFF 		bl	_test_assert
 486              	.LVL27:
 487 0044 0028     		cmp	r0, #0
 488 0046 EED1     		bne	.L16
 489              		.loc 1 173 0
 490 0048 4FF0FF30 		mov	r0, #-1
 491 004c FFF7FEFF 		bl	chEvtClearFlags
 492              	.LVL28:
 493              		.loc 1 174 0
 494 0050 D0F10101 		rsbs	r1, r0, #1
 495 0054 38BF     		it	cc
 496 0056 0021     		movcc	r1, #0
 497 0058 0320     		movs	r0, #3
 498              	.LVL29:
 499 005a FFF7FEFF 		bl	_test_assert
 500 005e 0028     		cmp	r0, #0
ARM GAS  /tmp/cciySa64.s 			page 10


 501 0060 E1D1     		bne	.L16
 502              	.LBB10:
 503              	.LBB11:
 504              		.loc 1 181 0
 505 0062 40F20006 		movw	r6, #:lower16:rlist
 506 0066 C0F20006 		movt	r6, #:upper16:rlist
 507 006a 40F20007 		movw	r7, #:lower16:wa
 508              		.loc 1 179 0
 509 006e FFF7FEFF 		bl	test_wait_tick
 510              		.loc 1 181 0
 511 0072 C0F20007 		movt	r7, #:upper16:wa
 512 0076 F569     		ldr	r5, [r6, #28]
 513 0078 D7F80080 		ldr	r8, [r7, #0]
 514 007c AC68     		ldr	r4, [r5, #8]
 515 007e 0095     		str	r5, [sp, #0]
 516              		.loc 1 180 0
 517 0080 40F20005 		movw	r5, #:lower16:vtlist
 518 0084 C0F20005 		movt	r5, #:upper16:vtlist
 519              		.loc 1 181 0
 520 0088 40F20003 		movw	r3, #:lower16:thread1
 521 008c 621E     		subs	r2, r4, #1
 522 008e 4FF49871 		mov	r1, #304
 523 0092 C0F20003 		movt	r3, #:upper16:thread1
 524 0096 4046     		mov	r0, r8
 525              		.loc 1 180 0
 526 0098 EF68     		ldr	r7, [r5, #12]
 527              	.LVL30:
 528              		.loc 1 181 0
 529 009a 40F20004 		movw	r4, #:lower16:threads
 530 009e FFF7FEFF 		bl	chThdCreateStatic
 531 00a2 C0F20004 		movt	r4, #:upper16:threads
 532 00a6 2060     		str	r0, [r4, #0]
 533              		.loc 1 183 0
 534 00a8 4FF0FF30 		mov	r0, #-1
 535 00ac FFF7FEFF 		bl	chEvtWaitOne
 536              		.loc 1 184 0
 537 00b0 07F13201 		add	r1, r7, #50
 538              		.loc 1 183 0
 539 00b4 8146     		mov	r9, r0
 540              	.LVL31:
 541              		.loc 1 184 0
 542 00b6 07F13702 		add	r2, r7, #55
 543 00ba 0420     		movs	r0, #4
 544              	.LVL32:
 545 00bc FFF7FEFF 		bl	_test_assert_time_window
 546 00c0 0028     		cmp	r0, #0
 547 00c2 B0D1     		bne	.L16
 548              		.loc 1 185 0
 549 00c4 A9F10101 		sub	r1, r9, #1
 550 00c8 0520     		movs	r0, #5
 551 00ca D1F1000C 		rsbs	ip, r1, #0
 552 00ce 4CEB0101 		adc	r1, ip, r1
 553 00d2 FFF7FEFF 		bl	_test_assert
 554 00d6 0028     		cmp	r0, #0
 555 00d8 A5D1     		bne	.L16
 556              		.loc 1 186 0
 557 00da 4FF0FF30 		mov	r0, #-1
ARM GAS  /tmp/cciySa64.s 			page 11


 558 00de FFF7FEFF 		bl	chEvtClearFlags
 559              	.LVL33:
 560              		.loc 1 187 0
 561 00e2 D0F10101 		rsbs	r1, r0, #1
 562 00e6 38BF     		it	cc
 563 00e8 0021     		movcc	r1, #0
 564 00ea 0620     		movs	r0, #6
 565              	.LVL34:
 566 00ec FFF7FEFF 		bl	_test_assert
 567 00f0 0028     		cmp	r0, #0
 568 00f2 98D1     		bne	.L16
 569              		.loc 1 188 0
 570 00f4 FFF7FEFF 		bl	test_wait_threads
 571              		.loc 1 193 0
 572 00f8 0520     		movs	r0, #5
 573 00fa FFF7FEFF 		bl	chEvtAddFlags
 574              		.loc 1 194 0
 575 00fe 4FF0FF30 		mov	r0, #-1
 576 0102 FFF7FEFF 		bl	chEvtWaitAny
 577              	.LVL35:
 578              		.loc 1 195 0
 579 0106 A0F10502 		sub	r2, r0, #5
 580 010a 5042     		rsbs	r0, r2, #0
 581              	.LVL36:
 582 010c 40EB0201 		adc	r1, r0, r2
 583 0110 0720     		movs	r0, #7
 584 0112 FFF7FEFF 		bl	_test_assert
 585              	.LVL37:
 586 0116 0028     		cmp	r0, #0
 587 0118 85D1     		bne	.L16
 588              		.loc 1 196 0
 589 011a 4FF0FF30 		mov	r0, #-1
 590 011e FFF7FEFF 		bl	chEvtClearFlags
 591              	.LVL38:
 592              		.loc 1 197 0
 593 0122 D0F10101 		rsbs	r1, r0, #1
 594 0126 38BF     		it	cc
 595 0128 0021     		movcc	r1, #0
 596 012a 0820     		movs	r0, #8
 597              	.LVL39:
 598 012c FFF7FEFF 		bl	_test_assert
 599 0130 0028     		cmp	r0, #0
 600 0132 7FF478AF 		bne	.L16
 601              		.loc 1 202 0
 602 0136 FFF7FEFF 		bl	test_wait_tick
 603              		.loc 1 204 0
 604 013a F369     		ldr	r3, [r6, #28]
 605              		.loc 1 203 0
 606 013c EF68     		ldr	r7, [r5, #12]
 607              	.LVL40:
 608              		.loc 1 204 0
 609 013e 9868     		ldr	r0, [r3, #8]
 610 0140 0093     		str	r3, [sp, #0]
 611 0142 40F20003 		movw	r3, #:lower16:thread1
 612 0146 421E     		subs	r2, r0, #1
 613 0148 4FF49871 		mov	r1, #304
 614 014c C0F20003 		movt	r3, #:upper16:thread1
ARM GAS  /tmp/cciySa64.s 			page 12


 615 0150 4046     		mov	r0, r8
 616 0152 FFF7FEFF 		bl	chThdCreateStatic
 617 0156 2060     		str	r0, [r4, #0]
 618              		.loc 1 206 0
 619 0158 4FF0FF30 		mov	r0, #-1
 620 015c FFF7FEFF 		bl	chEvtWaitAny
 621              		.loc 1 207 0
 622 0160 07F13201 		add	r1, r7, #50
 623              		.loc 1 206 0
 624 0164 8146     		mov	r9, r0
 625              	.LVL41:
 626              		.loc 1 207 0
 627 0166 07F13702 		add	r2, r7, #55
 628 016a 0920     		movs	r0, #9
 629              	.LVL42:
 630 016c FFF7FEFF 		bl	_test_assert_time_window
 631 0170 0028     		cmp	r0, #0
 632 0172 7FF458AF 		bne	.L16
 633              		.loc 1 208 0
 634 0176 A9F10101 		sub	r1, r9, #1
 635 017a 0A20     		movs	r0, #10
 636 017c D1F1000E 		rsbs	lr, r1, #0
 637 0180 4EEB0101 		adc	r1, lr, r1
 638 0184 FFF7FEFF 		bl	_test_assert
 639 0188 0028     		cmp	r0, #0
 640 018a 7FF44CAF 		bne	.L16
 641              		.loc 1 209 0
 642 018e 4FF0FF30 		mov	r0, #-1
 643 0192 FFF7FEFF 		bl	chEvtClearFlags
 644              	.LVL43:
 645              		.loc 1 210 0
 646 0196 D0F10101 		rsbs	r1, r0, #1
 647 019a 38BF     		it	cc
 648 019c 0021     		movcc	r1, #0
 649 019e 0B20     		movs	r0, #11
 650              	.LVL44:
 651 01a0 FFF7FEFF 		bl	_test_assert
 652 01a4 0028     		cmp	r0, #0
 653 01a6 7FF43EAF 		bne	.L16
 654              		.loc 1 216 0
 655 01aa 40F20007 		movw	r7, #:lower16:.LANCHOR0
 656              	.LVL45:
 657              		.loc 1 217 0
 658 01ae 40F20009 		movw	r9, #:lower16:.LANCHOR1
 659              		.loc 1 216 0
 660 01b2 C0F20007 		movt	r7, #:upper16:.LANCHOR0
 661              		.loc 1 217 0
 662 01b6 C0F20009 		movt	r9, #:upper16:.LANCHOR1
 663              		.loc 1 211 0
 664 01ba FFF7FEFF 		bl	test_wait_threads
 665              		.loc 1 218 0
 666 01be 3846     		mov	r0, r7
 667 01c0 02A9     		add	r1, sp, #8
 668 01c2 0122     		movs	r2, #1
 669              		.loc 1 216 0
 670 01c4 3F60     		str	r7, [r7, #0]
 671              		.loc 1 217 0
ARM GAS  /tmp/cciySa64.s 			page 13


 672 01c6 C9F80090 		str	r9, [r9, #0]
 673              		.loc 1 218 0
 674 01ca FFF7FEFF 		bl	chEvtRegisterMask
 675              		.loc 1 219 0
 676 01ce 05A9     		add	r1, sp, #20
 677 01d0 0422     		movs	r2, #4
 678 01d2 4846     		mov	r0, r9
 679 01d4 FFF7FEFF 		bl	chEvtRegisterMask
 680              		.loc 1 220 0
 681 01d8 FFF7FEFF 		bl	test_wait_tick
 682              		.loc 1 222 0
 683 01dc F669     		ldr	r6, [r6, #28]
 684              		.loc 1 221 0
 685 01de ED68     		ldr	r5, [r5, #12]
 686              	.LVL46:
 687              		.loc 1 222 0
 688 01e0 B268     		ldr	r2, [r6, #8]
 689 01e2 40F20003 		movw	r3, #:lower16:thread2
 690 01e6 40F20006 		movw	r6, #:lower16:.LC1
 691 01ea 4FF49871 		mov	r1, #304
 692 01ee 013A     		subs	r2, r2, #1
 693 01f0 C0F20003 		movt	r3, #:upper16:thread2
 694 01f4 C0F20006 		movt	r6, #:upper16:.LC1
 695 01f8 4046     		mov	r0, r8
 696 01fa 0096     		str	r6, [sp, #0]
 697 01fc FFF7FEFF 		bl	chThdCreateStatic
 698 0200 2060     		str	r0, [r4, #0]
 699              		.loc 1 224 0
 700 0202 0520     		movs	r0, #5
 701 0204 FFF7FEFF 		bl	chEvtWaitAll
 702              		.loc 1 225 0
 703 0208 0C20     		movs	r0, #12
 704 020a 05F13201 		add	r1, r5, #50
 705 020e 05F13702 		add	r2, r5, #55
 706 0212 FFF7FEFF 		bl	_test_assert_time_window
 707 0216 0028     		cmp	r0, #0
 708 0218 7FF405AF 		bne	.L16
 709              		.loc 1 226 0
 710 021c 4FF0FF30 		mov	r0, #-1
 711 0220 FFF7FEFF 		bl	chEvtClearFlags
 712              	.LVL47:
 713              		.loc 1 227 0
 714 0224 D0F10101 		rsbs	r1, r0, #1
 715 0228 38BF     		it	cc
 716 022a 0021     		movcc	r1, #0
 717 022c 0D20     		movs	r0, #13
 718              	.LVL48:
 719 022e FFF7FEFF 		bl	_test_assert
 720 0232 0028     		cmp	r0, #0
 721 0234 7FF4F7AE 		bne	.L16
 722              		.loc 1 228 0
 723 0238 FFF7FEFF 		bl	test_wait_threads
 724              		.loc 1 229 0
 725 023c 3846     		mov	r0, r7
 726 023e 02A9     		add	r1, sp, #8
 727 0240 FFF7FEFF 		bl	chEvtUnregister
 728              		.loc 1 230 0
ARM GAS  /tmp/cciySa64.s 			page 14


 729 0244 4846     		mov	r0, r9
 730 0246 05A9     		add	r1, sp, #20
 731 0248 FFF7FEFF 		bl	chEvtUnregister
 732              		.loc 1 231 0
 733 024c 3A68     		ldr	r2, [r7, #0]
 734 024e D11B     		subs	r1, r2, r7
 735 0250 0E20     		movs	r0, #14
 736 0252 4B42     		rsbs	r3, r1, #0
 737 0254 43EB0101 		adc	r1, r3, r1
 738 0258 FFF7FEFF 		bl	_test_assert
 739 025c 0028     		cmp	r0, #0
 740 025e 7FF4E2AE 		bne	.L16
 741              		.loc 1 232 0
 742 0262 D9F80020 		ldr	r2, [r9, #0]
 743 0266 C9EB0201 		rsb	r1, r9, r2
 744 026a 0F20     		movs	r0, #15
 745 026c 4B42     		rsbs	r3, r1, #0
 746 026e 43EB0101 		adc	r1, r3, r1
 747 0272 FFF7FEFF 		bl	_test_assert
 748 0276 D6E6     		b	.L16
 749              	.LBE11:
 750              	.LBE10:
 751              		.cfi_endproc
 752              	.LFE15:
 753              		.size	evt2_execute, .-evt2_execute
 754              		.global	patternevt
 755              		.global	testevt3
 756              		.global	testevt2
 757              		.global	testevt1
 758 0278 AFF30080 		.section	.rodata.patternevt,"a",%progbits
 758      AFF30080 
 759              		.align	2
 760              		.type	patternevt, %object
 761              		.size	patternevt, 16
 762              	patternevt:
 763 0000 00000000 		.word	testevt1
 764 0004 00000000 		.word	testevt2
 765 0008 00000000 		.word	testevt3
 766 000c 00000000 		.word	0
 767              		.section	.rodata.testevt2,"a",%progbits
 768              		.align	2
 769              		.type	testevt2, %object
 770              		.size	testevt2, 16
 771              	testevt2:
 772 0000 1C000000 		.word	.LC3
 773 0004 00000000 		.word	evt2_setup
 774 0008 00000000 		.word	0
 775 000c 00000000 		.word	evt2_execute
 776              		.section	.rodata.str1.4,"aMS",%progbits,1
 777              		.align	2
 778              	.LC0:
 779 0000 41424300 		.ascii	"ABC\000"
 780              	.LC1:
 781 0004 4100     		.ascii	"A\000"
 782 0006 0000     		.space	2
 783              	.LC2:
 784 0008 4576656E 		.ascii	"Events, timeouts\000"
ARM GAS  /tmp/cciySa64.s 			page 15


 784      74732C20 
 784      74696D65 
 784      6F757473 
 784      00
 785 0019 000000   		.space	3
 786              	.LC3:
 787 001c 4576656E 		.ascii	"Events, wait and broadcast\000"
 787      74732C20 
 787      77616974 
 787      20616E64 
 787      2062726F 
 788 0037 00       		.space	1
 789              	.LC4:
 790 0038 4576656E 		.ascii	"Events, registration and dispatch\000"
 790      74732C20 
 790      72656769 
 790      73747261 
 790      74696F6E 
 791 005a 0000     		.section	.rodata.testevt1,"a",%progbits
 792              		.align	2
 793              		.type	testevt1, %object
 794              		.size	testevt1, 16
 795              	testevt1:
 796 0000 38000000 		.word	.LC4
 797 0004 00000000 		.word	evt1_setup
 798 0008 00000000 		.word	0
 799 000c 00000000 		.word	evt1_execute
 800              		.section	.rodata.evhndl,"a",%progbits
 801              		.align	2
 802              		.set	.LANCHOR2,. + 0
 803              		.type	evhndl, %object
 804              		.size	evhndl, 12
 805              	evhndl:
 806 0000 00000000 		.word	h1
 807 0004 00000000 		.word	h2
 808 0008 00000000 		.word	h3
 809              		.section	.rodata.testevt3,"a",%progbits
 810              		.align	2
 811              		.type	testevt3, %object
 812              		.size	testevt3, 16
 813              	testevt3:
 814 0000 08000000 		.word	.LC2
 815 0004 00000000 		.word	evt3_setup
 816 0008 00000000 		.word	0
 817 000c 00000000 		.word	evt3_execute
 818              		.section	.data.es1,"aw",%progbits
 819              		.align	2
 820              		.set	.LANCHOR0,. + 0
 821              		.type	es1, %object
 822              		.size	es1, 4
 823              	es1:
 824 0000 00000000 		.word	es1
 825              		.section	.data.es2,"aw",%progbits
 826              		.align	2
 827              		.set	.LANCHOR1,. + 0
 828              		.type	es2, %object
 829              		.size	es2, 4
ARM GAS  /tmp/cciySa64.s 			page 16


 830              	es2:
 831 0000 00000000 		.word	es2
 832              		.text
 833              	.Letext0:
 834              		.file 2 "/opt/arm/bin/../lib/gcc/arm-none-eabi/4.6.3/../../../../arm-none-eabi/include/stdint.h"
 835              		.file 3 "/opt/ChibiOS/ChibiOS_2.4.4/os/ports/GCC/ARMCMx/chtypes.h"
 836              		.file 4 "/opt/ChibiOS/ChibiOS_2.4.4/os/kernel/include/chlists.h"
 837              		.file 5 "/opt/ChibiOS/ChibiOS_2.4.4/os/kernel/include/chthreads.h"
 838              		.file 6 "/opt/ChibiOS/ChibiOS_2.4.4/os/ports/GCC/ARMCMx/chcore_v7m.h"
 839              		.file 7 "/opt/ChibiOS/ChibiOS_2.4.4/os/kernel/include/chvt.h"
 840              		.file 8 "/opt/ChibiOS/ChibiOS_2.4.4/os/kernel/include/chschd.h"
 841              		.file 9 "/opt/ChibiOS/ChibiOS_2.4.4/os/kernel/include/chmtx.h"
 842              		.file 10 "/opt/ChibiOS/ChibiOS_2.4.4/os/kernel/include/chevents.h"
 843              		.file 11 "/opt/ChibiOS/ChibiOS_2.4.4/test/test.h"