ARM GAS  /tmp/ccC2Cwnh.s 			page 1


   1              		.syntax unified
   2              		.cpu cortex-m4
   3              		.eabi_attribute 27, 3
   4              		.eabi_attribute 28, 1
   5              		.fpu fpv4-sp-d16
   6              		.eabi_attribute 20, 1
   7              		.eabi_attribute 21, 1
   8              		.eabi_attribute 23, 3
   9              		.eabi_attribute 24, 1
  10              		.eabi_attribute 25, 1
  11              		.eabi_attribute 26, 1
  12              		.eabi_attribute 30, 2
  13              		.eabi_attribute 34, 1
  14              		.eabi_attribute 18, 4
  15              		.thumb
  16              		.file	"testpools.c"
  17              		.text
  18              	.Ltext0:
  19              		.cfi_sections	.debug_frame
  20              		.section	.text.null_provider,"ax",%progbits
  21              		.align	2
  22              		.p2align 4,,15
  23              		.thumb
  24              		.thumb_func
  25              		.type	null_provider, %function
  26              	null_provider:
  27              	.LFB7:
  28              		.file 1 "/opt/ChibiOS/ChibiOS_2.4.4/test/testpools.c"
  29              		.loc 1 71 0
  30              		.cfi_startproc
  31              		@ args = 0, pretend = 0, frame = 0
  32              		@ frame_needed = 0, uses_anonymous_args = 0
  33              		@ link register save eliminated.
  34              	.LVL0:
  35              		.loc 1 75 0
  36 0000 0020     		movs	r0, #0
  37              	.LVL1:
  38 0002 7047     		bx	lr
  39              		.cfi_endproc
  40              	.LFE7:
  41              		.size	null_provider, .-null_provider
  42 0004 AFF30080 		.section	.text.pools1_setup,"ax",%progbits
  42      AFF30080 
  42      AFF30080 
  43              		.align	2
  44              		.p2align 4,,15
  45              		.thumb
  46              		.thumb_func
  47              		.type	pools1_setup, %function
  48              	pools1_setup:
  49              	.LFB8:
  50              		.loc 1 77 0
  51              		.cfi_startproc
  52              		@ args = 0, pretend = 0, frame = 0
  53              		@ frame_needed = 0, uses_anonymous_args = 0
  54              		@ link register save eliminated.
  55              		.loc 1 79 0
ARM GAS  /tmp/ccC2Cwnh.s 			page 2


  56 0000 40F20000 		movw	r0, #:lower16:.LANCHOR0
  57 0004 C0F20000 		movt	r0, #:upper16:.LANCHOR0
  58 0008 4FF49871 		mov	r1, #304
  59 000c 0022     		movs	r2, #0
  60              		.loc 1 80 0
  61              		.loc 1 79 0
  62 000e FFF7FEBF 		b	chPoolInit
  63              		.cfi_endproc
  64              	.LFE8:
  65              		.size	pools1_setup, .-pools1_setup
  66 0012 00BFAFF3 		.section	.text.pools1_execute,"ax",%progbits
  66      0080AFF3 
  66      0080AFF3 
  66      0080
  67              		.align	2
  68              		.p2align 4,,15
  69              		.thumb
  70              		.thumb_func
  71              		.type	pools1_execute, %function
  72              	pools1_execute:
  73              	.LFB9:
  74              		.loc 1 82 0
  75              		.cfi_startproc
  76              		@ args = 0, pretend = 0, frame = 0
  77              		@ frame_needed = 0, uses_anonymous_args = 0
  78              	.LVL2:
  79 0000 10B5     		push	{r4, lr}
  80              	.LCFI0:
  81              		.cfi_def_cfa_offset 8
  82              		.cfi_offset 14, -4
  83              		.cfi_offset 4, -8
  84              		.loc 1 87 0
  85 0002 40F20004 		movw	r4, #:lower16:wa
  86 0006 C0F20004 		movt	r4, #:upper16:wa
  87 000a 40F20000 		movw	r0, #:lower16:.LANCHOR0
  88 000e C0F20000 		movt	r0, #:upper16:.LANCHOR0
  89 0012 2168     		ldr	r1, [r4, #0]
  90 0014 FFF7FEFF 		bl	chPoolFree
  91              	.LVL3:
  92 0018 40F20000 		movw	r0, #:lower16:.LANCHOR0
  93 001c C0F20000 		movt	r0, #:upper16:.LANCHOR0
  94 0020 6168     		ldr	r1, [r4, #4]
  95 0022 FFF7FEFF 		bl	chPoolFree
  96              	.LVL4:
  97 0026 40F20000 		movw	r0, #:lower16:.LANCHOR0
  98 002a C0F20000 		movt	r0, #:upper16:.LANCHOR0
  99 002e A168     		ldr	r1, [r4, #8]
 100 0030 FFF7FEFF 		bl	chPoolFree
 101              	.LVL5:
 102 0034 40F20000 		movw	r0, #:lower16:.LANCHOR0
 103 0038 C0F20000 		movt	r0, #:upper16:.LANCHOR0
 104 003c E168     		ldr	r1, [r4, #12]
 105 003e FFF7FEFF 		bl	chPoolFree
 106              	.LVL6:
 107 0042 40F20000 		movw	r0, #:lower16:.LANCHOR0
 108 0046 2169     		ldr	r1, [r4, #16]
 109 0048 C0F20000 		movt	r0, #:upper16:.LANCHOR0
ARM GAS  /tmp/ccC2Cwnh.s 			page 3


 110 004c FFF7FEFF 		bl	chPoolFree
 111              	.LVL7:
 112              		.loc 1 91 0
 113 0050 40F20000 		movw	r0, #:lower16:.LANCHOR0
 114 0054 C0F20000 		movt	r0, #:upper16:.LANCHOR0
 115 0058 FFF7FEFF 		bl	chPoolAlloc
 116 005c 011C     		adds	r1, r0, #0
 117 005e 18BF     		it	ne
 118 0060 0121     		movne	r1, #1
 119 0062 0120     		movs	r0, #1
 120 0064 FFF7FEFF 		bl	_test_assert
 121 0068 0028     		cmp	r0, #0
 122 006a 41D1     		bne	.L3
 123              	.LVL8:
 124 006c 40F20000 		movw	r0, #:lower16:.LANCHOR0
 125 0070 C0F20000 		movt	r0, #:upper16:.LANCHOR0
 126 0074 FFF7FEFF 		bl	chPoolAlloc
 127 0078 011C     		adds	r1, r0, #0
 128 007a 18BF     		it	ne
 129 007c 0121     		movne	r1, #1
 130 007e 0120     		movs	r0, #1
 131 0080 FFF7FEFF 		bl	_test_assert
 132 0084 A0BB     		cbnz	r0, .L3
 133              	.LVL9:
 134 0086 40F20000 		movw	r0, #:lower16:.LANCHOR0
 135 008a C0F20000 		movt	r0, #:upper16:.LANCHOR0
 136 008e FFF7FEFF 		bl	chPoolAlloc
 137 0092 011C     		adds	r1, r0, #0
 138 0094 18BF     		it	ne
 139 0096 0121     		movne	r1, #1
 140 0098 0120     		movs	r0, #1
 141 009a FFF7FEFF 		bl	_test_assert
 142 009e 38BB     		cbnz	r0, .L3
 143              	.LVL10:
 144 00a0 40F20000 		movw	r0, #:lower16:.LANCHOR0
 145 00a4 C0F20000 		movt	r0, #:upper16:.LANCHOR0
 146 00a8 FFF7FEFF 		bl	chPoolAlloc
 147 00ac 011C     		adds	r1, r0, #0
 148 00ae 18BF     		it	ne
 149 00b0 0121     		movne	r1, #1
 150 00b2 0120     		movs	r0, #1
 151 00b4 FFF7FEFF 		bl	_test_assert
 152 00b8 D0B9     		cbnz	r0, .L3
 153              	.LVL11:
 154 00ba 40F20000 		movw	r0, #:lower16:.LANCHOR0
 155 00be C0F20000 		movt	r0, #:upper16:.LANCHOR0
 156 00c2 FFF7FEFF 		bl	chPoolAlloc
 157 00c6 011C     		adds	r1, r0, #0
 158 00c8 18BF     		it	ne
 159 00ca 0121     		movne	r1, #1
 160 00cc 0120     		movs	r0, #1
 161 00ce FFF7FEFF 		bl	_test_assert
 162 00d2 68B9     		cbnz	r0, .L3
 163              	.LVL12:
 164              		.loc 1 94 0
 165 00d4 40F20000 		movw	r0, #:lower16:.LANCHOR0
 166 00d8 C0F20000 		movt	r0, #:upper16:.LANCHOR0
ARM GAS  /tmp/ccC2Cwnh.s 			page 4


 167 00dc FFF7FEFF 		bl	chPoolAlloc
 168 00e0 D0F10101 		rsbs	r1, r0, #1
 169 00e4 38BF     		it	cc
 170 00e6 0021     		movcc	r1, #0
 171 00e8 0220     		movs	r0, #2
 172 00ea FFF7FEFF 		bl	_test_assert
 173 00ee 00B1     		cbz	r0, .L6
 174              	.LVL13:
 175              	.L3:
 176 00f0 10BD     		pop	{r4, pc}
 177              	.LVL14:
 178              	.L6:
 179              	.LBB4:
 180              	.LBB5:
 181              		.loc 1 97 0
 182 00f2 40F20000 		movw	r0, #:lower16:.LANCHOR0
 183 00f6 40F20002 		movw	r2, #:lower16:null_provider
 184 00fa 1021     		movs	r1, #16
 185 00fc C0F20002 		movt	r2, #:upper16:null_provider
 186 0100 C0F20000 		movt	r0, #:upper16:.LANCHOR0
 187 0104 FFF7FEFF 		bl	chPoolInit
 188              		.loc 1 98 0
 189 0108 40F20000 		movw	r0, #:lower16:.LANCHOR0
 190 010c C0F20000 		movt	r0, #:upper16:.LANCHOR0
 191 0110 FFF7FEFF 		bl	chPoolAlloc
 192 0114 D0F10101 		rsbs	r1, r0, #1
 193 0118 38BF     		it	cc
 194 011a 0021     		movcc	r1, #0
 195 011c 0320     		movs	r0, #3
 196              	.LBE5:
 197              	.LBE4:
 198              		.loc 1 99 0
 199 011e BDE81040 		pop	{r4, lr}
 200              	.LBB7:
 201              	.LBB6:
 202              		.loc 1 98 0
 203 0122 FFF7FEBF 		b	_test_assert
 204              	.LBE6:
 205              	.LBE7:
 206              		.cfi_endproc
 207              	.LFE9:
 208              		.size	pools1_execute, .-pools1_execute
 209              		.global	patternpools
 210              		.global	testpools1
 211 0126 00BFAFF3 		.section	.rodata.str1.4,"aMS",%progbits,1
 211      0080AFF3 
 211      0080
 212              		.align	2
 213              	.LC0:
 214 0000 4D656D6F 		.ascii	"Memory Pools, queue/dequeue\000"
 214      72792050 
 214      6F6F6C73 
 214      2C207175 
 214      6575652F 
 215              		.section	.rodata.patternpools,"a",%progbits
 216              		.align	2
 217              		.type	patternpools, %object
ARM GAS  /tmp/ccC2Cwnh.s 			page 5


 218              		.size	patternpools, 8
 219              	patternpools:
 220 0000 00000000 		.word	testpools1
 221 0004 00000000 		.word	0
 222              		.section	.data.mp1,"aw",%progbits
 223              		.align	2
 224              		.set	.LANCHOR0,. + 0
 225              		.type	mp1, %object
 226              		.size	mp1, 12
 227              	mp1:
 228 0000 00000000 		.word	0
 229 0004 30010000 		.word	304
 230 0008 00000000 		.word	0
 231              		.section	.rodata.testpools1,"a",%progbits
 232              		.align	2
 233              		.type	testpools1, %object
 234              		.size	testpools1, 16
 235              	testpools1:
 236 0000 00000000 		.word	.LC0
 237 0004 00000000 		.word	pools1_setup
 238 0008 00000000 		.word	0
 239 000c 00000000 		.word	pools1_execute
 240              		.text
 241              	.Letext0:
 242              		.file 2 "/opt/arm/bin/../lib/gcc/arm-none-eabi/4.6.3/include/stddef.h"
 243              		.file 3 "/opt/ChibiOS/ChibiOS_2.4.4/os/kernel/include/chmemcore.h"
 244              		.file 4 "/opt/ChibiOS/ChibiOS_2.4.4/os/kernel/include/chmempools.h"
 245              		.file 5 "/opt/ChibiOS/ChibiOS_2.4.4/test/test.h"
 246              		.section	.debug_info,"",%progbits
 247              	.Ldebug_info0:
 248 0000 54020000 		.4byte	0x254
 249 0004 0200     		.2byte	0x2
 250 0006 00000000 		.4byte	.Ldebug_abbrev0
 251 000a 04       		.byte	0x4
 252 000b 01       		.uleb128 0x1
 253 000c 96000000 		.4byte	.LASF25
 254 0010 01       		.byte	0x1
 255 0011 B0000000 		.4byte	.LASF26
 256 0015 00000000 		.4byte	0
 257 0019 00000000 		.4byte	0
 258 001d 30000000 		.4byte	.Ldebug_ranges0+0x30
 259 0021 00000000 		.4byte	.Ldebug_line0
 260 0025 02       		.uleb128 0x2
 261 0026 04       		.byte	0x4
 262 0027 05       		.byte	0x5
 263 0028 696E7400 		.ascii	"int\000"
 264 002c 03       		.uleb128 0x3
 265 002d 00000000 		.4byte	.LASF9
 266 0031 02       		.byte	0x2
 267 0032 D4       		.byte	0xd4
 268 0033 37000000 		.4byte	0x37
 269 0037 04       		.uleb128 0x4
 270 0038 04       		.byte	0x4
 271 0039 07       		.byte	0x7
 272 003a F2000000 		.4byte	.LASF0
 273 003e 04       		.uleb128 0x4
 274 003f 01       		.byte	0x1
ARM GAS  /tmp/ccC2Cwnh.s 			page 6


 275 0040 06       		.byte	0x6
 276 0041 62010000 		.4byte	.LASF1
 277 0045 04       		.uleb128 0x4
 278 0046 01       		.byte	0x1
 279 0047 08       		.byte	0x8
 280 0048 A2000000 		.4byte	.LASF2
 281 004c 04       		.uleb128 0x4
 282 004d 02       		.byte	0x2
 283 004e 05       		.byte	0x5
 284 004f 4A010000 		.4byte	.LASF3
 285 0053 04       		.uleb128 0x4
 286 0054 02       		.byte	0x2
 287 0055 07       		.byte	0x7
 288 0056 75000000 		.4byte	.LASF4
 289 005a 04       		.uleb128 0x4
 290 005b 04       		.byte	0x4
 291 005c 05       		.byte	0x5
 292 005d 54010000 		.4byte	.LASF5
 293 0061 04       		.uleb128 0x4
 294 0062 04       		.byte	0x4
 295 0063 07       		.byte	0x7
 296 0064 5A000000 		.4byte	.LASF6
 297 0068 04       		.uleb128 0x4
 298 0069 08       		.byte	0x8
 299 006a 05       		.byte	0x5
 300 006b 1E010000 		.4byte	.LASF7
 301 006f 04       		.uleb128 0x4
 302 0070 08       		.byte	0x8
 303 0071 07       		.byte	0x7
 304 0072 FF000000 		.4byte	.LASF8
 305 0076 05       		.uleb128 0x5
 306 0077 04       		.byte	0x4
 307 0078 03       		.uleb128 0x3
 308 0079 31010000 		.4byte	.LASF10
 309 007d 03       		.byte	0x3
 310 007e 2C       		.byte	0x2c
 311 007f 83000000 		.4byte	0x83
 312 0083 06       		.uleb128 0x6
 313 0084 04       		.byte	0x4
 314 0085 89000000 		.4byte	0x89
 315 0089 07       		.uleb128 0x7
 316 008a 01       		.byte	0x1
 317 008b 76000000 		.4byte	0x76
 318 008f 99000000 		.4byte	0x99
 319 0093 08       		.uleb128 0x8
 320 0094 2C000000 		.4byte	0x2c
 321 0098 00       		.byte	0
 322 0099 09       		.uleb128 0x9
 323 009a 3A000000 		.4byte	.LASF17
 324 009e 04       		.byte	0x4
 325 009f 04       		.byte	0x4
 326 00a0 2C       		.byte	0x2c
 327 00a1 B4000000 		.4byte	0xb4
 328 00a5 0A       		.uleb128 0xa
 329 00a6 16010000 		.4byte	.LASF11
 330 00aa 04       		.byte	0x4
 331 00ab 2D       		.byte	0x2d
ARM GAS  /tmp/ccC2Cwnh.s 			page 7


 332 00ac B4000000 		.4byte	0xb4
 333 00b0 02       		.byte	0x2
 334 00b1 23       		.byte	0x23
 335 00b2 00       		.uleb128 0
 336 00b3 00       		.byte	0
 337 00b4 06       		.uleb128 0x6
 338 00b5 04       		.byte	0x4
 339 00b6 99000000 		.4byte	0x99
 340 00ba 0B       		.uleb128 0xb
 341 00bb 0C       		.byte	0xc
 342 00bc 04       		.byte	0x4
 343 00bd 34       		.byte	0x34
 344 00be ED000000 		.4byte	0xed
 345 00c2 0A       		.uleb128 0xa
 346 00c3 6E010000 		.4byte	.LASF12
 347 00c7 04       		.byte	0x4
 348 00c8 35       		.byte	0x35
 349 00c9 B4000000 		.4byte	0xb4
 350 00cd 02       		.byte	0x2
 351 00ce 23       		.byte	0x23
 352 00cf 00       		.uleb128 0
 353 00d0 0A       		.uleb128 0xa
 354 00d1 1A000000 		.4byte	.LASF13
 355 00d5 04       		.byte	0x4
 356 00d6 36       		.byte	0x36
 357 00d7 2C000000 		.4byte	0x2c
 358 00db 02       		.byte	0x2
 359 00dc 23       		.byte	0x23
 360 00dd 04       		.uleb128 0x4
 361 00de 0A       		.uleb128 0xa
 362 00df 3E010000 		.4byte	.LASF14
 363 00e3 04       		.byte	0x4
 364 00e4 38       		.byte	0x38
 365 00e5 78000000 		.4byte	0x78
 366 00e9 02       		.byte	0x2
 367 00ea 23       		.byte	0x23
 368 00eb 08       		.uleb128 0x8
 369 00ec 00       		.byte	0
 370 00ed 03       		.uleb128 0x3
 371 00ee DC000000 		.4byte	.LASF15
 372 00f2 04       		.byte	0x4
 373 00f3 3A       		.byte	0x3a
 374 00f4 BA000000 		.4byte	0xba
 375 00f8 06       		.uleb128 0x6
 376 00f9 04       		.byte	0x4
 377 00fa FE000000 		.4byte	0xfe
 378 00fe 0C       		.uleb128 0xc
 379 00ff 03010000 		.4byte	0x103
 380 0103 04       		.uleb128 0x4
 381 0104 01       		.byte	0x1
 382 0105 08       		.byte	0x8
 383 0106 5D010000 		.4byte	.LASF16
 384 010a 09       		.uleb128 0x9
 385 010b 31000000 		.4byte	.LASF18
 386 010f 10       		.byte	0x10
 387 0110 05       		.byte	0x5
 388 0111 46       		.byte	0x46
ARM GAS  /tmp/ccC2Cwnh.s 			page 8


 389 0112 4F010000 		.4byte	0x14f
 390 0116 0A       		.uleb128 0xa
 391 0117 2C010000 		.4byte	.LASF19
 392 011b 05       		.byte	0x5
 393 011c 47       		.byte	0x47
 394 011d F8000000 		.4byte	0xf8
 395 0121 02       		.byte	0x2
 396 0122 23       		.byte	0x23
 397 0123 00       		.uleb128 0
 398 0124 0A       		.uleb128 0xa
 399 0125 14000000 		.4byte	.LASF20
 400 0129 05       		.byte	0x5
 401 012a 48       		.byte	0x48
 402 012b 51010000 		.4byte	0x151
 403 012f 02       		.byte	0x2
 404 0130 23       		.byte	0x23
 405 0131 04       		.uleb128 0x4
 406 0132 0A       		.uleb128 0xa
 407 0133 6C000000 		.4byte	.LASF21
 408 0137 05       		.byte	0x5
 409 0138 49       		.byte	0x49
 410 0139 51010000 		.4byte	0x151
 411 013d 02       		.byte	0x2
 412 013e 23       		.byte	0x23
 413 013f 08       		.uleb128 0x8
 414 0140 0A       		.uleb128 0xa
 415 0141 29000000 		.4byte	.LASF22
 416 0145 05       		.byte	0x5
 417 0146 4A       		.byte	0x4a
 418 0147 51010000 		.4byte	0x151
 419 014b 02       		.byte	0x2
 420 014c 23       		.byte	0x23
 421 014d 0C       		.uleb128 0xc
 422 014e 00       		.byte	0
 423 014f 0D       		.uleb128 0xd
 424 0150 01       		.byte	0x1
 425 0151 06       		.uleb128 0x6
 426 0152 04       		.byte	0x4
 427 0153 4F010000 		.4byte	0x14f
 428 0157 0E       		.uleb128 0xe
 429 0158 46000000 		.4byte	.LASF27
 430 015c 01       		.byte	0x1
 431 015d 52       		.byte	0x52
 432 015e 01       		.byte	0x1
 433 015f 01       		.byte	0x1
 434 0160 6E010000 		.4byte	0x16e
 435 0164 0F       		.uleb128 0xf
 436 0165 6900     		.ascii	"i\000"
 437 0167 01       		.byte	0x1
 438 0168 53       		.byte	0x53
 439 0169 25000000 		.4byte	0x25
 440 016d 00       		.byte	0
 441 016e 10       		.uleb128 0x10
 442 016f 88000000 		.4byte	.LASF28
 443 0173 01       		.byte	0x1
 444 0174 47       		.byte	0x47
 445 0175 01       		.byte	0x1
ARM GAS  /tmp/ccC2Cwnh.s 			page 9


 446 0176 76000000 		.4byte	0x76
 447 017a 00000000 		.4byte	.LFB7
 448 017e 04000000 		.4byte	.LFE7
 449 0182 02       		.byte	0x2
 450 0183 7D       		.byte	0x7d
 451 0184 00       		.sleb128 0
 452 0185 99010000 		.4byte	0x199
 453 0189 11       		.uleb128 0x11
 454 018a 55000000 		.4byte	.LASF29
 455 018e 01       		.byte	0x1
 456 018f 47       		.byte	0x47
 457 0190 2C000000 		.4byte	0x2c
 458 0194 00000000 		.4byte	.LLST0
 459 0198 00       		.byte	0
 460 0199 12       		.uleb128 0x12
 461 019a 07000000 		.4byte	.LASF30
 462 019e 01       		.byte	0x1
 463 019f 4D       		.byte	0x4d
 464 01a0 01       		.byte	0x1
 465 01a1 00000000 		.4byte	.LFB8
 466 01a5 12000000 		.4byte	.LFE8
 467 01a9 02       		.byte	0x2
 468 01aa 7D       		.byte	0x7d
 469 01ab 00       		.sleb128 0
 470 01ac 13       		.uleb128 0x13
 471 01ad 57010000 		.4byte	0x157
 472 01b1 00000000 		.4byte	.LFB9
 473 01b5 26010000 		.4byte	.LFE9
 474 01b9 13000000 		.4byte	.LLST1
 475 01bd E6010000 		.4byte	0x1e6
 476 01c1 14       		.uleb128 0x14
 477 01c2 64010000 		.4byte	0x164
 478 01c6 33000000 		.4byte	.LLST2
 479 01ca 15       		.uleb128 0x15
 480 01cb 57010000 		.4byte	0x157
 481 01cf F2000000 		.4byte	.LBB4
 482 01d3 00000000 		.4byte	.Ldebug_ranges0+0
 483 01d7 01       		.byte	0x1
 484 01d8 52       		.byte	0x52
 485 01d9 16       		.uleb128 0x16
 486 01da 18000000 		.4byte	.Ldebug_ranges0+0x18
 487 01de 17       		.uleb128 0x17
 488 01df 64010000 		.4byte	0x164
 489 01e3 00       		.byte	0
 490 01e4 00       		.byte	0
 491 01e5 00       		.byte	0
 492 01e6 18       		.uleb128 0x18
 493 01e7 6D703100 		.ascii	"mp1\000"
 494 01eb 01       		.byte	0x1
 495 01ec 3C       		.byte	0x3c
 496 01ed ED000000 		.4byte	0xed
 497 01f1 05       		.byte	0x5
 498 01f2 03       		.byte	0x3
 499 01f3 00000000 		.4byte	mp1
 500 01f7 19       		.uleb128 0x19
 501 01f8 76000000 		.4byte	0x76
 502 01fc 02020000 		.4byte	0x202
ARM GAS  /tmp/ccC2Cwnh.s 			page 10


 503 0200 1A       		.uleb128 0x1a
 504 0201 00       		.byte	0
 505 0202 1B       		.uleb128 0x1b
 506 0203 776100   		.ascii	"wa\000"
 507 0206 05       		.byte	0x5
 508 0207 B2       		.byte	0xb2
 509 0208 0E020000 		.4byte	0x20e
 510 020c 01       		.byte	0x1
 511 020d 01       		.byte	0x1
 512 020e 0C       		.uleb128 0xc
 513 020f F7010000 		.4byte	0x1f7
 514 0213 1C       		.uleb128 0x1c
 515 0214 E7000000 		.4byte	.LASF23
 516 0218 01       		.byte	0x1
 517 0219 65       		.byte	0x65
 518 021a 25020000 		.4byte	0x225
 519 021e 01       		.byte	0x1
 520 021f 05       		.byte	0x5
 521 0220 03       		.byte	0x3
 522 0221 00000000 		.4byte	testpools1
 523 0225 0C       		.uleb128 0xc
 524 0226 0A010000 		.4byte	0x10a
 525 022a 19       		.uleb128 0x19
 526 022b 3A020000 		.4byte	0x23a
 527 022f 3A020000 		.4byte	0x23a
 528 0233 1D       		.uleb128 0x1d
 529 0234 37000000 		.4byte	0x37
 530 0238 01       		.byte	0x1
 531 0239 00       		.byte	0
 532 023a 06       		.uleb128 0x6
 533 023b 04       		.byte	0x4
 534 023c 25020000 		.4byte	0x225
 535 0240 1C       		.uleb128 0x1c
 536 0241 76010000 		.4byte	.LASF24
 537 0245 01       		.byte	0x1
 538 0246 71       		.byte	0x71
 539 0247 52020000 		.4byte	0x252
 540 024b 01       		.byte	0x1
 541 024c 05       		.byte	0x5
 542 024d 03       		.byte	0x3
 543 024e 00000000 		.4byte	patternpools
 544 0252 0C       		.uleb128 0xc
 545 0253 2A020000 		.4byte	0x22a
 546 0257 00       		.byte	0
 547              		.section	.debug_abbrev,"",%progbits
 548              	.Ldebug_abbrev0:
 549 0000 01       		.uleb128 0x1
 550 0001 11       		.uleb128 0x11
 551 0002 01       		.byte	0x1
 552 0003 25       		.uleb128 0x25
 553 0004 0E       		.uleb128 0xe
 554 0005 13       		.uleb128 0x13
 555 0006 0B       		.uleb128 0xb
 556 0007 03       		.uleb128 0x3
 557 0008 0E       		.uleb128 0xe
 558 0009 11       		.uleb128 0x11
 559 000a 01       		.uleb128 0x1
ARM GAS  /tmp/ccC2Cwnh.s 			page 11


 560 000b 52       		.uleb128 0x52
 561 000c 01       		.uleb128 0x1
 562 000d 55       		.uleb128 0x55
 563 000e 06       		.uleb128 0x6
 564 000f 10       		.uleb128 0x10
 565 0010 06       		.uleb128 0x6
 566 0011 00       		.byte	0
 567 0012 00       		.byte	0
 568 0013 02       		.uleb128 0x2
 569 0014 24       		.uleb128 0x24
 570 0015 00       		.byte	0
 571 0016 0B       		.uleb128 0xb
 572 0017 0B       		.uleb128 0xb
 573 0018 3E       		.uleb128 0x3e
 574 0019 0B       		.uleb128 0xb
 575 001a 03       		.uleb128 0x3
 576 001b 08       		.uleb128 0x8
 577 001c 00       		.byte	0
 578 001d 00       		.byte	0
 579 001e 03       		.uleb128 0x3
 580 001f 16       		.uleb128 0x16
 581 0020 00       		.byte	0
 582 0021 03       		.uleb128 0x3
 583 0022 0E       		.uleb128 0xe
 584 0023 3A       		.uleb128 0x3a
 585 0024 0B       		.uleb128 0xb
 586 0025 3B       		.uleb128 0x3b
 587 0026 0B       		.uleb128 0xb
 588 0027 49       		.uleb128 0x49
 589 0028 13       		.uleb128 0x13
 590 0029 00       		.byte	0
 591 002a 00       		.byte	0
 592 002b 04       		.uleb128 0x4
 593 002c 24       		.uleb128 0x24
 594 002d 00       		.byte	0
 595 002e 0B       		.uleb128 0xb
 596 002f 0B       		.uleb128 0xb
 597 0030 3E       		.uleb128 0x3e
 598 0031 0B       		.uleb128 0xb
 599 0032 03       		.uleb128 0x3
 600 0033 0E       		.uleb128 0xe
 601 0034 00       		.byte	0
 602 0035 00       		.byte	0
 603 0036 05       		.uleb128 0x5
 604 0037 0F       		.uleb128 0xf
 605 0038 00       		.byte	0
 606 0039 0B       		.uleb128 0xb
 607 003a 0B       		.uleb128 0xb
 608 003b 00       		.byte	0
 609 003c 00       		.byte	0
 610 003d 06       		.uleb128 0x6
 611 003e 0F       		.uleb128 0xf
 612 003f 00       		.byte	0
 613 0040 0B       		.uleb128 0xb
 614 0041 0B       		.uleb128 0xb
 615 0042 49       		.uleb128 0x49
 616 0043 13       		.uleb128 0x13
ARM GAS  /tmp/ccC2Cwnh.s 			page 12


 617 0044 00       		.byte	0
 618 0045 00       		.byte	0
 619 0046 07       		.uleb128 0x7
 620 0047 15       		.uleb128 0x15
 621 0048 01       		.byte	0x1
 622 0049 27       		.uleb128 0x27
 623 004a 0C       		.uleb128 0xc
 624 004b 49       		.uleb128 0x49
 625 004c 13       		.uleb128 0x13
 626 004d 01       		.uleb128 0x1
 627 004e 13       		.uleb128 0x13
 628 004f 00       		.byte	0
 629 0050 00       		.byte	0
 630 0051 08       		.uleb128 0x8
 631 0052 05       		.uleb128 0x5
 632 0053 00       		.byte	0
 633 0054 49       		.uleb128 0x49
 634 0055 13       		.uleb128 0x13
 635 0056 00       		.byte	0
 636 0057 00       		.byte	0
 637 0058 09       		.uleb128 0x9
 638 0059 13       		.uleb128 0x13
 639 005a 01       		.byte	0x1
 640 005b 03       		.uleb128 0x3
 641 005c 0E       		.uleb128 0xe
 642 005d 0B       		.uleb128 0xb
 643 005e 0B       		.uleb128 0xb
 644 005f 3A       		.uleb128 0x3a
 645 0060 0B       		.uleb128 0xb
 646 0061 3B       		.uleb128 0x3b
 647 0062 0B       		.uleb128 0xb
 648 0063 01       		.uleb128 0x1
 649 0064 13       		.uleb128 0x13
 650 0065 00       		.byte	0
 651 0066 00       		.byte	0
 652 0067 0A       		.uleb128 0xa
 653 0068 0D       		.uleb128 0xd
 654 0069 00       		.byte	0
 655 006a 03       		.uleb128 0x3
 656 006b 0E       		.uleb128 0xe
 657 006c 3A       		.uleb128 0x3a
 658 006d 0B       		.uleb128 0xb
 659 006e 3B       		.uleb128 0x3b
 660 006f 0B       		.uleb128 0xb
 661 0070 49       		.uleb128 0x49
 662 0071 13       		.uleb128 0x13
 663 0072 38       		.uleb128 0x38
 664 0073 0A       		.uleb128 0xa
 665 0074 00       		.byte	0
 666 0075 00       		.byte	0
 667 0076 0B       		.uleb128 0xb
 668 0077 13       		.uleb128 0x13
 669 0078 01       		.byte	0x1
 670 0079 0B       		.uleb128 0xb
 671 007a 0B       		.uleb128 0xb
 672 007b 3A       		.uleb128 0x3a
 673 007c 0B       		.uleb128 0xb
ARM GAS  /tmp/ccC2Cwnh.s 			page 13


 674 007d 3B       		.uleb128 0x3b
 675 007e 0B       		.uleb128 0xb
 676 007f 01       		.uleb128 0x1
 677 0080 13       		.uleb128 0x13
 678 0081 00       		.byte	0
 679 0082 00       		.byte	0
 680 0083 0C       		.uleb128 0xc
 681 0084 26       		.uleb128 0x26
 682 0085 00       		.byte	0
 683 0086 49       		.uleb128 0x49
 684 0087 13       		.uleb128 0x13
 685 0088 00       		.byte	0
 686 0089 00       		.byte	0
 687 008a 0D       		.uleb128 0xd
 688 008b 15       		.uleb128 0x15
 689 008c 00       		.byte	0
 690 008d 27       		.uleb128 0x27
 691 008e 0C       		.uleb128 0xc
 692 008f 00       		.byte	0
 693 0090 00       		.byte	0
 694 0091 0E       		.uleb128 0xe
 695 0092 2E       		.uleb128 0x2e
 696 0093 01       		.byte	0x1
 697 0094 03       		.uleb128 0x3
 698 0095 0E       		.uleb128 0xe
 699 0096 3A       		.uleb128 0x3a
 700 0097 0B       		.uleb128 0xb
 701 0098 3B       		.uleb128 0x3b
 702 0099 0B       		.uleb128 0xb
 703 009a 27       		.uleb128 0x27
 704 009b 0C       		.uleb128 0xc
 705 009c 20       		.uleb128 0x20
 706 009d 0B       		.uleb128 0xb
 707 009e 01       		.uleb128 0x1
 708 009f 13       		.uleb128 0x13
 709 00a0 00       		.byte	0
 710 00a1 00       		.byte	0
 711 00a2 0F       		.uleb128 0xf
 712 00a3 34       		.uleb128 0x34
 713 00a4 00       		.byte	0
 714 00a5 03       		.uleb128 0x3
 715 00a6 08       		.uleb128 0x8
 716 00a7 3A       		.uleb128 0x3a
 717 00a8 0B       		.uleb128 0xb
 718 00a9 3B       		.uleb128 0x3b
 719 00aa 0B       		.uleb128 0xb
 720 00ab 49       		.uleb128 0x49
 721 00ac 13       		.uleb128 0x13
 722 00ad 00       		.byte	0
 723 00ae 00       		.byte	0
 724 00af 10       		.uleb128 0x10
 725 00b0 2E       		.uleb128 0x2e
 726 00b1 01       		.byte	0x1
 727 00b2 03       		.uleb128 0x3
 728 00b3 0E       		.uleb128 0xe
 729 00b4 3A       		.uleb128 0x3a
 730 00b5 0B       		.uleb128 0xb
ARM GAS  /tmp/ccC2Cwnh.s 			page 14


 731 00b6 3B       		.uleb128 0x3b
 732 00b7 0B       		.uleb128 0xb
 733 00b8 27       		.uleb128 0x27
 734 00b9 0C       		.uleb128 0xc
 735 00ba 49       		.uleb128 0x49
 736 00bb 13       		.uleb128 0x13
 737 00bc 11       		.uleb128 0x11
 738 00bd 01       		.uleb128 0x1
 739 00be 12       		.uleb128 0x12
 740 00bf 01       		.uleb128 0x1
 741 00c0 40       		.uleb128 0x40
 742 00c1 0A       		.uleb128 0xa
 743 00c2 01       		.uleb128 0x1
 744 00c3 13       		.uleb128 0x13
 745 00c4 00       		.byte	0
 746 00c5 00       		.byte	0
 747 00c6 11       		.uleb128 0x11
 748 00c7 05       		.uleb128 0x5
 749 00c8 00       		.byte	0
 750 00c9 03       		.uleb128 0x3
 751 00ca 0E       		.uleb128 0xe
 752 00cb 3A       		.uleb128 0x3a
 753 00cc 0B       		.uleb128 0xb
 754 00cd 3B       		.uleb128 0x3b
 755 00ce 0B       		.uleb128 0xb
 756 00cf 49       		.uleb128 0x49
 757 00d0 13       		.uleb128 0x13
 758 00d1 02       		.uleb128 0x2
 759 00d2 06       		.uleb128 0x6
 760 00d3 00       		.byte	0
 761 00d4 00       		.byte	0
 762 00d5 12       		.uleb128 0x12
 763 00d6 2E       		.uleb128 0x2e
 764 00d7 00       		.byte	0
 765 00d8 03       		.uleb128 0x3
 766 00d9 0E       		.uleb128 0xe
 767 00da 3A       		.uleb128 0x3a
 768 00db 0B       		.uleb128 0xb
 769 00dc 3B       		.uleb128 0x3b
 770 00dd 0B       		.uleb128 0xb
 771 00de 27       		.uleb128 0x27
 772 00df 0C       		.uleb128 0xc
 773 00e0 11       		.uleb128 0x11
 774 00e1 01       		.uleb128 0x1
 775 00e2 12       		.uleb128 0x12
 776 00e3 01       		.uleb128 0x1
 777 00e4 40       		.uleb128 0x40
 778 00e5 0A       		.uleb128 0xa
 779 00e6 00       		.byte	0
 780 00e7 00       		.byte	0
 781 00e8 13       		.uleb128 0x13
 782 00e9 2E       		.uleb128 0x2e
 783 00ea 01       		.byte	0x1
 784 00eb 31       		.uleb128 0x31
 785 00ec 13       		.uleb128 0x13
 786 00ed 11       		.uleb128 0x11
 787 00ee 01       		.uleb128 0x1
ARM GAS  /tmp/ccC2Cwnh.s 			page 15


 788 00ef 12       		.uleb128 0x12
 789 00f0 01       		.uleb128 0x1
 790 00f1 40       		.uleb128 0x40
 791 00f2 06       		.uleb128 0x6
 792 00f3 01       		.uleb128 0x1
 793 00f4 13       		.uleb128 0x13
 794 00f5 00       		.byte	0
 795 00f6 00       		.byte	0
 796 00f7 14       		.uleb128 0x14
 797 00f8 34       		.uleb128 0x34
 798 00f9 00       		.byte	0
 799 00fa 31       		.uleb128 0x31
 800 00fb 13       		.uleb128 0x13
 801 00fc 02       		.uleb128 0x2
 802 00fd 06       		.uleb128 0x6
 803 00fe 00       		.byte	0
 804 00ff 00       		.byte	0
 805 0100 15       		.uleb128 0x15
 806 0101 1D       		.uleb128 0x1d
 807 0102 01       		.byte	0x1
 808 0103 31       		.uleb128 0x31
 809 0104 13       		.uleb128 0x13
 810 0105 52       		.uleb128 0x52
 811 0106 01       		.uleb128 0x1
 812 0107 55       		.uleb128 0x55
 813 0108 06       		.uleb128 0x6
 814 0109 58       		.uleb128 0x58
 815 010a 0B       		.uleb128 0xb
 816 010b 59       		.uleb128 0x59
 817 010c 0B       		.uleb128 0xb
 818 010d 00       		.byte	0
 819 010e 00       		.byte	0
 820 010f 16       		.uleb128 0x16
 821 0110 0B       		.uleb128 0xb
 822 0111 01       		.byte	0x1
 823 0112 55       		.uleb128 0x55
 824 0113 06       		.uleb128 0x6
 825 0114 00       		.byte	0
 826 0115 00       		.byte	0
 827 0116 17       		.uleb128 0x17
 828 0117 34       		.uleb128 0x34
 829 0118 00       		.byte	0
 830 0119 31       		.uleb128 0x31
 831 011a 13       		.uleb128 0x13
 832 011b 00       		.byte	0
 833 011c 00       		.byte	0
 834 011d 18       		.uleb128 0x18
 835 011e 34       		.uleb128 0x34
 836 011f 00       		.byte	0
 837 0120 03       		.uleb128 0x3
 838 0121 08       		.uleb128 0x8
 839 0122 3A       		.uleb128 0x3a
 840 0123 0B       		.uleb128 0xb
 841 0124 3B       		.uleb128 0x3b
 842 0125 0B       		.uleb128 0xb
 843 0126 49       		.uleb128 0x49
 844 0127 13       		.uleb128 0x13
ARM GAS  /tmp/ccC2Cwnh.s 			page 16


 845 0128 02       		.uleb128 0x2
 846 0129 0A       		.uleb128 0xa
 847 012a 00       		.byte	0
 848 012b 00       		.byte	0
 849 012c 19       		.uleb128 0x19
 850 012d 01       		.uleb128 0x1
 851 012e 01       		.byte	0x1
 852 012f 49       		.uleb128 0x49
 853 0130 13       		.uleb128 0x13
 854 0131 01       		.uleb128 0x1
 855 0132 13       		.uleb128 0x13
 856 0133 00       		.byte	0
 857 0134 00       		.byte	0
 858 0135 1A       		.uleb128 0x1a
 859 0136 21       		.uleb128 0x21
 860 0137 00       		.byte	0
 861 0138 00       		.byte	0
 862 0139 00       		.byte	0
 863 013a 1B       		.uleb128 0x1b
 864 013b 34       		.uleb128 0x34
 865 013c 00       		.byte	0
 866 013d 03       		.uleb128 0x3
 867 013e 08       		.uleb128 0x8
 868 013f 3A       		.uleb128 0x3a
 869 0140 0B       		.uleb128 0xb
 870 0141 3B       		.uleb128 0x3b
 871 0142 0B       		.uleb128 0xb
 872 0143 49       		.uleb128 0x49
 873 0144 13       		.uleb128 0x13
 874 0145 3F       		.uleb128 0x3f
 875 0146 0C       		.uleb128 0xc
 876 0147 3C       		.uleb128 0x3c
 877 0148 0C       		.uleb128 0xc
 878 0149 00       		.byte	0
 879 014a 00       		.byte	0
 880 014b 1C       		.uleb128 0x1c
 881 014c 34       		.uleb128 0x34
 882 014d 00       		.byte	0
 883 014e 03       		.uleb128 0x3
 884 014f 0E       		.uleb128 0xe
 885 0150 3A       		.uleb128 0x3a
 886 0151 0B       		.uleb128 0xb
 887 0152 3B       		.uleb128 0x3b
 888 0153 0B       		.uleb128 0xb
 889 0154 49       		.uleb128 0x49
 890 0155 13       		.uleb128 0x13
 891 0156 3F       		.uleb128 0x3f
 892 0157 0C       		.uleb128 0xc
 893 0158 02       		.uleb128 0x2
 894 0159 0A       		.uleb128 0xa
 895 015a 00       		.byte	0
 896 015b 00       		.byte	0
 897 015c 1D       		.uleb128 0x1d
 898 015d 21       		.uleb128 0x21
 899 015e 00       		.byte	0
 900 015f 49       		.uleb128 0x49
 901 0160 13       		.uleb128 0x13
ARM GAS  /tmp/ccC2Cwnh.s 			page 17


 902 0161 2F       		.uleb128 0x2f
 903 0162 0B       		.uleb128 0xb
 904 0163 00       		.byte	0
 905 0164 00       		.byte	0
 906 0165 00       		.byte	0
 907              		.section	.debug_loc,"",%progbits
 908              	.Ldebug_loc0:
 909              	.LLST0:
 910 0000 00000000 		.4byte	.LVL0
 911 0004 02000000 		.4byte	.LVL1
 912 0008 0100     		.2byte	0x1
 913 000a 50       		.byte	0x50
 914 000b 00000000 		.4byte	0
 915 000f 00000000 		.4byte	0
 916              	.LLST1:
 917 0013 00000000 		.4byte	.LFB9
 918 0017 02000000 		.4byte	.LCFI0
 919 001b 0200     		.2byte	0x2
 920 001d 7D       		.byte	0x7d
 921 001e 00       		.sleb128 0
 922 001f 02000000 		.4byte	.LCFI0
 923 0023 26010000 		.4byte	.LFE9
 924 0027 0200     		.2byte	0x2
 925 0029 7D       		.byte	0x7d
 926 002a 08       		.sleb128 8
 927 002b 00000000 		.4byte	0
 928 002f 00000000 		.4byte	0
 929              	.LLST2:
 930 0033 00000000 		.4byte	.LVL2
 931 0037 18000000 		.4byte	.LVL3
 932 003b 0200     		.2byte	0x2
 933 003d 30       		.byte	0x30
 934 003e 9F       		.byte	0x9f
 935 003f 18000000 		.4byte	.LVL3
 936 0043 26000000 		.4byte	.LVL4
 937 0047 0200     		.2byte	0x2
 938 0049 31       		.byte	0x31
 939 004a 9F       		.byte	0x9f
 940 004b 26000000 		.4byte	.LVL4
 941 004f 34000000 		.4byte	.LVL5
 942 0053 0200     		.2byte	0x2
 943 0055 32       		.byte	0x32
 944 0056 9F       		.byte	0x9f
 945 0057 34000000 		.4byte	.LVL5
 946 005b 42000000 		.4byte	.LVL6
 947 005f 0200     		.2byte	0x2
 948 0061 33       		.byte	0x33
 949 0062 9F       		.byte	0x9f
 950 0063 42000000 		.4byte	.LVL6
 951 0067 50000000 		.4byte	.LVL7
 952 006b 0200     		.2byte	0x2
 953 006d 34       		.byte	0x34
 954 006e 9F       		.byte	0x9f
 955 006f 50000000 		.4byte	.LVL7
 956 0073 6C000000 		.4byte	.LVL8
 957 0077 0200     		.2byte	0x2
 958 0079 35       		.byte	0x35
ARM GAS  /tmp/ccC2Cwnh.s 			page 18


 959 007a 9F       		.byte	0x9f
 960 007b 6C000000 		.4byte	.LVL8
 961 007f 86000000 		.4byte	.LVL9
 962 0083 0200     		.2byte	0x2
 963 0085 31       		.byte	0x31
 964 0086 9F       		.byte	0x9f
 965 0087 86000000 		.4byte	.LVL9
 966 008b A0000000 		.4byte	.LVL10
 967 008f 0200     		.2byte	0x2
 968 0091 32       		.byte	0x32
 969 0092 9F       		.byte	0x9f
 970 0093 A0000000 		.4byte	.LVL10
 971 0097 BA000000 		.4byte	.LVL11
 972 009b 0200     		.2byte	0x2
 973 009d 33       		.byte	0x33
 974 009e 9F       		.byte	0x9f
 975 009f BA000000 		.4byte	.LVL11
 976 00a3 D4000000 		.4byte	.LVL12
 977 00a7 0200     		.2byte	0x2
 978 00a9 34       		.byte	0x34
 979 00aa 9F       		.byte	0x9f
 980 00ab D4000000 		.4byte	.LVL12
 981 00af F0000000 		.4byte	.LVL13
 982 00b3 0200     		.2byte	0x2
 983 00b5 35       		.byte	0x35
 984 00b6 9F       		.byte	0x9f
 985 00b7 F2000000 		.4byte	.LVL14
 986 00bb 26010000 		.4byte	.LFE9
 987 00bf 0200     		.2byte	0x2
 988 00c1 35       		.byte	0x35
 989 00c2 9F       		.byte	0x9f
 990 00c3 00000000 		.4byte	0
 991 00c7 00000000 		.4byte	0
 992              		.section	.debug_aranges,"",%progbits
 993 0000 2C000000 		.4byte	0x2c
 994 0004 0200     		.2byte	0x2
 995 0006 00000000 		.4byte	.Ldebug_info0
 996 000a 04       		.byte	0x4
 997 000b 00       		.byte	0
 998 000c 0000     		.2byte	0
 999 000e 0000     		.2byte	0
 1000 0010 00000000 		.4byte	.LFB7
 1001 0014 04000000 		.4byte	.LFE7-.LFB7
 1002 0018 00000000 		.4byte	.LFB8
 1003 001c 12000000 		.4byte	.LFE8-.LFB8
 1004 0020 00000000 		.4byte	.LFB9
 1005 0024 26010000 		.4byte	.LFE9-.LFB9
 1006 0028 00000000 		.4byte	0
 1007 002c 00000000 		.4byte	0
 1008              		.section	.debug_ranges,"",%progbits
 1009              	.Ldebug_ranges0:
 1010 0000 F2000000 		.4byte	.LBB4
 1011 0004 1E010000 		.4byte	.LBE4
 1012 0008 22010000 		.4byte	.LBB7
 1013 000c 26010000 		.4byte	.LBE7
 1014 0010 00000000 		.4byte	0
 1015 0014 00000000 		.4byte	0
ARM GAS  /tmp/ccC2Cwnh.s 			page 19


 1016 0018 F2000000 		.4byte	.LBB5
 1017 001c 1E010000 		.4byte	.LBE5
 1018 0020 22010000 		.4byte	.LBB6
 1019 0024 26010000 		.4byte	.LBE6
 1020 0028 00000000 		.4byte	0
 1021 002c 00000000 		.4byte	0
 1022 0030 00000000 		.4byte	.LFB7
 1023 0034 04000000 		.4byte	.LFE7
 1024 0038 00000000 		.4byte	.LFB8
 1025 003c 12000000 		.4byte	.LFE8
 1026 0040 00000000 		.4byte	.LFB9
 1027 0044 26010000 		.4byte	.LFE9
 1028 0048 00000000 		.4byte	0
 1029 004c 00000000 		.4byte	0
 1030              		.section	.debug_line,"",%progbits
 1031              	.Ldebug_line0:
 1032 0000 1D010000 		.section	.debug_str,"MS",%progbits,1
 1032      0200D800 
 1032      00000201 
 1032      FB0E0D00 
 1032      01010101 
 1033              	.LASF9:
 1034 0000 73697A65 		.ascii	"size_t\000"
 1034      5F7400
 1035              	.LASF30:
 1036 0007 706F6F6C 		.ascii	"pools1_setup\000"
 1036      73315F73 
 1036      65747570 
 1036      00
 1037              	.LASF20:
 1038 0014 73657475 		.ascii	"setup\000"
 1038      7000
 1039              	.LASF13:
 1040 001a 6D705F6F 		.ascii	"mp_object_size\000"
 1040      626A6563 
 1040      745F7369 
 1040      7A6500
 1041              	.LASF22:
 1042 0029 65786563 		.ascii	"execute\000"
 1042      75746500 
 1043              	.LASF18:
 1044 0031 74657374 		.ascii	"testcase\000"
 1044      63617365 
 1044      00
 1045              	.LASF17:
 1046 003a 706F6F6C 		.ascii	"pool_header\000"
 1046      5F686561 
 1046      64657200 
 1047              	.LASF27:
 1048 0046 706F6F6C 		.ascii	"pools1_execute\000"
 1048      73315F65 
 1048      78656375 
 1048      746500
 1049              	.LASF29:
 1050 0055 73697A65 		.ascii	"size\000"
 1050      00
 1051              	.LASF6:
ARM GAS  /tmp/ccC2Cwnh.s 			page 20


 1052 005a 6C6F6E67 		.ascii	"long unsigned int\000"
 1052      20756E73 
 1052      69676E65 
 1052      6420696E 
 1052      7400
 1053              	.LASF21:
 1054 006c 74656172 		.ascii	"teardown\000"
 1054      646F776E 
 1054      00
 1055              	.LASF4:
 1056 0075 73686F72 		.ascii	"short unsigned int\000"
 1056      7420756E 
 1056      7369676E 
 1056      65642069 
 1056      6E7400
 1057              	.LASF28:
 1058 0088 6E756C6C 		.ascii	"null_provider\000"
 1058      5F70726F 
 1058      76696465 
 1058      7200
 1059              	.LASF25:
 1060 0096 474E5520 		.ascii	"GNU C 4.6.3\000"
 1060      4320342E 
 1060      362E3300 
 1061              	.LASF2:
 1062 00a2 756E7369 		.ascii	"unsigned char\000"
 1062      676E6564 
 1062      20636861 
 1062      7200
 1063              	.LASF26:
 1064 00b0 2F6F7074 		.ascii	"/opt/ChibiOS/ChibiOS_2.4.4/test/testpools.c\000"
 1064      2F436869 
 1064      62694F53 
 1064      2F436869 
 1064      62694F53 
 1065              	.LASF15:
 1066 00dc 4D656D6F 		.ascii	"MemoryPool\000"
 1066      7279506F 
 1066      6F6C00
 1067              	.LASF23:
 1068 00e7 74657374 		.ascii	"testpools1\000"
 1068      706F6F6C 
 1068      733100
 1069              	.LASF0:
 1070 00f2 756E7369 		.ascii	"unsigned int\000"
 1070      676E6564 
 1070      20696E74 
 1070      00
 1071              	.LASF8:
 1072 00ff 6C6F6E67 		.ascii	"long long unsigned int\000"
 1072      206C6F6E 
 1072      6720756E 
 1072      7369676E 
 1072      65642069 
 1073              	.LASF11:
 1074 0116 70685F6E 		.ascii	"ph_next\000"
 1074      65787400 
ARM GAS  /tmp/ccC2Cwnh.s 			page 21


 1075              	.LASF7:
 1076 011e 6C6F6E67 		.ascii	"long long int\000"
 1076      206C6F6E 
 1076      6720696E 
 1076      7400
 1077              	.LASF19:
 1078 012c 6E616D65 		.ascii	"name\000"
 1078      00
 1079              	.LASF10:
 1080 0131 6D656D67 		.ascii	"memgetfunc_t\000"
 1080      65746675 
 1080      6E635F74 
 1080      00
 1081              	.LASF14:
 1082 013e 6D705F70 		.ascii	"mp_provider\000"
 1082      726F7669 
 1082      64657200 
 1083              	.LASF3:
 1084 014a 73686F72 		.ascii	"short int\000"
 1084      7420696E 
 1084      7400
 1085              	.LASF5:
 1086 0154 6C6F6E67 		.ascii	"long int\000"
 1086      20696E74 
 1086      00
 1087              	.LASF16:
 1088 015d 63686172 		.ascii	"char\000"
 1088      00
 1089              	.LASF1:
 1090 0162 7369676E 		.ascii	"signed char\000"
 1090      65642063 
 1090      68617200 
 1091              	.LASF12:
 1092 016e 6D705F6E 		.ascii	"mp_next\000"
 1092      65787400 
 1093              	.LASF24:
 1094 0176 70617474 		.ascii	"patternpools\000"
 1094      65726E70 
 1094      6F6F6C73 
 1094      00
 1095              		.ident	"GCC: (Sourcery CodeBench Lite 2012.03-56) 4.6.3"
ARM GAS  /tmp/ccC2Cwnh.s 			page 22


DEFINED SYMBOLS
                            *ABS*:00000000 testpools.c
     /tmp/ccC2Cwnh.s:21     .text.null_provider:00000000 $t
     /tmp/ccC2Cwnh.s:26     .text.null_provider:00000000 null_provider
     /tmp/ccC2Cwnh.s:43     .text.pools1_setup:00000000 $t
     /tmp/ccC2Cwnh.s:48     .text.pools1_setup:00000000 pools1_setup
     /tmp/ccC2Cwnh.s:224    .data.mp1:00000000 .LANCHOR0
     /tmp/ccC2Cwnh.s:67     .text.pools1_execute:00000000 $t
     /tmp/ccC2Cwnh.s:72     .text.pools1_execute:00000000 pools1_execute
     /tmp/ccC2Cwnh.s:219    .rodata.patternpools:00000000 patternpools
     /tmp/ccC2Cwnh.s:235    .rodata.testpools1:00000000 testpools1
     /tmp/ccC2Cwnh.s:212    .rodata.str1.4:00000000 $d
     /tmp/ccC2Cwnh.s:216    .rodata.patternpools:00000000 $d
     /tmp/ccC2Cwnh.s:223    .data.mp1:00000000 $d
     /tmp/ccC2Cwnh.s:227    .data.mp1:00000000 mp1
     /tmp/ccC2Cwnh.s:232    .rodata.testpools1:00000000 $d
                     .debug_frame:00000010 $d

UNDEFINED SYMBOLS
chPoolInit
wa
chPoolFree
chPoolAlloc
_test_assert
