ARM GAS  /tmp/ccG2fV4i.s 			page 1


   1              		.syntax unified
   2              		.cpu cortex-m4
   3              		.eabi_attribute 27, 3
   4              		.eabi_attribute 28, 1
   5              		.fpu fpv4-sp-d16
   6              		.eabi_attribute 20, 1
   7              		.eabi_attribute 21, 1
   8              		.eabi_attribute 23, 3
   9              		.eabi_attribute 24, 1
  10              		.eabi_attribute 25, 1
  11              		.eabi_attribute 26, 1
  12              		.eabi_attribute 30, 2
  13              		.eabi_attribute 34, 1
  14              		.eabi_attribute 18, 4
  15              		.thumb
  16              		.file	"TowersAndFactories.c"
  17              		.text
  18              	.Ltext0:
  19              		.cfi_sections	.debug_frame
  20              		.section	.text.writeTowerEventToBuffer,"ax",%progbits
  21              		.align	2
  22              		.p2align 4,,15
  23              		.global	writeTowerEventToBuffer
  24              		.thumb
  25              		.thumb_func
  26              		.type	writeTowerEventToBuffer, %function
  27              	writeTowerEventToBuffer:
  28              	.LFB117:
  29              		.file 1 "./src/TowersAndFactories.c"
  30              		.loc 1 26 0
  31              		.cfi_startproc
  32              		@ args = 0, pretend = 0, frame = 24
  33              		@ frame_needed = 0, uses_anonymous_args = 0
  34              	.LVL0:
  35 0000 00B5     		push	{lr}
  36              	.LCFI0:
  37              		.cfi_def_cfa_offset 4
  38              		.cfi_offset 14, -4
  39              		.loc 1 28 0
  40 0002 40F20001 		movw	r1, #:lower16:.LC0
  41              		.loc 1 26 0
  42 0006 87B0     		sub	sp, sp, #28
  43              	.LCFI1:
  44              		.cfi_def_cfa_offset 32
  45              		.loc 1 28 0
  46 0008 421C     		adds	r2, r0, #1
  47 000a C0F20001 		movt	r1, #:upper16:.LC0
  48 000e 01A8     		add	r0, sp, #4
  49              	.LVL1:
  50 0010 FFF7FEFF 		bl	chsprintf
  51              	.LVL2:
  52              		.loc 1 29 0
  53 0014 40F20000 		movw	r0, #:lower16:outputBuffer
  54 0018 01A9     		add	r1, sp, #4
  55 001a C0F20000 		movt	r0, #:upper16:outputBuffer
  56 001e FFF7FEFF 		bl	bufferPutString
  57              		.loc 1 30 0
ARM GAS  /tmp/ccG2fV4i.s 			page 2


  58 0022 07B0     		add	sp, sp, #28
  59 0024 00BD     		pop	{pc}
  60              		.cfi_endproc
  61              	.LFE117:
  62              		.size	writeTowerEventToBuffer, .-writeTowerEventToBuffer
  63 0026 00BFAFF3 		.section	.text.towerFactoriesThread,"ax",%progbits
  63      0080AFF3 
  63      0080
  64              		.align	2
  65              		.p2align 4,,15
  66              		.thumb
  67              		.thumb_func
  68              		.type	towerFactoriesThread, %function
  69              	towerFactoriesThread:
  70              	.LFB118:
  71              		.loc 1 34 0
  72              		.cfi_startproc
  73              		@ args = 0, pretend = 0, frame = 16
  74              		@ frame_needed = 0, uses_anonymous_args = 0
  75              	.LVL3:
  76 0000 F0B5     		push	{r4, r5, r6, r7, lr}
  77              	.LCFI2:
  78              		.cfi_def_cfa_offset 20
  79              		.cfi_offset 14, -4
  80              		.cfi_offset 7, -8
  81              		.cfi_offset 6, -12
  82              		.cfi_offset 5, -16
  83              		.cfi_offset 4, -20
  84 0002 85B0     		sub	sp, sp, #20
  85              	.LCFI3:
  86              		.cfi_def_cfa_offset 40
  87              		.loc 1 43 0
  88 0004 0023     		movs	r3, #0
  89              		.loc 1 51 0
  90 0006 4FF44065 		mov	r5, #3072
  91              		.loc 1 43 0
  92 000a 1C46     		mov	r4, r3
  93 000c 0093     		str	r3, [sp, #0]
  94              	.LVL4:
  95 000e 0193     		str	r3, [sp, #4]
  96              	.LVL5:
  97 0010 0293     		str	r3, [sp, #8]
  98              	.LVL6:
  99 0012 0393     		str	r3, [sp, #12]
 100              	.LVL7:
 101              		.loc 1 48 0
 102 0014 1E46     		mov	r6, r3
 103              		.loc 1 51 0
 104 0016 C4F20205 		movt	r5, 16386
 105              		.loc 1 54 0
 106 001a 0127     		movs	r7, #1
 107              	.LVL8:
 108              	.L8:
 109              		.loc 1 48 0 discriminator 1
 110 001c 032C     		cmp	r4, #3
 111 001e 03DD     		ble	.L6
 112              		.loc 1 62 0
ARM GAS  /tmp/ccG2fV4i.s 			page 3


 113 0020 6420     		movs	r0, #100
 114 0022 FFF7FEFF 		bl	chThdSleep
 115              		.loc 1 48 0
 116 0026 0024     		movs	r4, #0
 117              	.LVL9:
 118              	.L6:
 119              		.loc 1 51 0
 120 0028 2969     		ldr	r1, [r5, #16]
 121              	.LVL10:
 122              		.loc 1 52 0
 123 002a 04AA     		add	r2, sp, #16
 124              		.loc 1 51 0
 125 002c 21FA04F0 		lsr	r0, r1, r4
 126              		.loc 1 52 0
 127 0030 02EB8403 		add	r3, r2, r4, lsl #2
 128 0034 10F0010F 		tst	r0, #1
 129 0038 53F8102C 		ldr	r2, [r3, #-16]
 130 003c 04D0     		beq	.L10
 131              		.loc 1 57 0 discriminator 1
 132 003e 0AB1     		cbz	r2, .L5
 133              		.loc 1 59 0
 134 0040 43F8106C 		str	r6, [r3, #-16]
 135              	.L5:
 136              		.loc 1 48 0
 137 0044 0134     		adds	r4, r4, #1
 138              	.LVL11:
 139 0046 E9E7     		b	.L8
 140              	.LVL12:
 141              	.L10:
 142              		.loc 1 52 0 discriminator 1
 143 0048 002A     		cmp	r2, #0
 144 004a FBD1     		bne	.L5
 145              		.loc 1 55 0
 146 004c 2046     		mov	r0, r4
 147              		.loc 1 54 0
 148 004e 43F8107C 		str	r7, [r3, #-16]
 149              		.loc 1 55 0
 150 0052 FFF7FEFF 		bl	writeTowerEventToBuffer
 151              	.LVL13:
 152              		.loc 1 48 0
 153 0056 0134     		adds	r4, r4, #1
 154 0058 E0E7     		b	.L8
 155              		.cfi_endproc
 156              	.LFE118:
 157              		.size	towerFactoriesThread, .-towerFactoriesThread
 158 005a 00BFAFF3 		.section	.text.startTowersAndFactoriesThread,"ax",%progbits
 158      0080
 159              		.align	2
 160              		.p2align 4,,15
 161              		.global	startTowersAndFactoriesThread
 162              		.thumb
 163              		.thumb_func
 164              		.type	startTowersAndFactoriesThread, %function
 165              	startTowersAndFactoriesThread:
 166              	.LFB119:
 167              		.loc 1 68 0
 168              		.cfi_startproc
ARM GAS  /tmp/ccG2fV4i.s 			page 4


 169              		@ args = 0, pretend = 0, frame = 0
 170              		@ frame_needed = 0, uses_anonymous_args = 0
 171 0000 10B5     		push	{r4, lr}
 172              	.LCFI4:
 173              		.cfi_def_cfa_offset 8
 174              		.cfi_offset 14, -4
 175              		.cfi_offset 4, -8
 176              		.loc 1 69 0
 177 0002 40F20000 		movw	r0, #:lower16:.LANCHOR0
 178              		.loc 1 68 0
 179 0006 82B0     		sub	sp, sp, #8
 180              	.LCFI5:
 181              		.cfi_def_cfa_offset 16
 182              		.loc 1 69 0
 183 0008 40F20003 		movw	r3, #:lower16:towerFactoriesThread
 184 000c 0024     		movs	r4, #0
 185 000e 4FF4D871 		mov	r1, #432
 186 0012 4022     		movs	r2, #64
 187 0014 C0F20003 		movt	r3, #:upper16:towerFactoriesThread
 188 0018 C0F20000 		movt	r0, #:upper16:.LANCHOR0
 189 001c 0094     		str	r4, [sp, #0]
 190 001e FFF7FEFF 		bl	chThdCreateStatic
 191              		.loc 1 72 0
 192 0022 02B0     		add	sp, sp, #8
 193 0024 10BD     		pop	{r4, pc}
 194              		.cfi_endproc
 195              	.LFE119:
 196              		.size	startTowersAndFactoriesThread, .-startTowersAndFactoriesThread
 197 0026 00BFAFF3 		.section	.rodata.str1.4,"aMS",%progbits,1
 197      0080AFF3 
 197      0080
 198              		.align	2
 199              	.LC0:
 200 0000 5B544F57 		.ascii	"[TOWER] destroyed %d\000"
 200      45525D20 
 200      64657374 
 200      726F7965 
 200      64202564 
 201 0015 000000   		.section	.bss.TowersAndFactoriesWorkingArea,"aw",%nobits
 202              		.align	3
 203              		.set	.LANCHOR0,. + 0
 204              		.type	TowersAndFactoriesWorkingArea, %object
 205              		.size	TowersAndFactoriesWorkingArea, 432
 206              	TowersAndFactoriesWorkingArea:
 207 0000 00000000 		.space	432
 207      00000000 
 207      00000000 
 207      00000000 
 207      00000000 
 208              		.text
 209              	.Letext0:
 210              		.file 2 "/opt/arm/bin/../lib/gcc/arm-none-eabi/4.6.3/../../../../arm-none-eabi/include/stdint.h"
 211              		.file 3 "/opt/ChibiOS/ChibiOS_2.4.4/os/ports/GCC/ARMCMx/chtypes.h"
 212              		.file 4 "/opt/ChibiOS/ChibiOS_2.4.4/os/kernel/include/chlists.h"
 213              		.file 5 "/opt/ChibiOS/ChibiOS_2.4.4/os/kernel/include/chthreads.h"
 214              		.file 6 "/opt/ChibiOS/ChibiOS_2.4.4/os/ports/GCC/ARMCMx/chcore_v7m.h"
 215              		.file 7 "/opt/ChibiOS/ChibiOS_2.4.4/os/kernel/include/chmtx.h"
ARM GAS  /tmp/ccG2fV4i.s 			page 5


 216              		.file 8 "/opt/ChibiOS/ChibiOS_2.4.4/os/hal/platforms/STM32/GPIOv2/pal_lld.h"
 217              		.file 9 "./include/CircularBuffer.h"
 218              		.file 10 "/opt/ChibiOS/ChibiOS_2.4.4/os/ports/common/ARMCMx/CMSIS/include/core_cm4.h"
 219              		.file 11 "./include/FirmwareSpykee.h"